
ECE500_2025_Fall_Jordan_Thacker.elf:     file format elf32-littlearm

Sections:
Idx Name          Size      VMA       LMA       File off  Algn
  0 .isr_vector   000000bc  08000000  08000000  00001000  2**0
                  CONTENTS, ALLOC, LOAD, READONLY, DATA
  1 .text         00009568  080000bc  080000bc  000010bc  2**2
                  CONTENTS, ALLOC, LOAD, READONLY, CODE
  2 .rodata       00000624  08009628  08009628  0000a628  2**3
                  CONTENTS, ALLOC, LOAD, READONLY, DATA
  3 .ARM.extab    00000000  08009c4c  08009c4c  0000b1d8  2**0
                  CONTENTS, READONLY
  4 .ARM          00000008  08009c4c  08009c4c  0000ac4c  2**2
                  CONTENTS, ALLOC, LOAD, READONLY, DATA
  5 .preinit_array 00000000  08009c54  08009c54  0000b1d8  2**0
                  CONTENTS, ALLOC, LOAD, DATA
  6 .init_array   00000004  08009c54  08009c54  0000ac54  2**2
                  CONTENTS, ALLOC, LOAD, READONLY, DATA
  7 .fini_array   00000004  08009c58  08009c58  0000ac58  2**2
                  CONTENTS, ALLOC, LOAD, READONLY, DATA
  8 .data         000001d8  20000000  08009c5c  0000b000  2**2
                  CONTENTS, ALLOC, LOAD, DATA
  9 .bss          00000374  200001d8  08009e34  0000b1d8  2**2
                  ALLOC
 10 ._user_heap_stack 00000604  2000054c  08009e34  0000b54c  2**0
                  ALLOC
 11 .ARM.attributes 00000028  00000000  00000000  0000b1d8  2**0
                  CONTENTS, READONLY
 12 .debug_info   0000eb48  00000000  00000000  0000b200  2**0
                  CONTENTS, READONLY, DEBUGGING, OCTETS
 13 .debug_abbrev 0000286e  00000000  00000000  00019d48  2**0
                  CONTENTS, READONLY, DEBUGGING, OCTETS
 14 .debug_aranges 00000c98  00000000  00000000  0001c5b8  2**3
                  CONTENTS, READONLY, DEBUGGING, OCTETS
 15 .debug_rnglists 000009c6  00000000  00000000  0001d250  2**0
                  CONTENTS, READONLY, DEBUGGING, OCTETS
 16 .debug_macro  00019a13  00000000  00000000  0001dc16  2**0
                  CONTENTS, READONLY, DEBUGGING, OCTETS
 17 .debug_line   000115f1  00000000  00000000  00037629  2**0
                  CONTENTS, READONLY, DEBUGGING, OCTETS
 18 .debug_str    0009af1b  00000000  00000000  00048c1a  2**0
                  CONTENTS, READONLY, DEBUGGING, OCTETS
 19 .comment      00000043  00000000  00000000  000e3b35  2**0
                  CONTENTS, READONLY
 20 .debug_frame  00003cac  00000000  00000000  000e3b78  2**2
                  CONTENTS, READONLY, DEBUGGING, OCTETS
 21 .debug_line_str 0000007b  00000000  00000000  000e7824  2**0
                  CONTENTS, READONLY, DEBUGGING, OCTETS

Disassembly of section .text:

080000bc <__do_global_dtors_aux>:
 80000bc:	b510      	push	{r4, lr}
 80000be:	4c06      	ldr	r4, [pc, #24]	@ (80000d8 <__do_global_dtors_aux+0x1c>)
 80000c0:	7823      	ldrb	r3, [r4, #0]
 80000c2:	2b00      	cmp	r3, #0
 80000c4:	d107      	bne.n	80000d6 <__do_global_dtors_aux+0x1a>
 80000c6:	4b05      	ldr	r3, [pc, #20]	@ (80000dc <__do_global_dtors_aux+0x20>)
 80000c8:	2b00      	cmp	r3, #0
 80000ca:	d002      	beq.n	80000d2 <__do_global_dtors_aux+0x16>
 80000cc:	4804      	ldr	r0, [pc, #16]	@ (80000e0 <__do_global_dtors_aux+0x24>)
 80000ce:	e000      	b.n	80000d2 <__do_global_dtors_aux+0x16>
 80000d0:	bf00      	nop
 80000d2:	2301      	movs	r3, #1
 80000d4:	7023      	strb	r3, [r4, #0]
 80000d6:	bd10      	pop	{r4, pc}
 80000d8:	200001d8 	.word	0x200001d8
 80000dc:	00000000 	.word	0x00000000
 80000e0:	0800960c 	.word	0x0800960c

080000e4 <frame_dummy>:
 80000e4:	4b04      	ldr	r3, [pc, #16]	@ (80000f8 <frame_dummy+0x14>)
 80000e6:	b510      	push	{r4, lr}
 80000e8:	2b00      	cmp	r3, #0
 80000ea:	d003      	beq.n	80000f4 <frame_dummy+0x10>
 80000ec:	4903      	ldr	r1, [pc, #12]	@ (80000fc <frame_dummy+0x18>)
 80000ee:	4804      	ldr	r0, [pc, #16]	@ (8000100 <frame_dummy+0x1c>)
 80000f0:	e000      	b.n	80000f4 <frame_dummy+0x10>
 80000f2:	bf00      	nop
 80000f4:	bd10      	pop	{r4, pc}
 80000f6:	46c0      	nop			@ (mov r8, r8)
 80000f8:	00000000 	.word	0x00000000
 80000fc:	200001dc 	.word	0x200001dc
 8000100:	0800960c 	.word	0x0800960c

08000104 <strcmp>:
 8000104:	7802      	ldrb	r2, [r0, #0]
 8000106:	780b      	ldrb	r3, [r1, #0]
 8000108:	2a00      	cmp	r2, #0
 800010a:	d003      	beq.n	8000114 <strcmp+0x10>
 800010c:	3001      	adds	r0, #1
 800010e:	3101      	adds	r1, #1
 8000110:	429a      	cmp	r2, r3
 8000112:	d0f7      	beq.n	8000104 <strcmp>
 8000114:	1ad0      	subs	r0, r2, r3
 8000116:	4770      	bx	lr

08000118 <strlen>:
 8000118:	2300      	movs	r3, #0
 800011a:	5cc2      	ldrb	r2, [r0, r3]
 800011c:	3301      	adds	r3, #1
 800011e:	2a00      	cmp	r2, #0
 8000120:	d1fb      	bne.n	800011a <strlen+0x2>
 8000122:	1e58      	subs	r0, r3, #1
 8000124:	4770      	bx	lr
	...

08000128 <__gnu_thumb1_case_uqi>:
 8000128:	b402      	push	{r1}
 800012a:	4671      	mov	r1, lr
 800012c:	0849      	lsrs	r1, r1, #1
 800012e:	0049      	lsls	r1, r1, #1
 8000130:	5c09      	ldrb	r1, [r1, r0]
 8000132:	0049      	lsls	r1, r1, #1
 8000134:	448e      	add	lr, r1
 8000136:	bc02      	pop	{r1}
 8000138:	4770      	bx	lr
 800013a:	46c0      	nop			@ (mov r8, r8)

0800013c <__gnu_thumb1_case_shi>:
 800013c:	b403      	push	{r0, r1}
 800013e:	4671      	mov	r1, lr
 8000140:	0849      	lsrs	r1, r1, #1
 8000142:	0040      	lsls	r0, r0, #1
 8000144:	0049      	lsls	r1, r1, #1
 8000146:	5e09      	ldrsh	r1, [r1, r0]
 8000148:	0049      	lsls	r1, r1, #1
 800014a:	448e      	add	lr, r1
 800014c:	bc03      	pop	{r0, r1}
 800014e:	4770      	bx	lr

08000150 <__udivsi3>:
 8000150:	2200      	movs	r2, #0
 8000152:	0843      	lsrs	r3, r0, #1
 8000154:	428b      	cmp	r3, r1
 8000156:	d374      	bcc.n	8000242 <__udivsi3+0xf2>
 8000158:	0903      	lsrs	r3, r0, #4
 800015a:	428b      	cmp	r3, r1
 800015c:	d35f      	bcc.n	800021e <__udivsi3+0xce>
 800015e:	0a03      	lsrs	r3, r0, #8
 8000160:	428b      	cmp	r3, r1
 8000162:	d344      	bcc.n	80001ee <__udivsi3+0x9e>
 8000164:	0b03      	lsrs	r3, r0, #12
 8000166:	428b      	cmp	r3, r1
 8000168:	d328      	bcc.n	80001bc <__udivsi3+0x6c>
 800016a:	0c03      	lsrs	r3, r0, #16
 800016c:	428b      	cmp	r3, r1
 800016e:	d30d      	bcc.n	800018c <__udivsi3+0x3c>
 8000170:	22ff      	movs	r2, #255	@ 0xff
 8000172:	0209      	lsls	r1, r1, #8
 8000174:	ba12      	rev	r2, r2
 8000176:	0c03      	lsrs	r3, r0, #16
 8000178:	428b      	cmp	r3, r1
 800017a:	d302      	bcc.n	8000182 <__udivsi3+0x32>
 800017c:	1212      	asrs	r2, r2, #8
 800017e:	0209      	lsls	r1, r1, #8
 8000180:	d065      	beq.n	800024e <__udivsi3+0xfe>
 8000182:	0b03      	lsrs	r3, r0, #12
 8000184:	428b      	cmp	r3, r1
 8000186:	d319      	bcc.n	80001bc <__udivsi3+0x6c>
 8000188:	e000      	b.n	800018c <__udivsi3+0x3c>
 800018a:	0a09      	lsrs	r1, r1, #8
 800018c:	0bc3      	lsrs	r3, r0, #15
 800018e:	428b      	cmp	r3, r1
 8000190:	d301      	bcc.n	8000196 <__udivsi3+0x46>
 8000192:	03cb      	lsls	r3, r1, #15
 8000194:	1ac0      	subs	r0, r0, r3
 8000196:	4152      	adcs	r2, r2
 8000198:	0b83      	lsrs	r3, r0, #14
 800019a:	428b      	cmp	r3, r1
 800019c:	d301      	bcc.n	80001a2 <__udivsi3+0x52>
 800019e:	038b      	lsls	r3, r1, #14
 80001a0:	1ac0      	subs	r0, r0, r3
 80001a2:	4152      	adcs	r2, r2
 80001a4:	0b43      	lsrs	r3, r0, #13
 80001a6:	428b      	cmp	r3, r1
 80001a8:	d301      	bcc.n	80001ae <__udivsi3+0x5e>
 80001aa:	034b      	lsls	r3, r1, #13
 80001ac:	1ac0      	subs	r0, r0, r3
 80001ae:	4152      	adcs	r2, r2
 80001b0:	0b03      	lsrs	r3, r0, #12
 80001b2:	428b      	cmp	r3, r1
 80001b4:	d301      	bcc.n	80001ba <__udivsi3+0x6a>
 80001b6:	030b      	lsls	r3, r1, #12
 80001b8:	1ac0      	subs	r0, r0, r3
 80001ba:	4152      	adcs	r2, r2
 80001bc:	0ac3      	lsrs	r3, r0, #11
 80001be:	428b      	cmp	r3, r1
 80001c0:	d301      	bcc.n	80001c6 <__udivsi3+0x76>
 80001c2:	02cb      	lsls	r3, r1, #11
 80001c4:	1ac0      	subs	r0, r0, r3
 80001c6:	4152      	adcs	r2, r2
 80001c8:	0a83      	lsrs	r3, r0, #10
 80001ca:	428b      	cmp	r3, r1
 80001cc:	d301      	bcc.n	80001d2 <__udivsi3+0x82>
 80001ce:	028b      	lsls	r3, r1, #10
 80001d0:	1ac0      	subs	r0, r0, r3
 80001d2:	4152      	adcs	r2, r2
 80001d4:	0a43      	lsrs	r3, r0, #9
 80001d6:	428b      	cmp	r3, r1
 80001d8:	d301      	bcc.n	80001de <__udivsi3+0x8e>
 80001da:	024b      	lsls	r3, r1, #9
 80001dc:	1ac0      	subs	r0, r0, r3
 80001de:	4152      	adcs	r2, r2
 80001e0:	0a03      	lsrs	r3, r0, #8
 80001e2:	428b      	cmp	r3, r1
 80001e4:	d301      	bcc.n	80001ea <__udivsi3+0x9a>
 80001e6:	020b      	lsls	r3, r1, #8
 80001e8:	1ac0      	subs	r0, r0, r3
 80001ea:	4152      	adcs	r2, r2
 80001ec:	d2cd      	bcs.n	800018a <__udivsi3+0x3a>
 80001ee:	09c3      	lsrs	r3, r0, #7
 80001f0:	428b      	cmp	r3, r1
 80001f2:	d301      	bcc.n	80001f8 <__udivsi3+0xa8>
 80001f4:	01cb      	lsls	r3, r1, #7
 80001f6:	1ac0      	subs	r0, r0, r3
 80001f8:	4152      	adcs	r2, r2
 80001fa:	0983      	lsrs	r3, r0, #6
 80001fc:	428b      	cmp	r3, r1
 80001fe:	d301      	bcc.n	8000204 <__udivsi3+0xb4>
 8000200:	018b      	lsls	r3, r1, #6
 8000202:	1ac0      	subs	r0, r0, r3
 8000204:	4152      	adcs	r2, r2
 8000206:	0943      	lsrs	r3, r0, #5
 8000208:	428b      	cmp	r3, r1
 800020a:	d301      	bcc.n	8000210 <__udivsi3+0xc0>
 800020c:	014b      	lsls	r3, r1, #5
 800020e:	1ac0      	subs	r0, r0, r3
 8000210:	4152      	adcs	r2, r2
 8000212:	0903      	lsrs	r3, r0, #4
 8000214:	428b      	cmp	r3, r1
 8000216:	d301      	bcc.n	800021c <__udivsi3+0xcc>
 8000218:	010b      	lsls	r3, r1, #4
 800021a:	1ac0      	subs	r0, r0, r3
 800021c:	4152      	adcs	r2, r2
 800021e:	08c3      	lsrs	r3, r0, #3
 8000220:	428b      	cmp	r3, r1
 8000222:	d301      	bcc.n	8000228 <__udivsi3+0xd8>
 8000224:	00cb      	lsls	r3, r1, #3
 8000226:	1ac0      	subs	r0, r0, r3
 8000228:	4152      	adcs	r2, r2
 800022a:	0883      	lsrs	r3, r0, #2
 800022c:	428b      	cmp	r3, r1
 800022e:	d301      	bcc.n	8000234 <__udivsi3+0xe4>
 8000230:	008b      	lsls	r3, r1, #2
 8000232:	1ac0      	subs	r0, r0, r3
 8000234:	4152      	adcs	r2, r2
 8000236:	0843      	lsrs	r3, r0, #1
 8000238:	428b      	cmp	r3, r1
 800023a:	d301      	bcc.n	8000240 <__udivsi3+0xf0>
 800023c:	004b      	lsls	r3, r1, #1
 800023e:	1ac0      	subs	r0, r0, r3
 8000240:	4152      	adcs	r2, r2
 8000242:	1a41      	subs	r1, r0, r1
 8000244:	d200      	bcs.n	8000248 <__udivsi3+0xf8>
 8000246:	4601      	mov	r1, r0
 8000248:	4152      	adcs	r2, r2
 800024a:	4610      	mov	r0, r2
 800024c:	4770      	bx	lr
 800024e:	e7ff      	b.n	8000250 <__udivsi3+0x100>
 8000250:	b501      	push	{r0, lr}
 8000252:	2000      	movs	r0, #0
 8000254:	f000 f8f0 	bl	8000438 <__aeabi_idiv0>
 8000258:	bd02      	pop	{r1, pc}
 800025a:	46c0      	nop			@ (mov r8, r8)

0800025c <__aeabi_uidivmod>:
 800025c:	2900      	cmp	r1, #0
 800025e:	d0f7      	beq.n	8000250 <__udivsi3+0x100>
 8000260:	e776      	b.n	8000150 <__udivsi3>
 8000262:	4770      	bx	lr

08000264 <__divsi3>:
 8000264:	4603      	mov	r3, r0
 8000266:	430b      	orrs	r3, r1
 8000268:	d47f      	bmi.n	800036a <__divsi3+0x106>
 800026a:	2200      	movs	r2, #0
 800026c:	0843      	lsrs	r3, r0, #1
 800026e:	428b      	cmp	r3, r1
 8000270:	d374      	bcc.n	800035c <__divsi3+0xf8>
 8000272:	0903      	lsrs	r3, r0, #4
 8000274:	428b      	cmp	r3, r1
 8000276:	d35f      	bcc.n	8000338 <__divsi3+0xd4>
 8000278:	0a03      	lsrs	r3, r0, #8
 800027a:	428b      	cmp	r3, r1
 800027c:	d344      	bcc.n	8000308 <__divsi3+0xa4>
 800027e:	0b03      	lsrs	r3, r0, #12
 8000280:	428b      	cmp	r3, r1
 8000282:	d328      	bcc.n	80002d6 <__divsi3+0x72>
 8000284:	0c03      	lsrs	r3, r0, #16
 8000286:	428b      	cmp	r3, r1
 8000288:	d30d      	bcc.n	80002a6 <__divsi3+0x42>
 800028a:	22ff      	movs	r2, #255	@ 0xff
 800028c:	0209      	lsls	r1, r1, #8
 800028e:	ba12      	rev	r2, r2
 8000290:	0c03      	lsrs	r3, r0, #16
 8000292:	428b      	cmp	r3, r1
 8000294:	d302      	bcc.n	800029c <__divsi3+0x38>
 8000296:	1212      	asrs	r2, r2, #8
 8000298:	0209      	lsls	r1, r1, #8
 800029a:	d065      	beq.n	8000368 <__divsi3+0x104>
 800029c:	0b03      	lsrs	r3, r0, #12
 800029e:	428b      	cmp	r3, r1
 80002a0:	d319      	bcc.n	80002d6 <__divsi3+0x72>
 80002a2:	e000      	b.n	80002a6 <__divsi3+0x42>
 80002a4:	0a09      	lsrs	r1, r1, #8
 80002a6:	0bc3      	lsrs	r3, r0, #15
 80002a8:	428b      	cmp	r3, r1
 80002aa:	d301      	bcc.n	80002b0 <__divsi3+0x4c>
 80002ac:	03cb      	lsls	r3, r1, #15
 80002ae:	1ac0      	subs	r0, r0, r3
 80002b0:	4152      	adcs	r2, r2
 80002b2:	0b83      	lsrs	r3, r0, #14
 80002b4:	428b      	cmp	r3, r1
 80002b6:	d301      	bcc.n	80002bc <__divsi3+0x58>
 80002b8:	038b      	lsls	r3, r1, #14
 80002ba:	1ac0      	subs	r0, r0, r3
 80002bc:	4152      	adcs	r2, r2
 80002be:	0b43      	lsrs	r3, r0, #13
 80002c0:	428b      	cmp	r3, r1
 80002c2:	d301      	bcc.n	80002c8 <__divsi3+0x64>
 80002c4:	034b      	lsls	r3, r1, #13
 80002c6:	1ac0      	subs	r0, r0, r3
 80002c8:	4152      	adcs	r2, r2
 80002ca:	0b03      	lsrs	r3, r0, #12
 80002cc:	428b      	cmp	r3, r1
 80002ce:	d301      	bcc.n	80002d4 <__divsi3+0x70>
 80002d0:	030b      	lsls	r3, r1, #12
 80002d2:	1ac0      	subs	r0, r0, r3
 80002d4:	4152      	adcs	r2, r2
 80002d6:	0ac3      	lsrs	r3, r0, #11
 80002d8:	428b      	cmp	r3, r1
 80002da:	d301      	bcc.n	80002e0 <__divsi3+0x7c>
 80002dc:	02cb      	lsls	r3, r1, #11
 80002de:	1ac0      	subs	r0, r0, r3
 80002e0:	4152      	adcs	r2, r2
 80002e2:	0a83      	lsrs	r3, r0, #10
 80002e4:	428b      	cmp	r3, r1
 80002e6:	d301      	bcc.n	80002ec <__divsi3+0x88>
 80002e8:	028b      	lsls	r3, r1, #10
 80002ea:	1ac0      	subs	r0, r0, r3
 80002ec:	4152      	adcs	r2, r2
 80002ee:	0a43      	lsrs	r3, r0, #9
 80002f0:	428b      	cmp	r3, r1
 80002f2:	d301      	bcc.n	80002f8 <__divsi3+0x94>
 80002f4:	024b      	lsls	r3, r1, #9
 80002f6:	1ac0      	subs	r0, r0, r3
 80002f8:	4152      	adcs	r2, r2
 80002fa:	0a03      	lsrs	r3, r0, #8
 80002fc:	428b      	cmp	r3, r1
 80002fe:	d301      	bcc.n	8000304 <__divsi3+0xa0>
 8000300:	020b      	lsls	r3, r1, #8
 8000302:	1ac0      	subs	r0, r0, r3
 8000304:	4152      	adcs	r2, r2
 8000306:	d2cd      	bcs.n	80002a4 <__divsi3+0x40>
 8000308:	09c3      	lsrs	r3, r0, #7
 800030a:	428b      	cmp	r3, r1
 800030c:	d301      	bcc.n	8000312 <__divsi3+0xae>
 800030e:	01cb      	lsls	r3, r1, #7
 8000310:	1ac0      	subs	r0, r0, r3
 8000312:	4152      	adcs	r2, r2
 8000314:	0983      	lsrs	r3, r0, #6
 8000316:	428b      	cmp	r3, r1
 8000318:	d301      	bcc.n	800031e <__divsi3+0xba>
 800031a:	018b      	lsls	r3, r1, #6
 800031c:	1ac0      	subs	r0, r0, r3
 800031e:	4152      	adcs	r2, r2
 8000320:	0943      	lsrs	r3, r0, #5
 8000322:	428b      	cmp	r3, r1
 8000324:	d301      	bcc.n	800032a <__divsi3+0xc6>
 8000326:	014b      	lsls	r3, r1, #5
 8000328:	1ac0      	subs	r0, r0, r3
 800032a:	4152      	adcs	r2, r2
 800032c:	0903      	lsrs	r3, r0, #4
 800032e:	428b      	cmp	r3, r1
 8000330:	d301      	bcc.n	8000336 <__divsi3+0xd2>
 8000332:	010b      	lsls	r3, r1, #4
 8000334:	1ac0      	subs	r0, r0, r3
 8000336:	4152      	adcs	r2, r2
 8000338:	08c3      	lsrs	r3, r0, #3
 800033a:	428b      	cmp	r3, r1
 800033c:	d301      	bcc.n	8000342 <__divsi3+0xde>
 800033e:	00cb      	lsls	r3, r1, #3
 8000340:	1ac0      	subs	r0, r0, r3
 8000342:	4152      	adcs	r2, r2
 8000344:	0883      	lsrs	r3, r0, #2
 8000346:	428b      	cmp	r3, r1
 8000348:	d301      	bcc.n	800034e <__divsi3+0xea>
 800034a:	008b      	lsls	r3, r1, #2
 800034c:	1ac0      	subs	r0, r0, r3
 800034e:	4152      	adcs	r2, r2
 8000350:	0843      	lsrs	r3, r0, #1
 8000352:	428b      	cmp	r3, r1
 8000354:	d301      	bcc.n	800035a <__divsi3+0xf6>
 8000356:	004b      	lsls	r3, r1, #1
 8000358:	1ac0      	subs	r0, r0, r3
 800035a:	4152      	adcs	r2, r2
 800035c:	1a41      	subs	r1, r0, r1
 800035e:	d200      	bcs.n	8000362 <__divsi3+0xfe>
 8000360:	4601      	mov	r1, r0
 8000362:	4152      	adcs	r2, r2
 8000364:	4610      	mov	r0, r2
 8000366:	4770      	bx	lr
 8000368:	e05d      	b.n	8000426 <__divsi3+0x1c2>
 800036a:	0fca      	lsrs	r2, r1, #31
 800036c:	d000      	beq.n	8000370 <__divsi3+0x10c>
 800036e:	4249      	negs	r1, r1
 8000370:	1003      	asrs	r3, r0, #32
 8000372:	d300      	bcc.n	8000376 <__divsi3+0x112>
 8000374:	4240      	negs	r0, r0
 8000376:	4053      	eors	r3, r2
 8000378:	2200      	movs	r2, #0
 800037a:	469c      	mov	ip, r3
 800037c:	0903      	lsrs	r3, r0, #4
 800037e:	428b      	cmp	r3, r1
 8000380:	d32d      	bcc.n	80003de <__divsi3+0x17a>
 8000382:	0a03      	lsrs	r3, r0, #8
 8000384:	428b      	cmp	r3, r1
 8000386:	d312      	bcc.n	80003ae <__divsi3+0x14a>
 8000388:	22fc      	movs	r2, #252	@ 0xfc
 800038a:	0189      	lsls	r1, r1, #6
 800038c:	ba12      	rev	r2, r2
 800038e:	0a03      	lsrs	r3, r0, #8
 8000390:	428b      	cmp	r3, r1
 8000392:	d30c      	bcc.n	80003ae <__divsi3+0x14a>
 8000394:	0189      	lsls	r1, r1, #6
 8000396:	1192      	asrs	r2, r2, #6
 8000398:	428b      	cmp	r3, r1
 800039a:	d308      	bcc.n	80003ae <__divsi3+0x14a>
 800039c:	0189      	lsls	r1, r1, #6
 800039e:	1192      	asrs	r2, r2, #6
 80003a0:	428b      	cmp	r3, r1
 80003a2:	d304      	bcc.n	80003ae <__divsi3+0x14a>
 80003a4:	0189      	lsls	r1, r1, #6
 80003a6:	d03a      	beq.n	800041e <__divsi3+0x1ba>
 80003a8:	1192      	asrs	r2, r2, #6
 80003aa:	e000      	b.n	80003ae <__divsi3+0x14a>
 80003ac:	0989      	lsrs	r1, r1, #6
 80003ae:	09c3      	lsrs	r3, r0, #7
 80003b0:	428b      	cmp	r3, r1
 80003b2:	d301      	bcc.n	80003b8 <__divsi3+0x154>
 80003b4:	01cb      	lsls	r3, r1, #7
 80003b6:	1ac0      	subs	r0, r0, r3
 80003b8:	4152      	adcs	r2, r2
 80003ba:	0983      	lsrs	r3, r0, #6
 80003bc:	428b      	cmp	r3, r1
 80003be:	d301      	bcc.n	80003c4 <__divsi3+0x160>
 80003c0:	018b      	lsls	r3, r1, #6
 80003c2:	1ac0      	subs	r0, r0, r3
 80003c4:	4152      	adcs	r2, r2
 80003c6:	0943      	lsrs	r3, r0, #5
 80003c8:	428b      	cmp	r3, r1
 80003ca:	d301      	bcc.n	80003d0 <__divsi3+0x16c>
 80003cc:	014b      	lsls	r3, r1, #5
 80003ce:	1ac0      	subs	r0, r0, r3
 80003d0:	4152      	adcs	r2, r2
 80003d2:	0903      	lsrs	r3, r0, #4
 80003d4:	428b      	cmp	r3, r1
 80003d6:	d301      	bcc.n	80003dc <__divsi3+0x178>
 80003d8:	010b      	lsls	r3, r1, #4
 80003da:	1ac0      	subs	r0, r0, r3
 80003dc:	4152      	adcs	r2, r2
 80003de:	08c3      	lsrs	r3, r0, #3
 80003e0:	428b      	cmp	r3, r1
 80003e2:	d301      	bcc.n	80003e8 <__divsi3+0x184>
 80003e4:	00cb      	lsls	r3, r1, #3
 80003e6:	1ac0      	subs	r0, r0, r3
 80003e8:	4152      	adcs	r2, r2
 80003ea:	0883      	lsrs	r3, r0, #2
 80003ec:	428b      	cmp	r3, r1
 80003ee:	d301      	bcc.n	80003f4 <__divsi3+0x190>
 80003f0:	008b      	lsls	r3, r1, #2
 80003f2:	1ac0      	subs	r0, r0, r3
 80003f4:	4152      	adcs	r2, r2
 80003f6:	d2d9      	bcs.n	80003ac <__divsi3+0x148>
 80003f8:	0843      	lsrs	r3, r0, #1
 80003fa:	428b      	cmp	r3, r1
 80003fc:	d301      	bcc.n	8000402 <__divsi3+0x19e>
 80003fe:	004b      	lsls	r3, r1, #1
 8000400:	1ac0      	subs	r0, r0, r3
 8000402:	4152      	adcs	r2, r2
 8000404:	1a41      	subs	r1, r0, r1
 8000406:	d200      	bcs.n	800040a <__divsi3+0x1a6>
 8000408:	4601      	mov	r1, r0
 800040a:	4663      	mov	r3, ip
 800040c:	4152      	adcs	r2, r2
 800040e:	105b      	asrs	r3, r3, #1
 8000410:	4610      	mov	r0, r2
 8000412:	d301      	bcc.n	8000418 <__divsi3+0x1b4>
 8000414:	4240      	negs	r0, r0
 8000416:	2b00      	cmp	r3, #0
 8000418:	d500      	bpl.n	800041c <__divsi3+0x1b8>
 800041a:	4249      	negs	r1, r1
 800041c:	4770      	bx	lr
 800041e:	4663      	mov	r3, ip
 8000420:	105b      	asrs	r3, r3, #1
 8000422:	d300      	bcc.n	8000426 <__divsi3+0x1c2>
 8000424:	4240      	negs	r0, r0
 8000426:	b501      	push	{r0, lr}
 8000428:	2000      	movs	r0, #0
 800042a:	f000 f805 	bl	8000438 <__aeabi_idiv0>
 800042e:	bd02      	pop	{r1, pc}

08000430 <__aeabi_idivmod>:
 8000430:	2900      	cmp	r1, #0
 8000432:	d0f8      	beq.n	8000426 <__divsi3+0x1c2>
 8000434:	e716      	b.n	8000264 <__divsi3>
 8000436:	4770      	bx	lr

08000438 <__aeabi_idiv0>:
 8000438:	4770      	bx	lr
 800043a:	46c0      	nop			@ (mov r8, r8)

0800043c <__aeabi_cdrcmple>:
 800043c:	4684      	mov	ip, r0
 800043e:	0010      	movs	r0, r2
 8000440:	4662      	mov	r2, ip
 8000442:	468c      	mov	ip, r1
 8000444:	0019      	movs	r1, r3
 8000446:	4663      	mov	r3, ip
 8000448:	e000      	b.n	800044c <__aeabi_cdcmpeq>
 800044a:	46c0      	nop			@ (mov r8, r8)

0800044c <__aeabi_cdcmpeq>:
 800044c:	b51f      	push	{r0, r1, r2, r3, r4, lr}
 800044e:	f001 f8b1 	bl	80015b4 <__ledf2>
 8000452:	2800      	cmp	r0, #0
 8000454:	d401      	bmi.n	800045a <__aeabi_cdcmpeq+0xe>
 8000456:	2100      	movs	r1, #0
 8000458:	42c8      	cmn	r0, r1
 800045a:	bd1f      	pop	{r0, r1, r2, r3, r4, pc}

0800045c <__aeabi_dcmpeq>:
 800045c:	b510      	push	{r4, lr}
 800045e:	f000 fff5 	bl	800144c <__eqdf2>
 8000462:	4240      	negs	r0, r0
 8000464:	3001      	adds	r0, #1
 8000466:	bd10      	pop	{r4, pc}

08000468 <__aeabi_dcmplt>:
 8000468:	b510      	push	{r4, lr}
 800046a:	f001 f8a3 	bl	80015b4 <__ledf2>
 800046e:	2800      	cmp	r0, #0
 8000470:	db01      	blt.n	8000476 <__aeabi_dcmplt+0xe>
 8000472:	2000      	movs	r0, #0
 8000474:	bd10      	pop	{r4, pc}
 8000476:	2001      	movs	r0, #1
 8000478:	bd10      	pop	{r4, pc}
 800047a:	46c0      	nop			@ (mov r8, r8)

0800047c <__aeabi_dcmple>:
 800047c:	b510      	push	{r4, lr}
 800047e:	f001 f899 	bl	80015b4 <__ledf2>
 8000482:	2800      	cmp	r0, #0
 8000484:	dd01      	ble.n	800048a <__aeabi_dcmple+0xe>
 8000486:	2000      	movs	r0, #0
 8000488:	bd10      	pop	{r4, pc}
 800048a:	2001      	movs	r0, #1
 800048c:	bd10      	pop	{r4, pc}
 800048e:	46c0      	nop			@ (mov r8, r8)

08000490 <__aeabi_dcmpgt>:
 8000490:	b510      	push	{r4, lr}
 8000492:	f001 f81f 	bl	80014d4 <__gedf2>
 8000496:	2800      	cmp	r0, #0
 8000498:	dc01      	bgt.n	800049e <__aeabi_dcmpgt+0xe>
 800049a:	2000      	movs	r0, #0
 800049c:	bd10      	pop	{r4, pc}
 800049e:	2001      	movs	r0, #1
 80004a0:	bd10      	pop	{r4, pc}
 80004a2:	46c0      	nop			@ (mov r8, r8)

080004a4 <__aeabi_dcmpge>:
 80004a4:	b510      	push	{r4, lr}
 80004a6:	f001 f815 	bl	80014d4 <__gedf2>
 80004aa:	2800      	cmp	r0, #0
 80004ac:	da01      	bge.n	80004b2 <__aeabi_dcmpge+0xe>
 80004ae:	2000      	movs	r0, #0
 80004b0:	bd10      	pop	{r4, pc}
 80004b2:	2001      	movs	r0, #1
 80004b4:	bd10      	pop	{r4, pc}
 80004b6:	46c0      	nop			@ (mov r8, r8)

080004b8 <__aeabi_uldivmod>:
 80004b8:	2b00      	cmp	r3, #0
 80004ba:	d111      	bne.n	80004e0 <__aeabi_uldivmod+0x28>
 80004bc:	2a00      	cmp	r2, #0
 80004be:	d10f      	bne.n	80004e0 <__aeabi_uldivmod+0x28>
 80004c0:	2900      	cmp	r1, #0
 80004c2:	d100      	bne.n	80004c6 <__aeabi_uldivmod+0xe>
 80004c4:	2800      	cmp	r0, #0
 80004c6:	d002      	beq.n	80004ce <__aeabi_uldivmod+0x16>
 80004c8:	2100      	movs	r1, #0
 80004ca:	43c9      	mvns	r1, r1
 80004cc:	0008      	movs	r0, r1
 80004ce:	b407      	push	{r0, r1, r2}
 80004d0:	4802      	ldr	r0, [pc, #8]	@ (80004dc <__aeabi_uldivmod+0x24>)
 80004d2:	a102      	add	r1, pc, #8	@ (adr r1, 80004dc <__aeabi_uldivmod+0x24>)
 80004d4:	1840      	adds	r0, r0, r1
 80004d6:	9002      	str	r0, [sp, #8]
 80004d8:	bd03      	pop	{r0, r1, pc}
 80004da:	46c0      	nop			@ (mov r8, r8)
 80004dc:	ffffff5d 	.word	0xffffff5d
 80004e0:	b403      	push	{r0, r1}
 80004e2:	4668      	mov	r0, sp
 80004e4:	b501      	push	{r0, lr}
 80004e6:	9802      	ldr	r0, [sp, #8]
 80004e8:	f000 f806 	bl	80004f8 <__udivmoddi4>
 80004ec:	9b01      	ldr	r3, [sp, #4]
 80004ee:	469e      	mov	lr, r3
 80004f0:	b002      	add	sp, #8
 80004f2:	bc0c      	pop	{r2, r3}
 80004f4:	4770      	bx	lr
 80004f6:	46c0      	nop			@ (mov r8, r8)

080004f8 <__udivmoddi4>:
 80004f8:	b5f0      	push	{r4, r5, r6, r7, lr}
 80004fa:	4657      	mov	r7, sl
 80004fc:	464e      	mov	r6, r9
 80004fe:	4645      	mov	r5, r8
 8000500:	46de      	mov	lr, fp
 8000502:	b5e0      	push	{r5, r6, r7, lr}
 8000504:	0004      	movs	r4, r0
 8000506:	000d      	movs	r5, r1
 8000508:	4692      	mov	sl, r2
 800050a:	4699      	mov	r9, r3
 800050c:	b083      	sub	sp, #12
 800050e:	428b      	cmp	r3, r1
 8000510:	d830      	bhi.n	8000574 <__udivmoddi4+0x7c>
 8000512:	d02d      	beq.n	8000570 <__udivmoddi4+0x78>
 8000514:	4649      	mov	r1, r9
 8000516:	4650      	mov	r0, sl
 8000518:	f002 f878 	bl	800260c <__clzdi2>
 800051c:	0029      	movs	r1, r5
 800051e:	0006      	movs	r6, r0
 8000520:	0020      	movs	r0, r4
 8000522:	f002 f873 	bl	800260c <__clzdi2>
 8000526:	1a33      	subs	r3, r6, r0
 8000528:	4698      	mov	r8, r3
 800052a:	3b20      	subs	r3, #32
 800052c:	d434      	bmi.n	8000598 <__udivmoddi4+0xa0>
 800052e:	469b      	mov	fp, r3
 8000530:	4653      	mov	r3, sl
 8000532:	465a      	mov	r2, fp
 8000534:	4093      	lsls	r3, r2
 8000536:	4642      	mov	r2, r8
 8000538:	001f      	movs	r7, r3
 800053a:	4653      	mov	r3, sl
 800053c:	4093      	lsls	r3, r2
 800053e:	001e      	movs	r6, r3
 8000540:	42af      	cmp	r7, r5
 8000542:	d83b      	bhi.n	80005bc <__udivmoddi4+0xc4>
 8000544:	42af      	cmp	r7, r5
 8000546:	d100      	bne.n	800054a <__udivmoddi4+0x52>
 8000548:	e079      	b.n	800063e <__udivmoddi4+0x146>
 800054a:	465b      	mov	r3, fp
 800054c:	1ba4      	subs	r4, r4, r6
 800054e:	41bd      	sbcs	r5, r7
 8000550:	2b00      	cmp	r3, #0
 8000552:	da00      	bge.n	8000556 <__udivmoddi4+0x5e>
 8000554:	e076      	b.n	8000644 <__udivmoddi4+0x14c>
 8000556:	2200      	movs	r2, #0
 8000558:	2300      	movs	r3, #0
 800055a:	9200      	str	r2, [sp, #0]
 800055c:	9301      	str	r3, [sp, #4]
 800055e:	2301      	movs	r3, #1
 8000560:	465a      	mov	r2, fp
 8000562:	4093      	lsls	r3, r2
 8000564:	9301      	str	r3, [sp, #4]
 8000566:	2301      	movs	r3, #1
 8000568:	4642      	mov	r2, r8
 800056a:	4093      	lsls	r3, r2
 800056c:	9300      	str	r3, [sp, #0]
 800056e:	e029      	b.n	80005c4 <__udivmoddi4+0xcc>
 8000570:	4282      	cmp	r2, r0
 8000572:	d9cf      	bls.n	8000514 <__udivmoddi4+0x1c>
 8000574:	2200      	movs	r2, #0
 8000576:	2300      	movs	r3, #0
 8000578:	9200      	str	r2, [sp, #0]
 800057a:	9301      	str	r3, [sp, #4]
 800057c:	9b0c      	ldr	r3, [sp, #48]	@ 0x30
 800057e:	2b00      	cmp	r3, #0
 8000580:	d001      	beq.n	8000586 <__udivmoddi4+0x8e>
 8000582:	601c      	str	r4, [r3, #0]
 8000584:	605d      	str	r5, [r3, #4]
 8000586:	9800      	ldr	r0, [sp, #0]
 8000588:	9901      	ldr	r1, [sp, #4]
 800058a:	b003      	add	sp, #12
 800058c:	bcf0      	pop	{r4, r5, r6, r7}
 800058e:	46bb      	mov	fp, r7
 8000590:	46b2      	mov	sl, r6
 8000592:	46a9      	mov	r9, r5
 8000594:	46a0      	mov	r8, r4
 8000596:	bdf0      	pop	{r4, r5, r6, r7, pc}
 8000598:	4642      	mov	r2, r8
 800059a:	469b      	mov	fp, r3
 800059c:	2320      	movs	r3, #32
 800059e:	1a9b      	subs	r3, r3, r2
 80005a0:	4652      	mov	r2, sl
 80005a2:	40da      	lsrs	r2, r3
 80005a4:	4641      	mov	r1, r8
 80005a6:	0013      	movs	r3, r2
 80005a8:	464a      	mov	r2, r9
 80005aa:	408a      	lsls	r2, r1
 80005ac:	0017      	movs	r7, r2
 80005ae:	4642      	mov	r2, r8
 80005b0:	431f      	orrs	r7, r3
 80005b2:	4653      	mov	r3, sl
 80005b4:	4093      	lsls	r3, r2
 80005b6:	001e      	movs	r6, r3
 80005b8:	42af      	cmp	r7, r5
 80005ba:	d9c3      	bls.n	8000544 <__udivmoddi4+0x4c>
 80005bc:	2200      	movs	r2, #0
 80005be:	2300      	movs	r3, #0
 80005c0:	9200      	str	r2, [sp, #0]
 80005c2:	9301      	str	r3, [sp, #4]
 80005c4:	4643      	mov	r3, r8
 80005c6:	2b00      	cmp	r3, #0
 80005c8:	d0d8      	beq.n	800057c <__udivmoddi4+0x84>
 80005ca:	07fb      	lsls	r3, r7, #31
 80005cc:	0872      	lsrs	r2, r6, #1
 80005ce:	431a      	orrs	r2, r3
 80005d0:	4646      	mov	r6, r8
 80005d2:	087b      	lsrs	r3, r7, #1
 80005d4:	e00e      	b.n	80005f4 <__udivmoddi4+0xfc>
 80005d6:	42ab      	cmp	r3, r5
 80005d8:	d101      	bne.n	80005de <__udivmoddi4+0xe6>
 80005da:	42a2      	cmp	r2, r4
 80005dc:	d80c      	bhi.n	80005f8 <__udivmoddi4+0x100>
 80005de:	1aa4      	subs	r4, r4, r2
 80005e0:	419d      	sbcs	r5, r3
 80005e2:	2001      	movs	r0, #1
 80005e4:	1924      	adds	r4, r4, r4
 80005e6:	416d      	adcs	r5, r5
 80005e8:	2100      	movs	r1, #0
 80005ea:	3e01      	subs	r6, #1
 80005ec:	1824      	adds	r4, r4, r0
 80005ee:	414d      	adcs	r5, r1
 80005f0:	2e00      	cmp	r6, #0
 80005f2:	d006      	beq.n	8000602 <__udivmoddi4+0x10a>
 80005f4:	42ab      	cmp	r3, r5
 80005f6:	d9ee      	bls.n	80005d6 <__udivmoddi4+0xde>
 80005f8:	3e01      	subs	r6, #1
 80005fa:	1924      	adds	r4, r4, r4
 80005fc:	416d      	adcs	r5, r5
 80005fe:	2e00      	cmp	r6, #0
 8000600:	d1f8      	bne.n	80005f4 <__udivmoddi4+0xfc>
 8000602:	9800      	ldr	r0, [sp, #0]
 8000604:	9901      	ldr	r1, [sp, #4]
 8000606:	465b      	mov	r3, fp
 8000608:	1900      	adds	r0, r0, r4
 800060a:	4169      	adcs	r1, r5
 800060c:	2b00      	cmp	r3, #0
 800060e:	db24      	blt.n	800065a <__udivmoddi4+0x162>
 8000610:	002b      	movs	r3, r5
 8000612:	465a      	mov	r2, fp
 8000614:	4644      	mov	r4, r8
 8000616:	40d3      	lsrs	r3, r2
 8000618:	002a      	movs	r2, r5
 800061a:	40e2      	lsrs	r2, r4
 800061c:	001c      	movs	r4, r3
 800061e:	465b      	mov	r3, fp
 8000620:	0015      	movs	r5, r2
 8000622:	2b00      	cmp	r3, #0
 8000624:	db2a      	blt.n	800067c <__udivmoddi4+0x184>
 8000626:	0026      	movs	r6, r4
 8000628:	409e      	lsls	r6, r3
 800062a:	0033      	movs	r3, r6
 800062c:	0026      	movs	r6, r4
 800062e:	4647      	mov	r7, r8
 8000630:	40be      	lsls	r6, r7
 8000632:	0032      	movs	r2, r6
 8000634:	1a80      	subs	r0, r0, r2
 8000636:	4199      	sbcs	r1, r3
 8000638:	9000      	str	r0, [sp, #0]
 800063a:	9101      	str	r1, [sp, #4]
 800063c:	e79e      	b.n	800057c <__udivmoddi4+0x84>
 800063e:	42a3      	cmp	r3, r4
 8000640:	d8bc      	bhi.n	80005bc <__udivmoddi4+0xc4>
 8000642:	e782      	b.n	800054a <__udivmoddi4+0x52>
 8000644:	4642      	mov	r2, r8
 8000646:	2320      	movs	r3, #32
 8000648:	2100      	movs	r1, #0
 800064a:	1a9b      	subs	r3, r3, r2
 800064c:	2200      	movs	r2, #0
 800064e:	9100      	str	r1, [sp, #0]
 8000650:	9201      	str	r2, [sp, #4]
 8000652:	2201      	movs	r2, #1
 8000654:	40da      	lsrs	r2, r3
 8000656:	9201      	str	r2, [sp, #4]
 8000658:	e785      	b.n	8000566 <__udivmoddi4+0x6e>
 800065a:	4642      	mov	r2, r8
 800065c:	2320      	movs	r3, #32
 800065e:	1a9b      	subs	r3, r3, r2
 8000660:	002a      	movs	r2, r5
 8000662:	4646      	mov	r6, r8
 8000664:	409a      	lsls	r2, r3
 8000666:	0023      	movs	r3, r4
 8000668:	40f3      	lsrs	r3, r6
 800066a:	4644      	mov	r4, r8
 800066c:	4313      	orrs	r3, r2
 800066e:	002a      	movs	r2, r5
 8000670:	40e2      	lsrs	r2, r4
 8000672:	001c      	movs	r4, r3
 8000674:	465b      	mov	r3, fp
 8000676:	0015      	movs	r5, r2
 8000678:	2b00      	cmp	r3, #0
 800067a:	dad4      	bge.n	8000626 <__udivmoddi4+0x12e>
 800067c:	4642      	mov	r2, r8
 800067e:	002f      	movs	r7, r5
 8000680:	2320      	movs	r3, #32
 8000682:	0026      	movs	r6, r4
 8000684:	4097      	lsls	r7, r2
 8000686:	1a9b      	subs	r3, r3, r2
 8000688:	40de      	lsrs	r6, r3
 800068a:	003b      	movs	r3, r7
 800068c:	4333      	orrs	r3, r6
 800068e:	e7cd      	b.n	800062c <__udivmoddi4+0x134>

08000690 <__aeabi_dadd>:
 8000690:	b5f0      	push	{r4, r5, r6, r7, lr}
 8000692:	464f      	mov	r7, r9
 8000694:	4646      	mov	r6, r8
 8000696:	46d6      	mov	lr, sl
 8000698:	b5c0      	push	{r6, r7, lr}
 800069a:	b082      	sub	sp, #8
 800069c:	9000      	str	r0, [sp, #0]
 800069e:	9101      	str	r1, [sp, #4]
 80006a0:	030e      	lsls	r6, r1, #12
 80006a2:	004c      	lsls	r4, r1, #1
 80006a4:	0fcd      	lsrs	r5, r1, #31
 80006a6:	0a71      	lsrs	r1, r6, #9
 80006a8:	9e00      	ldr	r6, [sp, #0]
 80006aa:	005f      	lsls	r7, r3, #1
 80006ac:	0f76      	lsrs	r6, r6, #29
 80006ae:	430e      	orrs	r6, r1
 80006b0:	9900      	ldr	r1, [sp, #0]
 80006b2:	9200      	str	r2, [sp, #0]
 80006b4:	9301      	str	r3, [sp, #4]
 80006b6:	00c9      	lsls	r1, r1, #3
 80006b8:	4689      	mov	r9, r1
 80006ba:	0319      	lsls	r1, r3, #12
 80006bc:	0d7b      	lsrs	r3, r7, #21
 80006be:	4698      	mov	r8, r3
 80006c0:	9b01      	ldr	r3, [sp, #4]
 80006c2:	0a49      	lsrs	r1, r1, #9
 80006c4:	0fdb      	lsrs	r3, r3, #31
 80006c6:	469c      	mov	ip, r3
 80006c8:	9b00      	ldr	r3, [sp, #0]
 80006ca:	9a00      	ldr	r2, [sp, #0]
 80006cc:	0f5b      	lsrs	r3, r3, #29
 80006ce:	430b      	orrs	r3, r1
 80006d0:	4641      	mov	r1, r8
 80006d2:	0d64      	lsrs	r4, r4, #21
 80006d4:	00d2      	lsls	r2, r2, #3
 80006d6:	1a61      	subs	r1, r4, r1
 80006d8:	4565      	cmp	r5, ip
 80006da:	d100      	bne.n	80006de <__aeabi_dadd+0x4e>
 80006dc:	e0a6      	b.n	800082c <__aeabi_dadd+0x19c>
 80006de:	2900      	cmp	r1, #0
 80006e0:	dd72      	ble.n	80007c8 <__aeabi_dadd+0x138>
 80006e2:	4647      	mov	r7, r8
 80006e4:	2f00      	cmp	r7, #0
 80006e6:	d100      	bne.n	80006ea <__aeabi_dadd+0x5a>
 80006e8:	e0dd      	b.n	80008a6 <__aeabi_dadd+0x216>
 80006ea:	4fcc      	ldr	r7, [pc, #816]	@ (8000a1c <__aeabi_dadd+0x38c>)
 80006ec:	42bc      	cmp	r4, r7
 80006ee:	d100      	bne.n	80006f2 <__aeabi_dadd+0x62>
 80006f0:	e19a      	b.n	8000a28 <__aeabi_dadd+0x398>
 80006f2:	2701      	movs	r7, #1
 80006f4:	2938      	cmp	r1, #56	@ 0x38
 80006f6:	dc17      	bgt.n	8000728 <__aeabi_dadd+0x98>
 80006f8:	2780      	movs	r7, #128	@ 0x80
 80006fa:	043f      	lsls	r7, r7, #16
 80006fc:	433b      	orrs	r3, r7
 80006fe:	291f      	cmp	r1, #31
 8000700:	dd00      	ble.n	8000704 <__aeabi_dadd+0x74>
 8000702:	e1dd      	b.n	8000ac0 <__aeabi_dadd+0x430>
 8000704:	2720      	movs	r7, #32
 8000706:	1a78      	subs	r0, r7, r1
 8000708:	001f      	movs	r7, r3
 800070a:	4087      	lsls	r7, r0
 800070c:	46ba      	mov	sl, r7
 800070e:	0017      	movs	r7, r2
 8000710:	40cf      	lsrs	r7, r1
 8000712:	4684      	mov	ip, r0
 8000714:	0038      	movs	r0, r7
 8000716:	4657      	mov	r7, sl
 8000718:	4307      	orrs	r7, r0
 800071a:	4660      	mov	r0, ip
 800071c:	4082      	lsls	r2, r0
 800071e:	40cb      	lsrs	r3, r1
 8000720:	1e50      	subs	r0, r2, #1
 8000722:	4182      	sbcs	r2, r0
 8000724:	1af6      	subs	r6, r6, r3
 8000726:	4317      	orrs	r7, r2
 8000728:	464b      	mov	r3, r9
 800072a:	1bdf      	subs	r7, r3, r7
 800072c:	45b9      	cmp	r9, r7
 800072e:	4180      	sbcs	r0, r0
 8000730:	4240      	negs	r0, r0
 8000732:	1a36      	subs	r6, r6, r0
 8000734:	0233      	lsls	r3, r6, #8
 8000736:	d400      	bmi.n	800073a <__aeabi_dadd+0xaa>
 8000738:	e0ff      	b.n	800093a <__aeabi_dadd+0x2aa>
 800073a:	0276      	lsls	r6, r6, #9
 800073c:	0a76      	lsrs	r6, r6, #9
 800073e:	2e00      	cmp	r6, #0
 8000740:	d100      	bne.n	8000744 <__aeabi_dadd+0xb4>
 8000742:	e13c      	b.n	80009be <__aeabi_dadd+0x32e>
 8000744:	0030      	movs	r0, r6
 8000746:	f001 ff43 	bl	80025d0 <__clzsi2>
 800074a:	0003      	movs	r3, r0
 800074c:	3b08      	subs	r3, #8
 800074e:	2120      	movs	r1, #32
 8000750:	0038      	movs	r0, r7
 8000752:	1aca      	subs	r2, r1, r3
 8000754:	40d0      	lsrs	r0, r2
 8000756:	409e      	lsls	r6, r3
 8000758:	0002      	movs	r2, r0
 800075a:	409f      	lsls	r7, r3
 800075c:	4332      	orrs	r2, r6
 800075e:	429c      	cmp	r4, r3
 8000760:	dd00      	ble.n	8000764 <__aeabi_dadd+0xd4>
 8000762:	e1a6      	b.n	8000ab2 <__aeabi_dadd+0x422>
 8000764:	1b18      	subs	r0, r3, r4
 8000766:	3001      	adds	r0, #1
 8000768:	1a09      	subs	r1, r1, r0
 800076a:	003e      	movs	r6, r7
 800076c:	408f      	lsls	r7, r1
 800076e:	40c6      	lsrs	r6, r0
 8000770:	1e7b      	subs	r3, r7, #1
 8000772:	419f      	sbcs	r7, r3
 8000774:	0013      	movs	r3, r2
 8000776:	408b      	lsls	r3, r1
 8000778:	4337      	orrs	r7, r6
 800077a:	431f      	orrs	r7, r3
 800077c:	40c2      	lsrs	r2, r0
 800077e:	003b      	movs	r3, r7
 8000780:	0016      	movs	r6, r2
 8000782:	2400      	movs	r4, #0
 8000784:	4313      	orrs	r3, r2
 8000786:	d100      	bne.n	800078a <__aeabi_dadd+0xfa>
 8000788:	e1df      	b.n	8000b4a <__aeabi_dadd+0x4ba>
 800078a:	077b      	lsls	r3, r7, #29
 800078c:	d100      	bne.n	8000790 <__aeabi_dadd+0x100>
 800078e:	e332      	b.n	8000df6 <__aeabi_dadd+0x766>
 8000790:	230f      	movs	r3, #15
 8000792:	003a      	movs	r2, r7
 8000794:	403b      	ands	r3, r7
 8000796:	2b04      	cmp	r3, #4
 8000798:	d004      	beq.n	80007a4 <__aeabi_dadd+0x114>
 800079a:	1d3a      	adds	r2, r7, #4
 800079c:	42ba      	cmp	r2, r7
 800079e:	41bf      	sbcs	r7, r7
 80007a0:	427f      	negs	r7, r7
 80007a2:	19f6      	adds	r6, r6, r7
 80007a4:	0233      	lsls	r3, r6, #8
 80007a6:	d400      	bmi.n	80007aa <__aeabi_dadd+0x11a>
 80007a8:	e323      	b.n	8000df2 <__aeabi_dadd+0x762>
 80007aa:	4b9c      	ldr	r3, [pc, #624]	@ (8000a1c <__aeabi_dadd+0x38c>)
 80007ac:	3401      	adds	r4, #1
 80007ae:	429c      	cmp	r4, r3
 80007b0:	d100      	bne.n	80007b4 <__aeabi_dadd+0x124>
 80007b2:	e0b4      	b.n	800091e <__aeabi_dadd+0x28e>
 80007b4:	4b9a      	ldr	r3, [pc, #616]	@ (8000a20 <__aeabi_dadd+0x390>)
 80007b6:	0564      	lsls	r4, r4, #21
 80007b8:	401e      	ands	r6, r3
 80007ba:	0d64      	lsrs	r4, r4, #21
 80007bc:	0777      	lsls	r7, r6, #29
 80007be:	08d2      	lsrs	r2, r2, #3
 80007c0:	0276      	lsls	r6, r6, #9
 80007c2:	4317      	orrs	r7, r2
 80007c4:	0b36      	lsrs	r6, r6, #12
 80007c6:	e0ac      	b.n	8000922 <__aeabi_dadd+0x292>
 80007c8:	2900      	cmp	r1, #0
 80007ca:	d100      	bne.n	80007ce <__aeabi_dadd+0x13e>
 80007cc:	e07e      	b.n	80008cc <__aeabi_dadd+0x23c>
 80007ce:	4641      	mov	r1, r8
 80007d0:	1b09      	subs	r1, r1, r4
 80007d2:	2c00      	cmp	r4, #0
 80007d4:	d000      	beq.n	80007d8 <__aeabi_dadd+0x148>
 80007d6:	e160      	b.n	8000a9a <__aeabi_dadd+0x40a>
 80007d8:	0034      	movs	r4, r6
 80007da:	4648      	mov	r0, r9
 80007dc:	4304      	orrs	r4, r0
 80007de:	d100      	bne.n	80007e2 <__aeabi_dadd+0x152>
 80007e0:	e1c9      	b.n	8000b76 <__aeabi_dadd+0x4e6>
 80007e2:	1e4c      	subs	r4, r1, #1
 80007e4:	2901      	cmp	r1, #1
 80007e6:	d100      	bne.n	80007ea <__aeabi_dadd+0x15a>
 80007e8:	e22e      	b.n	8000c48 <__aeabi_dadd+0x5b8>
 80007ea:	4d8c      	ldr	r5, [pc, #560]	@ (8000a1c <__aeabi_dadd+0x38c>)
 80007ec:	42a9      	cmp	r1, r5
 80007ee:	d100      	bne.n	80007f2 <__aeabi_dadd+0x162>
 80007f0:	e224      	b.n	8000c3c <__aeabi_dadd+0x5ac>
 80007f2:	2701      	movs	r7, #1
 80007f4:	2c38      	cmp	r4, #56	@ 0x38
 80007f6:	dc11      	bgt.n	800081c <__aeabi_dadd+0x18c>
 80007f8:	0021      	movs	r1, r4
 80007fa:	291f      	cmp	r1, #31
 80007fc:	dd00      	ble.n	8000800 <__aeabi_dadd+0x170>
 80007fe:	e20b      	b.n	8000c18 <__aeabi_dadd+0x588>
 8000800:	2420      	movs	r4, #32
 8000802:	0037      	movs	r7, r6
 8000804:	4648      	mov	r0, r9
 8000806:	1a64      	subs	r4, r4, r1
 8000808:	40a7      	lsls	r7, r4
 800080a:	40c8      	lsrs	r0, r1
 800080c:	4307      	orrs	r7, r0
 800080e:	4648      	mov	r0, r9
 8000810:	40a0      	lsls	r0, r4
 8000812:	40ce      	lsrs	r6, r1
 8000814:	1e44      	subs	r4, r0, #1
 8000816:	41a0      	sbcs	r0, r4
 8000818:	1b9b      	subs	r3, r3, r6
 800081a:	4307      	orrs	r7, r0
 800081c:	1bd7      	subs	r7, r2, r7
 800081e:	42ba      	cmp	r2, r7
 8000820:	4192      	sbcs	r2, r2
 8000822:	4252      	negs	r2, r2
 8000824:	4665      	mov	r5, ip
 8000826:	4644      	mov	r4, r8
 8000828:	1a9e      	subs	r6, r3, r2
 800082a:	e783      	b.n	8000734 <__aeabi_dadd+0xa4>
 800082c:	2900      	cmp	r1, #0
 800082e:	dc00      	bgt.n	8000832 <__aeabi_dadd+0x1a2>
 8000830:	e09c      	b.n	800096c <__aeabi_dadd+0x2dc>
 8000832:	4647      	mov	r7, r8
 8000834:	2f00      	cmp	r7, #0
 8000836:	d167      	bne.n	8000908 <__aeabi_dadd+0x278>
 8000838:	001f      	movs	r7, r3
 800083a:	4317      	orrs	r7, r2
 800083c:	d100      	bne.n	8000840 <__aeabi_dadd+0x1b0>
 800083e:	e0e4      	b.n	8000a0a <__aeabi_dadd+0x37a>
 8000840:	1e48      	subs	r0, r1, #1
 8000842:	2901      	cmp	r1, #1
 8000844:	d100      	bne.n	8000848 <__aeabi_dadd+0x1b8>
 8000846:	e19b      	b.n	8000b80 <__aeabi_dadd+0x4f0>
 8000848:	4f74      	ldr	r7, [pc, #464]	@ (8000a1c <__aeabi_dadd+0x38c>)
 800084a:	42b9      	cmp	r1, r7
 800084c:	d100      	bne.n	8000850 <__aeabi_dadd+0x1c0>
 800084e:	e0eb      	b.n	8000a28 <__aeabi_dadd+0x398>
 8000850:	2701      	movs	r7, #1
 8000852:	0001      	movs	r1, r0
 8000854:	2838      	cmp	r0, #56	@ 0x38
 8000856:	dc11      	bgt.n	800087c <__aeabi_dadd+0x1ec>
 8000858:	291f      	cmp	r1, #31
 800085a:	dd00      	ble.n	800085e <__aeabi_dadd+0x1ce>
 800085c:	e1c7      	b.n	8000bee <__aeabi_dadd+0x55e>
 800085e:	2720      	movs	r7, #32
 8000860:	1a78      	subs	r0, r7, r1
 8000862:	001f      	movs	r7, r3
 8000864:	4684      	mov	ip, r0
 8000866:	4087      	lsls	r7, r0
 8000868:	0010      	movs	r0, r2
 800086a:	40c8      	lsrs	r0, r1
 800086c:	4307      	orrs	r7, r0
 800086e:	4660      	mov	r0, ip
 8000870:	4082      	lsls	r2, r0
 8000872:	40cb      	lsrs	r3, r1
 8000874:	1e50      	subs	r0, r2, #1
 8000876:	4182      	sbcs	r2, r0
 8000878:	18f6      	adds	r6, r6, r3
 800087a:	4317      	orrs	r7, r2
 800087c:	444f      	add	r7, r9
 800087e:	454f      	cmp	r7, r9
 8000880:	4180      	sbcs	r0, r0
 8000882:	4240      	negs	r0, r0
 8000884:	1836      	adds	r6, r6, r0
 8000886:	0233      	lsls	r3, r6, #8
 8000888:	d557      	bpl.n	800093a <__aeabi_dadd+0x2aa>
 800088a:	4b64      	ldr	r3, [pc, #400]	@ (8000a1c <__aeabi_dadd+0x38c>)
 800088c:	3401      	adds	r4, #1
 800088e:	429c      	cmp	r4, r3
 8000890:	d045      	beq.n	800091e <__aeabi_dadd+0x28e>
 8000892:	2101      	movs	r1, #1
 8000894:	4b62      	ldr	r3, [pc, #392]	@ (8000a20 <__aeabi_dadd+0x390>)
 8000896:	087a      	lsrs	r2, r7, #1
 8000898:	401e      	ands	r6, r3
 800089a:	4039      	ands	r1, r7
 800089c:	430a      	orrs	r2, r1
 800089e:	07f7      	lsls	r7, r6, #31
 80008a0:	4317      	orrs	r7, r2
 80008a2:	0876      	lsrs	r6, r6, #1
 80008a4:	e771      	b.n	800078a <__aeabi_dadd+0xfa>
 80008a6:	001f      	movs	r7, r3
 80008a8:	4317      	orrs	r7, r2
 80008aa:	d100      	bne.n	80008ae <__aeabi_dadd+0x21e>
 80008ac:	e0ad      	b.n	8000a0a <__aeabi_dadd+0x37a>
 80008ae:	1e4f      	subs	r7, r1, #1
 80008b0:	46bc      	mov	ip, r7
 80008b2:	2901      	cmp	r1, #1
 80008b4:	d100      	bne.n	80008b8 <__aeabi_dadd+0x228>
 80008b6:	e182      	b.n	8000bbe <__aeabi_dadd+0x52e>
 80008b8:	4f58      	ldr	r7, [pc, #352]	@ (8000a1c <__aeabi_dadd+0x38c>)
 80008ba:	42b9      	cmp	r1, r7
 80008bc:	d100      	bne.n	80008c0 <__aeabi_dadd+0x230>
 80008be:	e190      	b.n	8000be2 <__aeabi_dadd+0x552>
 80008c0:	4661      	mov	r1, ip
 80008c2:	2701      	movs	r7, #1
 80008c4:	2938      	cmp	r1, #56	@ 0x38
 80008c6:	dd00      	ble.n	80008ca <__aeabi_dadd+0x23a>
 80008c8:	e72e      	b.n	8000728 <__aeabi_dadd+0x98>
 80008ca:	e718      	b.n	80006fe <__aeabi_dadd+0x6e>
 80008cc:	4f55      	ldr	r7, [pc, #340]	@ (8000a24 <__aeabi_dadd+0x394>)
 80008ce:	1c61      	adds	r1, r4, #1
 80008d0:	4239      	tst	r1, r7
 80008d2:	d000      	beq.n	80008d6 <__aeabi_dadd+0x246>
 80008d4:	e0d0      	b.n	8000a78 <__aeabi_dadd+0x3e8>
 80008d6:	0031      	movs	r1, r6
 80008d8:	4648      	mov	r0, r9
 80008da:	001f      	movs	r7, r3
 80008dc:	4301      	orrs	r1, r0
 80008de:	4317      	orrs	r7, r2
 80008e0:	2c00      	cmp	r4, #0
 80008e2:	d000      	beq.n	80008e6 <__aeabi_dadd+0x256>
 80008e4:	e13d      	b.n	8000b62 <__aeabi_dadd+0x4d2>
 80008e6:	2900      	cmp	r1, #0
 80008e8:	d100      	bne.n	80008ec <__aeabi_dadd+0x25c>
 80008ea:	e1bc      	b.n	8000c66 <__aeabi_dadd+0x5d6>
 80008ec:	2f00      	cmp	r7, #0
 80008ee:	d000      	beq.n	80008f2 <__aeabi_dadd+0x262>
 80008f0:	e1bf      	b.n	8000c72 <__aeabi_dadd+0x5e2>
 80008f2:	464b      	mov	r3, r9
 80008f4:	2100      	movs	r1, #0
 80008f6:	08d8      	lsrs	r0, r3, #3
 80008f8:	0777      	lsls	r7, r6, #29
 80008fa:	4307      	orrs	r7, r0
 80008fc:	08f0      	lsrs	r0, r6, #3
 80008fe:	0306      	lsls	r6, r0, #12
 8000900:	054c      	lsls	r4, r1, #21
 8000902:	0b36      	lsrs	r6, r6, #12
 8000904:	0d64      	lsrs	r4, r4, #21
 8000906:	e00c      	b.n	8000922 <__aeabi_dadd+0x292>
 8000908:	4f44      	ldr	r7, [pc, #272]	@ (8000a1c <__aeabi_dadd+0x38c>)
 800090a:	42bc      	cmp	r4, r7
 800090c:	d100      	bne.n	8000910 <__aeabi_dadd+0x280>
 800090e:	e08b      	b.n	8000a28 <__aeabi_dadd+0x398>
 8000910:	2701      	movs	r7, #1
 8000912:	2938      	cmp	r1, #56	@ 0x38
 8000914:	dcb2      	bgt.n	800087c <__aeabi_dadd+0x1ec>
 8000916:	2780      	movs	r7, #128	@ 0x80
 8000918:	043f      	lsls	r7, r7, #16
 800091a:	433b      	orrs	r3, r7
 800091c:	e79c      	b.n	8000858 <__aeabi_dadd+0x1c8>
 800091e:	2600      	movs	r6, #0
 8000920:	2700      	movs	r7, #0
 8000922:	0524      	lsls	r4, r4, #20
 8000924:	4334      	orrs	r4, r6
 8000926:	07ed      	lsls	r5, r5, #31
 8000928:	432c      	orrs	r4, r5
 800092a:	0038      	movs	r0, r7
 800092c:	0021      	movs	r1, r4
 800092e:	b002      	add	sp, #8
 8000930:	bce0      	pop	{r5, r6, r7}
 8000932:	46ba      	mov	sl, r7
 8000934:	46b1      	mov	r9, r6
 8000936:	46a8      	mov	r8, r5
 8000938:	bdf0      	pop	{r4, r5, r6, r7, pc}
 800093a:	077b      	lsls	r3, r7, #29
 800093c:	d004      	beq.n	8000948 <__aeabi_dadd+0x2b8>
 800093e:	230f      	movs	r3, #15
 8000940:	403b      	ands	r3, r7
 8000942:	2b04      	cmp	r3, #4
 8000944:	d000      	beq.n	8000948 <__aeabi_dadd+0x2b8>
 8000946:	e728      	b.n	800079a <__aeabi_dadd+0x10a>
 8000948:	08f8      	lsrs	r0, r7, #3
 800094a:	4b34      	ldr	r3, [pc, #208]	@ (8000a1c <__aeabi_dadd+0x38c>)
 800094c:	0777      	lsls	r7, r6, #29
 800094e:	4307      	orrs	r7, r0
 8000950:	08f0      	lsrs	r0, r6, #3
 8000952:	429c      	cmp	r4, r3
 8000954:	d000      	beq.n	8000958 <__aeabi_dadd+0x2c8>
 8000956:	e24a      	b.n	8000dee <__aeabi_dadd+0x75e>
 8000958:	003b      	movs	r3, r7
 800095a:	4303      	orrs	r3, r0
 800095c:	d059      	beq.n	8000a12 <__aeabi_dadd+0x382>
 800095e:	2680      	movs	r6, #128	@ 0x80
 8000960:	0336      	lsls	r6, r6, #12
 8000962:	4306      	orrs	r6, r0
 8000964:	0336      	lsls	r6, r6, #12
 8000966:	4c2d      	ldr	r4, [pc, #180]	@ (8000a1c <__aeabi_dadd+0x38c>)
 8000968:	0b36      	lsrs	r6, r6, #12
 800096a:	e7da      	b.n	8000922 <__aeabi_dadd+0x292>
 800096c:	2900      	cmp	r1, #0
 800096e:	d061      	beq.n	8000a34 <__aeabi_dadd+0x3a4>
 8000970:	4641      	mov	r1, r8
 8000972:	1b09      	subs	r1, r1, r4
 8000974:	2c00      	cmp	r4, #0
 8000976:	d100      	bne.n	800097a <__aeabi_dadd+0x2ea>
 8000978:	e0b9      	b.n	8000aee <__aeabi_dadd+0x45e>
 800097a:	4c28      	ldr	r4, [pc, #160]	@ (8000a1c <__aeabi_dadd+0x38c>)
 800097c:	45a0      	cmp	r8, r4
 800097e:	d100      	bne.n	8000982 <__aeabi_dadd+0x2f2>
 8000980:	e1a5      	b.n	8000cce <__aeabi_dadd+0x63e>
 8000982:	2701      	movs	r7, #1
 8000984:	2938      	cmp	r1, #56	@ 0x38
 8000986:	dc13      	bgt.n	80009b0 <__aeabi_dadd+0x320>
 8000988:	2480      	movs	r4, #128	@ 0x80
 800098a:	0424      	lsls	r4, r4, #16
 800098c:	4326      	orrs	r6, r4
 800098e:	291f      	cmp	r1, #31
 8000990:	dd00      	ble.n	8000994 <__aeabi_dadd+0x304>
 8000992:	e1c8      	b.n	8000d26 <__aeabi_dadd+0x696>
 8000994:	2420      	movs	r4, #32
 8000996:	0037      	movs	r7, r6
 8000998:	4648      	mov	r0, r9
 800099a:	1a64      	subs	r4, r4, r1
 800099c:	40a7      	lsls	r7, r4
 800099e:	40c8      	lsrs	r0, r1
 80009a0:	4307      	orrs	r7, r0
 80009a2:	4648      	mov	r0, r9
 80009a4:	40a0      	lsls	r0, r4
 80009a6:	40ce      	lsrs	r6, r1
 80009a8:	1e44      	subs	r4, r0, #1
 80009aa:	41a0      	sbcs	r0, r4
 80009ac:	199b      	adds	r3, r3, r6
 80009ae:	4307      	orrs	r7, r0
 80009b0:	18bf      	adds	r7, r7, r2
 80009b2:	4297      	cmp	r7, r2
 80009b4:	4192      	sbcs	r2, r2
 80009b6:	4252      	negs	r2, r2
 80009b8:	4644      	mov	r4, r8
 80009ba:	18d6      	adds	r6, r2, r3
 80009bc:	e763      	b.n	8000886 <__aeabi_dadd+0x1f6>
 80009be:	0038      	movs	r0, r7
 80009c0:	f001 fe06 	bl	80025d0 <__clzsi2>
 80009c4:	0003      	movs	r3, r0
 80009c6:	3318      	adds	r3, #24
 80009c8:	2b1f      	cmp	r3, #31
 80009ca:	dc00      	bgt.n	80009ce <__aeabi_dadd+0x33e>
 80009cc:	e6bf      	b.n	800074e <__aeabi_dadd+0xbe>
 80009ce:	003a      	movs	r2, r7
 80009d0:	3808      	subs	r0, #8
 80009d2:	4082      	lsls	r2, r0
 80009d4:	429c      	cmp	r4, r3
 80009d6:	dd00      	ble.n	80009da <__aeabi_dadd+0x34a>
 80009d8:	e083      	b.n	8000ae2 <__aeabi_dadd+0x452>
 80009da:	1b1b      	subs	r3, r3, r4
 80009dc:	1c58      	adds	r0, r3, #1
 80009de:	281f      	cmp	r0, #31
 80009e0:	dc00      	bgt.n	80009e4 <__aeabi_dadd+0x354>
 80009e2:	e1b4      	b.n	8000d4e <__aeabi_dadd+0x6be>
 80009e4:	0017      	movs	r7, r2
 80009e6:	3b1f      	subs	r3, #31
 80009e8:	40df      	lsrs	r7, r3
 80009ea:	2820      	cmp	r0, #32
 80009ec:	d005      	beq.n	80009fa <__aeabi_dadd+0x36a>
 80009ee:	2340      	movs	r3, #64	@ 0x40
 80009f0:	1a1b      	subs	r3, r3, r0
 80009f2:	409a      	lsls	r2, r3
 80009f4:	1e53      	subs	r3, r2, #1
 80009f6:	419a      	sbcs	r2, r3
 80009f8:	4317      	orrs	r7, r2
 80009fa:	2400      	movs	r4, #0
 80009fc:	2f00      	cmp	r7, #0
 80009fe:	d00a      	beq.n	8000a16 <__aeabi_dadd+0x386>
 8000a00:	077b      	lsls	r3, r7, #29
 8000a02:	d000      	beq.n	8000a06 <__aeabi_dadd+0x376>
 8000a04:	e6c4      	b.n	8000790 <__aeabi_dadd+0x100>
 8000a06:	0026      	movs	r6, r4
 8000a08:	e79e      	b.n	8000948 <__aeabi_dadd+0x2b8>
 8000a0a:	464b      	mov	r3, r9
 8000a0c:	000c      	movs	r4, r1
 8000a0e:	08d8      	lsrs	r0, r3, #3
 8000a10:	e79b      	b.n	800094a <__aeabi_dadd+0x2ba>
 8000a12:	2700      	movs	r7, #0
 8000a14:	4c01      	ldr	r4, [pc, #4]	@ (8000a1c <__aeabi_dadd+0x38c>)
 8000a16:	2600      	movs	r6, #0
 8000a18:	e783      	b.n	8000922 <__aeabi_dadd+0x292>
 8000a1a:	46c0      	nop			@ (mov r8, r8)
 8000a1c:	000007ff 	.word	0x000007ff
 8000a20:	ff7fffff 	.word	0xff7fffff
 8000a24:	000007fe 	.word	0x000007fe
 8000a28:	464b      	mov	r3, r9
 8000a2a:	0777      	lsls	r7, r6, #29
 8000a2c:	08d8      	lsrs	r0, r3, #3
 8000a2e:	4307      	orrs	r7, r0
 8000a30:	08f0      	lsrs	r0, r6, #3
 8000a32:	e791      	b.n	8000958 <__aeabi_dadd+0x2c8>
 8000a34:	4fcd      	ldr	r7, [pc, #820]	@ (8000d6c <__aeabi_dadd+0x6dc>)
 8000a36:	1c61      	adds	r1, r4, #1
 8000a38:	4239      	tst	r1, r7
 8000a3a:	d16b      	bne.n	8000b14 <__aeabi_dadd+0x484>
 8000a3c:	0031      	movs	r1, r6
 8000a3e:	4648      	mov	r0, r9
 8000a40:	4301      	orrs	r1, r0
 8000a42:	2c00      	cmp	r4, #0
 8000a44:	d000      	beq.n	8000a48 <__aeabi_dadd+0x3b8>
 8000a46:	e14b      	b.n	8000ce0 <__aeabi_dadd+0x650>
 8000a48:	001f      	movs	r7, r3
 8000a4a:	4317      	orrs	r7, r2
 8000a4c:	2900      	cmp	r1, #0
 8000a4e:	d100      	bne.n	8000a52 <__aeabi_dadd+0x3c2>
 8000a50:	e181      	b.n	8000d56 <__aeabi_dadd+0x6c6>
 8000a52:	2f00      	cmp	r7, #0
 8000a54:	d100      	bne.n	8000a58 <__aeabi_dadd+0x3c8>
 8000a56:	e74c      	b.n	80008f2 <__aeabi_dadd+0x262>
 8000a58:	444a      	add	r2, r9
 8000a5a:	454a      	cmp	r2, r9
 8000a5c:	4180      	sbcs	r0, r0
 8000a5e:	18f6      	adds	r6, r6, r3
 8000a60:	4240      	negs	r0, r0
 8000a62:	1836      	adds	r6, r6, r0
 8000a64:	0233      	lsls	r3, r6, #8
 8000a66:	d500      	bpl.n	8000a6a <__aeabi_dadd+0x3da>
 8000a68:	e1b0      	b.n	8000dcc <__aeabi_dadd+0x73c>
 8000a6a:	0017      	movs	r7, r2
 8000a6c:	4691      	mov	r9, r2
 8000a6e:	4337      	orrs	r7, r6
 8000a70:	d000      	beq.n	8000a74 <__aeabi_dadd+0x3e4>
 8000a72:	e73e      	b.n	80008f2 <__aeabi_dadd+0x262>
 8000a74:	2600      	movs	r6, #0
 8000a76:	e754      	b.n	8000922 <__aeabi_dadd+0x292>
 8000a78:	4649      	mov	r1, r9
 8000a7a:	1a89      	subs	r1, r1, r2
 8000a7c:	4688      	mov	r8, r1
 8000a7e:	45c1      	cmp	r9, r8
 8000a80:	41bf      	sbcs	r7, r7
 8000a82:	1af1      	subs	r1, r6, r3
 8000a84:	427f      	negs	r7, r7
 8000a86:	1bc9      	subs	r1, r1, r7
 8000a88:	020f      	lsls	r7, r1, #8
 8000a8a:	d461      	bmi.n	8000b50 <__aeabi_dadd+0x4c0>
 8000a8c:	4647      	mov	r7, r8
 8000a8e:	430f      	orrs	r7, r1
 8000a90:	d100      	bne.n	8000a94 <__aeabi_dadd+0x404>
 8000a92:	e0bd      	b.n	8000c10 <__aeabi_dadd+0x580>
 8000a94:	000e      	movs	r6, r1
 8000a96:	4647      	mov	r7, r8
 8000a98:	e651      	b.n	800073e <__aeabi_dadd+0xae>
 8000a9a:	4cb5      	ldr	r4, [pc, #724]	@ (8000d70 <__aeabi_dadd+0x6e0>)
 8000a9c:	45a0      	cmp	r8, r4
 8000a9e:	d100      	bne.n	8000aa2 <__aeabi_dadd+0x412>
 8000aa0:	e100      	b.n	8000ca4 <__aeabi_dadd+0x614>
 8000aa2:	2701      	movs	r7, #1
 8000aa4:	2938      	cmp	r1, #56	@ 0x38
 8000aa6:	dd00      	ble.n	8000aaa <__aeabi_dadd+0x41a>
 8000aa8:	e6b8      	b.n	800081c <__aeabi_dadd+0x18c>
 8000aaa:	2480      	movs	r4, #128	@ 0x80
 8000aac:	0424      	lsls	r4, r4, #16
 8000aae:	4326      	orrs	r6, r4
 8000ab0:	e6a3      	b.n	80007fa <__aeabi_dadd+0x16a>
 8000ab2:	4eb0      	ldr	r6, [pc, #704]	@ (8000d74 <__aeabi_dadd+0x6e4>)
 8000ab4:	1ae4      	subs	r4, r4, r3
 8000ab6:	4016      	ands	r6, r2
 8000ab8:	077b      	lsls	r3, r7, #29
 8000aba:	d000      	beq.n	8000abe <__aeabi_dadd+0x42e>
 8000abc:	e73f      	b.n	800093e <__aeabi_dadd+0x2ae>
 8000abe:	e743      	b.n	8000948 <__aeabi_dadd+0x2b8>
 8000ac0:	000f      	movs	r7, r1
 8000ac2:	0018      	movs	r0, r3
 8000ac4:	3f20      	subs	r7, #32
 8000ac6:	40f8      	lsrs	r0, r7
 8000ac8:	4684      	mov	ip, r0
 8000aca:	2920      	cmp	r1, #32
 8000acc:	d003      	beq.n	8000ad6 <__aeabi_dadd+0x446>
 8000ace:	2740      	movs	r7, #64	@ 0x40
 8000ad0:	1a79      	subs	r1, r7, r1
 8000ad2:	408b      	lsls	r3, r1
 8000ad4:	431a      	orrs	r2, r3
 8000ad6:	1e53      	subs	r3, r2, #1
 8000ad8:	419a      	sbcs	r2, r3
 8000ada:	4663      	mov	r3, ip
 8000adc:	0017      	movs	r7, r2
 8000ade:	431f      	orrs	r7, r3
 8000ae0:	e622      	b.n	8000728 <__aeabi_dadd+0x98>
 8000ae2:	48a4      	ldr	r0, [pc, #656]	@ (8000d74 <__aeabi_dadd+0x6e4>)
 8000ae4:	1ae1      	subs	r1, r4, r3
 8000ae6:	4010      	ands	r0, r2
 8000ae8:	0747      	lsls	r7, r0, #29
 8000aea:	08c0      	lsrs	r0, r0, #3
 8000aec:	e707      	b.n	80008fe <__aeabi_dadd+0x26e>
 8000aee:	0034      	movs	r4, r6
 8000af0:	4648      	mov	r0, r9
 8000af2:	4304      	orrs	r4, r0
 8000af4:	d100      	bne.n	8000af8 <__aeabi_dadd+0x468>
 8000af6:	e0fa      	b.n	8000cee <__aeabi_dadd+0x65e>
 8000af8:	1e4c      	subs	r4, r1, #1
 8000afa:	2901      	cmp	r1, #1
 8000afc:	d100      	bne.n	8000b00 <__aeabi_dadd+0x470>
 8000afe:	e0d7      	b.n	8000cb0 <__aeabi_dadd+0x620>
 8000b00:	4f9b      	ldr	r7, [pc, #620]	@ (8000d70 <__aeabi_dadd+0x6e0>)
 8000b02:	42b9      	cmp	r1, r7
 8000b04:	d100      	bne.n	8000b08 <__aeabi_dadd+0x478>
 8000b06:	e0e2      	b.n	8000cce <__aeabi_dadd+0x63e>
 8000b08:	2701      	movs	r7, #1
 8000b0a:	2c38      	cmp	r4, #56	@ 0x38
 8000b0c:	dd00      	ble.n	8000b10 <__aeabi_dadd+0x480>
 8000b0e:	e74f      	b.n	80009b0 <__aeabi_dadd+0x320>
 8000b10:	0021      	movs	r1, r4
 8000b12:	e73c      	b.n	800098e <__aeabi_dadd+0x2fe>
 8000b14:	4c96      	ldr	r4, [pc, #600]	@ (8000d70 <__aeabi_dadd+0x6e0>)
 8000b16:	42a1      	cmp	r1, r4
 8000b18:	d100      	bne.n	8000b1c <__aeabi_dadd+0x48c>
 8000b1a:	e0dd      	b.n	8000cd8 <__aeabi_dadd+0x648>
 8000b1c:	444a      	add	r2, r9
 8000b1e:	454a      	cmp	r2, r9
 8000b20:	4180      	sbcs	r0, r0
 8000b22:	18f3      	adds	r3, r6, r3
 8000b24:	4240      	negs	r0, r0
 8000b26:	1818      	adds	r0, r3, r0
 8000b28:	07c7      	lsls	r7, r0, #31
 8000b2a:	0852      	lsrs	r2, r2, #1
 8000b2c:	4317      	orrs	r7, r2
 8000b2e:	0846      	lsrs	r6, r0, #1
 8000b30:	0752      	lsls	r2, r2, #29
 8000b32:	d005      	beq.n	8000b40 <__aeabi_dadd+0x4b0>
 8000b34:	220f      	movs	r2, #15
 8000b36:	000c      	movs	r4, r1
 8000b38:	403a      	ands	r2, r7
 8000b3a:	2a04      	cmp	r2, #4
 8000b3c:	d000      	beq.n	8000b40 <__aeabi_dadd+0x4b0>
 8000b3e:	e62c      	b.n	800079a <__aeabi_dadd+0x10a>
 8000b40:	0776      	lsls	r6, r6, #29
 8000b42:	08ff      	lsrs	r7, r7, #3
 8000b44:	4337      	orrs	r7, r6
 8000b46:	0900      	lsrs	r0, r0, #4
 8000b48:	e6d9      	b.n	80008fe <__aeabi_dadd+0x26e>
 8000b4a:	2700      	movs	r7, #0
 8000b4c:	2600      	movs	r6, #0
 8000b4e:	e6e8      	b.n	8000922 <__aeabi_dadd+0x292>
 8000b50:	4649      	mov	r1, r9
 8000b52:	1a57      	subs	r7, r2, r1
 8000b54:	42ba      	cmp	r2, r7
 8000b56:	4192      	sbcs	r2, r2
 8000b58:	1b9e      	subs	r6, r3, r6
 8000b5a:	4252      	negs	r2, r2
 8000b5c:	4665      	mov	r5, ip
 8000b5e:	1ab6      	subs	r6, r6, r2
 8000b60:	e5ed      	b.n	800073e <__aeabi_dadd+0xae>
 8000b62:	2900      	cmp	r1, #0
 8000b64:	d000      	beq.n	8000b68 <__aeabi_dadd+0x4d8>
 8000b66:	e0c6      	b.n	8000cf6 <__aeabi_dadd+0x666>
 8000b68:	2f00      	cmp	r7, #0
 8000b6a:	d167      	bne.n	8000c3c <__aeabi_dadd+0x5ac>
 8000b6c:	2680      	movs	r6, #128	@ 0x80
 8000b6e:	2500      	movs	r5, #0
 8000b70:	4c7f      	ldr	r4, [pc, #508]	@ (8000d70 <__aeabi_dadd+0x6e0>)
 8000b72:	0336      	lsls	r6, r6, #12
 8000b74:	e6d5      	b.n	8000922 <__aeabi_dadd+0x292>
 8000b76:	4665      	mov	r5, ip
 8000b78:	000c      	movs	r4, r1
 8000b7a:	001e      	movs	r6, r3
 8000b7c:	08d0      	lsrs	r0, r2, #3
 8000b7e:	e6e4      	b.n	800094a <__aeabi_dadd+0x2ba>
 8000b80:	444a      	add	r2, r9
 8000b82:	454a      	cmp	r2, r9
 8000b84:	4180      	sbcs	r0, r0
 8000b86:	18f3      	adds	r3, r6, r3
 8000b88:	4240      	negs	r0, r0
 8000b8a:	1818      	adds	r0, r3, r0
 8000b8c:	0011      	movs	r1, r2
 8000b8e:	0203      	lsls	r3, r0, #8
 8000b90:	d400      	bmi.n	8000b94 <__aeabi_dadd+0x504>
 8000b92:	e096      	b.n	8000cc2 <__aeabi_dadd+0x632>
 8000b94:	4b77      	ldr	r3, [pc, #476]	@ (8000d74 <__aeabi_dadd+0x6e4>)
 8000b96:	0849      	lsrs	r1, r1, #1
 8000b98:	4018      	ands	r0, r3
 8000b9a:	07c3      	lsls	r3, r0, #31
 8000b9c:	430b      	orrs	r3, r1
 8000b9e:	0844      	lsrs	r4, r0, #1
 8000ba0:	0749      	lsls	r1, r1, #29
 8000ba2:	d100      	bne.n	8000ba6 <__aeabi_dadd+0x516>
 8000ba4:	e129      	b.n	8000dfa <__aeabi_dadd+0x76a>
 8000ba6:	220f      	movs	r2, #15
 8000ba8:	401a      	ands	r2, r3
 8000baa:	2a04      	cmp	r2, #4
 8000bac:	d100      	bne.n	8000bb0 <__aeabi_dadd+0x520>
 8000bae:	e0ea      	b.n	8000d86 <__aeabi_dadd+0x6f6>
 8000bb0:	1d1f      	adds	r7, r3, #4
 8000bb2:	429f      	cmp	r7, r3
 8000bb4:	41b6      	sbcs	r6, r6
 8000bb6:	4276      	negs	r6, r6
 8000bb8:	1936      	adds	r6, r6, r4
 8000bba:	2402      	movs	r4, #2
 8000bbc:	e6c4      	b.n	8000948 <__aeabi_dadd+0x2b8>
 8000bbe:	4649      	mov	r1, r9
 8000bc0:	1a8f      	subs	r7, r1, r2
 8000bc2:	45b9      	cmp	r9, r7
 8000bc4:	4180      	sbcs	r0, r0
 8000bc6:	1af6      	subs	r6, r6, r3
 8000bc8:	4240      	negs	r0, r0
 8000bca:	1a36      	subs	r6, r6, r0
 8000bcc:	0233      	lsls	r3, r6, #8
 8000bce:	d406      	bmi.n	8000bde <__aeabi_dadd+0x54e>
 8000bd0:	0773      	lsls	r3, r6, #29
 8000bd2:	08ff      	lsrs	r7, r7, #3
 8000bd4:	2101      	movs	r1, #1
 8000bd6:	431f      	orrs	r7, r3
 8000bd8:	08f0      	lsrs	r0, r6, #3
 8000bda:	e690      	b.n	80008fe <__aeabi_dadd+0x26e>
 8000bdc:	4665      	mov	r5, ip
 8000bde:	2401      	movs	r4, #1
 8000be0:	e5ab      	b.n	800073a <__aeabi_dadd+0xaa>
 8000be2:	464b      	mov	r3, r9
 8000be4:	0777      	lsls	r7, r6, #29
 8000be6:	08d8      	lsrs	r0, r3, #3
 8000be8:	4307      	orrs	r7, r0
 8000bea:	08f0      	lsrs	r0, r6, #3
 8000bec:	e6b4      	b.n	8000958 <__aeabi_dadd+0x2c8>
 8000bee:	000f      	movs	r7, r1
 8000bf0:	0018      	movs	r0, r3
 8000bf2:	3f20      	subs	r7, #32
 8000bf4:	40f8      	lsrs	r0, r7
 8000bf6:	4684      	mov	ip, r0
 8000bf8:	2920      	cmp	r1, #32
 8000bfa:	d003      	beq.n	8000c04 <__aeabi_dadd+0x574>
 8000bfc:	2740      	movs	r7, #64	@ 0x40
 8000bfe:	1a79      	subs	r1, r7, r1
 8000c00:	408b      	lsls	r3, r1
 8000c02:	431a      	orrs	r2, r3
 8000c04:	1e53      	subs	r3, r2, #1
 8000c06:	419a      	sbcs	r2, r3
 8000c08:	4663      	mov	r3, ip
 8000c0a:	0017      	movs	r7, r2
 8000c0c:	431f      	orrs	r7, r3
 8000c0e:	e635      	b.n	800087c <__aeabi_dadd+0x1ec>
 8000c10:	2500      	movs	r5, #0
 8000c12:	2400      	movs	r4, #0
 8000c14:	2600      	movs	r6, #0
 8000c16:	e684      	b.n	8000922 <__aeabi_dadd+0x292>
 8000c18:	000c      	movs	r4, r1
 8000c1a:	0035      	movs	r5, r6
 8000c1c:	3c20      	subs	r4, #32
 8000c1e:	40e5      	lsrs	r5, r4
 8000c20:	2920      	cmp	r1, #32
 8000c22:	d005      	beq.n	8000c30 <__aeabi_dadd+0x5a0>
 8000c24:	2440      	movs	r4, #64	@ 0x40
 8000c26:	1a61      	subs	r1, r4, r1
 8000c28:	408e      	lsls	r6, r1
 8000c2a:	4649      	mov	r1, r9
 8000c2c:	4331      	orrs	r1, r6
 8000c2e:	4689      	mov	r9, r1
 8000c30:	4648      	mov	r0, r9
 8000c32:	1e41      	subs	r1, r0, #1
 8000c34:	4188      	sbcs	r0, r1
 8000c36:	0007      	movs	r7, r0
 8000c38:	432f      	orrs	r7, r5
 8000c3a:	e5ef      	b.n	800081c <__aeabi_dadd+0x18c>
 8000c3c:	08d2      	lsrs	r2, r2, #3
 8000c3e:	075f      	lsls	r7, r3, #29
 8000c40:	4665      	mov	r5, ip
 8000c42:	4317      	orrs	r7, r2
 8000c44:	08d8      	lsrs	r0, r3, #3
 8000c46:	e687      	b.n	8000958 <__aeabi_dadd+0x2c8>
 8000c48:	1a17      	subs	r7, r2, r0
 8000c4a:	42ba      	cmp	r2, r7
 8000c4c:	4192      	sbcs	r2, r2
 8000c4e:	1b9e      	subs	r6, r3, r6
 8000c50:	4252      	negs	r2, r2
 8000c52:	1ab6      	subs	r6, r6, r2
 8000c54:	0233      	lsls	r3, r6, #8
 8000c56:	d4c1      	bmi.n	8000bdc <__aeabi_dadd+0x54c>
 8000c58:	0773      	lsls	r3, r6, #29
 8000c5a:	08ff      	lsrs	r7, r7, #3
 8000c5c:	4665      	mov	r5, ip
 8000c5e:	2101      	movs	r1, #1
 8000c60:	431f      	orrs	r7, r3
 8000c62:	08f0      	lsrs	r0, r6, #3
 8000c64:	e64b      	b.n	80008fe <__aeabi_dadd+0x26e>
 8000c66:	2f00      	cmp	r7, #0
 8000c68:	d07b      	beq.n	8000d62 <__aeabi_dadd+0x6d2>
 8000c6a:	4665      	mov	r5, ip
 8000c6c:	001e      	movs	r6, r3
 8000c6e:	4691      	mov	r9, r2
 8000c70:	e63f      	b.n	80008f2 <__aeabi_dadd+0x262>
 8000c72:	1a81      	subs	r1, r0, r2
 8000c74:	4688      	mov	r8, r1
 8000c76:	45c1      	cmp	r9, r8
 8000c78:	41a4      	sbcs	r4, r4
 8000c7a:	1af1      	subs	r1, r6, r3
 8000c7c:	4264      	negs	r4, r4
 8000c7e:	1b09      	subs	r1, r1, r4
 8000c80:	2480      	movs	r4, #128	@ 0x80
 8000c82:	0424      	lsls	r4, r4, #16
 8000c84:	4221      	tst	r1, r4
 8000c86:	d077      	beq.n	8000d78 <__aeabi_dadd+0x6e8>
 8000c88:	1a10      	subs	r0, r2, r0
 8000c8a:	4282      	cmp	r2, r0
 8000c8c:	4192      	sbcs	r2, r2
 8000c8e:	0007      	movs	r7, r0
 8000c90:	1b9e      	subs	r6, r3, r6
 8000c92:	4252      	negs	r2, r2
 8000c94:	1ab6      	subs	r6, r6, r2
 8000c96:	4337      	orrs	r7, r6
 8000c98:	d000      	beq.n	8000c9c <__aeabi_dadd+0x60c>
 8000c9a:	e0a0      	b.n	8000dde <__aeabi_dadd+0x74e>
 8000c9c:	4665      	mov	r5, ip
 8000c9e:	2400      	movs	r4, #0
 8000ca0:	2600      	movs	r6, #0
 8000ca2:	e63e      	b.n	8000922 <__aeabi_dadd+0x292>
 8000ca4:	075f      	lsls	r7, r3, #29
 8000ca6:	08d2      	lsrs	r2, r2, #3
 8000ca8:	4665      	mov	r5, ip
 8000caa:	4317      	orrs	r7, r2
 8000cac:	08d8      	lsrs	r0, r3, #3
 8000cae:	e653      	b.n	8000958 <__aeabi_dadd+0x2c8>
 8000cb0:	1881      	adds	r1, r0, r2
 8000cb2:	4291      	cmp	r1, r2
 8000cb4:	4192      	sbcs	r2, r2
 8000cb6:	18f0      	adds	r0, r6, r3
 8000cb8:	4252      	negs	r2, r2
 8000cba:	1880      	adds	r0, r0, r2
 8000cbc:	0203      	lsls	r3, r0, #8
 8000cbe:	d500      	bpl.n	8000cc2 <__aeabi_dadd+0x632>
 8000cc0:	e768      	b.n	8000b94 <__aeabi_dadd+0x504>
 8000cc2:	0747      	lsls	r7, r0, #29
 8000cc4:	08c9      	lsrs	r1, r1, #3
 8000cc6:	430f      	orrs	r7, r1
 8000cc8:	08c0      	lsrs	r0, r0, #3
 8000cca:	2101      	movs	r1, #1
 8000ccc:	e617      	b.n	80008fe <__aeabi_dadd+0x26e>
 8000cce:	08d2      	lsrs	r2, r2, #3
 8000cd0:	075f      	lsls	r7, r3, #29
 8000cd2:	4317      	orrs	r7, r2
 8000cd4:	08d8      	lsrs	r0, r3, #3
 8000cd6:	e63f      	b.n	8000958 <__aeabi_dadd+0x2c8>
 8000cd8:	000c      	movs	r4, r1
 8000cda:	2600      	movs	r6, #0
 8000cdc:	2700      	movs	r7, #0
 8000cde:	e620      	b.n	8000922 <__aeabi_dadd+0x292>
 8000ce0:	2900      	cmp	r1, #0
 8000ce2:	d156      	bne.n	8000d92 <__aeabi_dadd+0x702>
 8000ce4:	075f      	lsls	r7, r3, #29
 8000ce6:	08d2      	lsrs	r2, r2, #3
 8000ce8:	4317      	orrs	r7, r2
 8000cea:	08d8      	lsrs	r0, r3, #3
 8000cec:	e634      	b.n	8000958 <__aeabi_dadd+0x2c8>
 8000cee:	000c      	movs	r4, r1
 8000cf0:	001e      	movs	r6, r3
 8000cf2:	08d0      	lsrs	r0, r2, #3
 8000cf4:	e629      	b.n	800094a <__aeabi_dadd+0x2ba>
 8000cf6:	08c1      	lsrs	r1, r0, #3
 8000cf8:	0770      	lsls	r0, r6, #29
 8000cfa:	4301      	orrs	r1, r0
 8000cfc:	08f0      	lsrs	r0, r6, #3
 8000cfe:	2f00      	cmp	r7, #0
 8000d00:	d062      	beq.n	8000dc8 <__aeabi_dadd+0x738>
 8000d02:	2480      	movs	r4, #128	@ 0x80
 8000d04:	0324      	lsls	r4, r4, #12
 8000d06:	4220      	tst	r0, r4
 8000d08:	d007      	beq.n	8000d1a <__aeabi_dadd+0x68a>
 8000d0a:	08de      	lsrs	r6, r3, #3
 8000d0c:	4226      	tst	r6, r4
 8000d0e:	d104      	bne.n	8000d1a <__aeabi_dadd+0x68a>
 8000d10:	4665      	mov	r5, ip
 8000d12:	0030      	movs	r0, r6
 8000d14:	08d1      	lsrs	r1, r2, #3
 8000d16:	075b      	lsls	r3, r3, #29
 8000d18:	4319      	orrs	r1, r3
 8000d1a:	0f4f      	lsrs	r7, r1, #29
 8000d1c:	00c9      	lsls	r1, r1, #3
 8000d1e:	08c9      	lsrs	r1, r1, #3
 8000d20:	077f      	lsls	r7, r7, #29
 8000d22:	430f      	orrs	r7, r1
 8000d24:	e618      	b.n	8000958 <__aeabi_dadd+0x2c8>
 8000d26:	000c      	movs	r4, r1
 8000d28:	0030      	movs	r0, r6
 8000d2a:	3c20      	subs	r4, #32
 8000d2c:	40e0      	lsrs	r0, r4
 8000d2e:	4684      	mov	ip, r0
 8000d30:	2920      	cmp	r1, #32
 8000d32:	d005      	beq.n	8000d40 <__aeabi_dadd+0x6b0>
 8000d34:	2440      	movs	r4, #64	@ 0x40
 8000d36:	1a61      	subs	r1, r4, r1
 8000d38:	408e      	lsls	r6, r1
 8000d3a:	4649      	mov	r1, r9
 8000d3c:	4331      	orrs	r1, r6
 8000d3e:	4689      	mov	r9, r1
 8000d40:	4648      	mov	r0, r9
 8000d42:	1e41      	subs	r1, r0, #1
 8000d44:	4188      	sbcs	r0, r1
 8000d46:	4661      	mov	r1, ip
 8000d48:	0007      	movs	r7, r0
 8000d4a:	430f      	orrs	r7, r1
 8000d4c:	e630      	b.n	80009b0 <__aeabi_dadd+0x320>
 8000d4e:	2120      	movs	r1, #32
 8000d50:	2700      	movs	r7, #0
 8000d52:	1a09      	subs	r1, r1, r0
 8000d54:	e50e      	b.n	8000774 <__aeabi_dadd+0xe4>
 8000d56:	001e      	movs	r6, r3
 8000d58:	2f00      	cmp	r7, #0
 8000d5a:	d000      	beq.n	8000d5e <__aeabi_dadd+0x6ce>
 8000d5c:	e522      	b.n	80007a4 <__aeabi_dadd+0x114>
 8000d5e:	2400      	movs	r4, #0
 8000d60:	e758      	b.n	8000c14 <__aeabi_dadd+0x584>
 8000d62:	2500      	movs	r5, #0
 8000d64:	2400      	movs	r4, #0
 8000d66:	2600      	movs	r6, #0
 8000d68:	e5db      	b.n	8000922 <__aeabi_dadd+0x292>
 8000d6a:	46c0      	nop			@ (mov r8, r8)
 8000d6c:	000007fe 	.word	0x000007fe
 8000d70:	000007ff 	.word	0x000007ff
 8000d74:	ff7fffff 	.word	0xff7fffff
 8000d78:	4647      	mov	r7, r8
 8000d7a:	430f      	orrs	r7, r1
 8000d7c:	d100      	bne.n	8000d80 <__aeabi_dadd+0x6f0>
 8000d7e:	e747      	b.n	8000c10 <__aeabi_dadd+0x580>
 8000d80:	000e      	movs	r6, r1
 8000d82:	46c1      	mov	r9, r8
 8000d84:	e5b5      	b.n	80008f2 <__aeabi_dadd+0x262>
 8000d86:	08df      	lsrs	r7, r3, #3
 8000d88:	0764      	lsls	r4, r4, #29
 8000d8a:	2102      	movs	r1, #2
 8000d8c:	4327      	orrs	r7, r4
 8000d8e:	0900      	lsrs	r0, r0, #4
 8000d90:	e5b5      	b.n	80008fe <__aeabi_dadd+0x26e>
 8000d92:	0019      	movs	r1, r3
 8000d94:	08c0      	lsrs	r0, r0, #3
 8000d96:	0777      	lsls	r7, r6, #29
 8000d98:	4307      	orrs	r7, r0
 8000d9a:	4311      	orrs	r1, r2
 8000d9c:	08f0      	lsrs	r0, r6, #3
 8000d9e:	2900      	cmp	r1, #0
 8000da0:	d100      	bne.n	8000da4 <__aeabi_dadd+0x714>
 8000da2:	e5d9      	b.n	8000958 <__aeabi_dadd+0x2c8>
 8000da4:	2180      	movs	r1, #128	@ 0x80
 8000da6:	0309      	lsls	r1, r1, #12
 8000da8:	4208      	tst	r0, r1
 8000daa:	d007      	beq.n	8000dbc <__aeabi_dadd+0x72c>
 8000dac:	08dc      	lsrs	r4, r3, #3
 8000dae:	420c      	tst	r4, r1
 8000db0:	d104      	bne.n	8000dbc <__aeabi_dadd+0x72c>
 8000db2:	08d2      	lsrs	r2, r2, #3
 8000db4:	075b      	lsls	r3, r3, #29
 8000db6:	431a      	orrs	r2, r3
 8000db8:	0017      	movs	r7, r2
 8000dba:	0020      	movs	r0, r4
 8000dbc:	0f7b      	lsrs	r3, r7, #29
 8000dbe:	00ff      	lsls	r7, r7, #3
 8000dc0:	08ff      	lsrs	r7, r7, #3
 8000dc2:	075b      	lsls	r3, r3, #29
 8000dc4:	431f      	orrs	r7, r3
 8000dc6:	e5c7      	b.n	8000958 <__aeabi_dadd+0x2c8>
 8000dc8:	000f      	movs	r7, r1
 8000dca:	e5c5      	b.n	8000958 <__aeabi_dadd+0x2c8>
 8000dcc:	4b12      	ldr	r3, [pc, #72]	@ (8000e18 <__aeabi_dadd+0x788>)
 8000dce:	08d2      	lsrs	r2, r2, #3
 8000dd0:	4033      	ands	r3, r6
 8000dd2:	075f      	lsls	r7, r3, #29
 8000dd4:	025b      	lsls	r3, r3, #9
 8000dd6:	2401      	movs	r4, #1
 8000dd8:	4317      	orrs	r7, r2
 8000dda:	0b1e      	lsrs	r6, r3, #12
 8000ddc:	e5a1      	b.n	8000922 <__aeabi_dadd+0x292>
 8000dde:	4226      	tst	r6, r4
 8000de0:	d012      	beq.n	8000e08 <__aeabi_dadd+0x778>
 8000de2:	4b0d      	ldr	r3, [pc, #52]	@ (8000e18 <__aeabi_dadd+0x788>)
 8000de4:	4665      	mov	r5, ip
 8000de6:	0002      	movs	r2, r0
 8000de8:	2401      	movs	r4, #1
 8000dea:	401e      	ands	r6, r3
 8000dec:	e4e6      	b.n	80007bc <__aeabi_dadd+0x12c>
 8000dee:	0021      	movs	r1, r4
 8000df0:	e585      	b.n	80008fe <__aeabi_dadd+0x26e>
 8000df2:	0017      	movs	r7, r2
 8000df4:	e5a8      	b.n	8000948 <__aeabi_dadd+0x2b8>
 8000df6:	003a      	movs	r2, r7
 8000df8:	e4d4      	b.n	80007a4 <__aeabi_dadd+0x114>
 8000dfa:	08db      	lsrs	r3, r3, #3
 8000dfc:	0764      	lsls	r4, r4, #29
 8000dfe:	431c      	orrs	r4, r3
 8000e00:	0027      	movs	r7, r4
 8000e02:	2102      	movs	r1, #2
 8000e04:	0900      	lsrs	r0, r0, #4
 8000e06:	e57a      	b.n	80008fe <__aeabi_dadd+0x26e>
 8000e08:	08c0      	lsrs	r0, r0, #3
 8000e0a:	0777      	lsls	r7, r6, #29
 8000e0c:	4307      	orrs	r7, r0
 8000e0e:	4665      	mov	r5, ip
 8000e10:	2100      	movs	r1, #0
 8000e12:	08f0      	lsrs	r0, r6, #3
 8000e14:	e573      	b.n	80008fe <__aeabi_dadd+0x26e>
 8000e16:	46c0      	nop			@ (mov r8, r8)
 8000e18:	ff7fffff 	.word	0xff7fffff

08000e1c <__aeabi_ddiv>:
 8000e1c:	b5f0      	push	{r4, r5, r6, r7, lr}
 8000e1e:	46de      	mov	lr, fp
 8000e20:	4645      	mov	r5, r8
 8000e22:	4657      	mov	r7, sl
 8000e24:	464e      	mov	r6, r9
 8000e26:	b5e0      	push	{r5, r6, r7, lr}
 8000e28:	b087      	sub	sp, #28
 8000e2a:	9200      	str	r2, [sp, #0]
 8000e2c:	9301      	str	r3, [sp, #4]
 8000e2e:	030b      	lsls	r3, r1, #12
 8000e30:	0b1b      	lsrs	r3, r3, #12
 8000e32:	469b      	mov	fp, r3
 8000e34:	0fca      	lsrs	r2, r1, #31
 8000e36:	004b      	lsls	r3, r1, #1
 8000e38:	0004      	movs	r4, r0
 8000e3a:	4680      	mov	r8, r0
 8000e3c:	0d5b      	lsrs	r3, r3, #21
 8000e3e:	9202      	str	r2, [sp, #8]
 8000e40:	d100      	bne.n	8000e44 <__aeabi_ddiv+0x28>
 8000e42:	e098      	b.n	8000f76 <__aeabi_ddiv+0x15a>
 8000e44:	4a7c      	ldr	r2, [pc, #496]	@ (8001038 <__aeabi_ddiv+0x21c>)
 8000e46:	4293      	cmp	r3, r2
 8000e48:	d037      	beq.n	8000eba <__aeabi_ddiv+0x9e>
 8000e4a:	4659      	mov	r1, fp
 8000e4c:	0f42      	lsrs	r2, r0, #29
 8000e4e:	00c9      	lsls	r1, r1, #3
 8000e50:	430a      	orrs	r2, r1
 8000e52:	2180      	movs	r1, #128	@ 0x80
 8000e54:	0409      	lsls	r1, r1, #16
 8000e56:	4311      	orrs	r1, r2
 8000e58:	00c2      	lsls	r2, r0, #3
 8000e5a:	4690      	mov	r8, r2
 8000e5c:	4a77      	ldr	r2, [pc, #476]	@ (800103c <__aeabi_ddiv+0x220>)
 8000e5e:	4689      	mov	r9, r1
 8000e60:	4692      	mov	sl, r2
 8000e62:	449a      	add	sl, r3
 8000e64:	2300      	movs	r3, #0
 8000e66:	2400      	movs	r4, #0
 8000e68:	9303      	str	r3, [sp, #12]
 8000e6a:	9e00      	ldr	r6, [sp, #0]
 8000e6c:	9f01      	ldr	r7, [sp, #4]
 8000e6e:	033b      	lsls	r3, r7, #12
 8000e70:	0b1b      	lsrs	r3, r3, #12
 8000e72:	469b      	mov	fp, r3
 8000e74:	007b      	lsls	r3, r7, #1
 8000e76:	0030      	movs	r0, r6
 8000e78:	0d5b      	lsrs	r3, r3, #21
 8000e7a:	0ffd      	lsrs	r5, r7, #31
 8000e7c:	2b00      	cmp	r3, #0
 8000e7e:	d059      	beq.n	8000f34 <__aeabi_ddiv+0x118>
 8000e80:	4a6d      	ldr	r2, [pc, #436]	@ (8001038 <__aeabi_ddiv+0x21c>)
 8000e82:	4293      	cmp	r3, r2
 8000e84:	d048      	beq.n	8000f18 <__aeabi_ddiv+0xfc>
 8000e86:	4659      	mov	r1, fp
 8000e88:	0f72      	lsrs	r2, r6, #29
 8000e8a:	00c9      	lsls	r1, r1, #3
 8000e8c:	430a      	orrs	r2, r1
 8000e8e:	2180      	movs	r1, #128	@ 0x80
 8000e90:	0409      	lsls	r1, r1, #16
 8000e92:	4311      	orrs	r1, r2
 8000e94:	468b      	mov	fp, r1
 8000e96:	4969      	ldr	r1, [pc, #420]	@ (800103c <__aeabi_ddiv+0x220>)
 8000e98:	00f2      	lsls	r2, r6, #3
 8000e9a:	468c      	mov	ip, r1
 8000e9c:	4651      	mov	r1, sl
 8000e9e:	4463      	add	r3, ip
 8000ea0:	1acb      	subs	r3, r1, r3
 8000ea2:	469a      	mov	sl, r3
 8000ea4:	2100      	movs	r1, #0
 8000ea6:	9e02      	ldr	r6, [sp, #8]
 8000ea8:	406e      	eors	r6, r5
 8000eaa:	b2f6      	uxtb	r6, r6
 8000eac:	2c0f      	cmp	r4, #15
 8000eae:	d900      	bls.n	8000eb2 <__aeabi_ddiv+0x96>
 8000eb0:	e0ce      	b.n	8001050 <__aeabi_ddiv+0x234>
 8000eb2:	4b63      	ldr	r3, [pc, #396]	@ (8001040 <__aeabi_ddiv+0x224>)
 8000eb4:	00a4      	lsls	r4, r4, #2
 8000eb6:	591b      	ldr	r3, [r3, r4]
 8000eb8:	469f      	mov	pc, r3
 8000eba:	465a      	mov	r2, fp
 8000ebc:	4302      	orrs	r2, r0
 8000ebe:	4691      	mov	r9, r2
 8000ec0:	d000      	beq.n	8000ec4 <__aeabi_ddiv+0xa8>
 8000ec2:	e090      	b.n	8000fe6 <__aeabi_ddiv+0x1ca>
 8000ec4:	469a      	mov	sl, r3
 8000ec6:	2302      	movs	r3, #2
 8000ec8:	4690      	mov	r8, r2
 8000eca:	2408      	movs	r4, #8
 8000ecc:	9303      	str	r3, [sp, #12]
 8000ece:	e7cc      	b.n	8000e6a <__aeabi_ddiv+0x4e>
 8000ed0:	46cb      	mov	fp, r9
 8000ed2:	4642      	mov	r2, r8
 8000ed4:	9d02      	ldr	r5, [sp, #8]
 8000ed6:	9903      	ldr	r1, [sp, #12]
 8000ed8:	2902      	cmp	r1, #2
 8000eda:	d100      	bne.n	8000ede <__aeabi_ddiv+0xc2>
 8000edc:	e1de      	b.n	800129c <__aeabi_ddiv+0x480>
 8000ede:	2903      	cmp	r1, #3
 8000ee0:	d100      	bne.n	8000ee4 <__aeabi_ddiv+0xc8>
 8000ee2:	e08d      	b.n	8001000 <__aeabi_ddiv+0x1e4>
 8000ee4:	2901      	cmp	r1, #1
 8000ee6:	d000      	beq.n	8000eea <__aeabi_ddiv+0xce>
 8000ee8:	e179      	b.n	80011de <__aeabi_ddiv+0x3c2>
 8000eea:	002e      	movs	r6, r5
 8000eec:	2200      	movs	r2, #0
 8000eee:	2300      	movs	r3, #0
 8000ef0:	2400      	movs	r4, #0
 8000ef2:	4690      	mov	r8, r2
 8000ef4:	051b      	lsls	r3, r3, #20
 8000ef6:	4323      	orrs	r3, r4
 8000ef8:	07f6      	lsls	r6, r6, #31
 8000efa:	4333      	orrs	r3, r6
 8000efc:	4640      	mov	r0, r8
 8000efe:	0019      	movs	r1, r3
 8000f00:	b007      	add	sp, #28
 8000f02:	bcf0      	pop	{r4, r5, r6, r7}
 8000f04:	46bb      	mov	fp, r7
 8000f06:	46b2      	mov	sl, r6
 8000f08:	46a9      	mov	r9, r5
 8000f0a:	46a0      	mov	r8, r4
 8000f0c:	bdf0      	pop	{r4, r5, r6, r7, pc}
 8000f0e:	2200      	movs	r2, #0
 8000f10:	2400      	movs	r4, #0
 8000f12:	4690      	mov	r8, r2
 8000f14:	4b48      	ldr	r3, [pc, #288]	@ (8001038 <__aeabi_ddiv+0x21c>)
 8000f16:	e7ed      	b.n	8000ef4 <__aeabi_ddiv+0xd8>
 8000f18:	465a      	mov	r2, fp
 8000f1a:	9b00      	ldr	r3, [sp, #0]
 8000f1c:	431a      	orrs	r2, r3
 8000f1e:	4b49      	ldr	r3, [pc, #292]	@ (8001044 <__aeabi_ddiv+0x228>)
 8000f20:	469c      	mov	ip, r3
 8000f22:	44e2      	add	sl, ip
 8000f24:	2a00      	cmp	r2, #0
 8000f26:	d159      	bne.n	8000fdc <__aeabi_ddiv+0x1c0>
 8000f28:	2302      	movs	r3, #2
 8000f2a:	431c      	orrs	r4, r3
 8000f2c:	2300      	movs	r3, #0
 8000f2e:	2102      	movs	r1, #2
 8000f30:	469b      	mov	fp, r3
 8000f32:	e7b8      	b.n	8000ea6 <__aeabi_ddiv+0x8a>
 8000f34:	465a      	mov	r2, fp
 8000f36:	9b00      	ldr	r3, [sp, #0]
 8000f38:	431a      	orrs	r2, r3
 8000f3a:	d049      	beq.n	8000fd0 <__aeabi_ddiv+0x1b4>
 8000f3c:	465b      	mov	r3, fp
 8000f3e:	2b00      	cmp	r3, #0
 8000f40:	d100      	bne.n	8000f44 <__aeabi_ddiv+0x128>
 8000f42:	e19c      	b.n	800127e <__aeabi_ddiv+0x462>
 8000f44:	4658      	mov	r0, fp
 8000f46:	f001 fb43 	bl	80025d0 <__clzsi2>
 8000f4a:	0002      	movs	r2, r0
 8000f4c:	0003      	movs	r3, r0
 8000f4e:	3a0b      	subs	r2, #11
 8000f50:	271d      	movs	r7, #29
 8000f52:	9e00      	ldr	r6, [sp, #0]
 8000f54:	1aba      	subs	r2, r7, r2
 8000f56:	0019      	movs	r1, r3
 8000f58:	4658      	mov	r0, fp
 8000f5a:	40d6      	lsrs	r6, r2
 8000f5c:	3908      	subs	r1, #8
 8000f5e:	4088      	lsls	r0, r1
 8000f60:	0032      	movs	r2, r6
 8000f62:	4302      	orrs	r2, r0
 8000f64:	4693      	mov	fp, r2
 8000f66:	9a00      	ldr	r2, [sp, #0]
 8000f68:	408a      	lsls	r2, r1
 8000f6a:	4937      	ldr	r1, [pc, #220]	@ (8001048 <__aeabi_ddiv+0x22c>)
 8000f6c:	4453      	add	r3, sl
 8000f6e:	468a      	mov	sl, r1
 8000f70:	2100      	movs	r1, #0
 8000f72:	449a      	add	sl, r3
 8000f74:	e797      	b.n	8000ea6 <__aeabi_ddiv+0x8a>
 8000f76:	465b      	mov	r3, fp
 8000f78:	4303      	orrs	r3, r0
 8000f7a:	4699      	mov	r9, r3
 8000f7c:	d021      	beq.n	8000fc2 <__aeabi_ddiv+0x1a6>
 8000f7e:	465b      	mov	r3, fp
 8000f80:	2b00      	cmp	r3, #0
 8000f82:	d100      	bne.n	8000f86 <__aeabi_ddiv+0x16a>
 8000f84:	e169      	b.n	800125a <__aeabi_ddiv+0x43e>
 8000f86:	4658      	mov	r0, fp
 8000f88:	f001 fb22 	bl	80025d0 <__clzsi2>
 8000f8c:	230b      	movs	r3, #11
 8000f8e:	425b      	negs	r3, r3
 8000f90:	469c      	mov	ip, r3
 8000f92:	0002      	movs	r2, r0
 8000f94:	4484      	add	ip, r0
 8000f96:	4666      	mov	r6, ip
 8000f98:	231d      	movs	r3, #29
 8000f9a:	1b9b      	subs	r3, r3, r6
 8000f9c:	0026      	movs	r6, r4
 8000f9e:	0011      	movs	r1, r2
 8000fa0:	4658      	mov	r0, fp
 8000fa2:	40de      	lsrs	r6, r3
 8000fa4:	3908      	subs	r1, #8
 8000fa6:	4088      	lsls	r0, r1
 8000fa8:	0033      	movs	r3, r6
 8000faa:	4303      	orrs	r3, r0
 8000fac:	4699      	mov	r9, r3
 8000fae:	0023      	movs	r3, r4
 8000fb0:	408b      	lsls	r3, r1
 8000fb2:	4698      	mov	r8, r3
 8000fb4:	4b25      	ldr	r3, [pc, #148]	@ (800104c <__aeabi_ddiv+0x230>)
 8000fb6:	2400      	movs	r4, #0
 8000fb8:	1a9b      	subs	r3, r3, r2
 8000fba:	469a      	mov	sl, r3
 8000fbc:	2300      	movs	r3, #0
 8000fbe:	9303      	str	r3, [sp, #12]
 8000fc0:	e753      	b.n	8000e6a <__aeabi_ddiv+0x4e>
 8000fc2:	2300      	movs	r3, #0
 8000fc4:	4698      	mov	r8, r3
 8000fc6:	469a      	mov	sl, r3
 8000fc8:	3301      	adds	r3, #1
 8000fca:	2404      	movs	r4, #4
 8000fcc:	9303      	str	r3, [sp, #12]
 8000fce:	e74c      	b.n	8000e6a <__aeabi_ddiv+0x4e>
 8000fd0:	2301      	movs	r3, #1
 8000fd2:	431c      	orrs	r4, r3
 8000fd4:	2300      	movs	r3, #0
 8000fd6:	2101      	movs	r1, #1
 8000fd8:	469b      	mov	fp, r3
 8000fda:	e764      	b.n	8000ea6 <__aeabi_ddiv+0x8a>
 8000fdc:	2303      	movs	r3, #3
 8000fde:	0032      	movs	r2, r6
 8000fe0:	2103      	movs	r1, #3
 8000fe2:	431c      	orrs	r4, r3
 8000fe4:	e75f      	b.n	8000ea6 <__aeabi_ddiv+0x8a>
 8000fe6:	469a      	mov	sl, r3
 8000fe8:	2303      	movs	r3, #3
 8000fea:	46d9      	mov	r9, fp
 8000fec:	240c      	movs	r4, #12
 8000fee:	9303      	str	r3, [sp, #12]
 8000ff0:	e73b      	b.n	8000e6a <__aeabi_ddiv+0x4e>
 8000ff2:	2300      	movs	r3, #0
 8000ff4:	2480      	movs	r4, #128	@ 0x80
 8000ff6:	4698      	mov	r8, r3
 8000ff8:	2600      	movs	r6, #0
 8000ffa:	4b0f      	ldr	r3, [pc, #60]	@ (8001038 <__aeabi_ddiv+0x21c>)
 8000ffc:	0324      	lsls	r4, r4, #12
 8000ffe:	e779      	b.n	8000ef4 <__aeabi_ddiv+0xd8>
 8001000:	2480      	movs	r4, #128	@ 0x80
 8001002:	465b      	mov	r3, fp
 8001004:	0324      	lsls	r4, r4, #12
 8001006:	431c      	orrs	r4, r3
 8001008:	0324      	lsls	r4, r4, #12
 800100a:	002e      	movs	r6, r5
 800100c:	4690      	mov	r8, r2
 800100e:	4b0a      	ldr	r3, [pc, #40]	@ (8001038 <__aeabi_ddiv+0x21c>)
 8001010:	0b24      	lsrs	r4, r4, #12
 8001012:	e76f      	b.n	8000ef4 <__aeabi_ddiv+0xd8>
 8001014:	2480      	movs	r4, #128	@ 0x80
 8001016:	464b      	mov	r3, r9
 8001018:	0324      	lsls	r4, r4, #12
 800101a:	4223      	tst	r3, r4
 800101c:	d002      	beq.n	8001024 <__aeabi_ddiv+0x208>
 800101e:	465b      	mov	r3, fp
 8001020:	4223      	tst	r3, r4
 8001022:	d0f0      	beq.n	8001006 <__aeabi_ddiv+0x1ea>
 8001024:	2480      	movs	r4, #128	@ 0x80
 8001026:	464b      	mov	r3, r9
 8001028:	0324      	lsls	r4, r4, #12
 800102a:	431c      	orrs	r4, r3
 800102c:	0324      	lsls	r4, r4, #12
 800102e:	9e02      	ldr	r6, [sp, #8]
 8001030:	4b01      	ldr	r3, [pc, #4]	@ (8001038 <__aeabi_ddiv+0x21c>)
 8001032:	0b24      	lsrs	r4, r4, #12
 8001034:	e75e      	b.n	8000ef4 <__aeabi_ddiv+0xd8>
 8001036:	46c0      	nop			@ (mov r8, r8)
 8001038:	000007ff 	.word	0x000007ff
 800103c:	fffffc01 	.word	0xfffffc01
 8001040:	08009860 	.word	0x08009860
 8001044:	fffff801 	.word	0xfffff801
 8001048:	000003f3 	.word	0x000003f3
 800104c:	fffffc0d 	.word	0xfffffc0d
 8001050:	45cb      	cmp	fp, r9
 8001052:	d200      	bcs.n	8001056 <__aeabi_ddiv+0x23a>
 8001054:	e0f8      	b.n	8001248 <__aeabi_ddiv+0x42c>
 8001056:	d100      	bne.n	800105a <__aeabi_ddiv+0x23e>
 8001058:	e0f3      	b.n	8001242 <__aeabi_ddiv+0x426>
 800105a:	2301      	movs	r3, #1
 800105c:	425b      	negs	r3, r3
 800105e:	469c      	mov	ip, r3
 8001060:	4644      	mov	r4, r8
 8001062:	4648      	mov	r0, r9
 8001064:	2500      	movs	r5, #0
 8001066:	44e2      	add	sl, ip
 8001068:	465b      	mov	r3, fp
 800106a:	0e17      	lsrs	r7, r2, #24
 800106c:	021b      	lsls	r3, r3, #8
 800106e:	431f      	orrs	r7, r3
 8001070:	0c19      	lsrs	r1, r3, #16
 8001072:	043b      	lsls	r3, r7, #16
 8001074:	0212      	lsls	r2, r2, #8
 8001076:	9700      	str	r7, [sp, #0]
 8001078:	0c1f      	lsrs	r7, r3, #16
 800107a:	4691      	mov	r9, r2
 800107c:	9102      	str	r1, [sp, #8]
 800107e:	9703      	str	r7, [sp, #12]
 8001080:	f7ff f8ec 	bl	800025c <__aeabi_uidivmod>
 8001084:	0002      	movs	r2, r0
 8001086:	437a      	muls	r2, r7
 8001088:	040b      	lsls	r3, r1, #16
 800108a:	0c21      	lsrs	r1, r4, #16
 800108c:	4680      	mov	r8, r0
 800108e:	4319      	orrs	r1, r3
 8001090:	428a      	cmp	r2, r1
 8001092:	d909      	bls.n	80010a8 <__aeabi_ddiv+0x28c>
 8001094:	9f00      	ldr	r7, [sp, #0]
 8001096:	2301      	movs	r3, #1
 8001098:	46bc      	mov	ip, r7
 800109a:	425b      	negs	r3, r3
 800109c:	4461      	add	r1, ip
 800109e:	469c      	mov	ip, r3
 80010a0:	44e0      	add	r8, ip
 80010a2:	428f      	cmp	r7, r1
 80010a4:	d800      	bhi.n	80010a8 <__aeabi_ddiv+0x28c>
 80010a6:	e15c      	b.n	8001362 <__aeabi_ddiv+0x546>
 80010a8:	1a88      	subs	r0, r1, r2
 80010aa:	9902      	ldr	r1, [sp, #8]
 80010ac:	f7ff f8d6 	bl	800025c <__aeabi_uidivmod>
 80010b0:	9a03      	ldr	r2, [sp, #12]
 80010b2:	0424      	lsls	r4, r4, #16
 80010b4:	4342      	muls	r2, r0
 80010b6:	0409      	lsls	r1, r1, #16
 80010b8:	0c24      	lsrs	r4, r4, #16
 80010ba:	0003      	movs	r3, r0
 80010bc:	430c      	orrs	r4, r1
 80010be:	42a2      	cmp	r2, r4
 80010c0:	d906      	bls.n	80010d0 <__aeabi_ddiv+0x2b4>
 80010c2:	9900      	ldr	r1, [sp, #0]
 80010c4:	3b01      	subs	r3, #1
 80010c6:	468c      	mov	ip, r1
 80010c8:	4464      	add	r4, ip
 80010ca:	42a1      	cmp	r1, r4
 80010cc:	d800      	bhi.n	80010d0 <__aeabi_ddiv+0x2b4>
 80010ce:	e142      	b.n	8001356 <__aeabi_ddiv+0x53a>
 80010d0:	1aa0      	subs	r0, r4, r2
 80010d2:	4642      	mov	r2, r8
 80010d4:	0412      	lsls	r2, r2, #16
 80010d6:	431a      	orrs	r2, r3
 80010d8:	4693      	mov	fp, r2
 80010da:	464b      	mov	r3, r9
 80010dc:	4659      	mov	r1, fp
 80010de:	0c1b      	lsrs	r3, r3, #16
 80010e0:	001f      	movs	r7, r3
 80010e2:	9304      	str	r3, [sp, #16]
 80010e4:	040b      	lsls	r3, r1, #16
 80010e6:	4649      	mov	r1, r9
 80010e8:	0409      	lsls	r1, r1, #16
 80010ea:	0c09      	lsrs	r1, r1, #16
 80010ec:	000c      	movs	r4, r1
 80010ee:	0c1b      	lsrs	r3, r3, #16
 80010f0:	435c      	muls	r4, r3
 80010f2:	0c12      	lsrs	r2, r2, #16
 80010f4:	437b      	muls	r3, r7
 80010f6:	4688      	mov	r8, r1
 80010f8:	4351      	muls	r1, r2
 80010fa:	437a      	muls	r2, r7
 80010fc:	0c27      	lsrs	r7, r4, #16
 80010fe:	46bc      	mov	ip, r7
 8001100:	185b      	adds	r3, r3, r1
 8001102:	4463      	add	r3, ip
 8001104:	4299      	cmp	r1, r3
 8001106:	d903      	bls.n	8001110 <__aeabi_ddiv+0x2f4>
 8001108:	2180      	movs	r1, #128	@ 0x80
 800110a:	0249      	lsls	r1, r1, #9
 800110c:	468c      	mov	ip, r1
 800110e:	4462      	add	r2, ip
 8001110:	0c19      	lsrs	r1, r3, #16
 8001112:	0424      	lsls	r4, r4, #16
 8001114:	041b      	lsls	r3, r3, #16
 8001116:	0c24      	lsrs	r4, r4, #16
 8001118:	188a      	adds	r2, r1, r2
 800111a:	191c      	adds	r4, r3, r4
 800111c:	4290      	cmp	r0, r2
 800111e:	d302      	bcc.n	8001126 <__aeabi_ddiv+0x30a>
 8001120:	d116      	bne.n	8001150 <__aeabi_ddiv+0x334>
 8001122:	42a5      	cmp	r5, r4
 8001124:	d214      	bcs.n	8001150 <__aeabi_ddiv+0x334>
 8001126:	465b      	mov	r3, fp
 8001128:	9f00      	ldr	r7, [sp, #0]
 800112a:	3b01      	subs	r3, #1
 800112c:	444d      	add	r5, r9
 800112e:	9305      	str	r3, [sp, #20]
 8001130:	454d      	cmp	r5, r9
 8001132:	419b      	sbcs	r3, r3
 8001134:	46bc      	mov	ip, r7
 8001136:	425b      	negs	r3, r3
 8001138:	4463      	add	r3, ip
 800113a:	18c0      	adds	r0, r0, r3
 800113c:	4287      	cmp	r7, r0
 800113e:	d300      	bcc.n	8001142 <__aeabi_ddiv+0x326>
 8001140:	e102      	b.n	8001348 <__aeabi_ddiv+0x52c>
 8001142:	4282      	cmp	r2, r0
 8001144:	d900      	bls.n	8001148 <__aeabi_ddiv+0x32c>
 8001146:	e129      	b.n	800139c <__aeabi_ddiv+0x580>
 8001148:	d100      	bne.n	800114c <__aeabi_ddiv+0x330>
 800114a:	e124      	b.n	8001396 <__aeabi_ddiv+0x57a>
 800114c:	9b05      	ldr	r3, [sp, #20]
 800114e:	469b      	mov	fp, r3
 8001150:	1b2c      	subs	r4, r5, r4
 8001152:	42a5      	cmp	r5, r4
 8001154:	41ad      	sbcs	r5, r5
 8001156:	9b00      	ldr	r3, [sp, #0]
 8001158:	1a80      	subs	r0, r0, r2
 800115a:	426d      	negs	r5, r5
 800115c:	1b40      	subs	r0, r0, r5
 800115e:	4283      	cmp	r3, r0
 8001160:	d100      	bne.n	8001164 <__aeabi_ddiv+0x348>
 8001162:	e10f      	b.n	8001384 <__aeabi_ddiv+0x568>
 8001164:	9902      	ldr	r1, [sp, #8]
 8001166:	f7ff f879 	bl	800025c <__aeabi_uidivmod>
 800116a:	9a03      	ldr	r2, [sp, #12]
 800116c:	040b      	lsls	r3, r1, #16
 800116e:	4342      	muls	r2, r0
 8001170:	0c21      	lsrs	r1, r4, #16
 8001172:	0005      	movs	r5, r0
 8001174:	4319      	orrs	r1, r3
 8001176:	428a      	cmp	r2, r1
 8001178:	d900      	bls.n	800117c <__aeabi_ddiv+0x360>
 800117a:	e0cb      	b.n	8001314 <__aeabi_ddiv+0x4f8>
 800117c:	1a88      	subs	r0, r1, r2
 800117e:	9902      	ldr	r1, [sp, #8]
 8001180:	f7ff f86c 	bl	800025c <__aeabi_uidivmod>
 8001184:	9a03      	ldr	r2, [sp, #12]
 8001186:	0424      	lsls	r4, r4, #16
 8001188:	4342      	muls	r2, r0
 800118a:	0409      	lsls	r1, r1, #16
 800118c:	0c24      	lsrs	r4, r4, #16
 800118e:	0003      	movs	r3, r0
 8001190:	430c      	orrs	r4, r1
 8001192:	42a2      	cmp	r2, r4
 8001194:	d900      	bls.n	8001198 <__aeabi_ddiv+0x37c>
 8001196:	e0ca      	b.n	800132e <__aeabi_ddiv+0x512>
 8001198:	4641      	mov	r1, r8
 800119a:	1aa4      	subs	r4, r4, r2
 800119c:	042a      	lsls	r2, r5, #16
 800119e:	431a      	orrs	r2, r3
 80011a0:	9f04      	ldr	r7, [sp, #16]
 80011a2:	0413      	lsls	r3, r2, #16
 80011a4:	0c1b      	lsrs	r3, r3, #16
 80011a6:	4359      	muls	r1, r3
 80011a8:	4640      	mov	r0, r8
 80011aa:	437b      	muls	r3, r7
 80011ac:	469c      	mov	ip, r3
 80011ae:	0c15      	lsrs	r5, r2, #16
 80011b0:	4368      	muls	r0, r5
 80011b2:	0c0b      	lsrs	r3, r1, #16
 80011b4:	4484      	add	ip, r0
 80011b6:	4463      	add	r3, ip
 80011b8:	437d      	muls	r5, r7
 80011ba:	4298      	cmp	r0, r3
 80011bc:	d903      	bls.n	80011c6 <__aeabi_ddiv+0x3aa>
 80011be:	2080      	movs	r0, #128	@ 0x80
 80011c0:	0240      	lsls	r0, r0, #9
 80011c2:	4684      	mov	ip, r0
 80011c4:	4465      	add	r5, ip
 80011c6:	0c18      	lsrs	r0, r3, #16
 80011c8:	0409      	lsls	r1, r1, #16
 80011ca:	041b      	lsls	r3, r3, #16
 80011cc:	0c09      	lsrs	r1, r1, #16
 80011ce:	1940      	adds	r0, r0, r5
 80011d0:	185b      	adds	r3, r3, r1
 80011d2:	4284      	cmp	r4, r0
 80011d4:	d327      	bcc.n	8001226 <__aeabi_ddiv+0x40a>
 80011d6:	d023      	beq.n	8001220 <__aeabi_ddiv+0x404>
 80011d8:	2301      	movs	r3, #1
 80011da:	0035      	movs	r5, r6
 80011dc:	431a      	orrs	r2, r3
 80011de:	4b94      	ldr	r3, [pc, #592]	@ (8001430 <__aeabi_ddiv+0x614>)
 80011e0:	4453      	add	r3, sl
 80011e2:	2b00      	cmp	r3, #0
 80011e4:	dd60      	ble.n	80012a8 <__aeabi_ddiv+0x48c>
 80011e6:	0751      	lsls	r1, r2, #29
 80011e8:	d000      	beq.n	80011ec <__aeabi_ddiv+0x3d0>
 80011ea:	e086      	b.n	80012fa <__aeabi_ddiv+0x4de>
 80011ec:	002e      	movs	r6, r5
 80011ee:	08d1      	lsrs	r1, r2, #3
 80011f0:	465a      	mov	r2, fp
 80011f2:	01d2      	lsls	r2, r2, #7
 80011f4:	d506      	bpl.n	8001204 <__aeabi_ddiv+0x3e8>
 80011f6:	465a      	mov	r2, fp
 80011f8:	4b8e      	ldr	r3, [pc, #568]	@ (8001434 <__aeabi_ddiv+0x618>)
 80011fa:	401a      	ands	r2, r3
 80011fc:	2380      	movs	r3, #128	@ 0x80
 80011fe:	4693      	mov	fp, r2
 8001200:	00db      	lsls	r3, r3, #3
 8001202:	4453      	add	r3, sl
 8001204:	4a8c      	ldr	r2, [pc, #560]	@ (8001438 <__aeabi_ddiv+0x61c>)
 8001206:	4293      	cmp	r3, r2
 8001208:	dd00      	ble.n	800120c <__aeabi_ddiv+0x3f0>
 800120a:	e680      	b.n	8000f0e <__aeabi_ddiv+0xf2>
 800120c:	465a      	mov	r2, fp
 800120e:	0752      	lsls	r2, r2, #29
 8001210:	430a      	orrs	r2, r1
 8001212:	4690      	mov	r8, r2
 8001214:	465a      	mov	r2, fp
 8001216:	055b      	lsls	r3, r3, #21
 8001218:	0254      	lsls	r4, r2, #9
 800121a:	0b24      	lsrs	r4, r4, #12
 800121c:	0d5b      	lsrs	r3, r3, #21
 800121e:	e669      	b.n	8000ef4 <__aeabi_ddiv+0xd8>
 8001220:	0035      	movs	r5, r6
 8001222:	2b00      	cmp	r3, #0
 8001224:	d0db      	beq.n	80011de <__aeabi_ddiv+0x3c2>
 8001226:	9d00      	ldr	r5, [sp, #0]
 8001228:	1e51      	subs	r1, r2, #1
 800122a:	46ac      	mov	ip, r5
 800122c:	4464      	add	r4, ip
 800122e:	42ac      	cmp	r4, r5
 8001230:	d200      	bcs.n	8001234 <__aeabi_ddiv+0x418>
 8001232:	e09e      	b.n	8001372 <__aeabi_ddiv+0x556>
 8001234:	4284      	cmp	r4, r0
 8001236:	d200      	bcs.n	800123a <__aeabi_ddiv+0x41e>
 8001238:	e0e1      	b.n	80013fe <__aeabi_ddiv+0x5e2>
 800123a:	d100      	bne.n	800123e <__aeabi_ddiv+0x422>
 800123c:	e0ee      	b.n	800141c <__aeabi_ddiv+0x600>
 800123e:	000a      	movs	r2, r1
 8001240:	e7ca      	b.n	80011d8 <__aeabi_ddiv+0x3bc>
 8001242:	4542      	cmp	r2, r8
 8001244:	d900      	bls.n	8001248 <__aeabi_ddiv+0x42c>
 8001246:	e708      	b.n	800105a <__aeabi_ddiv+0x23e>
 8001248:	464b      	mov	r3, r9
 800124a:	07dc      	lsls	r4, r3, #31
 800124c:	0858      	lsrs	r0, r3, #1
 800124e:	4643      	mov	r3, r8
 8001250:	085b      	lsrs	r3, r3, #1
 8001252:	431c      	orrs	r4, r3
 8001254:	4643      	mov	r3, r8
 8001256:	07dd      	lsls	r5, r3, #31
 8001258:	e706      	b.n	8001068 <__aeabi_ddiv+0x24c>
 800125a:	f001 f9b9 	bl	80025d0 <__clzsi2>
 800125e:	2315      	movs	r3, #21
 8001260:	469c      	mov	ip, r3
 8001262:	4484      	add	ip, r0
 8001264:	0002      	movs	r2, r0
 8001266:	4663      	mov	r3, ip
 8001268:	3220      	adds	r2, #32
 800126a:	2b1c      	cmp	r3, #28
 800126c:	dc00      	bgt.n	8001270 <__aeabi_ddiv+0x454>
 800126e:	e692      	b.n	8000f96 <__aeabi_ddiv+0x17a>
 8001270:	0023      	movs	r3, r4
 8001272:	3808      	subs	r0, #8
 8001274:	4083      	lsls	r3, r0
 8001276:	4699      	mov	r9, r3
 8001278:	2300      	movs	r3, #0
 800127a:	4698      	mov	r8, r3
 800127c:	e69a      	b.n	8000fb4 <__aeabi_ddiv+0x198>
 800127e:	f001 f9a7 	bl	80025d0 <__clzsi2>
 8001282:	0002      	movs	r2, r0
 8001284:	0003      	movs	r3, r0
 8001286:	3215      	adds	r2, #21
 8001288:	3320      	adds	r3, #32
 800128a:	2a1c      	cmp	r2, #28
 800128c:	dc00      	bgt.n	8001290 <__aeabi_ddiv+0x474>
 800128e:	e65f      	b.n	8000f50 <__aeabi_ddiv+0x134>
 8001290:	9900      	ldr	r1, [sp, #0]
 8001292:	3808      	subs	r0, #8
 8001294:	4081      	lsls	r1, r0
 8001296:	2200      	movs	r2, #0
 8001298:	468b      	mov	fp, r1
 800129a:	e666      	b.n	8000f6a <__aeabi_ddiv+0x14e>
 800129c:	2200      	movs	r2, #0
 800129e:	002e      	movs	r6, r5
 80012a0:	2400      	movs	r4, #0
 80012a2:	4690      	mov	r8, r2
 80012a4:	4b65      	ldr	r3, [pc, #404]	@ (800143c <__aeabi_ddiv+0x620>)
 80012a6:	e625      	b.n	8000ef4 <__aeabi_ddiv+0xd8>
 80012a8:	002e      	movs	r6, r5
 80012aa:	2101      	movs	r1, #1
 80012ac:	1ac9      	subs	r1, r1, r3
 80012ae:	2938      	cmp	r1, #56	@ 0x38
 80012b0:	dd00      	ble.n	80012b4 <__aeabi_ddiv+0x498>
 80012b2:	e61b      	b.n	8000eec <__aeabi_ddiv+0xd0>
 80012b4:	291f      	cmp	r1, #31
 80012b6:	dc7e      	bgt.n	80013b6 <__aeabi_ddiv+0x59a>
 80012b8:	4861      	ldr	r0, [pc, #388]	@ (8001440 <__aeabi_ddiv+0x624>)
 80012ba:	0014      	movs	r4, r2
 80012bc:	4450      	add	r0, sl
 80012be:	465b      	mov	r3, fp
 80012c0:	4082      	lsls	r2, r0
 80012c2:	4083      	lsls	r3, r0
 80012c4:	40cc      	lsrs	r4, r1
 80012c6:	1e50      	subs	r0, r2, #1
 80012c8:	4182      	sbcs	r2, r0
 80012ca:	4323      	orrs	r3, r4
 80012cc:	431a      	orrs	r2, r3
 80012ce:	465b      	mov	r3, fp
 80012d0:	40cb      	lsrs	r3, r1
 80012d2:	0751      	lsls	r1, r2, #29
 80012d4:	d009      	beq.n	80012ea <__aeabi_ddiv+0x4ce>
 80012d6:	210f      	movs	r1, #15
 80012d8:	4011      	ands	r1, r2
 80012da:	2904      	cmp	r1, #4
 80012dc:	d005      	beq.n	80012ea <__aeabi_ddiv+0x4ce>
 80012de:	1d11      	adds	r1, r2, #4
 80012e0:	4291      	cmp	r1, r2
 80012e2:	4192      	sbcs	r2, r2
 80012e4:	4252      	negs	r2, r2
 80012e6:	189b      	adds	r3, r3, r2
 80012e8:	000a      	movs	r2, r1
 80012ea:	0219      	lsls	r1, r3, #8
 80012ec:	d400      	bmi.n	80012f0 <__aeabi_ddiv+0x4d4>
 80012ee:	e09b      	b.n	8001428 <__aeabi_ddiv+0x60c>
 80012f0:	2200      	movs	r2, #0
 80012f2:	2301      	movs	r3, #1
 80012f4:	2400      	movs	r4, #0
 80012f6:	4690      	mov	r8, r2
 80012f8:	e5fc      	b.n	8000ef4 <__aeabi_ddiv+0xd8>
 80012fa:	210f      	movs	r1, #15
 80012fc:	4011      	ands	r1, r2
 80012fe:	2904      	cmp	r1, #4
 8001300:	d100      	bne.n	8001304 <__aeabi_ddiv+0x4e8>
 8001302:	e773      	b.n	80011ec <__aeabi_ddiv+0x3d0>
 8001304:	1d11      	adds	r1, r2, #4
 8001306:	4291      	cmp	r1, r2
 8001308:	4192      	sbcs	r2, r2
 800130a:	4252      	negs	r2, r2
 800130c:	002e      	movs	r6, r5
 800130e:	08c9      	lsrs	r1, r1, #3
 8001310:	4493      	add	fp, r2
 8001312:	e76d      	b.n	80011f0 <__aeabi_ddiv+0x3d4>
 8001314:	9b00      	ldr	r3, [sp, #0]
 8001316:	3d01      	subs	r5, #1
 8001318:	469c      	mov	ip, r3
 800131a:	4461      	add	r1, ip
 800131c:	428b      	cmp	r3, r1
 800131e:	d900      	bls.n	8001322 <__aeabi_ddiv+0x506>
 8001320:	e72c      	b.n	800117c <__aeabi_ddiv+0x360>
 8001322:	428a      	cmp	r2, r1
 8001324:	d800      	bhi.n	8001328 <__aeabi_ddiv+0x50c>
 8001326:	e729      	b.n	800117c <__aeabi_ddiv+0x360>
 8001328:	1e85      	subs	r5, r0, #2
 800132a:	4461      	add	r1, ip
 800132c:	e726      	b.n	800117c <__aeabi_ddiv+0x360>
 800132e:	9900      	ldr	r1, [sp, #0]
 8001330:	3b01      	subs	r3, #1
 8001332:	468c      	mov	ip, r1
 8001334:	4464      	add	r4, ip
 8001336:	42a1      	cmp	r1, r4
 8001338:	d900      	bls.n	800133c <__aeabi_ddiv+0x520>
 800133a:	e72d      	b.n	8001198 <__aeabi_ddiv+0x37c>
 800133c:	42a2      	cmp	r2, r4
 800133e:	d800      	bhi.n	8001342 <__aeabi_ddiv+0x526>
 8001340:	e72a      	b.n	8001198 <__aeabi_ddiv+0x37c>
 8001342:	1e83      	subs	r3, r0, #2
 8001344:	4464      	add	r4, ip
 8001346:	e727      	b.n	8001198 <__aeabi_ddiv+0x37c>
 8001348:	4287      	cmp	r7, r0
 800134a:	d000      	beq.n	800134e <__aeabi_ddiv+0x532>
 800134c:	e6fe      	b.n	800114c <__aeabi_ddiv+0x330>
 800134e:	45a9      	cmp	r9, r5
 8001350:	d900      	bls.n	8001354 <__aeabi_ddiv+0x538>
 8001352:	e6fb      	b.n	800114c <__aeabi_ddiv+0x330>
 8001354:	e6f5      	b.n	8001142 <__aeabi_ddiv+0x326>
 8001356:	42a2      	cmp	r2, r4
 8001358:	d800      	bhi.n	800135c <__aeabi_ddiv+0x540>
 800135a:	e6b9      	b.n	80010d0 <__aeabi_ddiv+0x2b4>
 800135c:	1e83      	subs	r3, r0, #2
 800135e:	4464      	add	r4, ip
 8001360:	e6b6      	b.n	80010d0 <__aeabi_ddiv+0x2b4>
 8001362:	428a      	cmp	r2, r1
 8001364:	d800      	bhi.n	8001368 <__aeabi_ddiv+0x54c>
 8001366:	e69f      	b.n	80010a8 <__aeabi_ddiv+0x28c>
 8001368:	46bc      	mov	ip, r7
 800136a:	1e83      	subs	r3, r0, #2
 800136c:	4698      	mov	r8, r3
 800136e:	4461      	add	r1, ip
 8001370:	e69a      	b.n	80010a8 <__aeabi_ddiv+0x28c>
 8001372:	000a      	movs	r2, r1
 8001374:	4284      	cmp	r4, r0
 8001376:	d000      	beq.n	800137a <__aeabi_ddiv+0x55e>
 8001378:	e72e      	b.n	80011d8 <__aeabi_ddiv+0x3bc>
 800137a:	454b      	cmp	r3, r9
 800137c:	d000      	beq.n	8001380 <__aeabi_ddiv+0x564>
 800137e:	e72b      	b.n	80011d8 <__aeabi_ddiv+0x3bc>
 8001380:	0035      	movs	r5, r6
 8001382:	e72c      	b.n	80011de <__aeabi_ddiv+0x3c2>
 8001384:	4b2a      	ldr	r3, [pc, #168]	@ (8001430 <__aeabi_ddiv+0x614>)
 8001386:	4a2f      	ldr	r2, [pc, #188]	@ (8001444 <__aeabi_ddiv+0x628>)
 8001388:	4453      	add	r3, sl
 800138a:	4592      	cmp	sl, r2
 800138c:	db43      	blt.n	8001416 <__aeabi_ddiv+0x5fa>
 800138e:	2201      	movs	r2, #1
 8001390:	2100      	movs	r1, #0
 8001392:	4493      	add	fp, r2
 8001394:	e72c      	b.n	80011f0 <__aeabi_ddiv+0x3d4>
 8001396:	42ac      	cmp	r4, r5
 8001398:	d800      	bhi.n	800139c <__aeabi_ddiv+0x580>
 800139a:	e6d7      	b.n	800114c <__aeabi_ddiv+0x330>
 800139c:	2302      	movs	r3, #2
 800139e:	425b      	negs	r3, r3
 80013a0:	469c      	mov	ip, r3
 80013a2:	9900      	ldr	r1, [sp, #0]
 80013a4:	444d      	add	r5, r9
 80013a6:	454d      	cmp	r5, r9
 80013a8:	419b      	sbcs	r3, r3
 80013aa:	44e3      	add	fp, ip
 80013ac:	468c      	mov	ip, r1
 80013ae:	425b      	negs	r3, r3
 80013b0:	4463      	add	r3, ip
 80013b2:	18c0      	adds	r0, r0, r3
 80013b4:	e6cc      	b.n	8001150 <__aeabi_ddiv+0x334>
 80013b6:	201f      	movs	r0, #31
 80013b8:	4240      	negs	r0, r0
 80013ba:	1ac3      	subs	r3, r0, r3
 80013bc:	4658      	mov	r0, fp
 80013be:	40d8      	lsrs	r0, r3
 80013c0:	2920      	cmp	r1, #32
 80013c2:	d004      	beq.n	80013ce <__aeabi_ddiv+0x5b2>
 80013c4:	4659      	mov	r1, fp
 80013c6:	4b20      	ldr	r3, [pc, #128]	@ (8001448 <__aeabi_ddiv+0x62c>)
 80013c8:	4453      	add	r3, sl
 80013ca:	4099      	lsls	r1, r3
 80013cc:	430a      	orrs	r2, r1
 80013ce:	1e53      	subs	r3, r2, #1
 80013d0:	419a      	sbcs	r2, r3
 80013d2:	2307      	movs	r3, #7
 80013d4:	0019      	movs	r1, r3
 80013d6:	4302      	orrs	r2, r0
 80013d8:	2400      	movs	r4, #0
 80013da:	4011      	ands	r1, r2
 80013dc:	4213      	tst	r3, r2
 80013de:	d009      	beq.n	80013f4 <__aeabi_ddiv+0x5d8>
 80013e0:	3308      	adds	r3, #8
 80013e2:	4013      	ands	r3, r2
 80013e4:	2b04      	cmp	r3, #4
 80013e6:	d01d      	beq.n	8001424 <__aeabi_ddiv+0x608>
 80013e8:	1d13      	adds	r3, r2, #4
 80013ea:	4293      	cmp	r3, r2
 80013ec:	4189      	sbcs	r1, r1
 80013ee:	001a      	movs	r2, r3
 80013f0:	4249      	negs	r1, r1
 80013f2:	0749      	lsls	r1, r1, #29
 80013f4:	08d2      	lsrs	r2, r2, #3
 80013f6:	430a      	orrs	r2, r1
 80013f8:	4690      	mov	r8, r2
 80013fa:	2300      	movs	r3, #0
 80013fc:	e57a      	b.n	8000ef4 <__aeabi_ddiv+0xd8>
 80013fe:	4649      	mov	r1, r9
 8001400:	9f00      	ldr	r7, [sp, #0]
 8001402:	004d      	lsls	r5, r1, #1
 8001404:	454d      	cmp	r5, r9
 8001406:	4189      	sbcs	r1, r1
 8001408:	46bc      	mov	ip, r7
 800140a:	4249      	negs	r1, r1
 800140c:	4461      	add	r1, ip
 800140e:	46a9      	mov	r9, r5
 8001410:	3a02      	subs	r2, #2
 8001412:	1864      	adds	r4, r4, r1
 8001414:	e7ae      	b.n	8001374 <__aeabi_ddiv+0x558>
 8001416:	2201      	movs	r2, #1
 8001418:	4252      	negs	r2, r2
 800141a:	e746      	b.n	80012aa <__aeabi_ddiv+0x48e>
 800141c:	4599      	cmp	r9, r3
 800141e:	d3ee      	bcc.n	80013fe <__aeabi_ddiv+0x5e2>
 8001420:	000a      	movs	r2, r1
 8001422:	e7aa      	b.n	800137a <__aeabi_ddiv+0x55e>
 8001424:	2100      	movs	r1, #0
 8001426:	e7e5      	b.n	80013f4 <__aeabi_ddiv+0x5d8>
 8001428:	0759      	lsls	r1, r3, #29
 800142a:	025b      	lsls	r3, r3, #9
 800142c:	0b1c      	lsrs	r4, r3, #12
 800142e:	e7e1      	b.n	80013f4 <__aeabi_ddiv+0x5d8>
 8001430:	000003ff 	.word	0x000003ff
 8001434:	feffffff 	.word	0xfeffffff
 8001438:	000007fe 	.word	0x000007fe
 800143c:	000007ff 	.word	0x000007ff
 8001440:	0000041e 	.word	0x0000041e
 8001444:	fffffc02 	.word	0xfffffc02
 8001448:	0000043e 	.word	0x0000043e

0800144c <__eqdf2>:
 800144c:	b5f0      	push	{r4, r5, r6, r7, lr}
 800144e:	4657      	mov	r7, sl
 8001450:	46de      	mov	lr, fp
 8001452:	464e      	mov	r6, r9
 8001454:	4645      	mov	r5, r8
 8001456:	b5e0      	push	{r5, r6, r7, lr}
 8001458:	000d      	movs	r5, r1
 800145a:	0004      	movs	r4, r0
 800145c:	0fe8      	lsrs	r0, r5, #31
 800145e:	4683      	mov	fp, r0
 8001460:	0309      	lsls	r1, r1, #12
 8001462:	0fd8      	lsrs	r0, r3, #31
 8001464:	0b09      	lsrs	r1, r1, #12
 8001466:	4682      	mov	sl, r0
 8001468:	4819      	ldr	r0, [pc, #100]	@ (80014d0 <__eqdf2+0x84>)
 800146a:	468c      	mov	ip, r1
 800146c:	031f      	lsls	r7, r3, #12
 800146e:	0069      	lsls	r1, r5, #1
 8001470:	005e      	lsls	r6, r3, #1
 8001472:	0d49      	lsrs	r1, r1, #21
 8001474:	0b3f      	lsrs	r7, r7, #12
 8001476:	0d76      	lsrs	r6, r6, #21
 8001478:	4281      	cmp	r1, r0
 800147a:	d018      	beq.n	80014ae <__eqdf2+0x62>
 800147c:	4286      	cmp	r6, r0
 800147e:	d00f      	beq.n	80014a0 <__eqdf2+0x54>
 8001480:	2001      	movs	r0, #1
 8001482:	42b1      	cmp	r1, r6
 8001484:	d10d      	bne.n	80014a2 <__eqdf2+0x56>
 8001486:	45bc      	cmp	ip, r7
 8001488:	d10b      	bne.n	80014a2 <__eqdf2+0x56>
 800148a:	4294      	cmp	r4, r2
 800148c:	d109      	bne.n	80014a2 <__eqdf2+0x56>
 800148e:	45d3      	cmp	fp, sl
 8001490:	d01c      	beq.n	80014cc <__eqdf2+0x80>
 8001492:	2900      	cmp	r1, #0
 8001494:	d105      	bne.n	80014a2 <__eqdf2+0x56>
 8001496:	4660      	mov	r0, ip
 8001498:	4320      	orrs	r0, r4
 800149a:	1e43      	subs	r3, r0, #1
 800149c:	4198      	sbcs	r0, r3
 800149e:	e000      	b.n	80014a2 <__eqdf2+0x56>
 80014a0:	2001      	movs	r0, #1
 80014a2:	bcf0      	pop	{r4, r5, r6, r7}
 80014a4:	46bb      	mov	fp, r7
 80014a6:	46b2      	mov	sl, r6
 80014a8:	46a9      	mov	r9, r5
 80014aa:	46a0      	mov	r8, r4
 80014ac:	bdf0      	pop	{r4, r5, r6, r7, pc}
 80014ae:	2001      	movs	r0, #1
 80014b0:	428e      	cmp	r6, r1
 80014b2:	d1f6      	bne.n	80014a2 <__eqdf2+0x56>
 80014b4:	4661      	mov	r1, ip
 80014b6:	4339      	orrs	r1, r7
 80014b8:	000f      	movs	r7, r1
 80014ba:	4317      	orrs	r7, r2
 80014bc:	4327      	orrs	r7, r4
 80014be:	d1f0      	bne.n	80014a2 <__eqdf2+0x56>
 80014c0:	465b      	mov	r3, fp
 80014c2:	4652      	mov	r2, sl
 80014c4:	1a98      	subs	r0, r3, r2
 80014c6:	1e43      	subs	r3, r0, #1
 80014c8:	4198      	sbcs	r0, r3
 80014ca:	e7ea      	b.n	80014a2 <__eqdf2+0x56>
 80014cc:	2000      	movs	r0, #0
 80014ce:	e7e8      	b.n	80014a2 <__eqdf2+0x56>
 80014d0:	000007ff 	.word	0x000007ff

080014d4 <__gedf2>:
 80014d4:	b5f0      	push	{r4, r5, r6, r7, lr}
 80014d6:	4657      	mov	r7, sl
 80014d8:	464e      	mov	r6, r9
 80014da:	4645      	mov	r5, r8
 80014dc:	46de      	mov	lr, fp
 80014de:	b5e0      	push	{r5, r6, r7, lr}
 80014e0:	000d      	movs	r5, r1
 80014e2:	030e      	lsls	r6, r1, #12
 80014e4:	0049      	lsls	r1, r1, #1
 80014e6:	0d49      	lsrs	r1, r1, #21
 80014e8:	468a      	mov	sl, r1
 80014ea:	0fdf      	lsrs	r7, r3, #31
 80014ec:	0fe9      	lsrs	r1, r5, #31
 80014ee:	46bc      	mov	ip, r7
 80014f0:	b083      	sub	sp, #12
 80014f2:	4f2f      	ldr	r7, [pc, #188]	@ (80015b0 <__gedf2+0xdc>)
 80014f4:	0004      	movs	r4, r0
 80014f6:	4680      	mov	r8, r0
 80014f8:	9101      	str	r1, [sp, #4]
 80014fa:	0058      	lsls	r0, r3, #1
 80014fc:	0319      	lsls	r1, r3, #12
 80014fe:	4691      	mov	r9, r2
 8001500:	0b36      	lsrs	r6, r6, #12
 8001502:	0b09      	lsrs	r1, r1, #12
 8001504:	0d40      	lsrs	r0, r0, #21
 8001506:	45ba      	cmp	sl, r7
 8001508:	d01d      	beq.n	8001546 <__gedf2+0x72>
 800150a:	42b8      	cmp	r0, r7
 800150c:	d00d      	beq.n	800152a <__gedf2+0x56>
 800150e:	4657      	mov	r7, sl
 8001510:	2f00      	cmp	r7, #0
 8001512:	d12a      	bne.n	800156a <__gedf2+0x96>
 8001514:	4334      	orrs	r4, r6
 8001516:	2800      	cmp	r0, #0
 8001518:	d124      	bne.n	8001564 <__gedf2+0x90>
 800151a:	430a      	orrs	r2, r1
 800151c:	d036      	beq.n	800158c <__gedf2+0xb8>
 800151e:	2c00      	cmp	r4, #0
 8001520:	d141      	bne.n	80015a6 <__gedf2+0xd2>
 8001522:	4663      	mov	r3, ip
 8001524:	0058      	lsls	r0, r3, #1
 8001526:	3801      	subs	r0, #1
 8001528:	e015      	b.n	8001556 <__gedf2+0x82>
 800152a:	4311      	orrs	r1, r2
 800152c:	d138      	bne.n	80015a0 <__gedf2+0xcc>
 800152e:	4653      	mov	r3, sl
 8001530:	2b00      	cmp	r3, #0
 8001532:	d101      	bne.n	8001538 <__gedf2+0x64>
 8001534:	4326      	orrs	r6, r4
 8001536:	d0f4      	beq.n	8001522 <__gedf2+0x4e>
 8001538:	9b01      	ldr	r3, [sp, #4]
 800153a:	4563      	cmp	r3, ip
 800153c:	d107      	bne.n	800154e <__gedf2+0x7a>
 800153e:	9b01      	ldr	r3, [sp, #4]
 8001540:	0058      	lsls	r0, r3, #1
 8001542:	3801      	subs	r0, #1
 8001544:	e007      	b.n	8001556 <__gedf2+0x82>
 8001546:	4326      	orrs	r6, r4
 8001548:	d12a      	bne.n	80015a0 <__gedf2+0xcc>
 800154a:	4550      	cmp	r0, sl
 800154c:	d021      	beq.n	8001592 <__gedf2+0xbe>
 800154e:	2001      	movs	r0, #1
 8001550:	9b01      	ldr	r3, [sp, #4]
 8001552:	425f      	negs	r7, r3
 8001554:	4338      	orrs	r0, r7
 8001556:	b003      	add	sp, #12
 8001558:	bcf0      	pop	{r4, r5, r6, r7}
 800155a:	46bb      	mov	fp, r7
 800155c:	46b2      	mov	sl, r6
 800155e:	46a9      	mov	r9, r5
 8001560:	46a0      	mov	r8, r4
 8001562:	bdf0      	pop	{r4, r5, r6, r7, pc}
 8001564:	2c00      	cmp	r4, #0
 8001566:	d0dc      	beq.n	8001522 <__gedf2+0x4e>
 8001568:	e7e6      	b.n	8001538 <__gedf2+0x64>
 800156a:	2800      	cmp	r0, #0
 800156c:	d0ef      	beq.n	800154e <__gedf2+0x7a>
 800156e:	9b01      	ldr	r3, [sp, #4]
 8001570:	4563      	cmp	r3, ip
 8001572:	d1ec      	bne.n	800154e <__gedf2+0x7a>
 8001574:	4582      	cmp	sl, r0
 8001576:	dcea      	bgt.n	800154e <__gedf2+0x7a>
 8001578:	dbe1      	blt.n	800153e <__gedf2+0x6a>
 800157a:	428e      	cmp	r6, r1
 800157c:	d8e7      	bhi.n	800154e <__gedf2+0x7a>
 800157e:	d1de      	bne.n	800153e <__gedf2+0x6a>
 8001580:	45c8      	cmp	r8, r9
 8001582:	d8e4      	bhi.n	800154e <__gedf2+0x7a>
 8001584:	2000      	movs	r0, #0
 8001586:	45c8      	cmp	r8, r9
 8001588:	d2e5      	bcs.n	8001556 <__gedf2+0x82>
 800158a:	e7d8      	b.n	800153e <__gedf2+0x6a>
 800158c:	2c00      	cmp	r4, #0
 800158e:	d0e2      	beq.n	8001556 <__gedf2+0x82>
 8001590:	e7dd      	b.n	800154e <__gedf2+0x7a>
 8001592:	4311      	orrs	r1, r2
 8001594:	d104      	bne.n	80015a0 <__gedf2+0xcc>
 8001596:	9b01      	ldr	r3, [sp, #4]
 8001598:	4563      	cmp	r3, ip
 800159a:	d1d8      	bne.n	800154e <__gedf2+0x7a>
 800159c:	2000      	movs	r0, #0
 800159e:	e7da      	b.n	8001556 <__gedf2+0x82>
 80015a0:	2002      	movs	r0, #2
 80015a2:	4240      	negs	r0, r0
 80015a4:	e7d7      	b.n	8001556 <__gedf2+0x82>
 80015a6:	9b01      	ldr	r3, [sp, #4]
 80015a8:	4563      	cmp	r3, ip
 80015aa:	d0e6      	beq.n	800157a <__gedf2+0xa6>
 80015ac:	e7cf      	b.n	800154e <__gedf2+0x7a>
 80015ae:	46c0      	nop			@ (mov r8, r8)
 80015b0:	000007ff 	.word	0x000007ff

080015b4 <__ledf2>:
 80015b4:	b5f0      	push	{r4, r5, r6, r7, lr}
 80015b6:	4657      	mov	r7, sl
 80015b8:	464e      	mov	r6, r9
 80015ba:	4645      	mov	r5, r8
 80015bc:	46de      	mov	lr, fp
 80015be:	b5e0      	push	{r5, r6, r7, lr}
 80015c0:	000d      	movs	r5, r1
 80015c2:	030e      	lsls	r6, r1, #12
 80015c4:	0049      	lsls	r1, r1, #1
 80015c6:	0d49      	lsrs	r1, r1, #21
 80015c8:	468a      	mov	sl, r1
 80015ca:	0fdf      	lsrs	r7, r3, #31
 80015cc:	0fe9      	lsrs	r1, r5, #31
 80015ce:	46bc      	mov	ip, r7
 80015d0:	b083      	sub	sp, #12
 80015d2:	4f2e      	ldr	r7, [pc, #184]	@ (800168c <__ledf2+0xd8>)
 80015d4:	0004      	movs	r4, r0
 80015d6:	4680      	mov	r8, r0
 80015d8:	9101      	str	r1, [sp, #4]
 80015da:	0058      	lsls	r0, r3, #1
 80015dc:	0319      	lsls	r1, r3, #12
 80015de:	4691      	mov	r9, r2
 80015e0:	0b36      	lsrs	r6, r6, #12
 80015e2:	0b09      	lsrs	r1, r1, #12
 80015e4:	0d40      	lsrs	r0, r0, #21
 80015e6:	45ba      	cmp	sl, r7
 80015e8:	d01e      	beq.n	8001628 <__ledf2+0x74>
 80015ea:	42b8      	cmp	r0, r7
 80015ec:	d00d      	beq.n	800160a <__ledf2+0x56>
 80015ee:	4657      	mov	r7, sl
 80015f0:	2f00      	cmp	r7, #0
 80015f2:	d127      	bne.n	8001644 <__ledf2+0x90>
 80015f4:	4334      	orrs	r4, r6
 80015f6:	2800      	cmp	r0, #0
 80015f8:	d133      	bne.n	8001662 <__ledf2+0xae>
 80015fa:	430a      	orrs	r2, r1
 80015fc:	d034      	beq.n	8001668 <__ledf2+0xb4>
 80015fe:	2c00      	cmp	r4, #0
 8001600:	d140      	bne.n	8001684 <__ledf2+0xd0>
 8001602:	4663      	mov	r3, ip
 8001604:	0058      	lsls	r0, r3, #1
 8001606:	3801      	subs	r0, #1
 8001608:	e015      	b.n	8001636 <__ledf2+0x82>
 800160a:	4311      	orrs	r1, r2
 800160c:	d112      	bne.n	8001634 <__ledf2+0x80>
 800160e:	4653      	mov	r3, sl
 8001610:	2b00      	cmp	r3, #0
 8001612:	d101      	bne.n	8001618 <__ledf2+0x64>
 8001614:	4326      	orrs	r6, r4
 8001616:	d0f4      	beq.n	8001602 <__ledf2+0x4e>
 8001618:	9b01      	ldr	r3, [sp, #4]
 800161a:	4563      	cmp	r3, ip
 800161c:	d01d      	beq.n	800165a <__ledf2+0xa6>
 800161e:	2001      	movs	r0, #1
 8001620:	9b01      	ldr	r3, [sp, #4]
 8001622:	425f      	negs	r7, r3
 8001624:	4338      	orrs	r0, r7
 8001626:	e006      	b.n	8001636 <__ledf2+0x82>
 8001628:	4326      	orrs	r6, r4
 800162a:	d103      	bne.n	8001634 <__ledf2+0x80>
 800162c:	4550      	cmp	r0, sl
 800162e:	d1f6      	bne.n	800161e <__ledf2+0x6a>
 8001630:	4311      	orrs	r1, r2
 8001632:	d01c      	beq.n	800166e <__ledf2+0xba>
 8001634:	2002      	movs	r0, #2
 8001636:	b003      	add	sp, #12
 8001638:	bcf0      	pop	{r4, r5, r6, r7}
 800163a:	46bb      	mov	fp, r7
 800163c:	46b2      	mov	sl, r6
 800163e:	46a9      	mov	r9, r5
 8001640:	46a0      	mov	r8, r4
 8001642:	bdf0      	pop	{r4, r5, r6, r7, pc}
 8001644:	2800      	cmp	r0, #0
 8001646:	d0ea      	beq.n	800161e <__ledf2+0x6a>
 8001648:	9b01      	ldr	r3, [sp, #4]
 800164a:	4563      	cmp	r3, ip
 800164c:	d1e7      	bne.n	800161e <__ledf2+0x6a>
 800164e:	4582      	cmp	sl, r0
 8001650:	dce5      	bgt.n	800161e <__ledf2+0x6a>
 8001652:	db02      	blt.n	800165a <__ledf2+0xa6>
 8001654:	428e      	cmp	r6, r1
 8001656:	d8e2      	bhi.n	800161e <__ledf2+0x6a>
 8001658:	d00e      	beq.n	8001678 <__ledf2+0xc4>
 800165a:	9b01      	ldr	r3, [sp, #4]
 800165c:	0058      	lsls	r0, r3, #1
 800165e:	3801      	subs	r0, #1
 8001660:	e7e9      	b.n	8001636 <__ledf2+0x82>
 8001662:	2c00      	cmp	r4, #0
 8001664:	d0cd      	beq.n	8001602 <__ledf2+0x4e>
 8001666:	e7d7      	b.n	8001618 <__ledf2+0x64>
 8001668:	2c00      	cmp	r4, #0
 800166a:	d0e4      	beq.n	8001636 <__ledf2+0x82>
 800166c:	e7d7      	b.n	800161e <__ledf2+0x6a>
 800166e:	9b01      	ldr	r3, [sp, #4]
 8001670:	2000      	movs	r0, #0
 8001672:	4563      	cmp	r3, ip
 8001674:	d0df      	beq.n	8001636 <__ledf2+0x82>
 8001676:	e7d2      	b.n	800161e <__ledf2+0x6a>
 8001678:	45c8      	cmp	r8, r9
 800167a:	d8d0      	bhi.n	800161e <__ledf2+0x6a>
 800167c:	2000      	movs	r0, #0
 800167e:	45c8      	cmp	r8, r9
 8001680:	d2d9      	bcs.n	8001636 <__ledf2+0x82>
 8001682:	e7ea      	b.n	800165a <__ledf2+0xa6>
 8001684:	9b01      	ldr	r3, [sp, #4]
 8001686:	4563      	cmp	r3, ip
 8001688:	d0e4      	beq.n	8001654 <__ledf2+0xa0>
 800168a:	e7c8      	b.n	800161e <__ledf2+0x6a>
 800168c:	000007ff 	.word	0x000007ff

08001690 <__aeabi_dmul>:
 8001690:	b5f0      	push	{r4, r5, r6, r7, lr}
 8001692:	4657      	mov	r7, sl
 8001694:	464e      	mov	r6, r9
 8001696:	46de      	mov	lr, fp
 8001698:	4645      	mov	r5, r8
 800169a:	b5e0      	push	{r5, r6, r7, lr}
 800169c:	001f      	movs	r7, r3
 800169e:	030b      	lsls	r3, r1, #12
 80016a0:	0b1b      	lsrs	r3, r3, #12
 80016a2:	0016      	movs	r6, r2
 80016a4:	469a      	mov	sl, r3
 80016a6:	0fca      	lsrs	r2, r1, #31
 80016a8:	004b      	lsls	r3, r1, #1
 80016aa:	0004      	movs	r4, r0
 80016ac:	4691      	mov	r9, r2
 80016ae:	b085      	sub	sp, #20
 80016b0:	0d5b      	lsrs	r3, r3, #21
 80016b2:	d100      	bne.n	80016b6 <__aeabi_dmul+0x26>
 80016b4:	e1cf      	b.n	8001a56 <__aeabi_dmul+0x3c6>
 80016b6:	4acd      	ldr	r2, [pc, #820]	@ (80019ec <__aeabi_dmul+0x35c>)
 80016b8:	4293      	cmp	r3, r2
 80016ba:	d055      	beq.n	8001768 <__aeabi_dmul+0xd8>
 80016bc:	4651      	mov	r1, sl
 80016be:	0f42      	lsrs	r2, r0, #29
 80016c0:	00c9      	lsls	r1, r1, #3
 80016c2:	430a      	orrs	r2, r1
 80016c4:	2180      	movs	r1, #128	@ 0x80
 80016c6:	0409      	lsls	r1, r1, #16
 80016c8:	4311      	orrs	r1, r2
 80016ca:	00c2      	lsls	r2, r0, #3
 80016cc:	4690      	mov	r8, r2
 80016ce:	4ac8      	ldr	r2, [pc, #800]	@ (80019f0 <__aeabi_dmul+0x360>)
 80016d0:	468a      	mov	sl, r1
 80016d2:	4693      	mov	fp, r2
 80016d4:	449b      	add	fp, r3
 80016d6:	2300      	movs	r3, #0
 80016d8:	2500      	movs	r5, #0
 80016da:	9302      	str	r3, [sp, #8]
 80016dc:	033c      	lsls	r4, r7, #12
 80016de:	007b      	lsls	r3, r7, #1
 80016e0:	0ffa      	lsrs	r2, r7, #31
 80016e2:	9601      	str	r6, [sp, #4]
 80016e4:	0b24      	lsrs	r4, r4, #12
 80016e6:	0d5b      	lsrs	r3, r3, #21
 80016e8:	9200      	str	r2, [sp, #0]
 80016ea:	d100      	bne.n	80016ee <__aeabi_dmul+0x5e>
 80016ec:	e188      	b.n	8001a00 <__aeabi_dmul+0x370>
 80016ee:	4abf      	ldr	r2, [pc, #764]	@ (80019ec <__aeabi_dmul+0x35c>)
 80016f0:	4293      	cmp	r3, r2
 80016f2:	d100      	bne.n	80016f6 <__aeabi_dmul+0x66>
 80016f4:	e092      	b.n	800181c <__aeabi_dmul+0x18c>
 80016f6:	4abe      	ldr	r2, [pc, #760]	@ (80019f0 <__aeabi_dmul+0x360>)
 80016f8:	4694      	mov	ip, r2
 80016fa:	4463      	add	r3, ip
 80016fc:	449b      	add	fp, r3
 80016fe:	2d0a      	cmp	r5, #10
 8001700:	dc42      	bgt.n	8001788 <__aeabi_dmul+0xf8>
 8001702:	00e4      	lsls	r4, r4, #3
 8001704:	0f73      	lsrs	r3, r6, #29
 8001706:	4323      	orrs	r3, r4
 8001708:	2480      	movs	r4, #128	@ 0x80
 800170a:	4649      	mov	r1, r9
 800170c:	0424      	lsls	r4, r4, #16
 800170e:	431c      	orrs	r4, r3
 8001710:	00f3      	lsls	r3, r6, #3
 8001712:	9301      	str	r3, [sp, #4]
 8001714:	9b00      	ldr	r3, [sp, #0]
 8001716:	2000      	movs	r0, #0
 8001718:	4059      	eors	r1, r3
 800171a:	b2cb      	uxtb	r3, r1
 800171c:	9303      	str	r3, [sp, #12]
 800171e:	2d02      	cmp	r5, #2
 8001720:	dc00      	bgt.n	8001724 <__aeabi_dmul+0x94>
 8001722:	e094      	b.n	800184e <__aeabi_dmul+0x1be>
 8001724:	2301      	movs	r3, #1
 8001726:	40ab      	lsls	r3, r5
 8001728:	001d      	movs	r5, r3
 800172a:	23a6      	movs	r3, #166	@ 0xa6
 800172c:	002a      	movs	r2, r5
 800172e:	00db      	lsls	r3, r3, #3
 8001730:	401a      	ands	r2, r3
 8001732:	421d      	tst	r5, r3
 8001734:	d000      	beq.n	8001738 <__aeabi_dmul+0xa8>
 8001736:	e229      	b.n	8001b8c <__aeabi_dmul+0x4fc>
 8001738:	2390      	movs	r3, #144	@ 0x90
 800173a:	009b      	lsls	r3, r3, #2
 800173c:	421d      	tst	r5, r3
 800173e:	d100      	bne.n	8001742 <__aeabi_dmul+0xb2>
 8001740:	e24d      	b.n	8001bde <__aeabi_dmul+0x54e>
 8001742:	2300      	movs	r3, #0
 8001744:	2480      	movs	r4, #128	@ 0x80
 8001746:	4699      	mov	r9, r3
 8001748:	0324      	lsls	r4, r4, #12
 800174a:	4ba8      	ldr	r3, [pc, #672]	@ (80019ec <__aeabi_dmul+0x35c>)
 800174c:	0010      	movs	r0, r2
 800174e:	464a      	mov	r2, r9
 8001750:	051b      	lsls	r3, r3, #20
 8001752:	4323      	orrs	r3, r4
 8001754:	07d2      	lsls	r2, r2, #31
 8001756:	4313      	orrs	r3, r2
 8001758:	0019      	movs	r1, r3
 800175a:	b005      	add	sp, #20
 800175c:	bcf0      	pop	{r4, r5, r6, r7}
 800175e:	46bb      	mov	fp, r7
 8001760:	46b2      	mov	sl, r6
 8001762:	46a9      	mov	r9, r5
 8001764:	46a0      	mov	r8, r4
 8001766:	bdf0      	pop	{r4, r5, r6, r7, pc}
 8001768:	4652      	mov	r2, sl
 800176a:	4302      	orrs	r2, r0
 800176c:	4690      	mov	r8, r2
 800176e:	d000      	beq.n	8001772 <__aeabi_dmul+0xe2>
 8001770:	e1ac      	b.n	8001acc <__aeabi_dmul+0x43c>
 8001772:	469b      	mov	fp, r3
 8001774:	2302      	movs	r3, #2
 8001776:	4692      	mov	sl, r2
 8001778:	2508      	movs	r5, #8
 800177a:	9302      	str	r3, [sp, #8]
 800177c:	e7ae      	b.n	80016dc <__aeabi_dmul+0x4c>
 800177e:	9b00      	ldr	r3, [sp, #0]
 8001780:	46a2      	mov	sl, r4
 8001782:	4699      	mov	r9, r3
 8001784:	9b01      	ldr	r3, [sp, #4]
 8001786:	4698      	mov	r8, r3
 8001788:	9b02      	ldr	r3, [sp, #8]
 800178a:	2b02      	cmp	r3, #2
 800178c:	d100      	bne.n	8001790 <__aeabi_dmul+0x100>
 800178e:	e1ca      	b.n	8001b26 <__aeabi_dmul+0x496>
 8001790:	2b03      	cmp	r3, #3
 8001792:	d100      	bne.n	8001796 <__aeabi_dmul+0x106>
 8001794:	e192      	b.n	8001abc <__aeabi_dmul+0x42c>
 8001796:	2b01      	cmp	r3, #1
 8001798:	d110      	bne.n	80017bc <__aeabi_dmul+0x12c>
 800179a:	2300      	movs	r3, #0
 800179c:	2400      	movs	r4, #0
 800179e:	2200      	movs	r2, #0
 80017a0:	e7d4      	b.n	800174c <__aeabi_dmul+0xbc>
 80017a2:	2201      	movs	r2, #1
 80017a4:	087b      	lsrs	r3, r7, #1
 80017a6:	403a      	ands	r2, r7
 80017a8:	4313      	orrs	r3, r2
 80017aa:	4652      	mov	r2, sl
 80017ac:	07d2      	lsls	r2, r2, #31
 80017ae:	4313      	orrs	r3, r2
 80017b0:	4698      	mov	r8, r3
 80017b2:	4653      	mov	r3, sl
 80017b4:	085b      	lsrs	r3, r3, #1
 80017b6:	469a      	mov	sl, r3
 80017b8:	9b03      	ldr	r3, [sp, #12]
 80017ba:	4699      	mov	r9, r3
 80017bc:	465b      	mov	r3, fp
 80017be:	1c58      	adds	r0, r3, #1
 80017c0:	2380      	movs	r3, #128	@ 0x80
 80017c2:	00db      	lsls	r3, r3, #3
 80017c4:	445b      	add	r3, fp
 80017c6:	2b00      	cmp	r3, #0
 80017c8:	dc00      	bgt.n	80017cc <__aeabi_dmul+0x13c>
 80017ca:	e1b1      	b.n	8001b30 <__aeabi_dmul+0x4a0>
 80017cc:	4642      	mov	r2, r8
 80017ce:	0752      	lsls	r2, r2, #29
 80017d0:	d00b      	beq.n	80017ea <__aeabi_dmul+0x15a>
 80017d2:	220f      	movs	r2, #15
 80017d4:	4641      	mov	r1, r8
 80017d6:	400a      	ands	r2, r1
 80017d8:	2a04      	cmp	r2, #4
 80017da:	d006      	beq.n	80017ea <__aeabi_dmul+0x15a>
 80017dc:	4642      	mov	r2, r8
 80017de:	1d11      	adds	r1, r2, #4
 80017e0:	4541      	cmp	r1, r8
 80017e2:	4192      	sbcs	r2, r2
 80017e4:	4688      	mov	r8, r1
 80017e6:	4252      	negs	r2, r2
 80017e8:	4492      	add	sl, r2
 80017ea:	4652      	mov	r2, sl
 80017ec:	01d2      	lsls	r2, r2, #7
 80017ee:	d506      	bpl.n	80017fe <__aeabi_dmul+0x16e>
 80017f0:	4652      	mov	r2, sl
 80017f2:	4b80      	ldr	r3, [pc, #512]	@ (80019f4 <__aeabi_dmul+0x364>)
 80017f4:	401a      	ands	r2, r3
 80017f6:	2380      	movs	r3, #128	@ 0x80
 80017f8:	4692      	mov	sl, r2
 80017fa:	00db      	lsls	r3, r3, #3
 80017fc:	18c3      	adds	r3, r0, r3
 80017fe:	4a7e      	ldr	r2, [pc, #504]	@ (80019f8 <__aeabi_dmul+0x368>)
 8001800:	4293      	cmp	r3, r2
 8001802:	dd00      	ble.n	8001806 <__aeabi_dmul+0x176>
 8001804:	e18f      	b.n	8001b26 <__aeabi_dmul+0x496>
 8001806:	4642      	mov	r2, r8
 8001808:	08d1      	lsrs	r1, r2, #3
 800180a:	4652      	mov	r2, sl
 800180c:	0752      	lsls	r2, r2, #29
 800180e:	430a      	orrs	r2, r1
 8001810:	4651      	mov	r1, sl
 8001812:	055b      	lsls	r3, r3, #21
 8001814:	024c      	lsls	r4, r1, #9
 8001816:	0b24      	lsrs	r4, r4, #12
 8001818:	0d5b      	lsrs	r3, r3, #21
 800181a:	e797      	b.n	800174c <__aeabi_dmul+0xbc>
 800181c:	4b73      	ldr	r3, [pc, #460]	@ (80019ec <__aeabi_dmul+0x35c>)
 800181e:	4326      	orrs	r6, r4
 8001820:	469c      	mov	ip, r3
 8001822:	44e3      	add	fp, ip
 8001824:	2e00      	cmp	r6, #0
 8001826:	d100      	bne.n	800182a <__aeabi_dmul+0x19a>
 8001828:	e16f      	b.n	8001b0a <__aeabi_dmul+0x47a>
 800182a:	2303      	movs	r3, #3
 800182c:	4649      	mov	r1, r9
 800182e:	431d      	orrs	r5, r3
 8001830:	9b00      	ldr	r3, [sp, #0]
 8001832:	4059      	eors	r1, r3
 8001834:	b2cb      	uxtb	r3, r1
 8001836:	9303      	str	r3, [sp, #12]
 8001838:	2d0a      	cmp	r5, #10
 800183a:	dd00      	ble.n	800183e <__aeabi_dmul+0x1ae>
 800183c:	e133      	b.n	8001aa6 <__aeabi_dmul+0x416>
 800183e:	2301      	movs	r3, #1
 8001840:	40ab      	lsls	r3, r5
 8001842:	001d      	movs	r5, r3
 8001844:	2303      	movs	r3, #3
 8001846:	9302      	str	r3, [sp, #8]
 8001848:	2288      	movs	r2, #136	@ 0x88
 800184a:	422a      	tst	r2, r5
 800184c:	d197      	bne.n	800177e <__aeabi_dmul+0xee>
 800184e:	4642      	mov	r2, r8
 8001850:	4643      	mov	r3, r8
 8001852:	0412      	lsls	r2, r2, #16
 8001854:	0c12      	lsrs	r2, r2, #16
 8001856:	0016      	movs	r6, r2
 8001858:	9801      	ldr	r0, [sp, #4]
 800185a:	0c1d      	lsrs	r5, r3, #16
 800185c:	0c03      	lsrs	r3, r0, #16
 800185e:	0400      	lsls	r0, r0, #16
 8001860:	0c00      	lsrs	r0, r0, #16
 8001862:	4346      	muls	r6, r0
 8001864:	46b4      	mov	ip, r6
 8001866:	001e      	movs	r6, r3
 8001868:	436e      	muls	r6, r5
 800186a:	9600      	str	r6, [sp, #0]
 800186c:	0016      	movs	r6, r2
 800186e:	0007      	movs	r7, r0
 8001870:	435e      	muls	r6, r3
 8001872:	4661      	mov	r1, ip
 8001874:	46b0      	mov	r8, r6
 8001876:	436f      	muls	r7, r5
 8001878:	0c0e      	lsrs	r6, r1, #16
 800187a:	44b8      	add	r8, r7
 800187c:	4446      	add	r6, r8
 800187e:	42b7      	cmp	r7, r6
 8001880:	d905      	bls.n	800188e <__aeabi_dmul+0x1fe>
 8001882:	2180      	movs	r1, #128	@ 0x80
 8001884:	0249      	lsls	r1, r1, #9
 8001886:	4688      	mov	r8, r1
 8001888:	9f00      	ldr	r7, [sp, #0]
 800188a:	4447      	add	r7, r8
 800188c:	9700      	str	r7, [sp, #0]
 800188e:	4661      	mov	r1, ip
 8001890:	0409      	lsls	r1, r1, #16
 8001892:	0c09      	lsrs	r1, r1, #16
 8001894:	0c37      	lsrs	r7, r6, #16
 8001896:	0436      	lsls	r6, r6, #16
 8001898:	468c      	mov	ip, r1
 800189a:	0031      	movs	r1, r6
 800189c:	4461      	add	r1, ip
 800189e:	9101      	str	r1, [sp, #4]
 80018a0:	0011      	movs	r1, r2
 80018a2:	0c26      	lsrs	r6, r4, #16
 80018a4:	0424      	lsls	r4, r4, #16
 80018a6:	0c24      	lsrs	r4, r4, #16
 80018a8:	4361      	muls	r1, r4
 80018aa:	468c      	mov	ip, r1
 80018ac:	0021      	movs	r1, r4
 80018ae:	4369      	muls	r1, r5
 80018b0:	4689      	mov	r9, r1
 80018b2:	4661      	mov	r1, ip
 80018b4:	0c09      	lsrs	r1, r1, #16
 80018b6:	4688      	mov	r8, r1
 80018b8:	4372      	muls	r2, r6
 80018ba:	444a      	add	r2, r9
 80018bc:	4442      	add	r2, r8
 80018be:	4375      	muls	r5, r6
 80018c0:	4591      	cmp	r9, r2
 80018c2:	d903      	bls.n	80018cc <__aeabi_dmul+0x23c>
 80018c4:	2180      	movs	r1, #128	@ 0x80
 80018c6:	0249      	lsls	r1, r1, #9
 80018c8:	4688      	mov	r8, r1
 80018ca:	4445      	add	r5, r8
 80018cc:	0c11      	lsrs	r1, r2, #16
 80018ce:	4688      	mov	r8, r1
 80018d0:	4661      	mov	r1, ip
 80018d2:	0409      	lsls	r1, r1, #16
 80018d4:	0c09      	lsrs	r1, r1, #16
 80018d6:	468c      	mov	ip, r1
 80018d8:	0412      	lsls	r2, r2, #16
 80018da:	4462      	add	r2, ip
 80018dc:	18b9      	adds	r1, r7, r2
 80018de:	9102      	str	r1, [sp, #8]
 80018e0:	4651      	mov	r1, sl
 80018e2:	0c09      	lsrs	r1, r1, #16
 80018e4:	468c      	mov	ip, r1
 80018e6:	4651      	mov	r1, sl
 80018e8:	040f      	lsls	r7, r1, #16
 80018ea:	0c3f      	lsrs	r7, r7, #16
 80018ec:	0039      	movs	r1, r7
 80018ee:	4341      	muls	r1, r0
 80018f0:	4445      	add	r5, r8
 80018f2:	4688      	mov	r8, r1
 80018f4:	4661      	mov	r1, ip
 80018f6:	4341      	muls	r1, r0
 80018f8:	468a      	mov	sl, r1
 80018fa:	4641      	mov	r1, r8
 80018fc:	4660      	mov	r0, ip
 80018fe:	0c09      	lsrs	r1, r1, #16
 8001900:	4689      	mov	r9, r1
 8001902:	4358      	muls	r0, r3
 8001904:	437b      	muls	r3, r7
 8001906:	4453      	add	r3, sl
 8001908:	444b      	add	r3, r9
 800190a:	459a      	cmp	sl, r3
 800190c:	d903      	bls.n	8001916 <__aeabi_dmul+0x286>
 800190e:	2180      	movs	r1, #128	@ 0x80
 8001910:	0249      	lsls	r1, r1, #9
 8001912:	4689      	mov	r9, r1
 8001914:	4448      	add	r0, r9
 8001916:	0c19      	lsrs	r1, r3, #16
 8001918:	4689      	mov	r9, r1
 800191a:	4641      	mov	r1, r8
 800191c:	0409      	lsls	r1, r1, #16
 800191e:	0c09      	lsrs	r1, r1, #16
 8001920:	4688      	mov	r8, r1
 8001922:	0039      	movs	r1, r7
 8001924:	4361      	muls	r1, r4
 8001926:	041b      	lsls	r3, r3, #16
 8001928:	4443      	add	r3, r8
 800192a:	4688      	mov	r8, r1
 800192c:	4661      	mov	r1, ip
 800192e:	434c      	muls	r4, r1
 8001930:	4371      	muls	r1, r6
 8001932:	468c      	mov	ip, r1
 8001934:	4641      	mov	r1, r8
 8001936:	4377      	muls	r7, r6
 8001938:	0c0e      	lsrs	r6, r1, #16
 800193a:	193f      	adds	r7, r7, r4
 800193c:	19f6      	adds	r6, r6, r7
 800193e:	4448      	add	r0, r9
 8001940:	42b4      	cmp	r4, r6
 8001942:	d903      	bls.n	800194c <__aeabi_dmul+0x2bc>
 8001944:	2180      	movs	r1, #128	@ 0x80
 8001946:	0249      	lsls	r1, r1, #9
 8001948:	4689      	mov	r9, r1
 800194a:	44cc      	add	ip, r9
 800194c:	9902      	ldr	r1, [sp, #8]
 800194e:	9f00      	ldr	r7, [sp, #0]
 8001950:	4689      	mov	r9, r1
 8001952:	0431      	lsls	r1, r6, #16
 8001954:	444f      	add	r7, r9
 8001956:	4689      	mov	r9, r1
 8001958:	4641      	mov	r1, r8
 800195a:	4297      	cmp	r7, r2
 800195c:	4192      	sbcs	r2, r2
 800195e:	040c      	lsls	r4, r1, #16
 8001960:	0c24      	lsrs	r4, r4, #16
 8001962:	444c      	add	r4, r9
 8001964:	18ff      	adds	r7, r7, r3
 8001966:	4252      	negs	r2, r2
 8001968:	1964      	adds	r4, r4, r5
 800196a:	18a1      	adds	r1, r4, r2
 800196c:	429f      	cmp	r7, r3
 800196e:	419b      	sbcs	r3, r3
 8001970:	4688      	mov	r8, r1
 8001972:	4682      	mov	sl, r0
 8001974:	425b      	negs	r3, r3
 8001976:	4699      	mov	r9, r3
 8001978:	4590      	cmp	r8, r2
 800197a:	4192      	sbcs	r2, r2
 800197c:	42ac      	cmp	r4, r5
 800197e:	41a4      	sbcs	r4, r4
 8001980:	44c2      	add	sl, r8
 8001982:	44d1      	add	r9, sl
 8001984:	4252      	negs	r2, r2
 8001986:	4264      	negs	r4, r4
 8001988:	4314      	orrs	r4, r2
 800198a:	4599      	cmp	r9, r3
 800198c:	419b      	sbcs	r3, r3
 800198e:	4582      	cmp	sl, r0
 8001990:	4192      	sbcs	r2, r2
 8001992:	425b      	negs	r3, r3
 8001994:	4252      	negs	r2, r2
 8001996:	4313      	orrs	r3, r2
 8001998:	464a      	mov	r2, r9
 800199a:	0c36      	lsrs	r6, r6, #16
 800199c:	19a4      	adds	r4, r4, r6
 800199e:	18e3      	adds	r3, r4, r3
 80019a0:	4463      	add	r3, ip
 80019a2:	025b      	lsls	r3, r3, #9
 80019a4:	0dd2      	lsrs	r2, r2, #23
 80019a6:	431a      	orrs	r2, r3
 80019a8:	9901      	ldr	r1, [sp, #4]
 80019aa:	4692      	mov	sl, r2
 80019ac:	027a      	lsls	r2, r7, #9
 80019ae:	430a      	orrs	r2, r1
 80019b0:	1e50      	subs	r0, r2, #1
 80019b2:	4182      	sbcs	r2, r0
 80019b4:	0dff      	lsrs	r7, r7, #23
 80019b6:	4317      	orrs	r7, r2
 80019b8:	464a      	mov	r2, r9
 80019ba:	0252      	lsls	r2, r2, #9
 80019bc:	4317      	orrs	r7, r2
 80019be:	46b8      	mov	r8, r7
 80019c0:	01db      	lsls	r3, r3, #7
 80019c2:	d500      	bpl.n	80019c6 <__aeabi_dmul+0x336>
 80019c4:	e6ed      	b.n	80017a2 <__aeabi_dmul+0x112>
 80019c6:	4b0d      	ldr	r3, [pc, #52]	@ (80019fc <__aeabi_dmul+0x36c>)
 80019c8:	9a03      	ldr	r2, [sp, #12]
 80019ca:	445b      	add	r3, fp
 80019cc:	4691      	mov	r9, r2
 80019ce:	2b00      	cmp	r3, #0
 80019d0:	dc00      	bgt.n	80019d4 <__aeabi_dmul+0x344>
 80019d2:	e0ac      	b.n	8001b2e <__aeabi_dmul+0x49e>
 80019d4:	003a      	movs	r2, r7
 80019d6:	0752      	lsls	r2, r2, #29
 80019d8:	d100      	bne.n	80019dc <__aeabi_dmul+0x34c>
 80019da:	e710      	b.n	80017fe <__aeabi_dmul+0x16e>
 80019dc:	220f      	movs	r2, #15
 80019de:	4658      	mov	r0, fp
 80019e0:	403a      	ands	r2, r7
 80019e2:	2a04      	cmp	r2, #4
 80019e4:	d000      	beq.n	80019e8 <__aeabi_dmul+0x358>
 80019e6:	e6f9      	b.n	80017dc <__aeabi_dmul+0x14c>
 80019e8:	e709      	b.n	80017fe <__aeabi_dmul+0x16e>
 80019ea:	46c0      	nop			@ (mov r8, r8)
 80019ec:	000007ff 	.word	0x000007ff
 80019f0:	fffffc01 	.word	0xfffffc01
 80019f4:	feffffff 	.word	0xfeffffff
 80019f8:	000007fe 	.word	0x000007fe
 80019fc:	000003ff 	.word	0x000003ff
 8001a00:	0022      	movs	r2, r4
 8001a02:	4332      	orrs	r2, r6
 8001a04:	d06f      	beq.n	8001ae6 <__aeabi_dmul+0x456>
 8001a06:	2c00      	cmp	r4, #0
 8001a08:	d100      	bne.n	8001a0c <__aeabi_dmul+0x37c>
 8001a0a:	e0c2      	b.n	8001b92 <__aeabi_dmul+0x502>
 8001a0c:	0020      	movs	r0, r4
 8001a0e:	f000 fddf 	bl	80025d0 <__clzsi2>
 8001a12:	0002      	movs	r2, r0
 8001a14:	0003      	movs	r3, r0
 8001a16:	3a0b      	subs	r2, #11
 8001a18:	201d      	movs	r0, #29
 8001a1a:	1a82      	subs	r2, r0, r2
 8001a1c:	0030      	movs	r0, r6
 8001a1e:	0019      	movs	r1, r3
 8001a20:	40d0      	lsrs	r0, r2
 8001a22:	3908      	subs	r1, #8
 8001a24:	408c      	lsls	r4, r1
 8001a26:	0002      	movs	r2, r0
 8001a28:	4322      	orrs	r2, r4
 8001a2a:	0034      	movs	r4, r6
 8001a2c:	408c      	lsls	r4, r1
 8001a2e:	4659      	mov	r1, fp
 8001a30:	1acb      	subs	r3, r1, r3
 8001a32:	4986      	ldr	r1, [pc, #536]	@ (8001c4c <__aeabi_dmul+0x5bc>)
 8001a34:	468b      	mov	fp, r1
 8001a36:	449b      	add	fp, r3
 8001a38:	2d0a      	cmp	r5, #10
 8001a3a:	dd00      	ble.n	8001a3e <__aeabi_dmul+0x3ae>
 8001a3c:	e6a4      	b.n	8001788 <__aeabi_dmul+0xf8>
 8001a3e:	4649      	mov	r1, r9
 8001a40:	9b00      	ldr	r3, [sp, #0]
 8001a42:	9401      	str	r4, [sp, #4]
 8001a44:	4059      	eors	r1, r3
 8001a46:	b2cb      	uxtb	r3, r1
 8001a48:	0014      	movs	r4, r2
 8001a4a:	2000      	movs	r0, #0
 8001a4c:	9303      	str	r3, [sp, #12]
 8001a4e:	2d02      	cmp	r5, #2
 8001a50:	dd00      	ble.n	8001a54 <__aeabi_dmul+0x3c4>
 8001a52:	e667      	b.n	8001724 <__aeabi_dmul+0x94>
 8001a54:	e6fb      	b.n	800184e <__aeabi_dmul+0x1be>
 8001a56:	4653      	mov	r3, sl
 8001a58:	4303      	orrs	r3, r0
 8001a5a:	4698      	mov	r8, r3
 8001a5c:	d03c      	beq.n	8001ad8 <__aeabi_dmul+0x448>
 8001a5e:	4653      	mov	r3, sl
 8001a60:	2b00      	cmp	r3, #0
 8001a62:	d100      	bne.n	8001a66 <__aeabi_dmul+0x3d6>
 8001a64:	e0a3      	b.n	8001bae <__aeabi_dmul+0x51e>
 8001a66:	4650      	mov	r0, sl
 8001a68:	f000 fdb2 	bl	80025d0 <__clzsi2>
 8001a6c:	230b      	movs	r3, #11
 8001a6e:	425b      	negs	r3, r3
 8001a70:	469c      	mov	ip, r3
 8001a72:	0002      	movs	r2, r0
 8001a74:	4484      	add	ip, r0
 8001a76:	0011      	movs	r1, r2
 8001a78:	4650      	mov	r0, sl
 8001a7a:	3908      	subs	r1, #8
 8001a7c:	4088      	lsls	r0, r1
 8001a7e:	231d      	movs	r3, #29
 8001a80:	4680      	mov	r8, r0
 8001a82:	4660      	mov	r0, ip
 8001a84:	1a1b      	subs	r3, r3, r0
 8001a86:	0020      	movs	r0, r4
 8001a88:	40d8      	lsrs	r0, r3
 8001a8a:	0003      	movs	r3, r0
 8001a8c:	4640      	mov	r0, r8
 8001a8e:	4303      	orrs	r3, r0
 8001a90:	469a      	mov	sl, r3
 8001a92:	0023      	movs	r3, r4
 8001a94:	408b      	lsls	r3, r1
 8001a96:	4698      	mov	r8, r3
 8001a98:	4b6c      	ldr	r3, [pc, #432]	@ (8001c4c <__aeabi_dmul+0x5bc>)
 8001a9a:	2500      	movs	r5, #0
 8001a9c:	1a9b      	subs	r3, r3, r2
 8001a9e:	469b      	mov	fp, r3
 8001aa0:	2300      	movs	r3, #0
 8001aa2:	9302      	str	r3, [sp, #8]
 8001aa4:	e61a      	b.n	80016dc <__aeabi_dmul+0x4c>
 8001aa6:	2d0f      	cmp	r5, #15
 8001aa8:	d000      	beq.n	8001aac <__aeabi_dmul+0x41c>
 8001aaa:	e0c9      	b.n	8001c40 <__aeabi_dmul+0x5b0>
 8001aac:	2380      	movs	r3, #128	@ 0x80
 8001aae:	4652      	mov	r2, sl
 8001ab0:	031b      	lsls	r3, r3, #12
 8001ab2:	421a      	tst	r2, r3
 8001ab4:	d002      	beq.n	8001abc <__aeabi_dmul+0x42c>
 8001ab6:	421c      	tst	r4, r3
 8001ab8:	d100      	bne.n	8001abc <__aeabi_dmul+0x42c>
 8001aba:	e092      	b.n	8001be2 <__aeabi_dmul+0x552>
 8001abc:	2480      	movs	r4, #128	@ 0x80
 8001abe:	4653      	mov	r3, sl
 8001ac0:	0324      	lsls	r4, r4, #12
 8001ac2:	431c      	orrs	r4, r3
 8001ac4:	0324      	lsls	r4, r4, #12
 8001ac6:	4642      	mov	r2, r8
 8001ac8:	0b24      	lsrs	r4, r4, #12
 8001aca:	e63e      	b.n	800174a <__aeabi_dmul+0xba>
 8001acc:	469b      	mov	fp, r3
 8001ace:	2303      	movs	r3, #3
 8001ad0:	4680      	mov	r8, r0
 8001ad2:	250c      	movs	r5, #12
 8001ad4:	9302      	str	r3, [sp, #8]
 8001ad6:	e601      	b.n	80016dc <__aeabi_dmul+0x4c>
 8001ad8:	2300      	movs	r3, #0
 8001ada:	469a      	mov	sl, r3
 8001adc:	469b      	mov	fp, r3
 8001ade:	3301      	adds	r3, #1
 8001ae0:	2504      	movs	r5, #4
 8001ae2:	9302      	str	r3, [sp, #8]
 8001ae4:	e5fa      	b.n	80016dc <__aeabi_dmul+0x4c>
 8001ae6:	2101      	movs	r1, #1
 8001ae8:	430d      	orrs	r5, r1
 8001aea:	2d0a      	cmp	r5, #10
 8001aec:	dd00      	ble.n	8001af0 <__aeabi_dmul+0x460>
 8001aee:	e64b      	b.n	8001788 <__aeabi_dmul+0xf8>
 8001af0:	4649      	mov	r1, r9
 8001af2:	9800      	ldr	r0, [sp, #0]
 8001af4:	4041      	eors	r1, r0
 8001af6:	b2c9      	uxtb	r1, r1
 8001af8:	9103      	str	r1, [sp, #12]
 8001afa:	2d02      	cmp	r5, #2
 8001afc:	dc00      	bgt.n	8001b00 <__aeabi_dmul+0x470>
 8001afe:	e096      	b.n	8001c2e <__aeabi_dmul+0x59e>
 8001b00:	2300      	movs	r3, #0
 8001b02:	2400      	movs	r4, #0
 8001b04:	2001      	movs	r0, #1
 8001b06:	9301      	str	r3, [sp, #4]
 8001b08:	e60c      	b.n	8001724 <__aeabi_dmul+0x94>
 8001b0a:	4649      	mov	r1, r9
 8001b0c:	2302      	movs	r3, #2
 8001b0e:	9a00      	ldr	r2, [sp, #0]
 8001b10:	432b      	orrs	r3, r5
 8001b12:	4051      	eors	r1, r2
 8001b14:	b2ca      	uxtb	r2, r1
 8001b16:	9203      	str	r2, [sp, #12]
 8001b18:	2b0a      	cmp	r3, #10
 8001b1a:	dd00      	ble.n	8001b1e <__aeabi_dmul+0x48e>
 8001b1c:	e634      	b.n	8001788 <__aeabi_dmul+0xf8>
 8001b1e:	2d00      	cmp	r5, #0
 8001b20:	d157      	bne.n	8001bd2 <__aeabi_dmul+0x542>
 8001b22:	9b03      	ldr	r3, [sp, #12]
 8001b24:	4699      	mov	r9, r3
 8001b26:	2400      	movs	r4, #0
 8001b28:	2200      	movs	r2, #0
 8001b2a:	4b49      	ldr	r3, [pc, #292]	@ (8001c50 <__aeabi_dmul+0x5c0>)
 8001b2c:	e60e      	b.n	800174c <__aeabi_dmul+0xbc>
 8001b2e:	4658      	mov	r0, fp
 8001b30:	2101      	movs	r1, #1
 8001b32:	1ac9      	subs	r1, r1, r3
 8001b34:	2938      	cmp	r1, #56	@ 0x38
 8001b36:	dd00      	ble.n	8001b3a <__aeabi_dmul+0x4aa>
 8001b38:	e62f      	b.n	800179a <__aeabi_dmul+0x10a>
 8001b3a:	291f      	cmp	r1, #31
 8001b3c:	dd56      	ble.n	8001bec <__aeabi_dmul+0x55c>
 8001b3e:	221f      	movs	r2, #31
 8001b40:	4654      	mov	r4, sl
 8001b42:	4252      	negs	r2, r2
 8001b44:	1ad3      	subs	r3, r2, r3
 8001b46:	40dc      	lsrs	r4, r3
 8001b48:	2920      	cmp	r1, #32
 8001b4a:	d007      	beq.n	8001b5c <__aeabi_dmul+0x4cc>
 8001b4c:	4b41      	ldr	r3, [pc, #260]	@ (8001c54 <__aeabi_dmul+0x5c4>)
 8001b4e:	4642      	mov	r2, r8
 8001b50:	469c      	mov	ip, r3
 8001b52:	4653      	mov	r3, sl
 8001b54:	4460      	add	r0, ip
 8001b56:	4083      	lsls	r3, r0
 8001b58:	431a      	orrs	r2, r3
 8001b5a:	4690      	mov	r8, r2
 8001b5c:	4642      	mov	r2, r8
 8001b5e:	2107      	movs	r1, #7
 8001b60:	1e53      	subs	r3, r2, #1
 8001b62:	419a      	sbcs	r2, r3
 8001b64:	000b      	movs	r3, r1
 8001b66:	4322      	orrs	r2, r4
 8001b68:	4013      	ands	r3, r2
 8001b6a:	2400      	movs	r4, #0
 8001b6c:	4211      	tst	r1, r2
 8001b6e:	d009      	beq.n	8001b84 <__aeabi_dmul+0x4f4>
 8001b70:	230f      	movs	r3, #15
 8001b72:	4013      	ands	r3, r2
 8001b74:	2b04      	cmp	r3, #4
 8001b76:	d05d      	beq.n	8001c34 <__aeabi_dmul+0x5a4>
 8001b78:	1d11      	adds	r1, r2, #4
 8001b7a:	4291      	cmp	r1, r2
 8001b7c:	419b      	sbcs	r3, r3
 8001b7e:	000a      	movs	r2, r1
 8001b80:	425b      	negs	r3, r3
 8001b82:	075b      	lsls	r3, r3, #29
 8001b84:	08d2      	lsrs	r2, r2, #3
 8001b86:	431a      	orrs	r2, r3
 8001b88:	2300      	movs	r3, #0
 8001b8a:	e5df      	b.n	800174c <__aeabi_dmul+0xbc>
 8001b8c:	9b03      	ldr	r3, [sp, #12]
 8001b8e:	4699      	mov	r9, r3
 8001b90:	e5fa      	b.n	8001788 <__aeabi_dmul+0xf8>
 8001b92:	9801      	ldr	r0, [sp, #4]
 8001b94:	f000 fd1c 	bl	80025d0 <__clzsi2>
 8001b98:	0002      	movs	r2, r0
 8001b9a:	0003      	movs	r3, r0
 8001b9c:	3215      	adds	r2, #21
 8001b9e:	3320      	adds	r3, #32
 8001ba0:	2a1c      	cmp	r2, #28
 8001ba2:	dc00      	bgt.n	8001ba6 <__aeabi_dmul+0x516>
 8001ba4:	e738      	b.n	8001a18 <__aeabi_dmul+0x388>
 8001ba6:	9a01      	ldr	r2, [sp, #4]
 8001ba8:	3808      	subs	r0, #8
 8001baa:	4082      	lsls	r2, r0
 8001bac:	e73f      	b.n	8001a2e <__aeabi_dmul+0x39e>
 8001bae:	f000 fd0f 	bl	80025d0 <__clzsi2>
 8001bb2:	2315      	movs	r3, #21
 8001bb4:	469c      	mov	ip, r3
 8001bb6:	4484      	add	ip, r0
 8001bb8:	0002      	movs	r2, r0
 8001bba:	4663      	mov	r3, ip
 8001bbc:	3220      	adds	r2, #32
 8001bbe:	2b1c      	cmp	r3, #28
 8001bc0:	dc00      	bgt.n	8001bc4 <__aeabi_dmul+0x534>
 8001bc2:	e758      	b.n	8001a76 <__aeabi_dmul+0x3e6>
 8001bc4:	2300      	movs	r3, #0
 8001bc6:	4698      	mov	r8, r3
 8001bc8:	0023      	movs	r3, r4
 8001bca:	3808      	subs	r0, #8
 8001bcc:	4083      	lsls	r3, r0
 8001bce:	469a      	mov	sl, r3
 8001bd0:	e762      	b.n	8001a98 <__aeabi_dmul+0x408>
 8001bd2:	001d      	movs	r5, r3
 8001bd4:	2300      	movs	r3, #0
 8001bd6:	2400      	movs	r4, #0
 8001bd8:	2002      	movs	r0, #2
 8001bda:	9301      	str	r3, [sp, #4]
 8001bdc:	e5a2      	b.n	8001724 <__aeabi_dmul+0x94>
 8001bde:	9002      	str	r0, [sp, #8]
 8001be0:	e632      	b.n	8001848 <__aeabi_dmul+0x1b8>
 8001be2:	431c      	orrs	r4, r3
 8001be4:	9b00      	ldr	r3, [sp, #0]
 8001be6:	9a01      	ldr	r2, [sp, #4]
 8001be8:	4699      	mov	r9, r3
 8001bea:	e5ae      	b.n	800174a <__aeabi_dmul+0xba>
 8001bec:	4b1a      	ldr	r3, [pc, #104]	@ (8001c58 <__aeabi_dmul+0x5c8>)
 8001bee:	4652      	mov	r2, sl
 8001bf0:	18c3      	adds	r3, r0, r3
 8001bf2:	4640      	mov	r0, r8
 8001bf4:	409a      	lsls	r2, r3
 8001bf6:	40c8      	lsrs	r0, r1
 8001bf8:	4302      	orrs	r2, r0
 8001bfa:	4640      	mov	r0, r8
 8001bfc:	4098      	lsls	r0, r3
 8001bfe:	0003      	movs	r3, r0
 8001c00:	1e58      	subs	r0, r3, #1
 8001c02:	4183      	sbcs	r3, r0
 8001c04:	4654      	mov	r4, sl
 8001c06:	431a      	orrs	r2, r3
 8001c08:	40cc      	lsrs	r4, r1
 8001c0a:	0753      	lsls	r3, r2, #29
 8001c0c:	d009      	beq.n	8001c22 <__aeabi_dmul+0x592>
 8001c0e:	230f      	movs	r3, #15
 8001c10:	4013      	ands	r3, r2
 8001c12:	2b04      	cmp	r3, #4
 8001c14:	d005      	beq.n	8001c22 <__aeabi_dmul+0x592>
 8001c16:	1d13      	adds	r3, r2, #4
 8001c18:	4293      	cmp	r3, r2
 8001c1a:	4192      	sbcs	r2, r2
 8001c1c:	4252      	negs	r2, r2
 8001c1e:	18a4      	adds	r4, r4, r2
 8001c20:	001a      	movs	r2, r3
 8001c22:	0223      	lsls	r3, r4, #8
 8001c24:	d508      	bpl.n	8001c38 <__aeabi_dmul+0x5a8>
 8001c26:	2301      	movs	r3, #1
 8001c28:	2400      	movs	r4, #0
 8001c2a:	2200      	movs	r2, #0
 8001c2c:	e58e      	b.n	800174c <__aeabi_dmul+0xbc>
 8001c2e:	4689      	mov	r9, r1
 8001c30:	2400      	movs	r4, #0
 8001c32:	e58b      	b.n	800174c <__aeabi_dmul+0xbc>
 8001c34:	2300      	movs	r3, #0
 8001c36:	e7a5      	b.n	8001b84 <__aeabi_dmul+0x4f4>
 8001c38:	0763      	lsls	r3, r4, #29
 8001c3a:	0264      	lsls	r4, r4, #9
 8001c3c:	0b24      	lsrs	r4, r4, #12
 8001c3e:	e7a1      	b.n	8001b84 <__aeabi_dmul+0x4f4>
 8001c40:	9b00      	ldr	r3, [sp, #0]
 8001c42:	46a2      	mov	sl, r4
 8001c44:	4699      	mov	r9, r3
 8001c46:	9b01      	ldr	r3, [sp, #4]
 8001c48:	4698      	mov	r8, r3
 8001c4a:	e737      	b.n	8001abc <__aeabi_dmul+0x42c>
 8001c4c:	fffffc0d 	.word	0xfffffc0d
 8001c50:	000007ff 	.word	0x000007ff
 8001c54:	0000043e 	.word	0x0000043e
 8001c58:	0000041e 	.word	0x0000041e

08001c5c <__aeabi_dsub>:
 8001c5c:	b5f0      	push	{r4, r5, r6, r7, lr}
 8001c5e:	4657      	mov	r7, sl
 8001c60:	464e      	mov	r6, r9
 8001c62:	4645      	mov	r5, r8
 8001c64:	46de      	mov	lr, fp
 8001c66:	b5e0      	push	{r5, r6, r7, lr}
 8001c68:	b083      	sub	sp, #12
 8001c6a:	9000      	str	r0, [sp, #0]
 8001c6c:	9101      	str	r1, [sp, #4]
 8001c6e:	030c      	lsls	r4, r1, #12
 8001c70:	004d      	lsls	r5, r1, #1
 8001c72:	0fce      	lsrs	r6, r1, #31
 8001c74:	0a61      	lsrs	r1, r4, #9
 8001c76:	9c00      	ldr	r4, [sp, #0]
 8001c78:	005f      	lsls	r7, r3, #1
 8001c7a:	0f64      	lsrs	r4, r4, #29
 8001c7c:	430c      	orrs	r4, r1
 8001c7e:	9900      	ldr	r1, [sp, #0]
 8001c80:	9200      	str	r2, [sp, #0]
 8001c82:	9301      	str	r3, [sp, #4]
 8001c84:	00c8      	lsls	r0, r1, #3
 8001c86:	0319      	lsls	r1, r3, #12
 8001c88:	0d7b      	lsrs	r3, r7, #21
 8001c8a:	4699      	mov	r9, r3
 8001c8c:	9b01      	ldr	r3, [sp, #4]
 8001c8e:	4fcc      	ldr	r7, [pc, #816]	@ (8001fc0 <__aeabi_dsub+0x364>)
 8001c90:	0fdb      	lsrs	r3, r3, #31
 8001c92:	469c      	mov	ip, r3
 8001c94:	0a4b      	lsrs	r3, r1, #9
 8001c96:	9900      	ldr	r1, [sp, #0]
 8001c98:	4680      	mov	r8, r0
 8001c9a:	0f49      	lsrs	r1, r1, #29
 8001c9c:	4319      	orrs	r1, r3
 8001c9e:	9b00      	ldr	r3, [sp, #0]
 8001ca0:	468b      	mov	fp, r1
 8001ca2:	00da      	lsls	r2, r3, #3
 8001ca4:	4692      	mov	sl, r2
 8001ca6:	0d6d      	lsrs	r5, r5, #21
 8001ca8:	45b9      	cmp	r9, r7
 8001caa:	d100      	bne.n	8001cae <__aeabi_dsub+0x52>
 8001cac:	e0bf      	b.n	8001e2e <__aeabi_dsub+0x1d2>
 8001cae:	2301      	movs	r3, #1
 8001cb0:	4661      	mov	r1, ip
 8001cb2:	4059      	eors	r1, r3
 8001cb4:	464b      	mov	r3, r9
 8001cb6:	468c      	mov	ip, r1
 8001cb8:	1aeb      	subs	r3, r5, r3
 8001cba:	428e      	cmp	r6, r1
 8001cbc:	d075      	beq.n	8001daa <__aeabi_dsub+0x14e>
 8001cbe:	2b00      	cmp	r3, #0
 8001cc0:	dc00      	bgt.n	8001cc4 <__aeabi_dsub+0x68>
 8001cc2:	e2a3      	b.n	800220c <__aeabi_dsub+0x5b0>
 8001cc4:	4649      	mov	r1, r9
 8001cc6:	2900      	cmp	r1, #0
 8001cc8:	d100      	bne.n	8001ccc <__aeabi_dsub+0x70>
 8001cca:	e0ce      	b.n	8001e6a <__aeabi_dsub+0x20e>
 8001ccc:	42bd      	cmp	r5, r7
 8001cce:	d100      	bne.n	8001cd2 <__aeabi_dsub+0x76>
 8001cd0:	e200      	b.n	80020d4 <__aeabi_dsub+0x478>
 8001cd2:	2701      	movs	r7, #1
 8001cd4:	2b38      	cmp	r3, #56	@ 0x38
 8001cd6:	dc19      	bgt.n	8001d0c <__aeabi_dsub+0xb0>
 8001cd8:	2780      	movs	r7, #128	@ 0x80
 8001cda:	4659      	mov	r1, fp
 8001cdc:	043f      	lsls	r7, r7, #16
 8001cde:	4339      	orrs	r1, r7
 8001ce0:	468b      	mov	fp, r1
 8001ce2:	2b1f      	cmp	r3, #31
 8001ce4:	dd00      	ble.n	8001ce8 <__aeabi_dsub+0x8c>
 8001ce6:	e1fa      	b.n	80020de <__aeabi_dsub+0x482>
 8001ce8:	2720      	movs	r7, #32
 8001cea:	1af9      	subs	r1, r7, r3
 8001cec:	468c      	mov	ip, r1
 8001cee:	4659      	mov	r1, fp
 8001cf0:	4667      	mov	r7, ip
 8001cf2:	40b9      	lsls	r1, r7
 8001cf4:	000f      	movs	r7, r1
 8001cf6:	0011      	movs	r1, r2
 8001cf8:	40d9      	lsrs	r1, r3
 8001cfa:	430f      	orrs	r7, r1
 8001cfc:	4661      	mov	r1, ip
 8001cfe:	408a      	lsls	r2, r1
 8001d00:	1e51      	subs	r1, r2, #1
 8001d02:	418a      	sbcs	r2, r1
 8001d04:	4659      	mov	r1, fp
 8001d06:	40d9      	lsrs	r1, r3
 8001d08:	4317      	orrs	r7, r2
 8001d0a:	1a64      	subs	r4, r4, r1
 8001d0c:	1bc7      	subs	r7, r0, r7
 8001d0e:	42b8      	cmp	r0, r7
 8001d10:	4180      	sbcs	r0, r0
 8001d12:	4240      	negs	r0, r0
 8001d14:	1a24      	subs	r4, r4, r0
 8001d16:	0223      	lsls	r3, r4, #8
 8001d18:	d400      	bmi.n	8001d1c <__aeabi_dsub+0xc0>
 8001d1a:	e140      	b.n	8001f9e <__aeabi_dsub+0x342>
 8001d1c:	0264      	lsls	r4, r4, #9
 8001d1e:	0a64      	lsrs	r4, r4, #9
 8001d20:	2c00      	cmp	r4, #0
 8001d22:	d100      	bne.n	8001d26 <__aeabi_dsub+0xca>
 8001d24:	e154      	b.n	8001fd0 <__aeabi_dsub+0x374>
 8001d26:	0020      	movs	r0, r4
 8001d28:	f000 fc52 	bl	80025d0 <__clzsi2>
 8001d2c:	0003      	movs	r3, r0
 8001d2e:	3b08      	subs	r3, #8
 8001d30:	2120      	movs	r1, #32
 8001d32:	0038      	movs	r0, r7
 8001d34:	1aca      	subs	r2, r1, r3
 8001d36:	40d0      	lsrs	r0, r2
 8001d38:	409c      	lsls	r4, r3
 8001d3a:	0002      	movs	r2, r0
 8001d3c:	409f      	lsls	r7, r3
 8001d3e:	4322      	orrs	r2, r4
 8001d40:	429d      	cmp	r5, r3
 8001d42:	dd00      	ble.n	8001d46 <__aeabi_dsub+0xea>
 8001d44:	e1a6      	b.n	8002094 <__aeabi_dsub+0x438>
 8001d46:	1b58      	subs	r0, r3, r5
 8001d48:	3001      	adds	r0, #1
 8001d4a:	1a09      	subs	r1, r1, r0
 8001d4c:	003c      	movs	r4, r7
 8001d4e:	408f      	lsls	r7, r1
 8001d50:	40c4      	lsrs	r4, r0
 8001d52:	1e7b      	subs	r3, r7, #1
 8001d54:	419f      	sbcs	r7, r3
 8001d56:	0013      	movs	r3, r2
 8001d58:	408b      	lsls	r3, r1
 8001d5a:	4327      	orrs	r7, r4
 8001d5c:	431f      	orrs	r7, r3
 8001d5e:	40c2      	lsrs	r2, r0
 8001d60:	003b      	movs	r3, r7
 8001d62:	0014      	movs	r4, r2
 8001d64:	2500      	movs	r5, #0
 8001d66:	4313      	orrs	r3, r2
 8001d68:	d100      	bne.n	8001d6c <__aeabi_dsub+0x110>
 8001d6a:	e1f7      	b.n	800215c <__aeabi_dsub+0x500>
 8001d6c:	077b      	lsls	r3, r7, #29
 8001d6e:	d100      	bne.n	8001d72 <__aeabi_dsub+0x116>
 8001d70:	e377      	b.n	8002462 <__aeabi_dsub+0x806>
 8001d72:	230f      	movs	r3, #15
 8001d74:	0038      	movs	r0, r7
 8001d76:	403b      	ands	r3, r7
 8001d78:	2b04      	cmp	r3, #4
 8001d7a:	d004      	beq.n	8001d86 <__aeabi_dsub+0x12a>
 8001d7c:	1d38      	adds	r0, r7, #4
 8001d7e:	42b8      	cmp	r0, r7
 8001d80:	41bf      	sbcs	r7, r7
 8001d82:	427f      	negs	r7, r7
 8001d84:	19e4      	adds	r4, r4, r7
 8001d86:	0223      	lsls	r3, r4, #8
 8001d88:	d400      	bmi.n	8001d8c <__aeabi_dsub+0x130>
 8001d8a:	e368      	b.n	800245e <__aeabi_dsub+0x802>
 8001d8c:	4b8c      	ldr	r3, [pc, #560]	@ (8001fc0 <__aeabi_dsub+0x364>)
 8001d8e:	3501      	adds	r5, #1
 8001d90:	429d      	cmp	r5, r3
 8001d92:	d100      	bne.n	8001d96 <__aeabi_dsub+0x13a>
 8001d94:	e0f4      	b.n	8001f80 <__aeabi_dsub+0x324>
 8001d96:	4b8b      	ldr	r3, [pc, #556]	@ (8001fc4 <__aeabi_dsub+0x368>)
 8001d98:	056d      	lsls	r5, r5, #21
 8001d9a:	401c      	ands	r4, r3
 8001d9c:	0d6d      	lsrs	r5, r5, #21
 8001d9e:	0767      	lsls	r7, r4, #29
 8001da0:	08c0      	lsrs	r0, r0, #3
 8001da2:	0264      	lsls	r4, r4, #9
 8001da4:	4307      	orrs	r7, r0
 8001da6:	0b24      	lsrs	r4, r4, #12
 8001da8:	e0ec      	b.n	8001f84 <__aeabi_dsub+0x328>
 8001daa:	2b00      	cmp	r3, #0
 8001dac:	dc00      	bgt.n	8001db0 <__aeabi_dsub+0x154>
 8001dae:	e329      	b.n	8002404 <__aeabi_dsub+0x7a8>
 8001db0:	4649      	mov	r1, r9
 8001db2:	2900      	cmp	r1, #0
 8001db4:	d000      	beq.n	8001db8 <__aeabi_dsub+0x15c>
 8001db6:	e0d6      	b.n	8001f66 <__aeabi_dsub+0x30a>
 8001db8:	4659      	mov	r1, fp
 8001dba:	4311      	orrs	r1, r2
 8001dbc:	d100      	bne.n	8001dc0 <__aeabi_dsub+0x164>
 8001dbe:	e12e      	b.n	800201e <__aeabi_dsub+0x3c2>
 8001dc0:	1e59      	subs	r1, r3, #1
 8001dc2:	2b01      	cmp	r3, #1
 8001dc4:	d100      	bne.n	8001dc8 <__aeabi_dsub+0x16c>
 8001dc6:	e1e6      	b.n	8002196 <__aeabi_dsub+0x53a>
 8001dc8:	42bb      	cmp	r3, r7
 8001dca:	d100      	bne.n	8001dce <__aeabi_dsub+0x172>
 8001dcc:	e182      	b.n	80020d4 <__aeabi_dsub+0x478>
 8001dce:	2701      	movs	r7, #1
 8001dd0:	000b      	movs	r3, r1
 8001dd2:	2938      	cmp	r1, #56	@ 0x38
 8001dd4:	dc14      	bgt.n	8001e00 <__aeabi_dsub+0x1a4>
 8001dd6:	2b1f      	cmp	r3, #31
 8001dd8:	dd00      	ble.n	8001ddc <__aeabi_dsub+0x180>
 8001dda:	e23c      	b.n	8002256 <__aeabi_dsub+0x5fa>
 8001ddc:	2720      	movs	r7, #32
 8001dde:	1af9      	subs	r1, r7, r3
 8001de0:	468c      	mov	ip, r1
 8001de2:	4659      	mov	r1, fp
 8001de4:	4667      	mov	r7, ip
 8001de6:	40b9      	lsls	r1, r7
 8001de8:	000f      	movs	r7, r1
 8001dea:	0011      	movs	r1, r2
 8001dec:	40d9      	lsrs	r1, r3
 8001dee:	430f      	orrs	r7, r1
 8001df0:	4661      	mov	r1, ip
 8001df2:	408a      	lsls	r2, r1
 8001df4:	1e51      	subs	r1, r2, #1
 8001df6:	418a      	sbcs	r2, r1
 8001df8:	4659      	mov	r1, fp
 8001dfa:	40d9      	lsrs	r1, r3
 8001dfc:	4317      	orrs	r7, r2
 8001dfe:	1864      	adds	r4, r4, r1
 8001e00:	183f      	adds	r7, r7, r0
 8001e02:	4287      	cmp	r7, r0
 8001e04:	4180      	sbcs	r0, r0
 8001e06:	4240      	negs	r0, r0
 8001e08:	1824      	adds	r4, r4, r0
 8001e0a:	0223      	lsls	r3, r4, #8
 8001e0c:	d400      	bmi.n	8001e10 <__aeabi_dsub+0x1b4>
 8001e0e:	e0c6      	b.n	8001f9e <__aeabi_dsub+0x342>
 8001e10:	4b6b      	ldr	r3, [pc, #428]	@ (8001fc0 <__aeabi_dsub+0x364>)
 8001e12:	3501      	adds	r5, #1
 8001e14:	429d      	cmp	r5, r3
 8001e16:	d100      	bne.n	8001e1a <__aeabi_dsub+0x1be>
 8001e18:	e0b2      	b.n	8001f80 <__aeabi_dsub+0x324>
 8001e1a:	2101      	movs	r1, #1
 8001e1c:	4b69      	ldr	r3, [pc, #420]	@ (8001fc4 <__aeabi_dsub+0x368>)
 8001e1e:	087a      	lsrs	r2, r7, #1
 8001e20:	401c      	ands	r4, r3
 8001e22:	4039      	ands	r1, r7
 8001e24:	430a      	orrs	r2, r1
 8001e26:	07e7      	lsls	r7, r4, #31
 8001e28:	4317      	orrs	r7, r2
 8001e2a:	0864      	lsrs	r4, r4, #1
 8001e2c:	e79e      	b.n	8001d6c <__aeabi_dsub+0x110>
 8001e2e:	4b66      	ldr	r3, [pc, #408]	@ (8001fc8 <__aeabi_dsub+0x36c>)
 8001e30:	4311      	orrs	r1, r2
 8001e32:	468a      	mov	sl, r1
 8001e34:	18eb      	adds	r3, r5, r3
 8001e36:	2900      	cmp	r1, #0
 8001e38:	d028      	beq.n	8001e8c <__aeabi_dsub+0x230>
 8001e3a:	4566      	cmp	r6, ip
 8001e3c:	d02c      	beq.n	8001e98 <__aeabi_dsub+0x23c>
 8001e3e:	2b00      	cmp	r3, #0
 8001e40:	d05b      	beq.n	8001efa <__aeabi_dsub+0x29e>
 8001e42:	2d00      	cmp	r5, #0
 8001e44:	d100      	bne.n	8001e48 <__aeabi_dsub+0x1ec>
 8001e46:	e12c      	b.n	80020a2 <__aeabi_dsub+0x446>
 8001e48:	465b      	mov	r3, fp
 8001e4a:	4666      	mov	r6, ip
 8001e4c:	075f      	lsls	r7, r3, #29
 8001e4e:	08d2      	lsrs	r2, r2, #3
 8001e50:	4317      	orrs	r7, r2
 8001e52:	08dd      	lsrs	r5, r3, #3
 8001e54:	003b      	movs	r3, r7
 8001e56:	432b      	orrs	r3, r5
 8001e58:	d100      	bne.n	8001e5c <__aeabi_dsub+0x200>
 8001e5a:	e0e2      	b.n	8002022 <__aeabi_dsub+0x3c6>
 8001e5c:	2480      	movs	r4, #128	@ 0x80
 8001e5e:	0324      	lsls	r4, r4, #12
 8001e60:	432c      	orrs	r4, r5
 8001e62:	0324      	lsls	r4, r4, #12
 8001e64:	4d56      	ldr	r5, [pc, #344]	@ (8001fc0 <__aeabi_dsub+0x364>)
 8001e66:	0b24      	lsrs	r4, r4, #12
 8001e68:	e08c      	b.n	8001f84 <__aeabi_dsub+0x328>
 8001e6a:	4659      	mov	r1, fp
 8001e6c:	4311      	orrs	r1, r2
 8001e6e:	d100      	bne.n	8001e72 <__aeabi_dsub+0x216>
 8001e70:	e0d5      	b.n	800201e <__aeabi_dsub+0x3c2>
 8001e72:	1e59      	subs	r1, r3, #1
 8001e74:	2b01      	cmp	r3, #1
 8001e76:	d100      	bne.n	8001e7a <__aeabi_dsub+0x21e>
 8001e78:	e1b9      	b.n	80021ee <__aeabi_dsub+0x592>
 8001e7a:	42bb      	cmp	r3, r7
 8001e7c:	d100      	bne.n	8001e80 <__aeabi_dsub+0x224>
 8001e7e:	e1b1      	b.n	80021e4 <__aeabi_dsub+0x588>
 8001e80:	2701      	movs	r7, #1
 8001e82:	000b      	movs	r3, r1
 8001e84:	2938      	cmp	r1, #56	@ 0x38
 8001e86:	dd00      	ble.n	8001e8a <__aeabi_dsub+0x22e>
 8001e88:	e740      	b.n	8001d0c <__aeabi_dsub+0xb0>
 8001e8a:	e72a      	b.n	8001ce2 <__aeabi_dsub+0x86>
 8001e8c:	4661      	mov	r1, ip
 8001e8e:	2701      	movs	r7, #1
 8001e90:	4079      	eors	r1, r7
 8001e92:	468c      	mov	ip, r1
 8001e94:	4566      	cmp	r6, ip
 8001e96:	d1d2      	bne.n	8001e3e <__aeabi_dsub+0x1e2>
 8001e98:	2b00      	cmp	r3, #0
 8001e9a:	d100      	bne.n	8001e9e <__aeabi_dsub+0x242>
 8001e9c:	e0c5      	b.n	800202a <__aeabi_dsub+0x3ce>
 8001e9e:	2d00      	cmp	r5, #0
 8001ea0:	d000      	beq.n	8001ea4 <__aeabi_dsub+0x248>
 8001ea2:	e155      	b.n	8002150 <__aeabi_dsub+0x4f4>
 8001ea4:	464b      	mov	r3, r9
 8001ea6:	0025      	movs	r5, r4
 8001ea8:	4305      	orrs	r5, r0
 8001eaa:	d100      	bne.n	8001eae <__aeabi_dsub+0x252>
 8001eac:	e212      	b.n	80022d4 <__aeabi_dsub+0x678>
 8001eae:	1e59      	subs	r1, r3, #1
 8001eb0:	468c      	mov	ip, r1
 8001eb2:	2b01      	cmp	r3, #1
 8001eb4:	d100      	bne.n	8001eb8 <__aeabi_dsub+0x25c>
 8001eb6:	e249      	b.n	800234c <__aeabi_dsub+0x6f0>
 8001eb8:	4d41      	ldr	r5, [pc, #260]	@ (8001fc0 <__aeabi_dsub+0x364>)
 8001eba:	42ab      	cmp	r3, r5
 8001ebc:	d100      	bne.n	8001ec0 <__aeabi_dsub+0x264>
 8001ebe:	e28f      	b.n	80023e0 <__aeabi_dsub+0x784>
 8001ec0:	2701      	movs	r7, #1
 8001ec2:	2938      	cmp	r1, #56	@ 0x38
 8001ec4:	dc11      	bgt.n	8001eea <__aeabi_dsub+0x28e>
 8001ec6:	4663      	mov	r3, ip
 8001ec8:	2b1f      	cmp	r3, #31
 8001eca:	dd00      	ble.n	8001ece <__aeabi_dsub+0x272>
 8001ecc:	e25b      	b.n	8002386 <__aeabi_dsub+0x72a>
 8001ece:	4661      	mov	r1, ip
 8001ed0:	2320      	movs	r3, #32
 8001ed2:	0027      	movs	r7, r4
 8001ed4:	1a5b      	subs	r3, r3, r1
 8001ed6:	0005      	movs	r5, r0
 8001ed8:	4098      	lsls	r0, r3
 8001eda:	409f      	lsls	r7, r3
 8001edc:	40cd      	lsrs	r5, r1
 8001ede:	1e43      	subs	r3, r0, #1
 8001ee0:	4198      	sbcs	r0, r3
 8001ee2:	40cc      	lsrs	r4, r1
 8001ee4:	432f      	orrs	r7, r5
 8001ee6:	4307      	orrs	r7, r0
 8001ee8:	44a3      	add	fp, r4
 8001eea:	18bf      	adds	r7, r7, r2
 8001eec:	4297      	cmp	r7, r2
 8001eee:	4192      	sbcs	r2, r2
 8001ef0:	4252      	negs	r2, r2
 8001ef2:	445a      	add	r2, fp
 8001ef4:	0014      	movs	r4, r2
 8001ef6:	464d      	mov	r5, r9
 8001ef8:	e787      	b.n	8001e0a <__aeabi_dsub+0x1ae>
 8001efa:	4f34      	ldr	r7, [pc, #208]	@ (8001fcc <__aeabi_dsub+0x370>)
 8001efc:	1c6b      	adds	r3, r5, #1
 8001efe:	423b      	tst	r3, r7
 8001f00:	d000      	beq.n	8001f04 <__aeabi_dsub+0x2a8>
 8001f02:	e0b6      	b.n	8002072 <__aeabi_dsub+0x416>
 8001f04:	4659      	mov	r1, fp
 8001f06:	0023      	movs	r3, r4
 8001f08:	4311      	orrs	r1, r2
 8001f0a:	000f      	movs	r7, r1
 8001f0c:	4303      	orrs	r3, r0
 8001f0e:	2d00      	cmp	r5, #0
 8001f10:	d000      	beq.n	8001f14 <__aeabi_dsub+0x2b8>
 8001f12:	e126      	b.n	8002162 <__aeabi_dsub+0x506>
 8001f14:	2b00      	cmp	r3, #0
 8001f16:	d100      	bne.n	8001f1a <__aeabi_dsub+0x2be>
 8001f18:	e1c0      	b.n	800229c <__aeabi_dsub+0x640>
 8001f1a:	2900      	cmp	r1, #0
 8001f1c:	d100      	bne.n	8001f20 <__aeabi_dsub+0x2c4>
 8001f1e:	e0a1      	b.n	8002064 <__aeabi_dsub+0x408>
 8001f20:	1a83      	subs	r3, r0, r2
 8001f22:	4698      	mov	r8, r3
 8001f24:	465b      	mov	r3, fp
 8001f26:	4540      	cmp	r0, r8
 8001f28:	41ad      	sbcs	r5, r5
 8001f2a:	1ae3      	subs	r3, r4, r3
 8001f2c:	426d      	negs	r5, r5
 8001f2e:	1b5b      	subs	r3, r3, r5
 8001f30:	2580      	movs	r5, #128	@ 0x80
 8001f32:	042d      	lsls	r5, r5, #16
 8001f34:	422b      	tst	r3, r5
 8001f36:	d100      	bne.n	8001f3a <__aeabi_dsub+0x2de>
 8001f38:	e14b      	b.n	80021d2 <__aeabi_dsub+0x576>
 8001f3a:	465b      	mov	r3, fp
 8001f3c:	1a10      	subs	r0, r2, r0
 8001f3e:	4282      	cmp	r2, r0
 8001f40:	4192      	sbcs	r2, r2
 8001f42:	1b1c      	subs	r4, r3, r4
 8001f44:	0007      	movs	r7, r0
 8001f46:	2601      	movs	r6, #1
 8001f48:	4663      	mov	r3, ip
 8001f4a:	4252      	negs	r2, r2
 8001f4c:	1aa4      	subs	r4, r4, r2
 8001f4e:	4327      	orrs	r7, r4
 8001f50:	401e      	ands	r6, r3
 8001f52:	2f00      	cmp	r7, #0
 8001f54:	d100      	bne.n	8001f58 <__aeabi_dsub+0x2fc>
 8001f56:	e142      	b.n	80021de <__aeabi_dsub+0x582>
 8001f58:	422c      	tst	r4, r5
 8001f5a:	d100      	bne.n	8001f5e <__aeabi_dsub+0x302>
 8001f5c:	e26d      	b.n	800243a <__aeabi_dsub+0x7de>
 8001f5e:	4b19      	ldr	r3, [pc, #100]	@ (8001fc4 <__aeabi_dsub+0x368>)
 8001f60:	2501      	movs	r5, #1
 8001f62:	401c      	ands	r4, r3
 8001f64:	e71b      	b.n	8001d9e <__aeabi_dsub+0x142>
 8001f66:	42bd      	cmp	r5, r7
 8001f68:	d100      	bne.n	8001f6c <__aeabi_dsub+0x310>
 8001f6a:	e13b      	b.n	80021e4 <__aeabi_dsub+0x588>
 8001f6c:	2701      	movs	r7, #1
 8001f6e:	2b38      	cmp	r3, #56	@ 0x38
 8001f70:	dd00      	ble.n	8001f74 <__aeabi_dsub+0x318>
 8001f72:	e745      	b.n	8001e00 <__aeabi_dsub+0x1a4>
 8001f74:	2780      	movs	r7, #128	@ 0x80
 8001f76:	4659      	mov	r1, fp
 8001f78:	043f      	lsls	r7, r7, #16
 8001f7a:	4339      	orrs	r1, r7
 8001f7c:	468b      	mov	fp, r1
 8001f7e:	e72a      	b.n	8001dd6 <__aeabi_dsub+0x17a>
 8001f80:	2400      	movs	r4, #0
 8001f82:	2700      	movs	r7, #0
 8001f84:	052d      	lsls	r5, r5, #20
 8001f86:	4325      	orrs	r5, r4
 8001f88:	07f6      	lsls	r6, r6, #31
 8001f8a:	4335      	orrs	r5, r6
 8001f8c:	0038      	movs	r0, r7
 8001f8e:	0029      	movs	r1, r5
 8001f90:	b003      	add	sp, #12
 8001f92:	bcf0      	pop	{r4, r5, r6, r7}
 8001f94:	46bb      	mov	fp, r7
 8001f96:	46b2      	mov	sl, r6
 8001f98:	46a9      	mov	r9, r5
 8001f9a:	46a0      	mov	r8, r4
 8001f9c:	bdf0      	pop	{r4, r5, r6, r7, pc}
 8001f9e:	077b      	lsls	r3, r7, #29
 8001fa0:	d004      	beq.n	8001fac <__aeabi_dsub+0x350>
 8001fa2:	230f      	movs	r3, #15
 8001fa4:	403b      	ands	r3, r7
 8001fa6:	2b04      	cmp	r3, #4
 8001fa8:	d000      	beq.n	8001fac <__aeabi_dsub+0x350>
 8001faa:	e6e7      	b.n	8001d7c <__aeabi_dsub+0x120>
 8001fac:	002b      	movs	r3, r5
 8001fae:	08f8      	lsrs	r0, r7, #3
 8001fb0:	4a03      	ldr	r2, [pc, #12]	@ (8001fc0 <__aeabi_dsub+0x364>)
 8001fb2:	0767      	lsls	r7, r4, #29
 8001fb4:	4307      	orrs	r7, r0
 8001fb6:	08e5      	lsrs	r5, r4, #3
 8001fb8:	4293      	cmp	r3, r2
 8001fba:	d100      	bne.n	8001fbe <__aeabi_dsub+0x362>
 8001fbc:	e74a      	b.n	8001e54 <__aeabi_dsub+0x1f8>
 8001fbe:	e0a5      	b.n	800210c <__aeabi_dsub+0x4b0>
 8001fc0:	000007ff 	.word	0x000007ff
 8001fc4:	ff7fffff 	.word	0xff7fffff
 8001fc8:	fffff801 	.word	0xfffff801
 8001fcc:	000007fe 	.word	0x000007fe
 8001fd0:	0038      	movs	r0, r7
 8001fd2:	f000 fafd 	bl	80025d0 <__clzsi2>
 8001fd6:	0003      	movs	r3, r0
 8001fd8:	3318      	adds	r3, #24
 8001fda:	2b1f      	cmp	r3, #31
 8001fdc:	dc00      	bgt.n	8001fe0 <__aeabi_dsub+0x384>
 8001fde:	e6a7      	b.n	8001d30 <__aeabi_dsub+0xd4>
 8001fe0:	003a      	movs	r2, r7
 8001fe2:	3808      	subs	r0, #8
 8001fe4:	4082      	lsls	r2, r0
 8001fe6:	429d      	cmp	r5, r3
 8001fe8:	dd00      	ble.n	8001fec <__aeabi_dsub+0x390>
 8001fea:	e08a      	b.n	8002102 <__aeabi_dsub+0x4a6>
 8001fec:	1b5b      	subs	r3, r3, r5
 8001fee:	1c58      	adds	r0, r3, #1
 8001ff0:	281f      	cmp	r0, #31
 8001ff2:	dc00      	bgt.n	8001ff6 <__aeabi_dsub+0x39a>
 8001ff4:	e1d8      	b.n	80023a8 <__aeabi_dsub+0x74c>
 8001ff6:	0017      	movs	r7, r2
 8001ff8:	3b1f      	subs	r3, #31
 8001ffa:	40df      	lsrs	r7, r3
 8001ffc:	2820      	cmp	r0, #32
 8001ffe:	d005      	beq.n	800200c <__aeabi_dsub+0x3b0>
 8002000:	2340      	movs	r3, #64	@ 0x40
 8002002:	1a1b      	subs	r3, r3, r0
 8002004:	409a      	lsls	r2, r3
 8002006:	1e53      	subs	r3, r2, #1
 8002008:	419a      	sbcs	r2, r3
 800200a:	4317      	orrs	r7, r2
 800200c:	2500      	movs	r5, #0
 800200e:	2f00      	cmp	r7, #0
 8002010:	d100      	bne.n	8002014 <__aeabi_dsub+0x3b8>
 8002012:	e0e5      	b.n	80021e0 <__aeabi_dsub+0x584>
 8002014:	077b      	lsls	r3, r7, #29
 8002016:	d000      	beq.n	800201a <__aeabi_dsub+0x3be>
 8002018:	e6ab      	b.n	8001d72 <__aeabi_dsub+0x116>
 800201a:	002c      	movs	r4, r5
 800201c:	e7c6      	b.n	8001fac <__aeabi_dsub+0x350>
 800201e:	08c0      	lsrs	r0, r0, #3
 8002020:	e7c6      	b.n	8001fb0 <__aeabi_dsub+0x354>
 8002022:	2700      	movs	r7, #0
 8002024:	2400      	movs	r4, #0
 8002026:	4dd1      	ldr	r5, [pc, #836]	@ (800236c <__aeabi_dsub+0x710>)
 8002028:	e7ac      	b.n	8001f84 <__aeabi_dsub+0x328>
 800202a:	4fd1      	ldr	r7, [pc, #836]	@ (8002370 <__aeabi_dsub+0x714>)
 800202c:	1c6b      	adds	r3, r5, #1
 800202e:	423b      	tst	r3, r7
 8002030:	d171      	bne.n	8002116 <__aeabi_dsub+0x4ba>
 8002032:	0023      	movs	r3, r4
 8002034:	4303      	orrs	r3, r0
 8002036:	2d00      	cmp	r5, #0
 8002038:	d000      	beq.n	800203c <__aeabi_dsub+0x3e0>
 800203a:	e14e      	b.n	80022da <__aeabi_dsub+0x67e>
 800203c:	4657      	mov	r7, sl
 800203e:	2b00      	cmp	r3, #0
 8002040:	d100      	bne.n	8002044 <__aeabi_dsub+0x3e8>
 8002042:	e1b5      	b.n	80023b0 <__aeabi_dsub+0x754>
 8002044:	2f00      	cmp	r7, #0
 8002046:	d00d      	beq.n	8002064 <__aeabi_dsub+0x408>
 8002048:	1883      	adds	r3, r0, r2
 800204a:	4283      	cmp	r3, r0
 800204c:	4180      	sbcs	r0, r0
 800204e:	445c      	add	r4, fp
 8002050:	4240      	negs	r0, r0
 8002052:	1824      	adds	r4, r4, r0
 8002054:	0222      	lsls	r2, r4, #8
 8002056:	d500      	bpl.n	800205a <__aeabi_dsub+0x3fe>
 8002058:	e1c8      	b.n	80023ec <__aeabi_dsub+0x790>
 800205a:	001f      	movs	r7, r3
 800205c:	4698      	mov	r8, r3
 800205e:	4327      	orrs	r7, r4
 8002060:	d100      	bne.n	8002064 <__aeabi_dsub+0x408>
 8002062:	e0bc      	b.n	80021de <__aeabi_dsub+0x582>
 8002064:	4643      	mov	r3, r8
 8002066:	0767      	lsls	r7, r4, #29
 8002068:	08db      	lsrs	r3, r3, #3
 800206a:	431f      	orrs	r7, r3
 800206c:	08e5      	lsrs	r5, r4, #3
 800206e:	2300      	movs	r3, #0
 8002070:	e04c      	b.n	800210c <__aeabi_dsub+0x4b0>
 8002072:	1a83      	subs	r3, r0, r2
 8002074:	4698      	mov	r8, r3
 8002076:	465b      	mov	r3, fp
 8002078:	4540      	cmp	r0, r8
 800207a:	41bf      	sbcs	r7, r7
 800207c:	1ae3      	subs	r3, r4, r3
 800207e:	427f      	negs	r7, r7
 8002080:	1bdb      	subs	r3, r3, r7
 8002082:	021f      	lsls	r7, r3, #8
 8002084:	d47c      	bmi.n	8002180 <__aeabi_dsub+0x524>
 8002086:	4647      	mov	r7, r8
 8002088:	431f      	orrs	r7, r3
 800208a:	d100      	bne.n	800208e <__aeabi_dsub+0x432>
 800208c:	e0a6      	b.n	80021dc <__aeabi_dsub+0x580>
 800208e:	001c      	movs	r4, r3
 8002090:	4647      	mov	r7, r8
 8002092:	e645      	b.n	8001d20 <__aeabi_dsub+0xc4>
 8002094:	4cb7      	ldr	r4, [pc, #732]	@ (8002374 <__aeabi_dsub+0x718>)
 8002096:	1aed      	subs	r5, r5, r3
 8002098:	4014      	ands	r4, r2
 800209a:	077b      	lsls	r3, r7, #29
 800209c:	d000      	beq.n	80020a0 <__aeabi_dsub+0x444>
 800209e:	e780      	b.n	8001fa2 <__aeabi_dsub+0x346>
 80020a0:	e784      	b.n	8001fac <__aeabi_dsub+0x350>
 80020a2:	464b      	mov	r3, r9
 80020a4:	0025      	movs	r5, r4
 80020a6:	4305      	orrs	r5, r0
 80020a8:	d066      	beq.n	8002178 <__aeabi_dsub+0x51c>
 80020aa:	1e5f      	subs	r7, r3, #1
 80020ac:	2b01      	cmp	r3, #1
 80020ae:	d100      	bne.n	80020b2 <__aeabi_dsub+0x456>
 80020b0:	e0fc      	b.n	80022ac <__aeabi_dsub+0x650>
 80020b2:	4dae      	ldr	r5, [pc, #696]	@ (800236c <__aeabi_dsub+0x710>)
 80020b4:	42ab      	cmp	r3, r5
 80020b6:	d100      	bne.n	80020ba <__aeabi_dsub+0x45e>
 80020b8:	e15e      	b.n	8002378 <__aeabi_dsub+0x71c>
 80020ba:	4666      	mov	r6, ip
 80020bc:	2f38      	cmp	r7, #56	@ 0x38
 80020be:	dc00      	bgt.n	80020c2 <__aeabi_dsub+0x466>
 80020c0:	e0b4      	b.n	800222c <__aeabi_dsub+0x5d0>
 80020c2:	2001      	movs	r0, #1
 80020c4:	1a17      	subs	r7, r2, r0
 80020c6:	42ba      	cmp	r2, r7
 80020c8:	4192      	sbcs	r2, r2
 80020ca:	465b      	mov	r3, fp
 80020cc:	4252      	negs	r2, r2
 80020ce:	464d      	mov	r5, r9
 80020d0:	1a9c      	subs	r4, r3, r2
 80020d2:	e620      	b.n	8001d16 <__aeabi_dsub+0xba>
 80020d4:	0767      	lsls	r7, r4, #29
 80020d6:	08c0      	lsrs	r0, r0, #3
 80020d8:	4307      	orrs	r7, r0
 80020da:	08e5      	lsrs	r5, r4, #3
 80020dc:	e6ba      	b.n	8001e54 <__aeabi_dsub+0x1f8>
 80020de:	001f      	movs	r7, r3
 80020e0:	4659      	mov	r1, fp
 80020e2:	3f20      	subs	r7, #32
 80020e4:	40f9      	lsrs	r1, r7
 80020e6:	000f      	movs	r7, r1
 80020e8:	2b20      	cmp	r3, #32
 80020ea:	d005      	beq.n	80020f8 <__aeabi_dsub+0x49c>
 80020ec:	2140      	movs	r1, #64	@ 0x40
 80020ee:	1acb      	subs	r3, r1, r3
 80020f0:	4659      	mov	r1, fp
 80020f2:	4099      	lsls	r1, r3
 80020f4:	430a      	orrs	r2, r1
 80020f6:	4692      	mov	sl, r2
 80020f8:	4653      	mov	r3, sl
 80020fa:	1e5a      	subs	r2, r3, #1
 80020fc:	4193      	sbcs	r3, r2
 80020fe:	431f      	orrs	r7, r3
 8002100:	e604      	b.n	8001d0c <__aeabi_dsub+0xb0>
 8002102:	1aeb      	subs	r3, r5, r3
 8002104:	4d9b      	ldr	r5, [pc, #620]	@ (8002374 <__aeabi_dsub+0x718>)
 8002106:	4015      	ands	r5, r2
 8002108:	076f      	lsls	r7, r5, #29
 800210a:	08ed      	lsrs	r5, r5, #3
 800210c:	032c      	lsls	r4, r5, #12
 800210e:	055d      	lsls	r5, r3, #21
 8002110:	0b24      	lsrs	r4, r4, #12
 8002112:	0d6d      	lsrs	r5, r5, #21
 8002114:	e736      	b.n	8001f84 <__aeabi_dsub+0x328>
 8002116:	4d95      	ldr	r5, [pc, #596]	@ (800236c <__aeabi_dsub+0x710>)
 8002118:	42ab      	cmp	r3, r5
 800211a:	d100      	bne.n	800211e <__aeabi_dsub+0x4c2>
 800211c:	e0d6      	b.n	80022cc <__aeabi_dsub+0x670>
 800211e:	1882      	adds	r2, r0, r2
 8002120:	0021      	movs	r1, r4
 8002122:	4282      	cmp	r2, r0
 8002124:	4180      	sbcs	r0, r0
 8002126:	4459      	add	r1, fp
 8002128:	4240      	negs	r0, r0
 800212a:	1808      	adds	r0, r1, r0
 800212c:	07c7      	lsls	r7, r0, #31
 800212e:	0852      	lsrs	r2, r2, #1
 8002130:	4317      	orrs	r7, r2
 8002132:	0844      	lsrs	r4, r0, #1
 8002134:	0752      	lsls	r2, r2, #29
 8002136:	d400      	bmi.n	800213a <__aeabi_dsub+0x4de>
 8002138:	e185      	b.n	8002446 <__aeabi_dsub+0x7ea>
 800213a:	220f      	movs	r2, #15
 800213c:	001d      	movs	r5, r3
 800213e:	403a      	ands	r2, r7
 8002140:	2a04      	cmp	r2, #4
 8002142:	d000      	beq.n	8002146 <__aeabi_dsub+0x4ea>
 8002144:	e61a      	b.n	8001d7c <__aeabi_dsub+0x120>
 8002146:	08ff      	lsrs	r7, r7, #3
 8002148:	0764      	lsls	r4, r4, #29
 800214a:	4327      	orrs	r7, r4
 800214c:	0905      	lsrs	r5, r0, #4
 800214e:	e7dd      	b.n	800210c <__aeabi_dsub+0x4b0>
 8002150:	465b      	mov	r3, fp
 8002152:	08d2      	lsrs	r2, r2, #3
 8002154:	075f      	lsls	r7, r3, #29
 8002156:	4317      	orrs	r7, r2
 8002158:	08dd      	lsrs	r5, r3, #3
 800215a:	e67b      	b.n	8001e54 <__aeabi_dsub+0x1f8>
 800215c:	2700      	movs	r7, #0
 800215e:	2400      	movs	r4, #0
 8002160:	e710      	b.n	8001f84 <__aeabi_dsub+0x328>
 8002162:	2b00      	cmp	r3, #0
 8002164:	d000      	beq.n	8002168 <__aeabi_dsub+0x50c>
 8002166:	e0d6      	b.n	8002316 <__aeabi_dsub+0x6ba>
 8002168:	2900      	cmp	r1, #0
 800216a:	d000      	beq.n	800216e <__aeabi_dsub+0x512>
 800216c:	e12f      	b.n	80023ce <__aeabi_dsub+0x772>
 800216e:	2480      	movs	r4, #128	@ 0x80
 8002170:	2600      	movs	r6, #0
 8002172:	4d7e      	ldr	r5, [pc, #504]	@ (800236c <__aeabi_dsub+0x710>)
 8002174:	0324      	lsls	r4, r4, #12
 8002176:	e705      	b.n	8001f84 <__aeabi_dsub+0x328>
 8002178:	4666      	mov	r6, ip
 800217a:	465c      	mov	r4, fp
 800217c:	08d0      	lsrs	r0, r2, #3
 800217e:	e717      	b.n	8001fb0 <__aeabi_dsub+0x354>
 8002180:	465b      	mov	r3, fp
 8002182:	1a17      	subs	r7, r2, r0
 8002184:	42ba      	cmp	r2, r7
 8002186:	4192      	sbcs	r2, r2
 8002188:	1b1c      	subs	r4, r3, r4
 800218a:	2601      	movs	r6, #1
 800218c:	4663      	mov	r3, ip
 800218e:	4252      	negs	r2, r2
 8002190:	1aa4      	subs	r4, r4, r2
 8002192:	401e      	ands	r6, r3
 8002194:	e5c4      	b.n	8001d20 <__aeabi_dsub+0xc4>
 8002196:	1883      	adds	r3, r0, r2
 8002198:	4283      	cmp	r3, r0
 800219a:	4180      	sbcs	r0, r0
 800219c:	445c      	add	r4, fp
 800219e:	4240      	negs	r0, r0
 80021a0:	1825      	adds	r5, r4, r0
 80021a2:	022a      	lsls	r2, r5, #8
 80021a4:	d400      	bmi.n	80021a8 <__aeabi_dsub+0x54c>
 80021a6:	e0da      	b.n	800235e <__aeabi_dsub+0x702>
 80021a8:	4a72      	ldr	r2, [pc, #456]	@ (8002374 <__aeabi_dsub+0x718>)
 80021aa:	085b      	lsrs	r3, r3, #1
 80021ac:	4015      	ands	r5, r2
 80021ae:	07ea      	lsls	r2, r5, #31
 80021b0:	431a      	orrs	r2, r3
 80021b2:	0869      	lsrs	r1, r5, #1
 80021b4:	075b      	lsls	r3, r3, #29
 80021b6:	d400      	bmi.n	80021ba <__aeabi_dsub+0x55e>
 80021b8:	e14a      	b.n	8002450 <__aeabi_dsub+0x7f4>
 80021ba:	230f      	movs	r3, #15
 80021bc:	4013      	ands	r3, r2
 80021be:	2b04      	cmp	r3, #4
 80021c0:	d100      	bne.n	80021c4 <__aeabi_dsub+0x568>
 80021c2:	e0fc      	b.n	80023be <__aeabi_dsub+0x762>
 80021c4:	1d17      	adds	r7, r2, #4
 80021c6:	4297      	cmp	r7, r2
 80021c8:	41a4      	sbcs	r4, r4
 80021ca:	4264      	negs	r4, r4
 80021cc:	2502      	movs	r5, #2
 80021ce:	1864      	adds	r4, r4, r1
 80021d0:	e6ec      	b.n	8001fac <__aeabi_dsub+0x350>
 80021d2:	4647      	mov	r7, r8
 80021d4:	001c      	movs	r4, r3
 80021d6:	431f      	orrs	r7, r3
 80021d8:	d000      	beq.n	80021dc <__aeabi_dsub+0x580>
 80021da:	e743      	b.n	8002064 <__aeabi_dsub+0x408>
 80021dc:	2600      	movs	r6, #0
 80021de:	2500      	movs	r5, #0
 80021e0:	2400      	movs	r4, #0
 80021e2:	e6cf      	b.n	8001f84 <__aeabi_dsub+0x328>
 80021e4:	08c0      	lsrs	r0, r0, #3
 80021e6:	0767      	lsls	r7, r4, #29
 80021e8:	4307      	orrs	r7, r0
 80021ea:	08e5      	lsrs	r5, r4, #3
 80021ec:	e632      	b.n	8001e54 <__aeabi_dsub+0x1f8>
 80021ee:	1a87      	subs	r7, r0, r2
 80021f0:	465b      	mov	r3, fp
 80021f2:	42b8      	cmp	r0, r7
 80021f4:	4180      	sbcs	r0, r0
 80021f6:	1ae4      	subs	r4, r4, r3
 80021f8:	4240      	negs	r0, r0
 80021fa:	1a24      	subs	r4, r4, r0
 80021fc:	0223      	lsls	r3, r4, #8
 80021fe:	d428      	bmi.n	8002252 <__aeabi_dsub+0x5f6>
 8002200:	0763      	lsls	r3, r4, #29
 8002202:	08ff      	lsrs	r7, r7, #3
 8002204:	431f      	orrs	r7, r3
 8002206:	08e5      	lsrs	r5, r4, #3
 8002208:	2301      	movs	r3, #1
 800220a:	e77f      	b.n	800210c <__aeabi_dsub+0x4b0>
 800220c:	2b00      	cmp	r3, #0
 800220e:	d100      	bne.n	8002212 <__aeabi_dsub+0x5b6>
 8002210:	e673      	b.n	8001efa <__aeabi_dsub+0x29e>
 8002212:	464b      	mov	r3, r9
 8002214:	1b5f      	subs	r7, r3, r5
 8002216:	003b      	movs	r3, r7
 8002218:	2d00      	cmp	r5, #0
 800221a:	d100      	bne.n	800221e <__aeabi_dsub+0x5c2>
 800221c:	e742      	b.n	80020a4 <__aeabi_dsub+0x448>
 800221e:	2f38      	cmp	r7, #56	@ 0x38
 8002220:	dd00      	ble.n	8002224 <__aeabi_dsub+0x5c8>
 8002222:	e0ec      	b.n	80023fe <__aeabi_dsub+0x7a2>
 8002224:	2380      	movs	r3, #128	@ 0x80
 8002226:	000e      	movs	r6, r1
 8002228:	041b      	lsls	r3, r3, #16
 800222a:	431c      	orrs	r4, r3
 800222c:	2f1f      	cmp	r7, #31
 800222e:	dc25      	bgt.n	800227c <__aeabi_dsub+0x620>
 8002230:	2520      	movs	r5, #32
 8002232:	0023      	movs	r3, r4
 8002234:	1bed      	subs	r5, r5, r7
 8002236:	0001      	movs	r1, r0
 8002238:	40a8      	lsls	r0, r5
 800223a:	40ab      	lsls	r3, r5
 800223c:	40f9      	lsrs	r1, r7
 800223e:	1e45      	subs	r5, r0, #1
 8002240:	41a8      	sbcs	r0, r5
 8002242:	430b      	orrs	r3, r1
 8002244:	40fc      	lsrs	r4, r7
 8002246:	4318      	orrs	r0, r3
 8002248:	465b      	mov	r3, fp
 800224a:	1b1b      	subs	r3, r3, r4
 800224c:	469b      	mov	fp, r3
 800224e:	e739      	b.n	80020c4 <__aeabi_dsub+0x468>
 8002250:	4666      	mov	r6, ip
 8002252:	2501      	movs	r5, #1
 8002254:	e562      	b.n	8001d1c <__aeabi_dsub+0xc0>
 8002256:	001f      	movs	r7, r3
 8002258:	4659      	mov	r1, fp
 800225a:	3f20      	subs	r7, #32
 800225c:	40f9      	lsrs	r1, r7
 800225e:	468c      	mov	ip, r1
 8002260:	2b20      	cmp	r3, #32
 8002262:	d005      	beq.n	8002270 <__aeabi_dsub+0x614>
 8002264:	2740      	movs	r7, #64	@ 0x40
 8002266:	4659      	mov	r1, fp
 8002268:	1afb      	subs	r3, r7, r3
 800226a:	4099      	lsls	r1, r3
 800226c:	430a      	orrs	r2, r1
 800226e:	4692      	mov	sl, r2
 8002270:	4657      	mov	r7, sl
 8002272:	1e7b      	subs	r3, r7, #1
 8002274:	419f      	sbcs	r7, r3
 8002276:	4663      	mov	r3, ip
 8002278:	431f      	orrs	r7, r3
 800227a:	e5c1      	b.n	8001e00 <__aeabi_dsub+0x1a4>
 800227c:	003b      	movs	r3, r7
 800227e:	0025      	movs	r5, r4
 8002280:	3b20      	subs	r3, #32
 8002282:	40dd      	lsrs	r5, r3
 8002284:	2f20      	cmp	r7, #32
 8002286:	d004      	beq.n	8002292 <__aeabi_dsub+0x636>
 8002288:	2340      	movs	r3, #64	@ 0x40
 800228a:	1bdb      	subs	r3, r3, r7
 800228c:	409c      	lsls	r4, r3
 800228e:	4320      	orrs	r0, r4
 8002290:	4680      	mov	r8, r0
 8002292:	4640      	mov	r0, r8
 8002294:	1e43      	subs	r3, r0, #1
 8002296:	4198      	sbcs	r0, r3
 8002298:	4328      	orrs	r0, r5
 800229a:	e713      	b.n	80020c4 <__aeabi_dsub+0x468>
 800229c:	2900      	cmp	r1, #0
 800229e:	d09d      	beq.n	80021dc <__aeabi_dsub+0x580>
 80022a0:	2601      	movs	r6, #1
 80022a2:	4663      	mov	r3, ip
 80022a4:	465c      	mov	r4, fp
 80022a6:	4690      	mov	r8, r2
 80022a8:	401e      	ands	r6, r3
 80022aa:	e6db      	b.n	8002064 <__aeabi_dsub+0x408>
 80022ac:	1a17      	subs	r7, r2, r0
 80022ae:	465b      	mov	r3, fp
 80022b0:	42ba      	cmp	r2, r7
 80022b2:	4192      	sbcs	r2, r2
 80022b4:	1b1c      	subs	r4, r3, r4
 80022b6:	4252      	negs	r2, r2
 80022b8:	1aa4      	subs	r4, r4, r2
 80022ba:	0223      	lsls	r3, r4, #8
 80022bc:	d4c8      	bmi.n	8002250 <__aeabi_dsub+0x5f4>
 80022be:	0763      	lsls	r3, r4, #29
 80022c0:	08ff      	lsrs	r7, r7, #3
 80022c2:	431f      	orrs	r7, r3
 80022c4:	4666      	mov	r6, ip
 80022c6:	2301      	movs	r3, #1
 80022c8:	08e5      	lsrs	r5, r4, #3
 80022ca:	e71f      	b.n	800210c <__aeabi_dsub+0x4b0>
 80022cc:	001d      	movs	r5, r3
 80022ce:	2400      	movs	r4, #0
 80022d0:	2700      	movs	r7, #0
 80022d2:	e657      	b.n	8001f84 <__aeabi_dsub+0x328>
 80022d4:	465c      	mov	r4, fp
 80022d6:	08d0      	lsrs	r0, r2, #3
 80022d8:	e66a      	b.n	8001fb0 <__aeabi_dsub+0x354>
 80022da:	2b00      	cmp	r3, #0
 80022dc:	d100      	bne.n	80022e0 <__aeabi_dsub+0x684>
 80022de:	e737      	b.n	8002150 <__aeabi_dsub+0x4f4>
 80022e0:	4653      	mov	r3, sl
 80022e2:	08c0      	lsrs	r0, r0, #3
 80022e4:	0767      	lsls	r7, r4, #29
 80022e6:	4307      	orrs	r7, r0
 80022e8:	08e5      	lsrs	r5, r4, #3
 80022ea:	2b00      	cmp	r3, #0
 80022ec:	d100      	bne.n	80022f0 <__aeabi_dsub+0x694>
 80022ee:	e5b1      	b.n	8001e54 <__aeabi_dsub+0x1f8>
 80022f0:	2380      	movs	r3, #128	@ 0x80
 80022f2:	031b      	lsls	r3, r3, #12
 80022f4:	421d      	tst	r5, r3
 80022f6:	d008      	beq.n	800230a <__aeabi_dsub+0x6ae>
 80022f8:	4659      	mov	r1, fp
 80022fa:	08c8      	lsrs	r0, r1, #3
 80022fc:	4218      	tst	r0, r3
 80022fe:	d104      	bne.n	800230a <__aeabi_dsub+0x6ae>
 8002300:	08d2      	lsrs	r2, r2, #3
 8002302:	0749      	lsls	r1, r1, #29
 8002304:	430a      	orrs	r2, r1
 8002306:	0017      	movs	r7, r2
 8002308:	0005      	movs	r5, r0
 800230a:	0f7b      	lsrs	r3, r7, #29
 800230c:	00ff      	lsls	r7, r7, #3
 800230e:	08ff      	lsrs	r7, r7, #3
 8002310:	075b      	lsls	r3, r3, #29
 8002312:	431f      	orrs	r7, r3
 8002314:	e59e      	b.n	8001e54 <__aeabi_dsub+0x1f8>
 8002316:	08c0      	lsrs	r0, r0, #3
 8002318:	0763      	lsls	r3, r4, #29
 800231a:	4318      	orrs	r0, r3
 800231c:	08e5      	lsrs	r5, r4, #3
 800231e:	2900      	cmp	r1, #0
 8002320:	d053      	beq.n	80023ca <__aeabi_dsub+0x76e>
 8002322:	2380      	movs	r3, #128	@ 0x80
 8002324:	031b      	lsls	r3, r3, #12
 8002326:	421d      	tst	r5, r3
 8002328:	d00a      	beq.n	8002340 <__aeabi_dsub+0x6e4>
 800232a:	4659      	mov	r1, fp
 800232c:	08cc      	lsrs	r4, r1, #3
 800232e:	421c      	tst	r4, r3
 8002330:	d106      	bne.n	8002340 <__aeabi_dsub+0x6e4>
 8002332:	2601      	movs	r6, #1
 8002334:	4663      	mov	r3, ip
 8002336:	0025      	movs	r5, r4
 8002338:	08d0      	lsrs	r0, r2, #3
 800233a:	0749      	lsls	r1, r1, #29
 800233c:	4308      	orrs	r0, r1
 800233e:	401e      	ands	r6, r3
 8002340:	0f47      	lsrs	r7, r0, #29
 8002342:	00c0      	lsls	r0, r0, #3
 8002344:	08c0      	lsrs	r0, r0, #3
 8002346:	077f      	lsls	r7, r7, #29
 8002348:	4307      	orrs	r7, r0
 800234a:	e583      	b.n	8001e54 <__aeabi_dsub+0x1f8>
 800234c:	1883      	adds	r3, r0, r2
 800234e:	4293      	cmp	r3, r2
 8002350:	4192      	sbcs	r2, r2
 8002352:	445c      	add	r4, fp
 8002354:	4252      	negs	r2, r2
 8002356:	18a5      	adds	r5, r4, r2
 8002358:	022a      	lsls	r2, r5, #8
 800235a:	d500      	bpl.n	800235e <__aeabi_dsub+0x702>
 800235c:	e724      	b.n	80021a8 <__aeabi_dsub+0x54c>
 800235e:	076f      	lsls	r7, r5, #29
 8002360:	08db      	lsrs	r3, r3, #3
 8002362:	431f      	orrs	r7, r3
 8002364:	08ed      	lsrs	r5, r5, #3
 8002366:	2301      	movs	r3, #1
 8002368:	e6d0      	b.n	800210c <__aeabi_dsub+0x4b0>
 800236a:	46c0      	nop			@ (mov r8, r8)
 800236c:	000007ff 	.word	0x000007ff
 8002370:	000007fe 	.word	0x000007fe
 8002374:	ff7fffff 	.word	0xff7fffff
 8002378:	465b      	mov	r3, fp
 800237a:	08d2      	lsrs	r2, r2, #3
 800237c:	075f      	lsls	r7, r3, #29
 800237e:	4666      	mov	r6, ip
 8002380:	4317      	orrs	r7, r2
 8002382:	08dd      	lsrs	r5, r3, #3
 8002384:	e566      	b.n	8001e54 <__aeabi_dsub+0x1f8>
 8002386:	0025      	movs	r5, r4
 8002388:	3b20      	subs	r3, #32
 800238a:	40dd      	lsrs	r5, r3
 800238c:	4663      	mov	r3, ip
 800238e:	2b20      	cmp	r3, #32
 8002390:	d005      	beq.n	800239e <__aeabi_dsub+0x742>
 8002392:	2340      	movs	r3, #64	@ 0x40
 8002394:	4661      	mov	r1, ip
 8002396:	1a5b      	subs	r3, r3, r1
 8002398:	409c      	lsls	r4, r3
 800239a:	4320      	orrs	r0, r4
 800239c:	4680      	mov	r8, r0
 800239e:	4647      	mov	r7, r8
 80023a0:	1e7b      	subs	r3, r7, #1
 80023a2:	419f      	sbcs	r7, r3
 80023a4:	432f      	orrs	r7, r5
 80023a6:	e5a0      	b.n	8001eea <__aeabi_dsub+0x28e>
 80023a8:	2120      	movs	r1, #32
 80023aa:	2700      	movs	r7, #0
 80023ac:	1a09      	subs	r1, r1, r0
 80023ae:	e4d2      	b.n	8001d56 <__aeabi_dsub+0xfa>
 80023b0:	2f00      	cmp	r7, #0
 80023b2:	d100      	bne.n	80023b6 <__aeabi_dsub+0x75a>
 80023b4:	e713      	b.n	80021de <__aeabi_dsub+0x582>
 80023b6:	465c      	mov	r4, fp
 80023b8:	0017      	movs	r7, r2
 80023ba:	2500      	movs	r5, #0
 80023bc:	e5f6      	b.n	8001fac <__aeabi_dsub+0x350>
 80023be:	08d7      	lsrs	r7, r2, #3
 80023c0:	0749      	lsls	r1, r1, #29
 80023c2:	2302      	movs	r3, #2
 80023c4:	430f      	orrs	r7, r1
 80023c6:	092d      	lsrs	r5, r5, #4
 80023c8:	e6a0      	b.n	800210c <__aeabi_dsub+0x4b0>
 80023ca:	0007      	movs	r7, r0
 80023cc:	e542      	b.n	8001e54 <__aeabi_dsub+0x1f8>
 80023ce:	465b      	mov	r3, fp
 80023d0:	2601      	movs	r6, #1
 80023d2:	075f      	lsls	r7, r3, #29
 80023d4:	08dd      	lsrs	r5, r3, #3
 80023d6:	4663      	mov	r3, ip
 80023d8:	08d2      	lsrs	r2, r2, #3
 80023da:	4317      	orrs	r7, r2
 80023dc:	401e      	ands	r6, r3
 80023de:	e539      	b.n	8001e54 <__aeabi_dsub+0x1f8>
 80023e0:	465b      	mov	r3, fp
 80023e2:	08d2      	lsrs	r2, r2, #3
 80023e4:	075f      	lsls	r7, r3, #29
 80023e6:	4317      	orrs	r7, r2
 80023e8:	08dd      	lsrs	r5, r3, #3
 80023ea:	e533      	b.n	8001e54 <__aeabi_dsub+0x1f8>
 80023ec:	4a1e      	ldr	r2, [pc, #120]	@ (8002468 <__aeabi_dsub+0x80c>)
 80023ee:	08db      	lsrs	r3, r3, #3
 80023f0:	4022      	ands	r2, r4
 80023f2:	0757      	lsls	r7, r2, #29
 80023f4:	0252      	lsls	r2, r2, #9
 80023f6:	2501      	movs	r5, #1
 80023f8:	431f      	orrs	r7, r3
 80023fa:	0b14      	lsrs	r4, r2, #12
 80023fc:	e5c2      	b.n	8001f84 <__aeabi_dsub+0x328>
 80023fe:	000e      	movs	r6, r1
 8002400:	2001      	movs	r0, #1
 8002402:	e65f      	b.n	80020c4 <__aeabi_dsub+0x468>
 8002404:	2b00      	cmp	r3, #0
 8002406:	d00d      	beq.n	8002424 <__aeabi_dsub+0x7c8>
 8002408:	464b      	mov	r3, r9
 800240a:	1b5b      	subs	r3, r3, r5
 800240c:	469c      	mov	ip, r3
 800240e:	2d00      	cmp	r5, #0
 8002410:	d100      	bne.n	8002414 <__aeabi_dsub+0x7b8>
 8002412:	e548      	b.n	8001ea6 <__aeabi_dsub+0x24a>
 8002414:	2701      	movs	r7, #1
 8002416:	2b38      	cmp	r3, #56	@ 0x38
 8002418:	dd00      	ble.n	800241c <__aeabi_dsub+0x7c0>
 800241a:	e566      	b.n	8001eea <__aeabi_dsub+0x28e>
 800241c:	2380      	movs	r3, #128	@ 0x80
 800241e:	041b      	lsls	r3, r3, #16
 8002420:	431c      	orrs	r4, r3
 8002422:	e550      	b.n	8001ec6 <__aeabi_dsub+0x26a>
 8002424:	1c6b      	adds	r3, r5, #1
 8002426:	4d11      	ldr	r5, [pc, #68]	@ (800246c <__aeabi_dsub+0x810>)
 8002428:	422b      	tst	r3, r5
 800242a:	d000      	beq.n	800242e <__aeabi_dsub+0x7d2>
 800242c:	e673      	b.n	8002116 <__aeabi_dsub+0x4ba>
 800242e:	4659      	mov	r1, fp
 8002430:	0023      	movs	r3, r4
 8002432:	4311      	orrs	r1, r2
 8002434:	468a      	mov	sl, r1
 8002436:	4303      	orrs	r3, r0
 8002438:	e600      	b.n	800203c <__aeabi_dsub+0x3e0>
 800243a:	0767      	lsls	r7, r4, #29
 800243c:	08c0      	lsrs	r0, r0, #3
 800243e:	2300      	movs	r3, #0
 8002440:	4307      	orrs	r7, r0
 8002442:	08e5      	lsrs	r5, r4, #3
 8002444:	e662      	b.n	800210c <__aeabi_dsub+0x4b0>
 8002446:	0764      	lsls	r4, r4, #29
 8002448:	08ff      	lsrs	r7, r7, #3
 800244a:	4327      	orrs	r7, r4
 800244c:	0905      	lsrs	r5, r0, #4
 800244e:	e65d      	b.n	800210c <__aeabi_dsub+0x4b0>
 8002450:	08d2      	lsrs	r2, r2, #3
 8002452:	0749      	lsls	r1, r1, #29
 8002454:	4311      	orrs	r1, r2
 8002456:	000f      	movs	r7, r1
 8002458:	2302      	movs	r3, #2
 800245a:	092d      	lsrs	r5, r5, #4
 800245c:	e656      	b.n	800210c <__aeabi_dsub+0x4b0>
 800245e:	0007      	movs	r7, r0
 8002460:	e5a4      	b.n	8001fac <__aeabi_dsub+0x350>
 8002462:	0038      	movs	r0, r7
 8002464:	e48f      	b.n	8001d86 <__aeabi_dsub+0x12a>
 8002466:	46c0      	nop			@ (mov r8, r8)
 8002468:	ff7fffff 	.word	0xff7fffff
 800246c:	000007fe 	.word	0x000007fe

08002470 <__aeabi_dcmpun>:
 8002470:	b5f0      	push	{r4, r5, r6, r7, lr}
 8002472:	46c6      	mov	lr, r8
 8002474:	031e      	lsls	r6, r3, #12
 8002476:	0b36      	lsrs	r6, r6, #12
 8002478:	46b0      	mov	r8, r6
 800247a:	4e0d      	ldr	r6, [pc, #52]	@ (80024b0 <__aeabi_dcmpun+0x40>)
 800247c:	030c      	lsls	r4, r1, #12
 800247e:	004d      	lsls	r5, r1, #1
 8002480:	005f      	lsls	r7, r3, #1
 8002482:	b500      	push	{lr}
 8002484:	0b24      	lsrs	r4, r4, #12
 8002486:	0d6d      	lsrs	r5, r5, #21
 8002488:	0d7f      	lsrs	r7, r7, #21
 800248a:	42b5      	cmp	r5, r6
 800248c:	d00b      	beq.n	80024a6 <__aeabi_dcmpun+0x36>
 800248e:	4908      	ldr	r1, [pc, #32]	@ (80024b0 <__aeabi_dcmpun+0x40>)
 8002490:	2000      	movs	r0, #0
 8002492:	428f      	cmp	r7, r1
 8002494:	d104      	bne.n	80024a0 <__aeabi_dcmpun+0x30>
 8002496:	4646      	mov	r6, r8
 8002498:	4316      	orrs	r6, r2
 800249a:	0030      	movs	r0, r6
 800249c:	1e43      	subs	r3, r0, #1
 800249e:	4198      	sbcs	r0, r3
 80024a0:	bc80      	pop	{r7}
 80024a2:	46b8      	mov	r8, r7
 80024a4:	bdf0      	pop	{r4, r5, r6, r7, pc}
 80024a6:	4304      	orrs	r4, r0
 80024a8:	2001      	movs	r0, #1
 80024aa:	2c00      	cmp	r4, #0
 80024ac:	d1f8      	bne.n	80024a0 <__aeabi_dcmpun+0x30>
 80024ae:	e7ee      	b.n	800248e <__aeabi_dcmpun+0x1e>
 80024b0:	000007ff 	.word	0x000007ff

080024b4 <__aeabi_d2iz>:
 80024b4:	000b      	movs	r3, r1
 80024b6:	0002      	movs	r2, r0
 80024b8:	b570      	push	{r4, r5, r6, lr}
 80024ba:	4d16      	ldr	r5, [pc, #88]	@ (8002514 <__aeabi_d2iz+0x60>)
 80024bc:	030c      	lsls	r4, r1, #12
 80024be:	b082      	sub	sp, #8
 80024c0:	0049      	lsls	r1, r1, #1
 80024c2:	2000      	movs	r0, #0
 80024c4:	9200      	str	r2, [sp, #0]
 80024c6:	9301      	str	r3, [sp, #4]
 80024c8:	0b24      	lsrs	r4, r4, #12
 80024ca:	0d49      	lsrs	r1, r1, #21
 80024cc:	0fde      	lsrs	r6, r3, #31
 80024ce:	42a9      	cmp	r1, r5
 80024d0:	dd04      	ble.n	80024dc <__aeabi_d2iz+0x28>
 80024d2:	4811      	ldr	r0, [pc, #68]	@ (8002518 <__aeabi_d2iz+0x64>)
 80024d4:	4281      	cmp	r1, r0
 80024d6:	dd03      	ble.n	80024e0 <__aeabi_d2iz+0x2c>
 80024d8:	4b10      	ldr	r3, [pc, #64]	@ (800251c <__aeabi_d2iz+0x68>)
 80024da:	18f0      	adds	r0, r6, r3
 80024dc:	b002      	add	sp, #8
 80024de:	bd70      	pop	{r4, r5, r6, pc}
 80024e0:	2080      	movs	r0, #128	@ 0x80
 80024e2:	0340      	lsls	r0, r0, #13
 80024e4:	4320      	orrs	r0, r4
 80024e6:	4c0e      	ldr	r4, [pc, #56]	@ (8002520 <__aeabi_d2iz+0x6c>)
 80024e8:	1a64      	subs	r4, r4, r1
 80024ea:	2c1f      	cmp	r4, #31
 80024ec:	dd08      	ble.n	8002500 <__aeabi_d2iz+0x4c>
 80024ee:	4b0d      	ldr	r3, [pc, #52]	@ (8002524 <__aeabi_d2iz+0x70>)
 80024f0:	1a5b      	subs	r3, r3, r1
 80024f2:	40d8      	lsrs	r0, r3
 80024f4:	0003      	movs	r3, r0
 80024f6:	4258      	negs	r0, r3
 80024f8:	2e00      	cmp	r6, #0
 80024fa:	d1ef      	bne.n	80024dc <__aeabi_d2iz+0x28>
 80024fc:	0018      	movs	r0, r3
 80024fe:	e7ed      	b.n	80024dc <__aeabi_d2iz+0x28>
 8002500:	4b09      	ldr	r3, [pc, #36]	@ (8002528 <__aeabi_d2iz+0x74>)
 8002502:	9a00      	ldr	r2, [sp, #0]
 8002504:	469c      	mov	ip, r3
 8002506:	0003      	movs	r3, r0
 8002508:	4461      	add	r1, ip
 800250a:	408b      	lsls	r3, r1
 800250c:	40e2      	lsrs	r2, r4
 800250e:	4313      	orrs	r3, r2
 8002510:	e7f1      	b.n	80024f6 <__aeabi_d2iz+0x42>
 8002512:	46c0      	nop			@ (mov r8, r8)
 8002514:	000003fe 	.word	0x000003fe
 8002518:	0000041d 	.word	0x0000041d
 800251c:	7fffffff 	.word	0x7fffffff
 8002520:	00000433 	.word	0x00000433
 8002524:	00000413 	.word	0x00000413
 8002528:	fffffbed 	.word	0xfffffbed

0800252c <__aeabi_i2d>:
 800252c:	b570      	push	{r4, r5, r6, lr}
 800252e:	2800      	cmp	r0, #0
 8002530:	d016      	beq.n	8002560 <__aeabi_i2d+0x34>
 8002532:	17c3      	asrs	r3, r0, #31
 8002534:	18c5      	adds	r5, r0, r3
 8002536:	405d      	eors	r5, r3
 8002538:	0fc4      	lsrs	r4, r0, #31
 800253a:	0028      	movs	r0, r5
 800253c:	f000 f848 	bl	80025d0 <__clzsi2>
 8002540:	4b10      	ldr	r3, [pc, #64]	@ (8002584 <__aeabi_i2d+0x58>)
 8002542:	1a1b      	subs	r3, r3, r0
 8002544:	055b      	lsls	r3, r3, #21
 8002546:	0d5b      	lsrs	r3, r3, #21
 8002548:	280a      	cmp	r0, #10
 800254a:	dc14      	bgt.n	8002576 <__aeabi_i2d+0x4a>
 800254c:	0002      	movs	r2, r0
 800254e:	002e      	movs	r6, r5
 8002550:	3215      	adds	r2, #21
 8002552:	4096      	lsls	r6, r2
 8002554:	220b      	movs	r2, #11
 8002556:	1a12      	subs	r2, r2, r0
 8002558:	40d5      	lsrs	r5, r2
 800255a:	032d      	lsls	r5, r5, #12
 800255c:	0b2d      	lsrs	r5, r5, #12
 800255e:	e003      	b.n	8002568 <__aeabi_i2d+0x3c>
 8002560:	2400      	movs	r4, #0
 8002562:	2300      	movs	r3, #0
 8002564:	2500      	movs	r5, #0
 8002566:	2600      	movs	r6, #0
 8002568:	051b      	lsls	r3, r3, #20
 800256a:	432b      	orrs	r3, r5
 800256c:	07e4      	lsls	r4, r4, #31
 800256e:	4323      	orrs	r3, r4
 8002570:	0030      	movs	r0, r6
 8002572:	0019      	movs	r1, r3
 8002574:	bd70      	pop	{r4, r5, r6, pc}
 8002576:	380b      	subs	r0, #11
 8002578:	4085      	lsls	r5, r0
 800257a:	032d      	lsls	r5, r5, #12
 800257c:	2600      	movs	r6, #0
 800257e:	0b2d      	lsrs	r5, r5, #12
 8002580:	e7f2      	b.n	8002568 <__aeabi_i2d+0x3c>
 8002582:	46c0      	nop			@ (mov r8, r8)
 8002584:	0000041e 	.word	0x0000041e

08002588 <__aeabi_ui2d>:
 8002588:	b510      	push	{r4, lr}
 800258a:	1e04      	subs	r4, r0, #0
 800258c:	d010      	beq.n	80025b0 <__aeabi_ui2d+0x28>
 800258e:	f000 f81f 	bl	80025d0 <__clzsi2>
 8002592:	4b0e      	ldr	r3, [pc, #56]	@ (80025cc <__aeabi_ui2d+0x44>)
 8002594:	1a1b      	subs	r3, r3, r0
 8002596:	055b      	lsls	r3, r3, #21
 8002598:	0d5b      	lsrs	r3, r3, #21
 800259a:	280a      	cmp	r0, #10
 800259c:	dc0f      	bgt.n	80025be <__aeabi_ui2d+0x36>
 800259e:	220b      	movs	r2, #11
 80025a0:	0021      	movs	r1, r4
 80025a2:	1a12      	subs	r2, r2, r0
 80025a4:	40d1      	lsrs	r1, r2
 80025a6:	3015      	adds	r0, #21
 80025a8:	030a      	lsls	r2, r1, #12
 80025aa:	4084      	lsls	r4, r0
 80025ac:	0b12      	lsrs	r2, r2, #12
 80025ae:	e001      	b.n	80025b4 <__aeabi_ui2d+0x2c>
 80025b0:	2300      	movs	r3, #0
 80025b2:	2200      	movs	r2, #0
 80025b4:	051b      	lsls	r3, r3, #20
 80025b6:	4313      	orrs	r3, r2
 80025b8:	0020      	movs	r0, r4
 80025ba:	0019      	movs	r1, r3
 80025bc:	bd10      	pop	{r4, pc}
 80025be:	0022      	movs	r2, r4
 80025c0:	380b      	subs	r0, #11
 80025c2:	4082      	lsls	r2, r0
 80025c4:	0312      	lsls	r2, r2, #12
 80025c6:	2400      	movs	r4, #0
 80025c8:	0b12      	lsrs	r2, r2, #12
 80025ca:	e7f3      	b.n	80025b4 <__aeabi_ui2d+0x2c>
 80025cc:	0000041e 	.word	0x0000041e

080025d0 <__clzsi2>:
 80025d0:	211c      	movs	r1, #28
 80025d2:	2301      	movs	r3, #1
 80025d4:	041b      	lsls	r3, r3, #16
 80025d6:	4298      	cmp	r0, r3
 80025d8:	d301      	bcc.n	80025de <__clzsi2+0xe>
 80025da:	0c00      	lsrs	r0, r0, #16
 80025dc:	3910      	subs	r1, #16
 80025de:	0a1b      	lsrs	r3, r3, #8
 80025e0:	4298      	cmp	r0, r3
 80025e2:	d301      	bcc.n	80025e8 <__clzsi2+0x18>
 80025e4:	0a00      	lsrs	r0, r0, #8
 80025e6:	3908      	subs	r1, #8
 80025e8:	091b      	lsrs	r3, r3, #4
 80025ea:	4298      	cmp	r0, r3
 80025ec:	d301      	bcc.n	80025f2 <__clzsi2+0x22>
 80025ee:	0900      	lsrs	r0, r0, #4
 80025f0:	3904      	subs	r1, #4
 80025f2:	a202      	add	r2, pc, #8	@ (adr r2, 80025fc <__clzsi2+0x2c>)
 80025f4:	5c10      	ldrb	r0, [r2, r0]
 80025f6:	1840      	adds	r0, r0, r1
 80025f8:	4770      	bx	lr
 80025fa:	46c0      	nop			@ (mov r8, r8)
 80025fc:	02020304 	.word	0x02020304
 8002600:	01010101 	.word	0x01010101
	...

0800260c <__clzdi2>:
 800260c:	b510      	push	{r4, lr}
 800260e:	2900      	cmp	r1, #0
 8002610:	d103      	bne.n	800261a <__clzdi2+0xe>
 8002612:	f7ff ffdd 	bl	80025d0 <__clzsi2>
 8002616:	3020      	adds	r0, #32
 8002618:	e002      	b.n	8002620 <__clzdi2+0x14>
 800261a:	0008      	movs	r0, r1
 800261c:	f7ff ffd8 	bl	80025d0 <__clzsi2>
 8002620:	bd10      	pop	{r4, pc}
 8002622:	46c0      	nop			@ (mov r8, r8)

08002624 <FRAM_SPI_PeriphInit>:

/* =========================
 * Minimal bring-up helpers
 * ========================= */
void FRAM_SPI_PeriphInit(void)
{
 8002624:	b590      	push	{r4, r7, lr}
 8002626:	b089      	sub	sp, #36	@ 0x24
 8002628:	af00      	add	r7, sp, #0
    /* Ensure GPIO clocks */
    __HAL_RCC_GPIOA_CLK_ENABLE();
 800262a:	4b3a      	ldr	r3, [pc, #232]	@ (8002714 <FRAM_SPI_PeriphInit+0xf0>)
 800262c:	6b5a      	ldr	r2, [r3, #52]	@ 0x34
 800262e:	4b39      	ldr	r3, [pc, #228]	@ (8002714 <FRAM_SPI_PeriphInit+0xf0>)
 8002630:	2101      	movs	r1, #1
 8002632:	430a      	orrs	r2, r1
 8002634:	635a      	str	r2, [r3, #52]	@ 0x34
 8002636:	4b37      	ldr	r3, [pc, #220]	@ (8002714 <FRAM_SPI_PeriphInit+0xf0>)
 8002638:	6b5b      	ldr	r3, [r3, #52]	@ 0x34
 800263a:	2201      	movs	r2, #1
 800263c:	4013      	ands	r3, r2
 800263e:	60bb      	str	r3, [r7, #8]
 8002640:	68bb      	ldr	r3, [r7, #8]
    __HAL_RCC_GPIOB_CLK_ENABLE();
 8002642:	4b34      	ldr	r3, [pc, #208]	@ (8002714 <FRAM_SPI_PeriphInit+0xf0>)
 8002644:	6b5a      	ldr	r2, [r3, #52]	@ 0x34
 8002646:	4b33      	ldr	r3, [pc, #204]	@ (8002714 <FRAM_SPI_PeriphInit+0xf0>)
 8002648:	2102      	movs	r1, #2
 800264a:	430a      	orrs	r2, r1
 800264c:	635a      	str	r2, [r3, #52]	@ 0x34
 800264e:	4b31      	ldr	r3, [pc, #196]	@ (8002714 <FRAM_SPI_PeriphInit+0xf0>)
 8002650:	6b5b      	ldr	r3, [r3, #52]	@ 0x34
 8002652:	2202      	movs	r2, #2
 8002654:	4013      	ands	r3, r2
 8002656:	607b      	str	r3, [r7, #4]
 8002658:	687b      	ldr	r3, [r7, #4]

    /* Configure PB3 as SPI1_SCK AF0 */
    GPIO_InitTypeDef gi = {0};
 800265a:	240c      	movs	r4, #12
 800265c:	193b      	adds	r3, r7, r4
 800265e:	0018      	movs	r0, r3
 8002660:	2314      	movs	r3, #20
 8002662:	001a      	movs	r2, r3
 8002664:	2100      	movs	r1, #0
 8002666:	f005 f8bb 	bl	80077e0 <memset>
    gi.Pin       = GPIO_PIN_3;
 800266a:	193b      	adds	r3, r7, r4
 800266c:	2208      	movs	r2, #8
 800266e:	601a      	str	r2, [r3, #0]
    gi.Mode      = GPIO_MODE_AF_PP;
 8002670:	193b      	adds	r3, r7, r4
 8002672:	2202      	movs	r2, #2
 8002674:	605a      	str	r2, [r3, #4]
    gi.Pull      = GPIO_NOPULL;
 8002676:	193b      	adds	r3, r7, r4
 8002678:	2200      	movs	r2, #0
 800267a:	609a      	str	r2, [r3, #8]
    gi.Speed     = GPIO_SPEED_FREQ_HIGH;
 800267c:	193b      	adds	r3, r7, r4
 800267e:	2202      	movs	r2, #2
 8002680:	60da      	str	r2, [r3, #12]
    gi.Alternate = GPIO_AF0_SPI1;
 8002682:	193b      	adds	r3, r7, r4
 8002684:	2200      	movs	r2, #0
 8002686:	611a      	str	r2, [r3, #16]
    HAL_GPIO_Init(GPIOB, &gi);
 8002688:	193b      	adds	r3, r7, r4
 800268a:	4a23      	ldr	r2, [pc, #140]	@ (8002718 <FRAM_SPI_PeriphInit+0xf4>)
 800268c:	0019      	movs	r1, r3
 800268e:	0010      	movs	r0, r2
 8002690:	f001 fe28 	bl	80042e4 <HAL_GPIO_Init>

    /* Configure PA6 MISO, PA7 MOSI AF0 */
    gi.Pin = GPIO_PIN_6 | GPIO_PIN_7;
 8002694:	0021      	movs	r1, r4
 8002696:	187b      	adds	r3, r7, r1
 8002698:	22c0      	movs	r2, #192	@ 0xc0
 800269a:	601a      	str	r2, [r3, #0]
    gi.Alternate = GPIO_AF0_SPI1;
 800269c:	187b      	adds	r3, r7, r1
 800269e:	2200      	movs	r2, #0
 80026a0:	611a      	str	r2, [r3, #16]
    HAL_GPIO_Init(GPIOA, &gi);
 80026a2:	187a      	adds	r2, r7, r1
 80026a4:	23a0      	movs	r3, #160	@ 0xa0
 80026a6:	05db      	lsls	r3, r3, #23
 80026a8:	0011      	movs	r1, r2
 80026aa:	0018      	movs	r0, r3
 80026ac:	f001 fe1a 	bl	80042e4 <HAL_GPIO_Init>
    

  hspi1.Instance = SPI1;
 80026b0:	4b1a      	ldr	r3, [pc, #104]	@ (800271c <FRAM_SPI_PeriphInit+0xf8>)
 80026b2:	4a1b      	ldr	r2, [pc, #108]	@ (8002720 <FRAM_SPI_PeriphInit+0xfc>)
 80026b4:	601a      	str	r2, [r3, #0]
  hspi1.Init.Mode = SPI_MODE_MASTER;
 80026b6:	4b19      	ldr	r3, [pc, #100]	@ (800271c <FRAM_SPI_PeriphInit+0xf8>)
 80026b8:	2282      	movs	r2, #130	@ 0x82
 80026ba:	0052      	lsls	r2, r2, #1
 80026bc:	605a      	str	r2, [r3, #4]
  hspi1.Init.Direction = SPI_DIRECTION_2LINES;
 80026be:	4b17      	ldr	r3, [pc, #92]	@ (800271c <FRAM_SPI_PeriphInit+0xf8>)
 80026c0:	2200      	movs	r2, #0
 80026c2:	609a      	str	r2, [r3, #8]
  hspi1.Init.DataSize = SPI_DATASIZE_8BIT;
 80026c4:	4b15      	ldr	r3, [pc, #84]	@ (800271c <FRAM_SPI_PeriphInit+0xf8>)
 80026c6:	22e0      	movs	r2, #224	@ 0xe0
 80026c8:	00d2      	lsls	r2, r2, #3
 80026ca:	60da      	str	r2, [r3, #12]
  hspi1.Init.CLKPolarity = SPI_POLARITY_LOW;   // Mode 0
 80026cc:	4b13      	ldr	r3, [pc, #76]	@ (800271c <FRAM_SPI_PeriphInit+0xf8>)
 80026ce:	2200      	movs	r2, #0
 80026d0:	611a      	str	r2, [r3, #16]
  hspi1.Init.CLKPhase = SPI_PHASE_1EDGE;       // Mode 0
 80026d2:	4b12      	ldr	r3, [pc, #72]	@ (800271c <FRAM_SPI_PeriphInit+0xf8>)
 80026d4:	2200      	movs	r2, #0
 80026d6:	615a      	str	r2, [r3, #20]
  hspi1.Init.NSS = SPI_NSS_SOFT;
 80026d8:	4b10      	ldr	r3, [pc, #64]	@ (800271c <FRAM_SPI_PeriphInit+0xf8>)
 80026da:	2280      	movs	r2, #128	@ 0x80
 80026dc:	0092      	lsls	r2, r2, #2
 80026de:	619a      	str	r2, [r3, #24]
  hspi1.Init.BaudRatePrescaler = SPI_BAUDRATEPRESCALER_32; // ~500 kbit/s at 16 MHz
 80026e0:	4b0e      	ldr	r3, [pc, #56]	@ (800271c <FRAM_SPI_PeriphInit+0xf8>)
 80026e2:	2220      	movs	r2, #32
 80026e4:	61da      	str	r2, [r3, #28]
  hspi1.Init.FirstBit = SPI_FIRSTBIT_MSB;
 80026e6:	4b0d      	ldr	r3, [pc, #52]	@ (800271c <FRAM_SPI_PeriphInit+0xf8>)
 80026e8:	2200      	movs	r2, #0
 80026ea:	621a      	str	r2, [r3, #32]
  hspi1.Init.TIMode = SPI_TIMODE_DISABLE;
 80026ec:	4b0b      	ldr	r3, [pc, #44]	@ (800271c <FRAM_SPI_PeriphInit+0xf8>)
 80026ee:	2200      	movs	r2, #0
 80026f0:	625a      	str	r2, [r3, #36]	@ 0x24
  hspi1.Init.CRCCalculation = SPI_CRCCALCULATION_DISABLE;
 80026f2:	4b0a      	ldr	r3, [pc, #40]	@ (800271c <FRAM_SPI_PeriphInit+0xf8>)
 80026f4:	2200      	movs	r2, #0
 80026f6:	629a      	str	r2, [r3, #40]	@ 0x28
  hspi1.Init.CRCPolynomial = 7;
 80026f8:	4b08      	ldr	r3, [pc, #32]	@ (800271c <FRAM_SPI_PeriphInit+0xf8>)
 80026fa:	2207      	movs	r2, #7
 80026fc:	62da      	str	r2, [r3, #44]	@ 0x2c
  hspi1.Init.NSSPMode = SPI_NSS_PULSE_DISABLE;
 80026fe:	4b07      	ldr	r3, [pc, #28]	@ (800271c <FRAM_SPI_PeriphInit+0xf8>)
 8002700:	2200      	movs	r2, #0
 8002702:	635a      	str	r2, [r3, #52]	@ 0x34

  if (HAL_SPI_Init(&hspi1) != HAL_OK) {
 8002704:	4b05      	ldr	r3, [pc, #20]	@ (800271c <FRAM_SPI_PeriphInit+0xf8>)
 8002706:	0018      	movs	r0, r3
 8002708:	f002 f9d4 	bl	8004ab4 <HAL_SPI_Init>
    // If you have an error handler, call it here
    // Error_Handler();
  }
}
 800270c:	46c0      	nop			@ (mov r8, r8)
 800270e:	46bd      	mov	sp, r7
 8002710:	b009      	add	sp, #36	@ 0x24
 8002712:	bd90      	pop	{r4, r7, pc}
 8002714:	40021000 	.word	0x40021000
 8002718:	50000400 	.word	0x50000400
 800271c:	200001f4 	.word	0x200001f4
 8002720:	40013000 	.word	0x40013000

08002724 <FRAM_SPI_GPIO_Init>:

void FRAM_SPI_GPIO_Init(void)
{
 8002724:	b590      	push	{r4, r7, lr}
 8002726:	b089      	sub	sp, #36	@ 0x24
 8002728:	af00      	add	r7, sp, #0
    /* Enable GPIO clocks for CS/WP ports */
    if (FRAM_CS_GPIO_Port == GPIOA || FRAM_WP_GPIO_Port == GPIOA) __HAL_RCC_GPIOA_CLK_ENABLE();
    if (FRAM_CS_GPIO_Port == GPIOB || FRAM_WP_GPIO_Port == GPIOB) __HAL_RCC_GPIOB_CLK_ENABLE();
 800272a:	4b26      	ldr	r3, [pc, #152]	@ (80027c4 <FRAM_SPI_GPIO_Init+0xa0>)
 800272c:	6b5a      	ldr	r2, [r3, #52]	@ 0x34
 800272e:	4b25      	ldr	r3, [pc, #148]	@ (80027c4 <FRAM_SPI_GPIO_Init+0xa0>)
 8002730:	2102      	movs	r1, #2
 8002732:	430a      	orrs	r2, r1
 8002734:	635a      	str	r2, [r3, #52]	@ 0x34
 8002736:	4b23      	ldr	r3, [pc, #140]	@ (80027c4 <FRAM_SPI_GPIO_Init+0xa0>)
 8002738:	6b5b      	ldr	r3, [r3, #52]	@ 0x34
 800273a:	2202      	movs	r2, #2
 800273c:	4013      	ands	r3, r2
 800273e:	607b      	str	r3, [r7, #4]
 8002740:	687b      	ldr	r3, [r7, #4]
    if (FRAM_CS_GPIO_Port == GPIOC || FRAM_WP_GPIO_Port == GPIOC) __HAL_RCC_GPIOC_CLK_ENABLE();
 8002742:	4b20      	ldr	r3, [pc, #128]	@ (80027c4 <FRAM_SPI_GPIO_Init+0xa0>)
 8002744:	6b5a      	ldr	r2, [r3, #52]	@ 0x34
 8002746:	4b1f      	ldr	r3, [pc, #124]	@ (80027c4 <FRAM_SPI_GPIO_Init+0xa0>)
 8002748:	2104      	movs	r1, #4
 800274a:	430a      	orrs	r2, r1
 800274c:	635a      	str	r2, [r3, #52]	@ 0x34
 800274e:	4b1d      	ldr	r3, [pc, #116]	@ (80027c4 <FRAM_SPI_GPIO_Init+0xa0>)
 8002750:	6b5b      	ldr	r3, [r3, #52]	@ 0x34
 8002752:	2204      	movs	r2, #4
 8002754:	4013      	ands	r3, r2
 8002756:	603b      	str	r3, [r7, #0]
 8002758:	683b      	ldr	r3, [r7, #0]

    GPIO_InitTypeDef gi = {0};
 800275a:	240c      	movs	r4, #12
 800275c:	193b      	adds	r3, r7, r4
 800275e:	0018      	movs	r0, r3
 8002760:	2314      	movs	r3, #20
 8002762:	001a      	movs	r2, r3
 8002764:	2100      	movs	r1, #0
 8002766:	f005 f83b 	bl	80077e0 <memset>
    gi.Mode = GPIO_MODE_OUTPUT_PP;
 800276a:	193b      	adds	r3, r7, r4
 800276c:	2201      	movs	r2, #1
 800276e:	605a      	str	r2, [r3, #4]
    gi.Pull = GPIO_NOPULL;
 8002770:	193b      	adds	r3, r7, r4
 8002772:	2200      	movs	r2, #0
 8002774:	609a      	str	r2, [r3, #8]
    gi.Speed = GPIO_SPEED_FREQ_HIGH;
 8002776:	193b      	adds	r3, r7, r4
 8002778:	2202      	movs	r2, #2
 800277a:	60da      	str	r2, [r3, #12]
    gi.Pin = FRAM_CS_Pin; HAL_GPIO_Init(FRAM_CS_GPIO_Port, &gi);
 800277c:	193b      	adds	r3, r7, r4
 800277e:	2201      	movs	r2, #1
 8002780:	601a      	str	r2, [r3, #0]
 8002782:	193b      	adds	r3, r7, r4
 8002784:	4a10      	ldr	r2, [pc, #64]	@ (80027c8 <FRAM_SPI_GPIO_Init+0xa4>)
 8002786:	0019      	movs	r1, r3
 8002788:	0010      	movs	r0, r2
 800278a:	f001 fdab 	bl	80042e4 <HAL_GPIO_Init>
    gi.Pin = FRAM_WP_Pin; HAL_GPIO_Init(FRAM_WP_GPIO_Port, &gi);
 800278e:	0021      	movs	r1, r4
 8002790:	187b      	adds	r3, r7, r1
 8002792:	2280      	movs	r2, #128	@ 0x80
 8002794:	601a      	str	r2, [r3, #0]
 8002796:	187b      	adds	r3, r7, r1
 8002798:	4a0c      	ldr	r2, [pc, #48]	@ (80027cc <FRAM_SPI_GPIO_Init+0xa8>)
 800279a:	0019      	movs	r1, r3
 800279c:	0010      	movs	r0, r2
 800279e:	f001 fda1 	bl	80042e4 <HAL_GPIO_Init>

    /* Deselect FRAM and disable write-protect -> CS=HIGH, WP=HIGH */
    HAL_GPIO_WritePin(FRAM_CS_GPIO_Port, FRAM_CS_Pin, GPIO_PIN_SET);
 80027a2:	4b09      	ldr	r3, [pc, #36]	@ (80027c8 <FRAM_SPI_GPIO_Init+0xa4>)
 80027a4:	2201      	movs	r2, #1
 80027a6:	2101      	movs	r1, #1
 80027a8:	0018      	movs	r0, r3
 80027aa:	f001 feff 	bl	80045ac <HAL_GPIO_WritePin>
    HAL_GPIO_WritePin(FRAM_WP_GPIO_Port, FRAM_WP_Pin, GPIO_PIN_SET);
 80027ae:	4b07      	ldr	r3, [pc, #28]	@ (80027cc <FRAM_SPI_GPIO_Init+0xa8>)
 80027b0:	2201      	movs	r2, #1
 80027b2:	2180      	movs	r1, #128	@ 0x80
 80027b4:	0018      	movs	r0, r3
 80027b6:	f001 fef9 	bl	80045ac <HAL_GPIO_WritePin>
}
 80027ba:	46c0      	nop			@ (mov r8, r8)
 80027bc:	46bd      	mov	sp, r7
 80027be:	b009      	add	sp, #36	@ 0x24
 80027c0:	bd90      	pop	{r4, r7, pc}
 80027c2:	46c0      	nop			@ (mov r8, r8)
 80027c4:	40021000 	.word	0x40021000
 80027c8:	50000400 	.word	0x50000400
 80027cc:	50000800 	.word	0x50000800

080027d0 <fram_wren>:

/* =========================
 * Low-level FRAM helpers
 * ========================= */
static HAL_StatusTypeDef fram_wren(void)
{
 80027d0:	b590      	push	{r4, r7, lr}
 80027d2:	b083      	sub	sp, #12
 80027d4:	af00      	add	r7, sp, #0
    uint8_t cmd = 0x06u; /* WREN */
 80027d6:	1dbb      	adds	r3, r7, #6
 80027d8:	2206      	movs	r2, #6
 80027da:	701a      	strb	r2, [r3, #0]
    FRAM_CS_LOW();
 80027dc:	4b0d      	ldr	r3, [pc, #52]	@ (8002814 <fram_wren+0x44>)
 80027de:	2200      	movs	r2, #0
 80027e0:	2101      	movs	r1, #1
 80027e2:	0018      	movs	r0, r3
 80027e4:	f001 fee2 	bl	80045ac <HAL_GPIO_WritePin>
    HAL_StatusTypeDef st = HAL_SPI_Transmit(&hspi1, &cmd, 1, HAL_MAX_DELAY);
 80027e8:	1dfc      	adds	r4, r7, #7
 80027ea:	2301      	movs	r3, #1
 80027ec:	425b      	negs	r3, r3
 80027ee:	1db9      	adds	r1, r7, #6
 80027f0:	4809      	ldr	r0, [pc, #36]	@ (8002818 <fram_wren+0x48>)
 80027f2:	2201      	movs	r2, #1
 80027f4:	f002 fa16 	bl	8004c24 <HAL_SPI_Transmit>
 80027f8:	0003      	movs	r3, r0
 80027fa:	7023      	strb	r3, [r4, #0]
    FRAM_CS_HIGH();
 80027fc:	4b05      	ldr	r3, [pc, #20]	@ (8002814 <fram_wren+0x44>)
 80027fe:	2201      	movs	r2, #1
 8002800:	2101      	movs	r1, #1
 8002802:	0018      	movs	r0, r3
 8002804:	f001 fed2 	bl	80045ac <HAL_GPIO_WritePin>
    return st;
 8002808:	1dfb      	adds	r3, r7, #7
 800280a:	781b      	ldrb	r3, [r3, #0]
}
 800280c:	0018      	movs	r0, r3
 800280e:	46bd      	mov	sp, r7
 8002810:	b003      	add	sp, #12
 8002812:	bd90      	pop	{r4, r7, pc}
 8002814:	50000400 	.word	0x50000400
 8002818:	200001f4 	.word	0x200001f4

0800281c <fram_read>:
    FRAM_CS_HIGH();
    return sr;
}

HAL_StatusTypeDef fram_read(uint16_t addr, uint8_t* buf, size_t len)
{
 800281c:	b5f0      	push	{r4, r5, r6, r7, lr}
 800281e:	b087      	sub	sp, #28
 8002820:	af00      	add	r7, sp, #0
 8002822:	60b9      	str	r1, [r7, #8]
 8002824:	607a      	str	r2, [r7, #4]
 8002826:	240e      	movs	r4, #14
 8002828:	193b      	adds	r3, r7, r4
 800282a:	1c02      	adds	r2, r0, #0
 800282c:	801a      	strh	r2, [r3, #0]
    uint8_t hdr[3] = { 0x03u, (uint8_t)(addr >> 8), (uint8_t)addr };
 800282e:	2114      	movs	r1, #20
 8002830:	187b      	adds	r3, r7, r1
 8002832:	2203      	movs	r2, #3
 8002834:	701a      	strb	r2, [r3, #0]
 8002836:	0020      	movs	r0, r4
 8002838:	183b      	adds	r3, r7, r0
 800283a:	881b      	ldrh	r3, [r3, #0]
 800283c:	0a1b      	lsrs	r3, r3, #8
 800283e:	b29b      	uxth	r3, r3
 8002840:	b2da      	uxtb	r2, r3
 8002842:	187b      	adds	r3, r7, r1
 8002844:	705a      	strb	r2, [r3, #1]
 8002846:	183b      	adds	r3, r7, r0
 8002848:	881b      	ldrh	r3, [r3, #0]
 800284a:	b2da      	uxtb	r2, r3
 800284c:	000d      	movs	r5, r1
 800284e:	187b      	adds	r3, r7, r1
 8002850:	709a      	strb	r2, [r3, #2]
    FRAM_CS_LOW();
 8002852:	4b16      	ldr	r3, [pc, #88]	@ (80028ac <fram_read+0x90>)
 8002854:	2200      	movs	r2, #0
 8002856:	2101      	movs	r1, #1
 8002858:	0018      	movs	r0, r3
 800285a:	f001 fea7 	bl	80045ac <HAL_GPIO_WritePin>
    HAL_StatusTypeDef st = HAL_SPI_Transmit(&hspi1, hdr, 3, HAL_MAX_DELAY);
 800285e:	2617      	movs	r6, #23
 8002860:	19bc      	adds	r4, r7, r6
 8002862:	2301      	movs	r3, #1
 8002864:	425b      	negs	r3, r3
 8002866:	1979      	adds	r1, r7, r5
 8002868:	4811      	ldr	r0, [pc, #68]	@ (80028b0 <fram_read+0x94>)
 800286a:	2203      	movs	r2, #3
 800286c:	f002 f9da 	bl	8004c24 <HAL_SPI_Transmit>
 8002870:	0003      	movs	r3, r0
 8002872:	7023      	strb	r3, [r4, #0]
    if (st == HAL_OK) st = HAL_SPI_Receive(&hspi1, buf, len, HAL_MAX_DELAY);
 8002874:	19bb      	adds	r3, r7, r6
 8002876:	781b      	ldrb	r3, [r3, #0]
 8002878:	2b00      	cmp	r3, #0
 800287a:	d10a      	bne.n	8002892 <fram_read+0x76>
 800287c:	687b      	ldr	r3, [r7, #4]
 800287e:	b29a      	uxth	r2, r3
 8002880:	19bc      	adds	r4, r7, r6
 8002882:	2301      	movs	r3, #1
 8002884:	425b      	negs	r3, r3
 8002886:	68b9      	ldr	r1, [r7, #8]
 8002888:	4809      	ldr	r0, [pc, #36]	@ (80028b0 <fram_read+0x94>)
 800288a:	f002 fb2b 	bl	8004ee4 <HAL_SPI_Receive>
 800288e:	0003      	movs	r3, r0
 8002890:	7023      	strb	r3, [r4, #0]
    FRAM_CS_HIGH();
 8002892:	4b06      	ldr	r3, [pc, #24]	@ (80028ac <fram_read+0x90>)
 8002894:	2201      	movs	r2, #1
 8002896:	2101      	movs	r1, #1
 8002898:	0018      	movs	r0, r3
 800289a:	f001 fe87 	bl	80045ac <HAL_GPIO_WritePin>
    return st;
 800289e:	2317      	movs	r3, #23
 80028a0:	18fb      	adds	r3, r7, r3
 80028a2:	781b      	ldrb	r3, [r3, #0]
}
 80028a4:	0018      	movs	r0, r3
 80028a6:	46bd      	mov	sp, r7
 80028a8:	b007      	add	sp, #28
 80028aa:	bdf0      	pop	{r4, r5, r6, r7, pc}
 80028ac:	50000400 	.word	0x50000400
 80028b0:	200001f4 	.word	0x200001f4

080028b4 <fram_write>:

HAL_StatusTypeDef fram_write(uint16_t addr, const uint8_t* buf, size_t len)
{
 80028b4:	b5f0      	push	{r4, r5, r6, r7, lr}
 80028b6:	b087      	sub	sp, #28
 80028b8:	af00      	add	r7, sp, #0
 80028ba:	60b9      	str	r1, [r7, #8]
 80028bc:	607a      	str	r2, [r7, #4]
 80028be:	230e      	movs	r3, #14
 80028c0:	18fb      	adds	r3, r7, r3
 80028c2:	1c02      	adds	r2, r0, #0
 80028c4:	801a      	strh	r2, [r3, #0]
    HAL_StatusTypeDef st = fram_wren();
 80028c6:	2517      	movs	r5, #23
 80028c8:	197c      	adds	r4, r7, r5
 80028ca:	f7ff ff81 	bl	80027d0 <fram_wren>
 80028ce:	0003      	movs	r3, r0
 80028d0:	7023      	strb	r3, [r4, #0]
    if (st != HAL_OK) return st;
 80028d2:	002a      	movs	r2, r5
 80028d4:	18bb      	adds	r3, r7, r2
 80028d6:	781b      	ldrb	r3, [r3, #0]
 80028d8:	2b00      	cmp	r3, #0
 80028da:	d002      	beq.n	80028e2 <fram_write+0x2e>
 80028dc:	18bb      	adds	r3, r7, r2
 80028de:	781b      	ldrb	r3, [r3, #0]
 80028e0:	e03a      	b.n	8002958 <fram_write+0xa4>
    uint8_t hdr[3] = { 0x02u, (uint8_t)(addr >> 8), (uint8_t)addr };
 80028e2:	2114      	movs	r1, #20
 80028e4:	187b      	adds	r3, r7, r1
 80028e6:	2202      	movs	r2, #2
 80028e8:	701a      	strb	r2, [r3, #0]
 80028ea:	200e      	movs	r0, #14
 80028ec:	183b      	adds	r3, r7, r0
 80028ee:	881b      	ldrh	r3, [r3, #0]
 80028f0:	0a1b      	lsrs	r3, r3, #8
 80028f2:	b29b      	uxth	r3, r3
 80028f4:	b2da      	uxtb	r2, r3
 80028f6:	187b      	adds	r3, r7, r1
 80028f8:	705a      	strb	r2, [r3, #1]
 80028fa:	183b      	adds	r3, r7, r0
 80028fc:	881b      	ldrh	r3, [r3, #0]
 80028fe:	b2da      	uxtb	r2, r3
 8002900:	000d      	movs	r5, r1
 8002902:	187b      	adds	r3, r7, r1
 8002904:	709a      	strb	r2, [r3, #2]
    FRAM_CS_LOW();
 8002906:	4b16      	ldr	r3, [pc, #88]	@ (8002960 <fram_write+0xac>)
 8002908:	2200      	movs	r2, #0
 800290a:	2101      	movs	r1, #1
 800290c:	0018      	movs	r0, r3
 800290e:	f001 fe4d 	bl	80045ac <HAL_GPIO_WritePin>
    st = HAL_SPI_Transmit(&hspi1, hdr, 3, HAL_MAX_DELAY);
 8002912:	2617      	movs	r6, #23
 8002914:	19bc      	adds	r4, r7, r6
 8002916:	2301      	movs	r3, #1
 8002918:	425b      	negs	r3, r3
 800291a:	1979      	adds	r1, r7, r5
 800291c:	4811      	ldr	r0, [pc, #68]	@ (8002964 <fram_write+0xb0>)
 800291e:	2203      	movs	r2, #3
 8002920:	f002 f980 	bl	8004c24 <HAL_SPI_Transmit>
 8002924:	0003      	movs	r3, r0
 8002926:	7023      	strb	r3, [r4, #0]
    if (st == HAL_OK) st = HAL_SPI_Transmit(&hspi1, (uint8_t*)buf, len, HAL_MAX_DELAY);
 8002928:	19bb      	adds	r3, r7, r6
 800292a:	781b      	ldrb	r3, [r3, #0]
 800292c:	2b00      	cmp	r3, #0
 800292e:	d10a      	bne.n	8002946 <fram_write+0x92>
 8002930:	687b      	ldr	r3, [r7, #4]
 8002932:	b29a      	uxth	r2, r3
 8002934:	19bc      	adds	r4, r7, r6
 8002936:	2301      	movs	r3, #1
 8002938:	425b      	negs	r3, r3
 800293a:	68b9      	ldr	r1, [r7, #8]
 800293c:	4809      	ldr	r0, [pc, #36]	@ (8002964 <fram_write+0xb0>)
 800293e:	f002 f971 	bl	8004c24 <HAL_SPI_Transmit>
 8002942:	0003      	movs	r3, r0
 8002944:	7023      	strb	r3, [r4, #0]
    FRAM_CS_HIGH();
 8002946:	4b06      	ldr	r3, [pc, #24]	@ (8002960 <fram_write+0xac>)
 8002948:	2201      	movs	r2, #1
 800294a:	2101      	movs	r1, #1
 800294c:	0018      	movs	r0, r3
 800294e:	f001 fe2d 	bl	80045ac <HAL_GPIO_WritePin>
    return st;
 8002952:	2317      	movs	r3, #23
 8002954:	18fb      	adds	r3, r7, r3
 8002956:	781b      	ldrb	r3, [r3, #0]
}
 8002958:	0018      	movs	r0, r3
 800295a:	46bd      	mov	sp, r7
 800295c:	b007      	add	sp, #28
 800295e:	bdf0      	pop	{r4, r5, r6, r7, pc}
 8002960:	50000400 	.word	0x50000400
 8002964:	200001f4 	.word	0x200001f4

08002968 <fram_write_u16>:

/* 16-bit big-endian read/write of a word at 'a' */
static HAL_StatusTypeDef fram_write_u16(uint16_t a, uint16_t v)
{
 8002968:	b580      	push	{r7, lr}
 800296a:	b084      	sub	sp, #16
 800296c:	af00      	add	r7, sp, #0
 800296e:	0002      	movs	r2, r0
 8002970:	1dbb      	adds	r3, r7, #6
 8002972:	801a      	strh	r2, [r3, #0]
 8002974:	1d3b      	adds	r3, r7, #4
 8002976:	1c0a      	adds	r2, r1, #0
 8002978:	801a      	strh	r2, [r3, #0]
    uint8_t be[2] = { (uint8_t)(v >> 8), (uint8_t)(v & 0xFF) };
 800297a:	1d3b      	adds	r3, r7, #4
 800297c:	881b      	ldrh	r3, [r3, #0]
 800297e:	0a1b      	lsrs	r3, r3, #8
 8002980:	b29b      	uxth	r3, r3
 8002982:	b2da      	uxtb	r2, r3
 8002984:	210c      	movs	r1, #12
 8002986:	187b      	adds	r3, r7, r1
 8002988:	701a      	strb	r2, [r3, #0]
 800298a:	1d3b      	adds	r3, r7, #4
 800298c:	881b      	ldrh	r3, [r3, #0]
 800298e:	b2da      	uxtb	r2, r3
 8002990:	187b      	adds	r3, r7, r1
 8002992:	705a      	strb	r2, [r3, #1]
    return fram_write(a, be, 2);
 8002994:	1879      	adds	r1, r7, r1
 8002996:	1dbb      	adds	r3, r7, #6
 8002998:	881b      	ldrh	r3, [r3, #0]
 800299a:	2202      	movs	r2, #2
 800299c:	0018      	movs	r0, r3
 800299e:	f7ff ff89 	bl	80028b4 <fram_write>
 80029a2:	0003      	movs	r3, r0
}
 80029a4:	0018      	movs	r0, r3
 80029a6:	46bd      	mov	sp, r7
 80029a8:	b004      	add	sp, #16
 80029aa:	bd80      	pop	{r7, pc}

080029ac <fram_read_u16>:
static HAL_StatusTypeDef fram_read_u16(uint16_t a, uint16_t* out)
{
 80029ac:	b5f0      	push	{r4, r5, r6, r7, lr}
 80029ae:	b085      	sub	sp, #20
 80029b0:	af00      	add	r7, sp, #0
 80029b2:	0002      	movs	r2, r0
 80029b4:	6039      	str	r1, [r7, #0]
 80029b6:	1dbb      	adds	r3, r7, #6
 80029b8:	801a      	strh	r2, [r3, #0]
    uint8_t be[2] = {0,0};
 80029ba:	250c      	movs	r5, #12
 80029bc:	197b      	adds	r3, r7, r5
 80029be:	2200      	movs	r2, #0
 80029c0:	801a      	strh	r2, [r3, #0]
    HAL_StatusTypeDef st = fram_read(a, be, 2);
 80029c2:	260f      	movs	r6, #15
 80029c4:	19bc      	adds	r4, r7, r6
 80029c6:	1979      	adds	r1, r7, r5
 80029c8:	1dbb      	adds	r3, r7, #6
 80029ca:	881b      	ldrh	r3, [r3, #0]
 80029cc:	2202      	movs	r2, #2
 80029ce:	0018      	movs	r0, r3
 80029d0:	f7ff ff24 	bl	800281c <fram_read>
 80029d4:	0003      	movs	r3, r0
 80029d6:	7023      	strb	r3, [r4, #0]
    if (st == HAL_OK && out) *out = ((uint16_t)be[0] << 8) | be[1];
 80029d8:	19bb      	adds	r3, r7, r6
 80029da:	781b      	ldrb	r3, [r3, #0]
 80029dc:	2b00      	cmp	r3, #0
 80029de:	d10f      	bne.n	8002a00 <fram_read_u16+0x54>
 80029e0:	683b      	ldr	r3, [r7, #0]
 80029e2:	2b00      	cmp	r3, #0
 80029e4:	d00c      	beq.n	8002a00 <fram_read_u16+0x54>
 80029e6:	197b      	adds	r3, r7, r5
 80029e8:	781b      	ldrb	r3, [r3, #0]
 80029ea:	b21b      	sxth	r3, r3
 80029ec:	021b      	lsls	r3, r3, #8
 80029ee:	b21a      	sxth	r2, r3
 80029f0:	197b      	adds	r3, r7, r5
 80029f2:	785b      	ldrb	r3, [r3, #1]
 80029f4:	b21b      	sxth	r3, r3
 80029f6:	4313      	orrs	r3, r2
 80029f8:	b21b      	sxth	r3, r3
 80029fa:	b29a      	uxth	r2, r3
 80029fc:	683b      	ldr	r3, [r7, #0]
 80029fe:	801a      	strh	r2, [r3, #0]
    return st;
 8002a00:	230f      	movs	r3, #15
 8002a02:	18fb      	adds	r3, r7, r3
 8002a04:	781b      	ldrb	r3, [r3, #0]
}
 8002a06:	0018      	movs	r0, r3
 8002a08:	46bd      	mov	sp, r7
 8002a0a:	b005      	add	sp, #20
 8002a0c:	bdf0      	pop	{r4, r5, r6, r7, pc}
	...

08002a10 <fram_address_words_empty>:

/* returns 1 if the two address words look uninitialized (0xFFFF/0xFFFF or out of range) */
static int fram_address_words_empty(void)
{
 8002a10:	b580      	push	{r7, lr}
 8002a12:	b082      	sub	sp, #8
 8002a14:	af00      	add	r7, sp, #0
    uint16_t f = 0xFFFF, l = 0xFFFF;
 8002a16:	1dbb      	adds	r3, r7, #6
 8002a18:	2201      	movs	r2, #1
 8002a1a:	4252      	negs	r2, r2
 8002a1c:	801a      	strh	r2, [r3, #0]
 8002a1e:	1d3b      	adds	r3, r7, #4
 8002a20:	2201      	movs	r2, #1
 8002a22:	4252      	negs	r2, r2
 8002a24:	801a      	strh	r2, [r3, #0]
    (void)fram_read_u16(FRAM_WORD_FIRST_ADDR, &f);
 8002a26:	1dbb      	adds	r3, r7, #6
 8002a28:	0019      	movs	r1, r3
 8002a2a:	2000      	movs	r0, #0
 8002a2c:	f7ff ffbe 	bl	80029ac <fram_read_u16>
    (void)fram_read_u16(FRAM_WORD_LAST_ADDR,  &l);
 8002a30:	1d3b      	adds	r3, r7, #4
 8002a32:	0019      	movs	r1, r3
 8002a34:	2002      	movs	r0, #2
 8002a36:	f7ff ffb9 	bl	80029ac <fram_read_u16>
    if (f == 0xFFFF && l == 0xFFFF) return 1;                  /* factory/cleared */
 8002a3a:	1dbb      	adds	r3, r7, #6
 8002a3c:	881b      	ldrh	r3, [r3, #0]
 8002a3e:	4a18      	ldr	r2, [pc, #96]	@ (8002aa0 <fram_address_words_empty+0x90>)
 8002a40:	4293      	cmp	r3, r2
 8002a42:	d106      	bne.n	8002a52 <fram_address_words_empty+0x42>
 8002a44:	1d3b      	adds	r3, r7, #4
 8002a46:	881b      	ldrh	r3, [r3, #0]
 8002a48:	4a15      	ldr	r2, [pc, #84]	@ (8002aa0 <fram_address_words_empty+0x90>)
 8002a4a:	4293      	cmp	r3, r2
 8002a4c:	d101      	bne.n	8002a52 <fram_address_words_empty+0x42>
 8002a4e:	2301      	movs	r3, #1
 8002a50:	e021      	b.n	8002a96 <fram_address_words_empty+0x86>
    if (f < FRAM_DATA_START || f > FRAM_MAX_ADDR) return 1;    /* nonsense */
 8002a52:	1dbb      	adds	r3, r7, #6
 8002a54:	881b      	ldrh	r3, [r3, #0]
 8002a56:	2b03      	cmp	r3, #3
 8002a58:	d905      	bls.n	8002a66 <fram_address_words_empty+0x56>
 8002a5a:	1dbb      	adds	r3, r7, #6
 8002a5c:	881a      	ldrh	r2, [r3, #0]
 8002a5e:	2380      	movs	r3, #128	@ 0x80
 8002a60:	019b      	lsls	r3, r3, #6
 8002a62:	429a      	cmp	r2, r3
 8002a64:	d301      	bcc.n	8002a6a <fram_address_words_empty+0x5a>
 8002a66:	2301      	movs	r3, #1
 8002a68:	e015      	b.n	8002a96 <fram_address_words_empty+0x86>
    if (l < (FRAM_DATA_START - 2) || l > FRAM_MAX_ADDR) return 1;
 8002a6a:	1d3b      	adds	r3, r7, #4
 8002a6c:	881b      	ldrh	r3, [r3, #0]
 8002a6e:	2b01      	cmp	r3, #1
 8002a70:	d905      	bls.n	8002a7e <fram_address_words_empty+0x6e>
 8002a72:	1d3b      	adds	r3, r7, #4
 8002a74:	881a      	ldrh	r2, [r3, #0]
 8002a76:	2380      	movs	r3, #128	@ 0x80
 8002a78:	019b      	lsls	r3, r3, #6
 8002a7a:	429a      	cmp	r2, r3
 8002a7c:	d301      	bcc.n	8002a82 <fram_address_words_empty+0x72>
 8002a7e:	2301      	movs	r3, #1
 8002a80:	e009      	b.n	8002a96 <fram_address_words_empty+0x86>
    if ((uint32_t)l + 2u > (uint32_t)FRAM_MAX_ADDR + 1u) return 1;
 8002a82:	1d3b      	adds	r3, r7, #4
 8002a84:	881b      	ldrh	r3, [r3, #0]
 8002a86:	1c9a      	adds	r2, r3, #2
 8002a88:	2380      	movs	r3, #128	@ 0x80
 8002a8a:	019b      	lsls	r3, r3, #6
 8002a8c:	429a      	cmp	r2, r3
 8002a8e:	d901      	bls.n	8002a94 <fram_address_words_empty+0x84>
 8002a90:	2301      	movs	r3, #1
 8002a92:	e000      	b.n	8002a96 <fram_address_words_empty+0x86>
    return 0;
 8002a94:	2300      	movs	r3, #0
}
 8002a96:	0018      	movs	r0, r3
 8002a98:	46bd      	mov	sp, r7
 8002a9a:	b002      	add	sp, #8
 8002a9c:	bd80      	pop	{r7, pc}
 8002a9e:	46c0      	nop			@ (mov r8, r8)
 8002aa0:	0000ffff 	.word	0x0000ffff

08002aa4 <fram_logging_enabled>:

/* =========================
 * Assignment commands
 * ========================= */
bool fram_logging_enabled(void){ return g_logging_enabled != 0u; }
 8002aa4:	b580      	push	{r7, lr}
 8002aa6:	af00      	add	r7, sp, #0
 8002aa8:	4b04      	ldr	r3, [pc, #16]	@ (8002abc <fram_logging_enabled+0x18>)
 8002aaa:	781b      	ldrb	r3, [r3, #0]
 8002aac:	b2db      	uxtb	r3, r3
 8002aae:	1e5a      	subs	r2, r3, #1
 8002ab0:	4193      	sbcs	r3, r2
 8002ab2:	b2db      	uxtb	r3, r3
 8002ab4:	0018      	movs	r0, r3
 8002ab6:	46bd      	mov	sp, r7
 8002ab8:	bd80      	pop	{r7, pc}
 8002aba:	46c0      	nop			@ (mov r8, r8)
 8002abc:	20000258 	.word	0x20000258

08002ac0 <fram_get_first_last>:

HAL_StatusTypeDef fram_get_first_last(uint16_t* first, uint16_t* last)
{
 8002ac0:	b580      	push	{r7, lr}
 8002ac2:	b082      	sub	sp, #8
 8002ac4:	af00      	add	r7, sp, #0
 8002ac6:	6078      	str	r0, [r7, #4]
 8002ac8:	6039      	str	r1, [r7, #0]
    if (first) *first = g_first_addr;
 8002aca:	687b      	ldr	r3, [r7, #4]
 8002acc:	2b00      	cmp	r3, #0
 8002ace:	d003      	beq.n	8002ad8 <fram_get_first_last+0x18>
 8002ad0:	4b07      	ldr	r3, [pc, #28]	@ (8002af0 <fram_get_first_last+0x30>)
 8002ad2:	881a      	ldrh	r2, [r3, #0]
 8002ad4:	687b      	ldr	r3, [r7, #4]
 8002ad6:	801a      	strh	r2, [r3, #0]
    if (last)  *last  = g_last_addr;
 8002ad8:	683b      	ldr	r3, [r7, #0]
 8002ada:	2b00      	cmp	r3, #0
 8002adc:	d003      	beq.n	8002ae6 <fram_get_first_last+0x26>
 8002ade:	4b05      	ldr	r3, [pc, #20]	@ (8002af4 <fram_get_first_last+0x34>)
 8002ae0:	881a      	ldrh	r2, [r3, #0]
 8002ae2:	683b      	ldr	r3, [r7, #0]
 8002ae4:	801a      	strh	r2, [r3, #0]
    return HAL_OK;
 8002ae6:	2300      	movs	r3, #0
}
 8002ae8:	0018      	movs	r0, r3
 8002aea:	46bd      	mov	sp, r7
 8002aec:	b002      	add	sp, #8
 8002aee:	bd80      	pop	{r7, pc}
 8002af0:	20000000 	.word	0x20000000
 8002af4:	20000002 	.word	0x20000002

08002af8 <fram_cmd_start>:

void fram_cmd_start(void)
{
 8002af8:	b580      	push	{r7, lr}
 8002afa:	af00      	add	r7, sp, #0
    g_logging_enabled = 1u;
 8002afc:	4b13      	ldr	r3, [pc, #76]	@ (8002b4c <fram_cmd_start+0x54>)
 8002afe:	2201      	movs	r2, #1
 8002b00:	701a      	strb	r2, [r3, #0]

    if (fram_address_words_empty()) {
 8002b02:	f7ff ff85 	bl	8002a10 <fram_address_words_empty>
 8002b06:	1e03      	subs	r3, r0, #0
 8002b08:	d012      	beq.n	8002b30 <fram_cmd_start+0x38>
        g_first_addr = FRAM_DATA_START;
 8002b0a:	4b11      	ldr	r3, [pc, #68]	@ (8002b50 <fram_cmd_start+0x58>)
 8002b0c:	2204      	movs	r2, #4
 8002b0e:	801a      	strh	r2, [r3, #0]
        g_last_addr  = FRAM_DATA_START - 2u;   /* no samples yet */
 8002b10:	4b10      	ldr	r3, [pc, #64]	@ (8002b54 <fram_cmd_start+0x5c>)
 8002b12:	2202      	movs	r2, #2
 8002b14:	801a      	strh	r2, [r3, #0]
        (void)fram_write_u16(FRAM_WORD_FIRST_ADDR, g_first_addr);
 8002b16:	4b0e      	ldr	r3, [pc, #56]	@ (8002b50 <fram_cmd_start+0x58>)
 8002b18:	881b      	ldrh	r3, [r3, #0]
 8002b1a:	0019      	movs	r1, r3
 8002b1c:	2000      	movs	r0, #0
 8002b1e:	f7ff ff23 	bl	8002968 <fram_write_u16>
        (void)fram_write_u16(FRAM_WORD_LAST_ADDR,  g_last_addr);
 8002b22:	4b0c      	ldr	r3, [pc, #48]	@ (8002b54 <fram_cmd_start+0x5c>)
 8002b24:	881b      	ldrh	r3, [r3, #0]
 8002b26:	0019      	movs	r1, r3
 8002b28:	2002      	movs	r0, #2
 8002b2a:	f7ff ff1d 	bl	8002968 <fram_write_u16>
    } else {
        (void)fram_read_u16(FRAM_WORD_FIRST_ADDR, &g_first_addr);
        (void)fram_read_u16(FRAM_WORD_LAST_ADDR,  &g_last_addr);
    }
}
 8002b2e:	e009      	b.n	8002b44 <fram_cmd_start+0x4c>
        (void)fram_read_u16(FRAM_WORD_FIRST_ADDR, &g_first_addr);
 8002b30:	4b07      	ldr	r3, [pc, #28]	@ (8002b50 <fram_cmd_start+0x58>)
 8002b32:	0019      	movs	r1, r3
 8002b34:	2000      	movs	r0, #0
 8002b36:	f7ff ff39 	bl	80029ac <fram_read_u16>
        (void)fram_read_u16(FRAM_WORD_LAST_ADDR,  &g_last_addr);
 8002b3a:	4b06      	ldr	r3, [pc, #24]	@ (8002b54 <fram_cmd_start+0x5c>)
 8002b3c:	0019      	movs	r1, r3
 8002b3e:	2002      	movs	r0, #2
 8002b40:	f7ff ff34 	bl	80029ac <fram_read_u16>
}
 8002b44:	46c0      	nop			@ (mov r8, r8)
 8002b46:	46bd      	mov	sp, r7
 8002b48:	bd80      	pop	{r7, pc}
 8002b4a:	46c0      	nop			@ (mov r8, r8)
 8002b4c:	20000258 	.word	0x20000258
 8002b50:	20000000 	.word	0x20000000
 8002b54:	20000002 	.word	0x20000002

08002b58 <fram_cmd_stop>:

void fram_cmd_stop(void)
{
 8002b58:	b580      	push	{r7, lr}
 8002b5a:	af00      	add	r7, sp, #0
    g_logging_enabled = 0u;
 8002b5c:	4b02      	ldr	r3, [pc, #8]	@ (8002b68 <fram_cmd_stop+0x10>)
 8002b5e:	2200      	movs	r2, #0
 8002b60:	701a      	strb	r2, [r3, #0]
}
 8002b62:	46c0      	nop			@ (mov r8, r8)
 8002b64:	46bd      	mov	sp, r7
 8002b66:	bd80      	pop	{r7, pc}
 8002b68:	20000258 	.word	0x20000258

08002b6c <fram_cmd_clear>:

void fram_cmd_clear(void)
{
 8002b6c:	b580      	push	{r7, lr}
 8002b6e:	b082      	sub	sp, #8
 8002b70:	af00      	add	r7, sp, #0
    /* Mark header as empty by writing 0xFFFF to both words */
    uint16_t ff = 0xFFFFu;
 8002b72:	1dbb      	adds	r3, r7, #6
 8002b74:	2201      	movs	r2, #1
 8002b76:	4252      	negs	r2, r2
 8002b78:	801a      	strh	r2, [r3, #0]
    (void)fram_write(FRAM_WORD_FIRST_ADDR, (uint8_t*)&ff, 2);
 8002b7a:	1dbb      	adds	r3, r7, #6
 8002b7c:	2202      	movs	r2, #2
 8002b7e:	0019      	movs	r1, r3
 8002b80:	2000      	movs	r0, #0
 8002b82:	f7ff fe97 	bl	80028b4 <fram_write>
    (void)fram_write(FRAM_WORD_LAST_ADDR,  (uint8_t*)&ff, 2);
 8002b86:	1dbb      	adds	r3, r7, #6
 8002b88:	2202      	movs	r2, #2
 8002b8a:	0019      	movs	r1, r3
 8002b8c:	2002      	movs	r0, #2
 8002b8e:	f7ff fe91 	bl	80028b4 <fram_write>
    g_first_addr = FRAM_DATA_START;
 8002b92:	4b05      	ldr	r3, [pc, #20]	@ (8002ba8 <fram_cmd_clear+0x3c>)
 8002b94:	2204      	movs	r2, #4
 8002b96:	801a      	strh	r2, [r3, #0]
    g_last_addr  = FRAM_DATA_START - 2u;
 8002b98:	4b04      	ldr	r3, [pc, #16]	@ (8002bac <fram_cmd_clear+0x40>)
 8002b9a:	2202      	movs	r2, #2
 8002b9c:	801a      	strh	r2, [r3, #0]
}
 8002b9e:	46c0      	nop			@ (mov r8, r8)
 8002ba0:	46bd      	mov	sp, r7
 8002ba2:	b002      	add	sp, #8
 8002ba4:	bd80      	pop	{r7, pc}
 8002ba6:	46c0      	nop			@ (mov r8, r8)
 8002ba8:	20000000 	.word	0x20000000
 8002bac:	20000002 	.word	0x20000002

08002bb0 <fram_log_sample_on_data>:

/* Pass the raw 16-bit TMP102 reading here once per second */
void fram_log_sample_on_data(uint16_t tmp102_raw)
{
 8002bb0:	b590      	push	{r4, r7, lr}
 8002bb2:	b085      	sub	sp, #20
 8002bb4:	af00      	add	r7, sp, #0
 8002bb6:	0002      	movs	r2, r0
 8002bb8:	1dbb      	adds	r3, r7, #6
 8002bba:	801a      	strh	r2, [r3, #0]
    if (!g_logging_enabled) return;
 8002bbc:	4b15      	ldr	r3, [pc, #84]	@ (8002c14 <fram_log_sample_on_data+0x64>)
 8002bbe:	781b      	ldrb	r3, [r3, #0]
 8002bc0:	b2db      	uxtb	r3, r3
 8002bc2:	2b00      	cmp	r3, #0
 8002bc4:	d022      	beq.n	8002c0c <fram_log_sample_on_data+0x5c>

    uint16_t next = (uint16_t)(g_last_addr + 2u);
 8002bc6:	4b14      	ldr	r3, [pc, #80]	@ (8002c18 <fram_log_sample_on_data+0x68>)
 8002bc8:	881a      	ldrh	r2, [r3, #0]
 8002bca:	210e      	movs	r1, #14
 8002bcc:	187b      	adds	r3, r7, r1
 8002bce:	3202      	adds	r2, #2
 8002bd0:	801a      	strh	r2, [r3, #0]
    if (next > (FRAM_MAX_ADDR - 1u)) {
 8002bd2:	187b      	adds	r3, r7, r1
 8002bd4:	881b      	ldrh	r3, [r3, #0]
 8002bd6:	4a11      	ldr	r2, [pc, #68]	@ (8002c1c <fram_log_sample_on_data+0x6c>)
 8002bd8:	4293      	cmp	r3, r2
 8002bda:	d903      	bls.n	8002be4 <fram_log_sample_on_data+0x34>
        /* out of space  stop logging gracefully */
        g_logging_enabled = 0u;
 8002bdc:	4b0d      	ldr	r3, [pc, #52]	@ (8002c14 <fram_log_sample_on_data+0x64>)
 8002bde:	2200      	movs	r2, #0
 8002be0:	701a      	strb	r2, [r3, #0]
        return;
 8002be2:	e014      	b.n	8002c0e <fram_log_sample_on_data+0x5e>
    }

    /* store as two bytes, big-endian */
    (void)fram_write_u16(next, (uint16_t)tmp102_raw);
 8002be4:	1dbb      	adds	r3, r7, #6
 8002be6:	881a      	ldrh	r2, [r3, #0]
 8002be8:	240e      	movs	r4, #14
 8002bea:	193b      	adds	r3, r7, r4
 8002bec:	881b      	ldrh	r3, [r3, #0]
 8002bee:	0011      	movs	r1, r2
 8002bf0:	0018      	movs	r0, r3
 8002bf2:	f7ff feb9 	bl	8002968 <fram_write_u16>

    /* update last address word in FRAM */
    g_last_addr = next;
 8002bf6:	4b08      	ldr	r3, [pc, #32]	@ (8002c18 <fram_log_sample_on_data+0x68>)
 8002bf8:	193a      	adds	r2, r7, r4
 8002bfa:	8812      	ldrh	r2, [r2, #0]
 8002bfc:	801a      	strh	r2, [r3, #0]
    (void)fram_write_u16(FRAM_WORD_LAST_ADDR, g_last_addr);
 8002bfe:	4b06      	ldr	r3, [pc, #24]	@ (8002c18 <fram_log_sample_on_data+0x68>)
 8002c00:	881b      	ldrh	r3, [r3, #0]
 8002c02:	0019      	movs	r1, r3
 8002c04:	2002      	movs	r0, #2
 8002c06:	f7ff feaf 	bl	8002968 <fram_write_u16>
 8002c0a:	e000      	b.n	8002c0e <fram_log_sample_on_data+0x5e>
    if (!g_logging_enabled) return;
 8002c0c:	46c0      	nop			@ (mov r8, r8)
}
 8002c0e:	46bd      	mov	sp, r7
 8002c10:	b005      	add	sp, #20
 8002c12:	bd90      	pop	{r4, r7, pc}
 8002c14:	20000258 	.word	0x20000258
 8002c18:	20000002 	.word	0x20000002
 8002c1c:	00001ffe 	.word	0x00001ffe

08002c20 <I2C1_Init_PB8PB9_100k_HSI16>:
#include <stdio.h>

/* ===== Low-level I2C1 (register-level, NO HAL handle) ===== */

void I2C1_Init_PB8PB9_100k_HSI16(void)
{
 8002c20:	b580      	push	{r7, lr}
 8002c22:	af00      	add	r7, sp, #0
    RCC->IOPENR  |= RCC_IOPENR_GPIOBEN;
 8002c24:	4b2d      	ldr	r3, [pc, #180]	@ (8002cdc <I2C1_Init_PB8PB9_100k_HSI16+0xbc>)
 8002c26:	6b5a      	ldr	r2, [r3, #52]	@ 0x34
 8002c28:	4b2c      	ldr	r3, [pc, #176]	@ (8002cdc <I2C1_Init_PB8PB9_100k_HSI16+0xbc>)
 8002c2a:	2102      	movs	r1, #2
 8002c2c:	430a      	orrs	r2, r1
 8002c2e:	635a      	str	r2, [r3, #52]	@ 0x34
    RCC->APBENR1 |= RCC_APBENR1_I2C1EN;
 8002c30:	4b2a      	ldr	r3, [pc, #168]	@ (8002cdc <I2C1_Init_PB8PB9_100k_HSI16+0xbc>)
 8002c32:	6bda      	ldr	r2, [r3, #60]	@ 0x3c
 8002c34:	4b29      	ldr	r3, [pc, #164]	@ (8002cdc <I2C1_Init_PB8PB9_100k_HSI16+0xbc>)
 8002c36:	2180      	movs	r1, #128	@ 0x80
 8002c38:	0389      	lsls	r1, r1, #14
 8002c3a:	430a      	orrs	r2, r1
 8002c3c:	63da      	str	r2, [r3, #60]	@ 0x3c

    /* PB8=SCL, PB9=SDA (AF6), open-drain, pull-ups, medium speed */
    GPIOB->MODER   &= ~((3u<<(8*2)) | (3u<<(9*2)));
 8002c3e:	4b28      	ldr	r3, [pc, #160]	@ (8002ce0 <I2C1_Init_PB8PB9_100k_HSI16+0xc0>)
 8002c40:	681a      	ldr	r2, [r3, #0]
 8002c42:	4b27      	ldr	r3, [pc, #156]	@ (8002ce0 <I2C1_Init_PB8PB9_100k_HSI16+0xc0>)
 8002c44:	4927      	ldr	r1, [pc, #156]	@ (8002ce4 <I2C1_Init_PB8PB9_100k_HSI16+0xc4>)
 8002c46:	400a      	ands	r2, r1
 8002c48:	601a      	str	r2, [r3, #0]
    GPIOB->MODER   |=  ((2u<<(8*2)) | (2u<<(9*2)));
 8002c4a:	4b25      	ldr	r3, [pc, #148]	@ (8002ce0 <I2C1_Init_PB8PB9_100k_HSI16+0xc0>)
 8002c4c:	681a      	ldr	r2, [r3, #0]
 8002c4e:	4b24      	ldr	r3, [pc, #144]	@ (8002ce0 <I2C1_Init_PB8PB9_100k_HSI16+0xc0>)
 8002c50:	21a0      	movs	r1, #160	@ 0xa0
 8002c52:	0309      	lsls	r1, r1, #12
 8002c54:	430a      	orrs	r2, r1
 8002c56:	601a      	str	r2, [r3, #0]
    GPIOB->AFR[1]  &= ~((0xFu<<((8-8)*4)) | (0xFu<<((9-8)*4)));
 8002c58:	4b21      	ldr	r3, [pc, #132]	@ (8002ce0 <I2C1_Init_PB8PB9_100k_HSI16+0xc0>)
 8002c5a:	6a5a      	ldr	r2, [r3, #36]	@ 0x24
 8002c5c:	4b20      	ldr	r3, [pc, #128]	@ (8002ce0 <I2C1_Init_PB8PB9_100k_HSI16+0xc0>)
 8002c5e:	21ff      	movs	r1, #255	@ 0xff
 8002c60:	438a      	bics	r2, r1
 8002c62:	625a      	str	r2, [r3, #36]	@ 0x24
    GPIOB->AFR[1]  |=  ((6u<<((8-8)*4)) | (6u<<((9-8)*4)));
 8002c64:	4b1e      	ldr	r3, [pc, #120]	@ (8002ce0 <I2C1_Init_PB8PB9_100k_HSI16+0xc0>)
 8002c66:	6a5a      	ldr	r2, [r3, #36]	@ 0x24
 8002c68:	4b1d      	ldr	r3, [pc, #116]	@ (8002ce0 <I2C1_Init_PB8PB9_100k_HSI16+0xc0>)
 8002c6a:	2166      	movs	r1, #102	@ 0x66
 8002c6c:	430a      	orrs	r2, r1
 8002c6e:	625a      	str	r2, [r3, #36]	@ 0x24
    GPIOB->OTYPER  |=  (1u<<8) | (1u<<9);
 8002c70:	4b1b      	ldr	r3, [pc, #108]	@ (8002ce0 <I2C1_Init_PB8PB9_100k_HSI16+0xc0>)
 8002c72:	685a      	ldr	r2, [r3, #4]
 8002c74:	4b1a      	ldr	r3, [pc, #104]	@ (8002ce0 <I2C1_Init_PB8PB9_100k_HSI16+0xc0>)
 8002c76:	21c0      	movs	r1, #192	@ 0xc0
 8002c78:	0089      	lsls	r1, r1, #2
 8002c7a:	430a      	orrs	r2, r1
 8002c7c:	605a      	str	r2, [r3, #4]
    GPIOB->PUPDR   &= ~((3u<<(8*2)) | (3u<<(9*2)));
 8002c7e:	4b18      	ldr	r3, [pc, #96]	@ (8002ce0 <I2C1_Init_PB8PB9_100k_HSI16+0xc0>)
 8002c80:	68da      	ldr	r2, [r3, #12]
 8002c82:	4b17      	ldr	r3, [pc, #92]	@ (8002ce0 <I2C1_Init_PB8PB9_100k_HSI16+0xc0>)
 8002c84:	4917      	ldr	r1, [pc, #92]	@ (8002ce4 <I2C1_Init_PB8PB9_100k_HSI16+0xc4>)
 8002c86:	400a      	ands	r2, r1
 8002c88:	60da      	str	r2, [r3, #12]
    GPIOB->PUPDR   |=  ((1u<<(8*2)) | (1u<<(9*2)));
 8002c8a:	4b15      	ldr	r3, [pc, #84]	@ (8002ce0 <I2C1_Init_PB8PB9_100k_HSI16+0xc0>)
 8002c8c:	68da      	ldr	r2, [r3, #12]
 8002c8e:	4b14      	ldr	r3, [pc, #80]	@ (8002ce0 <I2C1_Init_PB8PB9_100k_HSI16+0xc0>)
 8002c90:	21a0      	movs	r1, #160	@ 0xa0
 8002c92:	02c9      	lsls	r1, r1, #11
 8002c94:	430a      	orrs	r2, r1
 8002c96:	60da      	str	r2, [r3, #12]
    GPIOB->OSPEEDR |=  ((1u<<(8*2)) | (1u<<(9*2)));
 8002c98:	4b11      	ldr	r3, [pc, #68]	@ (8002ce0 <I2C1_Init_PB8PB9_100k_HSI16+0xc0>)
 8002c9a:	689a      	ldr	r2, [r3, #8]
 8002c9c:	4b10      	ldr	r3, [pc, #64]	@ (8002ce0 <I2C1_Init_PB8PB9_100k_HSI16+0xc0>)
 8002c9e:	21a0      	movs	r1, #160	@ 0xa0
 8002ca0:	02c9      	lsls	r1, r1, #11
 8002ca2:	430a      	orrs	r2, r1
 8002ca4:	609a      	str	r2, [r3, #8]

    /* I2C1 kernel clock = HSI16 (stable) */
#if defined(RCC_CCIPR_I2C1SEL_Pos)
    RCC->CCIPR = (RCC->CCIPR & ~RCC_CCIPR_I2C1SEL_Msk) | (0x2u << RCC_CCIPR_I2C1SEL_Pos);
 8002ca6:	4b0d      	ldr	r3, [pc, #52]	@ (8002cdc <I2C1_Init_PB8PB9_100k_HSI16+0xbc>)
 8002ca8:	6d5b      	ldr	r3, [r3, #84]	@ 0x54
 8002caa:	4a0f      	ldr	r2, [pc, #60]	@ (8002ce8 <I2C1_Init_PB8PB9_100k_HSI16+0xc8>)
 8002cac:	401a      	ands	r2, r3
 8002cae:	4b0b      	ldr	r3, [pc, #44]	@ (8002cdc <I2C1_Init_PB8PB9_100k_HSI16+0xbc>)
 8002cb0:	2180      	movs	r1, #128	@ 0x80
 8002cb2:	0189      	lsls	r1, r1, #6
 8002cb4:	430a      	orrs	r2, r1
 8002cb6:	655a      	str	r2, [r3, #84]	@ 0x54
#endif

    I2C1->CR1 &= ~I2C_CR1_PE;
 8002cb8:	4b0c      	ldr	r3, [pc, #48]	@ (8002cec <I2C1_Init_PB8PB9_100k_HSI16+0xcc>)
 8002cba:	681a      	ldr	r2, [r3, #0]
 8002cbc:	4b0b      	ldr	r3, [pc, #44]	@ (8002cec <I2C1_Init_PB8PB9_100k_HSI16+0xcc>)
 8002cbe:	2101      	movs	r1, #1
 8002cc0:	438a      	bics	r2, r1
 8002cc2:	601a      	str	r2, [r3, #0]
    /* Timing: 100 kHz @ 16 MHz kernel clock */
    I2C1->TIMINGR = 0x00503D58u;
 8002cc4:	4b09      	ldr	r3, [pc, #36]	@ (8002cec <I2C1_Init_PB8PB9_100k_HSI16+0xcc>)
 8002cc6:	4a0a      	ldr	r2, [pc, #40]	@ (8002cf0 <I2C1_Init_PB8PB9_100k_HSI16+0xd0>)
 8002cc8:	611a      	str	r2, [r3, #16]
    I2C1->CR1 |= I2C_CR1_PE;
 8002cca:	4b08      	ldr	r3, [pc, #32]	@ (8002cec <I2C1_Init_PB8PB9_100k_HSI16+0xcc>)
 8002ccc:	681a      	ldr	r2, [r3, #0]
 8002cce:	4b07      	ldr	r3, [pc, #28]	@ (8002cec <I2C1_Init_PB8PB9_100k_HSI16+0xcc>)
 8002cd0:	2101      	movs	r1, #1
 8002cd2:	430a      	orrs	r2, r1
 8002cd4:	601a      	str	r2, [r3, #0]
}
 8002cd6:	46c0      	nop			@ (mov r8, r8)
 8002cd8:	46bd      	mov	sp, r7
 8002cda:	bd80      	pop	{r7, pc}
 8002cdc:	40021000 	.word	0x40021000
 8002ce0:	50000400 	.word	0x50000400
 8002ce4:	fff0ffff 	.word	0xfff0ffff
 8002ce8:	ffffcfff 	.word	0xffffcfff
 8002cec:	40005400 	.word	0x40005400
 8002cf0:	00503d58 	.word	0x00503d58

08002cf4 <wait_flag_set>:

/* Small bounded-spin helper */
static inline int wait_flag_set(volatile uint32_t *reg, uint32_t mask, uint32_t max_iter)
{
 8002cf4:	b580      	push	{r7, lr}
 8002cf6:	b084      	sub	sp, #16
 8002cf8:	af00      	add	r7, sp, #0
 8002cfa:	60f8      	str	r0, [r7, #12]
 8002cfc:	60b9      	str	r1, [r7, #8]
 8002cfe:	607a      	str	r2, [r7, #4]
    while (((*reg) & mask) == 0u) {
 8002d00:	e007      	b.n	8002d12 <wait_flag_set+0x1e>
        if (max_iter-- == 0u) return -1;
 8002d02:	687b      	ldr	r3, [r7, #4]
 8002d04:	1e5a      	subs	r2, r3, #1
 8002d06:	607a      	str	r2, [r7, #4]
 8002d08:	2b00      	cmp	r3, #0
 8002d0a:	d102      	bne.n	8002d12 <wait_flag_set+0x1e>
 8002d0c:	2301      	movs	r3, #1
 8002d0e:	425b      	negs	r3, r3
 8002d10:	e005      	b.n	8002d1e <wait_flag_set+0x2a>
    while (((*reg) & mask) == 0u) {
 8002d12:	68fb      	ldr	r3, [r7, #12]
 8002d14:	681b      	ldr	r3, [r3, #0]
 8002d16:	68ba      	ldr	r2, [r7, #8]
 8002d18:	4013      	ands	r3, r2
 8002d1a:	d0f2      	beq.n	8002d02 <wait_flag_set+0xe>
    }
    return 0;
 8002d1c:	2300      	movs	r3, #0
}
 8002d1e:	0018      	movs	r0, r3
 8002d20:	46bd      	mov	sp, r7
 8002d22:	b004      	add	sp, #16
 8002d24:	bd80      	pop	{r7, pc}

08002d26 <wait_flag_clr>:
static inline int wait_flag_clr(volatile uint32_t *reg, uint32_t mask, uint32_t max_iter)
{
 8002d26:	b580      	push	{r7, lr}
 8002d28:	b084      	sub	sp, #16
 8002d2a:	af00      	add	r7, sp, #0
 8002d2c:	60f8      	str	r0, [r7, #12]
 8002d2e:	60b9      	str	r1, [r7, #8]
 8002d30:	607a      	str	r2, [r7, #4]
    while (((*reg) & mask) != 0u) {
 8002d32:	e007      	b.n	8002d44 <wait_flag_clr+0x1e>
        if (max_iter-- == 0u) return -1;
 8002d34:	687b      	ldr	r3, [r7, #4]
 8002d36:	1e5a      	subs	r2, r3, #1
 8002d38:	607a      	str	r2, [r7, #4]
 8002d3a:	2b00      	cmp	r3, #0
 8002d3c:	d102      	bne.n	8002d44 <wait_flag_clr+0x1e>
 8002d3e:	2301      	movs	r3, #1
 8002d40:	425b      	negs	r3, r3
 8002d42:	e005      	b.n	8002d50 <wait_flag_clr+0x2a>
    while (((*reg) & mask) != 0u) {
 8002d44:	68fb      	ldr	r3, [r7, #12]
 8002d46:	681b      	ldr	r3, [r3, #0]
 8002d48:	68ba      	ldr	r2, [r7, #8]
 8002d4a:	4013      	ands	r3, r2
 8002d4c:	d1f2      	bne.n	8002d34 <wait_flag_clr+0xe>
    }
    return 0;
 8002d4e:	2300      	movs	r3, #0
}
 8002d50:	0018      	movs	r0, r3
 8002d52:	46bd      	mov	sp, r7
 8002d54:	b004      	add	sp, #16
 8002d56:	bd80      	pop	{r7, pc}

08002d58 <I2C1_MemRead>:

#define I2C_SPIN  200000u

int I2C1_MemRead(uint8_t addr7, uint8_t reg, uint8_t *buf, uint32_t len)
{
 8002d58:	b580      	push	{r7, lr}
 8002d5a:	b086      	sub	sp, #24
 8002d5c:	af00      	add	r7, sp, #0
 8002d5e:	60ba      	str	r2, [r7, #8]
 8002d60:	607b      	str	r3, [r7, #4]
 8002d62:	230f      	movs	r3, #15
 8002d64:	18fb      	adds	r3, r7, r3
 8002d66:	1c02      	adds	r2, r0, #0
 8002d68:	701a      	strb	r2, [r3, #0]
 8002d6a:	230e      	movs	r3, #14
 8002d6c:	18fb      	adds	r3, r7, r3
 8002d6e:	1c0a      	adds	r2, r1, #0
 8002d70:	701a      	strb	r2, [r3, #0]
    if (!len || !buf) return -1;
 8002d72:	687b      	ldr	r3, [r7, #4]
 8002d74:	2b00      	cmp	r3, #0
 8002d76:	d002      	beq.n	8002d7e <I2C1_MemRead+0x26>
 8002d78:	68bb      	ldr	r3, [r7, #8]
 8002d7a:	2b00      	cmp	r3, #0
 8002d7c:	d102      	bne.n	8002d84 <I2C1_MemRead+0x2c>
 8002d7e:	2301      	movs	r3, #1
 8002d80:	425b      	negs	r3, r3
 8002d82:	e072      	b.n	8002e6a <I2C1_MemRead+0x112>
    if (wait_flag_clr(&I2C1->ISR, I2C_ISR_BUSY, I2C_SPIN)) return -10;
 8002d84:	4a3b      	ldr	r2, [pc, #236]	@ (8002e74 <I2C1_MemRead+0x11c>)
 8002d86:	2380      	movs	r3, #128	@ 0x80
 8002d88:	021b      	lsls	r3, r3, #8
 8002d8a:	483b      	ldr	r0, [pc, #236]	@ (8002e78 <I2C1_MemRead+0x120>)
 8002d8c:	0019      	movs	r1, r3
 8002d8e:	f7ff ffca 	bl	8002d26 <wait_flag_clr>
 8002d92:	1e03      	subs	r3, r0, #0
 8002d94:	d002      	beq.n	8002d9c <I2C1_MemRead+0x44>
 8002d96:	230a      	movs	r3, #10
 8002d98:	425b      	negs	r3, r3
 8002d9a:	e066      	b.n	8002e6a <I2C1_MemRead+0x112>

    /* Write register address */
    I2C1->CR2 = ((uint32_t)addr7 << 1) | (1u << 16); /* NBYTES=1 */
 8002d9c:	230f      	movs	r3, #15
 8002d9e:	18fb      	adds	r3, r7, r3
 8002da0:	781b      	ldrb	r3, [r3, #0]
 8002da2:	005a      	lsls	r2, r3, #1
 8002da4:	4b35      	ldr	r3, [pc, #212]	@ (8002e7c <I2C1_MemRead+0x124>)
 8002da6:	2180      	movs	r1, #128	@ 0x80
 8002da8:	0249      	lsls	r1, r1, #9
 8002daa:	430a      	orrs	r2, r1
 8002dac:	605a      	str	r2, [r3, #4]
    I2C1->CR2 &= ~I2C_CR2_RD_WRN;
 8002dae:	4b33      	ldr	r3, [pc, #204]	@ (8002e7c <I2C1_MemRead+0x124>)
 8002db0:	685a      	ldr	r2, [r3, #4]
 8002db2:	4b32      	ldr	r3, [pc, #200]	@ (8002e7c <I2C1_MemRead+0x124>)
 8002db4:	4932      	ldr	r1, [pc, #200]	@ (8002e80 <I2C1_MemRead+0x128>)
 8002db6:	400a      	ands	r2, r1
 8002db8:	605a      	str	r2, [r3, #4]
    I2C1->CR2 |=  I2C_CR2_START;
 8002dba:	4b30      	ldr	r3, [pc, #192]	@ (8002e7c <I2C1_MemRead+0x124>)
 8002dbc:	685a      	ldr	r2, [r3, #4]
 8002dbe:	4b2f      	ldr	r3, [pc, #188]	@ (8002e7c <I2C1_MemRead+0x124>)
 8002dc0:	2180      	movs	r1, #128	@ 0x80
 8002dc2:	0189      	lsls	r1, r1, #6
 8002dc4:	430a      	orrs	r2, r1
 8002dc6:	605a      	str	r2, [r3, #4]
    if (wait_flag_set(&I2C1->ISR, I2C_ISR_TXIS, I2C_SPIN)) return -11;
 8002dc8:	4a2a      	ldr	r2, [pc, #168]	@ (8002e74 <I2C1_MemRead+0x11c>)
 8002dca:	4b2b      	ldr	r3, [pc, #172]	@ (8002e78 <I2C1_MemRead+0x120>)
 8002dcc:	2102      	movs	r1, #2
 8002dce:	0018      	movs	r0, r3
 8002dd0:	f7ff ff90 	bl	8002cf4 <wait_flag_set>
 8002dd4:	1e03      	subs	r3, r0, #0
 8002dd6:	d002      	beq.n	8002dde <I2C1_MemRead+0x86>
 8002dd8:	230b      	movs	r3, #11
 8002dda:	425b      	negs	r3, r3
 8002ddc:	e045      	b.n	8002e6a <I2C1_MemRead+0x112>
    I2C1->TXDR = reg;
 8002dde:	4b27      	ldr	r3, [pc, #156]	@ (8002e7c <I2C1_MemRead+0x124>)
 8002de0:	220e      	movs	r2, #14
 8002de2:	18ba      	adds	r2, r7, r2
 8002de4:	7812      	ldrb	r2, [r2, #0]
 8002de6:	629a      	str	r2, [r3, #40]	@ 0x28
    if (wait_flag_set(&I2C1->ISR, I2C_ISR_TC, I2C_SPIN))   return -12;
 8002de8:	4a22      	ldr	r2, [pc, #136]	@ (8002e74 <I2C1_MemRead+0x11c>)
 8002dea:	4b23      	ldr	r3, [pc, #140]	@ (8002e78 <I2C1_MemRead+0x120>)
 8002dec:	2140      	movs	r1, #64	@ 0x40
 8002dee:	0018      	movs	r0, r3
 8002df0:	f7ff ff80 	bl	8002cf4 <wait_flag_set>
 8002df4:	1e03      	subs	r3, r0, #0
 8002df6:	d002      	beq.n	8002dfe <I2C1_MemRead+0xa6>
 8002df8:	230c      	movs	r3, #12
 8002dfa:	425b      	negs	r3, r3
 8002dfc:	e035      	b.n	8002e6a <I2C1_MemRead+0x112>

    /* Read N bytes */
    I2C1->CR2 = ((uint32_t)addr7 << 1) | (len << 16) | I2C_CR2_RD_WRN | I2C_CR2_START | I2C_CR2_AUTOEND;
 8002dfe:	230f      	movs	r3, #15
 8002e00:	18fb      	adds	r3, r7, r3
 8002e02:	781b      	ldrb	r3, [r3, #0]
 8002e04:	005a      	lsls	r2, r3, #1
 8002e06:	687b      	ldr	r3, [r7, #4]
 8002e08:	041b      	lsls	r3, r3, #16
 8002e0a:	431a      	orrs	r2, r3
 8002e0c:	4b1b      	ldr	r3, [pc, #108]	@ (8002e7c <I2C1_MemRead+0x124>)
 8002e0e:	491d      	ldr	r1, [pc, #116]	@ (8002e84 <I2C1_MemRead+0x12c>)
 8002e10:	430a      	orrs	r2, r1
 8002e12:	605a      	str	r2, [r3, #4]
    for (uint32_t i = 0; i < len; ++i) {
 8002e14:	2300      	movs	r3, #0
 8002e16:	617b      	str	r3, [r7, #20]
 8002e18:	e014      	b.n	8002e44 <I2C1_MemRead+0xec>
        if (wait_flag_set(&I2C1->ISR, I2C_ISR_RXNE, I2C_SPIN)) return -13;
 8002e1a:	4a16      	ldr	r2, [pc, #88]	@ (8002e74 <I2C1_MemRead+0x11c>)
 8002e1c:	4b16      	ldr	r3, [pc, #88]	@ (8002e78 <I2C1_MemRead+0x120>)
 8002e1e:	2104      	movs	r1, #4
 8002e20:	0018      	movs	r0, r3
 8002e22:	f7ff ff67 	bl	8002cf4 <wait_flag_set>
 8002e26:	1e03      	subs	r3, r0, #0
 8002e28:	d002      	beq.n	8002e30 <I2C1_MemRead+0xd8>
 8002e2a:	230d      	movs	r3, #13
 8002e2c:	425b      	negs	r3, r3
 8002e2e:	e01c      	b.n	8002e6a <I2C1_MemRead+0x112>
        buf[i] = (uint8_t)I2C1->RXDR;
 8002e30:	4b12      	ldr	r3, [pc, #72]	@ (8002e7c <I2C1_MemRead+0x124>)
 8002e32:	6a59      	ldr	r1, [r3, #36]	@ 0x24
 8002e34:	68ba      	ldr	r2, [r7, #8]
 8002e36:	697b      	ldr	r3, [r7, #20]
 8002e38:	18d3      	adds	r3, r2, r3
 8002e3a:	b2ca      	uxtb	r2, r1
 8002e3c:	701a      	strb	r2, [r3, #0]
    for (uint32_t i = 0; i < len; ++i) {
 8002e3e:	697b      	ldr	r3, [r7, #20]
 8002e40:	3301      	adds	r3, #1
 8002e42:	617b      	str	r3, [r7, #20]
 8002e44:	697a      	ldr	r2, [r7, #20]
 8002e46:	687b      	ldr	r3, [r7, #4]
 8002e48:	429a      	cmp	r2, r3
 8002e4a:	d3e6      	bcc.n	8002e1a <I2C1_MemRead+0xc2>
    }
    if (wait_flag_set(&I2C1->ISR, I2C_ISR_STOPF, I2C_SPIN)) return -14;
 8002e4c:	4a09      	ldr	r2, [pc, #36]	@ (8002e74 <I2C1_MemRead+0x11c>)
 8002e4e:	4b0a      	ldr	r3, [pc, #40]	@ (8002e78 <I2C1_MemRead+0x120>)
 8002e50:	2120      	movs	r1, #32
 8002e52:	0018      	movs	r0, r3
 8002e54:	f7ff ff4e 	bl	8002cf4 <wait_flag_set>
 8002e58:	1e03      	subs	r3, r0, #0
 8002e5a:	d002      	beq.n	8002e62 <I2C1_MemRead+0x10a>
 8002e5c:	230e      	movs	r3, #14
 8002e5e:	425b      	negs	r3, r3
 8002e60:	e003      	b.n	8002e6a <I2C1_MemRead+0x112>
    I2C1->ICR = I2C_ICR_STOPCF;
 8002e62:	4b06      	ldr	r3, [pc, #24]	@ (8002e7c <I2C1_MemRead+0x124>)
 8002e64:	2220      	movs	r2, #32
 8002e66:	61da      	str	r2, [r3, #28]
    return 0;
 8002e68:	2300      	movs	r3, #0
}
 8002e6a:	0018      	movs	r0, r3
 8002e6c:	46bd      	mov	sp, r7
 8002e6e:	b006      	add	sp, #24
 8002e70:	bd80      	pop	{r7, pc}
 8002e72:	46c0      	nop			@ (mov r8, r8)
 8002e74:	00030d40 	.word	0x00030d40
 8002e78:	40005418 	.word	0x40005418
 8002e7c:	40005400 	.word	0x40005400
 8002e80:	fffffbff 	.word	0xfffffbff
 8002e84:	02002400 	.word	0x02002400

08002e88 <I2C1_MemWrite>:

int I2C1_MemWrite(uint8_t addr7, uint8_t reg, const uint8_t *buf, uint32_t len)
{
 8002e88:	b580      	push	{r7, lr}
 8002e8a:	b086      	sub	sp, #24
 8002e8c:	af00      	add	r7, sp, #0
 8002e8e:	60ba      	str	r2, [r7, #8]
 8002e90:	607b      	str	r3, [r7, #4]
 8002e92:	230f      	movs	r3, #15
 8002e94:	18fb      	adds	r3, r7, r3
 8002e96:	1c02      	adds	r2, r0, #0
 8002e98:	701a      	strb	r2, [r3, #0]
 8002e9a:	230e      	movs	r3, #14
 8002e9c:	18fb      	adds	r3, r7, r3
 8002e9e:	1c0a      	adds	r2, r1, #0
 8002ea0:	701a      	strb	r2, [r3, #0]
    if (!buf && len) return -1;
 8002ea2:	68bb      	ldr	r3, [r7, #8]
 8002ea4:	2b00      	cmp	r3, #0
 8002ea6:	d105      	bne.n	8002eb4 <I2C1_MemWrite+0x2c>
 8002ea8:	687b      	ldr	r3, [r7, #4]
 8002eaa:	2b00      	cmp	r3, #0
 8002eac:	d002      	beq.n	8002eb4 <I2C1_MemWrite+0x2c>
 8002eae:	2301      	movs	r3, #1
 8002eb0:	425b      	negs	r3, r3
 8002eb2:	e05b      	b.n	8002f6c <I2C1_MemWrite+0xe4>
    if (wait_flag_clr(&I2C1->ISR, I2C_ISR_BUSY, I2C_SPIN)) return -10;
 8002eb4:	4a2f      	ldr	r2, [pc, #188]	@ (8002f74 <I2C1_MemWrite+0xec>)
 8002eb6:	2380      	movs	r3, #128	@ 0x80
 8002eb8:	021b      	lsls	r3, r3, #8
 8002eba:	482f      	ldr	r0, [pc, #188]	@ (8002f78 <I2C1_MemWrite+0xf0>)
 8002ebc:	0019      	movs	r1, r3
 8002ebe:	f7ff ff32 	bl	8002d26 <wait_flag_clr>
 8002ec2:	1e03      	subs	r3, r0, #0
 8002ec4:	d002      	beq.n	8002ecc <I2C1_MemWrite+0x44>
 8002ec6:	230a      	movs	r3, #10
 8002ec8:	425b      	negs	r3, r3
 8002eca:	e04f      	b.n	8002f6c <I2C1_MemWrite+0xe4>

    /* Send reg + payload in single AUTOEND transfer */
    I2C1->CR2 = ((uint32_t)addr7 << 1) | ((uint32_t)(len + 1u) << 16);
 8002ecc:	230f      	movs	r3, #15
 8002ece:	18fb      	adds	r3, r7, r3
 8002ed0:	781b      	ldrb	r3, [r3, #0]
 8002ed2:	0059      	lsls	r1, r3, #1
 8002ed4:	687b      	ldr	r3, [r7, #4]
 8002ed6:	3301      	adds	r3, #1
 8002ed8:	041a      	lsls	r2, r3, #16
 8002eda:	4b28      	ldr	r3, [pc, #160]	@ (8002f7c <I2C1_MemWrite+0xf4>)
 8002edc:	430a      	orrs	r2, r1
 8002ede:	605a      	str	r2, [r3, #4]
    I2C1->CR2 &= ~I2C_CR2_RD_WRN;
 8002ee0:	4b26      	ldr	r3, [pc, #152]	@ (8002f7c <I2C1_MemWrite+0xf4>)
 8002ee2:	685a      	ldr	r2, [r3, #4]
 8002ee4:	4b25      	ldr	r3, [pc, #148]	@ (8002f7c <I2C1_MemWrite+0xf4>)
 8002ee6:	4926      	ldr	r1, [pc, #152]	@ (8002f80 <I2C1_MemWrite+0xf8>)
 8002ee8:	400a      	ands	r2, r1
 8002eea:	605a      	str	r2, [r3, #4]
    I2C1->CR2 |=  I2C_CR2_START | I2C_CR2_AUTOEND;
 8002eec:	4b23      	ldr	r3, [pc, #140]	@ (8002f7c <I2C1_MemWrite+0xf4>)
 8002eee:	685a      	ldr	r2, [r3, #4]
 8002ef0:	4b22      	ldr	r3, [pc, #136]	@ (8002f7c <I2C1_MemWrite+0xf4>)
 8002ef2:	4924      	ldr	r1, [pc, #144]	@ (8002f84 <I2C1_MemWrite+0xfc>)
 8002ef4:	430a      	orrs	r2, r1
 8002ef6:	605a      	str	r2, [r3, #4]

    if (wait_flag_set(&I2C1->ISR, I2C_ISR_TXIS, I2C_SPIN)) return -11;
 8002ef8:	4a1e      	ldr	r2, [pc, #120]	@ (8002f74 <I2C1_MemWrite+0xec>)
 8002efa:	4b1f      	ldr	r3, [pc, #124]	@ (8002f78 <I2C1_MemWrite+0xf0>)
 8002efc:	2102      	movs	r1, #2
 8002efe:	0018      	movs	r0, r3
 8002f00:	f7ff fef8 	bl	8002cf4 <wait_flag_set>
 8002f04:	1e03      	subs	r3, r0, #0
 8002f06:	d002      	beq.n	8002f0e <I2C1_MemWrite+0x86>
 8002f08:	230b      	movs	r3, #11
 8002f0a:	425b      	negs	r3, r3
 8002f0c:	e02e      	b.n	8002f6c <I2C1_MemWrite+0xe4>
    I2C1->TXDR = reg;
 8002f0e:	4b1b      	ldr	r3, [pc, #108]	@ (8002f7c <I2C1_MemWrite+0xf4>)
 8002f10:	220e      	movs	r2, #14
 8002f12:	18ba      	adds	r2, r7, r2
 8002f14:	7812      	ldrb	r2, [r2, #0]
 8002f16:	629a      	str	r2, [r3, #40]	@ 0x28

    for (uint32_t i = 0; i < len; ++i) {
 8002f18:	2300      	movs	r3, #0
 8002f1a:	617b      	str	r3, [r7, #20]
 8002f1c:	e013      	b.n	8002f46 <I2C1_MemWrite+0xbe>
        if (wait_flag_set(&I2C1->ISR, I2C_ISR_TXIS, I2C_SPIN)) return -12;
 8002f1e:	4a15      	ldr	r2, [pc, #84]	@ (8002f74 <I2C1_MemWrite+0xec>)
 8002f20:	4b15      	ldr	r3, [pc, #84]	@ (8002f78 <I2C1_MemWrite+0xf0>)
 8002f22:	2102      	movs	r1, #2
 8002f24:	0018      	movs	r0, r3
 8002f26:	f7ff fee5 	bl	8002cf4 <wait_flag_set>
 8002f2a:	1e03      	subs	r3, r0, #0
 8002f2c:	d002      	beq.n	8002f34 <I2C1_MemWrite+0xac>
 8002f2e:	230c      	movs	r3, #12
 8002f30:	425b      	negs	r3, r3
 8002f32:	e01b      	b.n	8002f6c <I2C1_MemWrite+0xe4>
        I2C1->TXDR = buf[i];
 8002f34:	68ba      	ldr	r2, [r7, #8]
 8002f36:	697b      	ldr	r3, [r7, #20]
 8002f38:	18d3      	adds	r3, r2, r3
 8002f3a:	781a      	ldrb	r2, [r3, #0]
 8002f3c:	4b0f      	ldr	r3, [pc, #60]	@ (8002f7c <I2C1_MemWrite+0xf4>)
 8002f3e:	629a      	str	r2, [r3, #40]	@ 0x28
    for (uint32_t i = 0; i < len; ++i) {
 8002f40:	697b      	ldr	r3, [r7, #20]
 8002f42:	3301      	adds	r3, #1
 8002f44:	617b      	str	r3, [r7, #20]
 8002f46:	697a      	ldr	r2, [r7, #20]
 8002f48:	687b      	ldr	r3, [r7, #4]
 8002f4a:	429a      	cmp	r2, r3
 8002f4c:	d3e7      	bcc.n	8002f1e <I2C1_MemWrite+0x96>
    }
    if (wait_flag_set(&I2C1->ISR, I2C_ISR_STOPF, I2C_SPIN)) return -13;
 8002f4e:	4a09      	ldr	r2, [pc, #36]	@ (8002f74 <I2C1_MemWrite+0xec>)
 8002f50:	4b09      	ldr	r3, [pc, #36]	@ (8002f78 <I2C1_MemWrite+0xf0>)
 8002f52:	2120      	movs	r1, #32
 8002f54:	0018      	movs	r0, r3
 8002f56:	f7ff fecd 	bl	8002cf4 <wait_flag_set>
 8002f5a:	1e03      	subs	r3, r0, #0
 8002f5c:	d002      	beq.n	8002f64 <I2C1_MemWrite+0xdc>
 8002f5e:	230d      	movs	r3, #13
 8002f60:	425b      	negs	r3, r3
 8002f62:	e003      	b.n	8002f6c <I2C1_MemWrite+0xe4>
    I2C1->ICR = I2C_ICR_STOPCF;
 8002f64:	4b05      	ldr	r3, [pc, #20]	@ (8002f7c <I2C1_MemWrite+0xf4>)
 8002f66:	2220      	movs	r2, #32
 8002f68:	61da      	str	r2, [r3, #28]
    return 0;
 8002f6a:	2300      	movs	r3, #0
}
 8002f6c:	0018      	movs	r0, r3
 8002f6e:	46bd      	mov	sp, r7
 8002f70:	b006      	add	sp, #24
 8002f72:	bd80      	pop	{r7, pc}
 8002f74:	00030d40 	.word	0x00030d40
 8002f78:	40005418 	.word	0x40005418
 8002f7c:	40005400 	.word	0x40005400
 8002f80:	fffffbff 	.word	0xfffffbff
 8002f84:	02002000 	.word	0x02002000

08002f88 <rd_cfg>:
/* ===== TMP102 helpers (register-level, bounded waits) ===== */

#define TMP102_CFG_OS_BIT   (1u << 15)
#define TMP102_CFG_SD_BIT   (1u << 0)

static HAL_StatusTypeDef rd_cfg(uint16_t *cfg) {
 8002f88:	b580      	push	{r7, lr}
 8002f8a:	b084      	sub	sp, #16
 8002f8c:	af00      	add	r7, sp, #0
 8002f8e:	6078      	str	r0, [r7, #4]
    if (!cfg) return HAL_ERROR;
 8002f90:	687b      	ldr	r3, [r7, #4]
 8002f92:	2b00      	cmp	r3, #0
 8002f94:	d101      	bne.n	8002f9a <rd_cfg+0x12>
 8002f96:	2301      	movs	r3, #1
 8002f98:	e019      	b.n	8002fce <rd_cfg+0x46>
    uint8_t rx[2];
    if (I2C1_MemRead(TMP102_ADDR7, TMP102_REG_CONFIG, rx, 2) != 0) return HAL_ERROR;
 8002f9a:	230c      	movs	r3, #12
 8002f9c:	18fa      	adds	r2, r7, r3
 8002f9e:	2302      	movs	r3, #2
 8002fa0:	2101      	movs	r1, #1
 8002fa2:	2048      	movs	r0, #72	@ 0x48
 8002fa4:	f7ff fed8 	bl	8002d58 <I2C1_MemRead>
 8002fa8:	1e03      	subs	r3, r0, #0
 8002faa:	d001      	beq.n	8002fb0 <rd_cfg+0x28>
 8002fac:	2301      	movs	r3, #1
 8002fae:	e00e      	b.n	8002fce <rd_cfg+0x46>
    *cfg = (uint16_t)((rx[0] << 8) | rx[1]);
 8002fb0:	210c      	movs	r1, #12
 8002fb2:	187b      	adds	r3, r7, r1
 8002fb4:	781b      	ldrb	r3, [r3, #0]
 8002fb6:	b21b      	sxth	r3, r3
 8002fb8:	021b      	lsls	r3, r3, #8
 8002fba:	b21a      	sxth	r2, r3
 8002fbc:	187b      	adds	r3, r7, r1
 8002fbe:	785b      	ldrb	r3, [r3, #1]
 8002fc0:	b21b      	sxth	r3, r3
 8002fc2:	4313      	orrs	r3, r2
 8002fc4:	b21b      	sxth	r3, r3
 8002fc6:	b29a      	uxth	r2, r3
 8002fc8:	687b      	ldr	r3, [r7, #4]
 8002fca:	801a      	strh	r2, [r3, #0]
    return HAL_OK;
 8002fcc:	2300      	movs	r3, #0
}
 8002fce:	0018      	movs	r0, r3
 8002fd0:	46bd      	mov	sp, r7
 8002fd2:	b004      	add	sp, #16
 8002fd4:	bd80      	pop	{r7, pc}

08002fd6 <wr_cfg>:
static HAL_StatusTypeDef wr_cfg(uint16_t cfg) {
 8002fd6:	b580      	push	{r7, lr}
 8002fd8:	b084      	sub	sp, #16
 8002fda:	af00      	add	r7, sp, #0
 8002fdc:	0002      	movs	r2, r0
 8002fde:	1dbb      	adds	r3, r7, #6
 8002fe0:	801a      	strh	r2, [r3, #0]
    uint8_t tx[2] = { (uint8_t)(cfg >> 8), (uint8_t)(cfg & 0xFF) };
 8002fe2:	1dbb      	adds	r3, r7, #6
 8002fe4:	881b      	ldrh	r3, [r3, #0]
 8002fe6:	0a1b      	lsrs	r3, r3, #8
 8002fe8:	b29b      	uxth	r3, r3
 8002fea:	b2da      	uxtb	r2, r3
 8002fec:	210c      	movs	r1, #12
 8002fee:	187b      	adds	r3, r7, r1
 8002ff0:	701a      	strb	r2, [r3, #0]
 8002ff2:	1dbb      	adds	r3, r7, #6
 8002ff4:	881b      	ldrh	r3, [r3, #0]
 8002ff6:	b2da      	uxtb	r2, r3
 8002ff8:	187b      	adds	r3, r7, r1
 8002ffa:	705a      	strb	r2, [r3, #1]
    return (I2C1_MemWrite(TMP102_ADDR7, TMP102_REG_CONFIG, tx, 2) == 0) ? HAL_OK : HAL_ERROR;
 8002ffc:	187a      	adds	r2, r7, r1
 8002ffe:	2302      	movs	r3, #2
 8003000:	2101      	movs	r1, #1
 8003002:	2048      	movs	r0, #72	@ 0x48
 8003004:	f7ff ff40 	bl	8002e88 <I2C1_MemWrite>
 8003008:	0003      	movs	r3, r0
 800300a:	1e5a      	subs	r2, r3, #1
 800300c:	4193      	sbcs	r3, r2
 800300e:	b2db      	uxtb	r3, r3
}
 8003010:	0018      	movs	r0, r3
 8003012:	46bd      	mov	sp, r7
 8003014:	b004      	add	sp, #16
 8003016:	bd80      	pop	{r7, pc}

08003018 <tmp102_initialize>:

HAL_StatusTypeDef tmp102_initialize(void)
{
 8003018:	b580      	push	{r7, lr}
 800301a:	b082      	sub	sp, #8
 800301c:	af00      	add	r7, sp, #0
    uint16_t cfg=0;
 800301e:	1dbb      	adds	r3, r7, #6
 8003020:	2200      	movs	r2, #0
 8003022:	801a      	strh	r2, [r3, #0]
    if (rd_cfg(&cfg) != HAL_OK) return HAL_ERROR;
 8003024:	1dbb      	adds	r3, r7, #6
 8003026:	0018      	movs	r0, r3
 8003028:	f7ff ffae 	bl	8002f88 <rd_cfg>
 800302c:	1e03      	subs	r3, r0, #0
 800302e:	d001      	beq.n	8003034 <tmp102_initialize+0x1c>
 8003030:	2301      	movs	r3, #1
 8003032:	e015      	b.n	8003060 <tmp102_initialize+0x48>
    /* Put device into shutdown so one-shot works as expected */
    if (wr_cfg(cfg | TMP102_CFG_SD_BIT) != HAL_OK) return HAL_ERROR;
 8003034:	1dbb      	adds	r3, r7, #6
 8003036:	881b      	ldrh	r3, [r3, #0]
 8003038:	2201      	movs	r2, #1
 800303a:	4313      	orrs	r3, r2
 800303c:	b29b      	uxth	r3, r3
 800303e:	0018      	movs	r0, r3
 8003040:	f7ff ffc9 	bl	8002fd6 <wr_cfg>
 8003044:	1e03      	subs	r3, r0, #0
 8003046:	d001      	beq.n	800304c <tmp102_initialize+0x34>
 8003048:	2301      	movs	r3, #1
 800304a:	e009      	b.n	8003060 <tmp102_initialize+0x48>

    /* Dummy read to verify bus */
    uint8_t t[2];
    return (I2C1_MemRead(TMP102_ADDR7, TMP102_REG_TEMP, t, 2) == 0) ? HAL_OK : HAL_ERROR;
 800304c:	1d3a      	adds	r2, r7, #4
 800304e:	2302      	movs	r3, #2
 8003050:	2100      	movs	r1, #0
 8003052:	2048      	movs	r0, #72	@ 0x48
 8003054:	f7ff fe80 	bl	8002d58 <I2C1_MemRead>
 8003058:	0003      	movs	r3, r0
 800305a:	1e5a      	subs	r2, r3, #1
 800305c:	4193      	sbcs	r3, r2
 800305e:	b2db      	uxtb	r3, r3
}
 8003060:	0018      	movs	r0, r3
 8003062:	46bd      	mov	sp, r7
 8003064:	b002      	add	sp, #8
 8003066:	bd80      	pop	{r7, pc}

08003068 <tmp102_read_raw>:
    *c_out = (float)raw * 0.0625f;
    return HAL_OK;
}

HAL_StatusTypeDef tmp102_read_raw(int16_t *raw_out)
{
 8003068:	b580      	push	{r7, lr}
 800306a:	b084      	sub	sp, #16
 800306c:	af00      	add	r7, sp, #0
 800306e:	6078      	str	r0, [r7, #4]
    if (!raw_out)
 8003070:	687b      	ldr	r3, [r7, #4]
 8003072:	2b00      	cmp	r3, #0
 8003074:	d101      	bne.n	800307a <tmp102_read_raw+0x12>
        return HAL_ERROR;
 8003076:	2301      	movs	r3, #1
 8003078:	e031      	b.n	80030de <tmp102_read_raw+0x76>

    uint8_t rx[2];
    if (I2C1_MemRead(TMP102_ADDR7, TMP102_REG_TEMP, rx, 2) != 0)
 800307a:	230c      	movs	r3, #12
 800307c:	18fa      	adds	r2, r7, r3
 800307e:	2302      	movs	r3, #2
 8003080:	2100      	movs	r1, #0
 8003082:	2048      	movs	r0, #72	@ 0x48
 8003084:	f7ff fe68 	bl	8002d58 <I2C1_MemRead>
 8003088:	1e03      	subs	r3, r0, #0
 800308a:	d001      	beq.n	8003090 <tmp102_read_raw+0x28>
        return HAL_ERROR;
 800308c:	2301      	movs	r3, #1
 800308e:	e026      	b.n	80030de <tmp102_read_raw+0x76>

    int16_t raw = (int16_t)((rx[0] << 8) | rx[1]);
 8003090:	220c      	movs	r2, #12
 8003092:	18bb      	adds	r3, r7, r2
 8003094:	781b      	ldrb	r3, [r3, #0]
 8003096:	b21b      	sxth	r3, r3
 8003098:	021b      	lsls	r3, r3, #8
 800309a:	b219      	sxth	r1, r3
 800309c:	18bb      	adds	r3, r7, r2
 800309e:	785b      	ldrb	r3, [r3, #1]
 80030a0:	b21a      	sxth	r2, r3
 80030a2:	200e      	movs	r0, #14
 80030a4:	183b      	adds	r3, r7, r0
 80030a6:	430a      	orrs	r2, r1
 80030a8:	801a      	strh	r2, [r3, #0]
    raw >>= 4;
 80030aa:	0001      	movs	r1, r0
 80030ac:	187b      	adds	r3, r7, r1
 80030ae:	187a      	adds	r2, r7, r1
 80030b0:	2000      	movs	r0, #0
 80030b2:	5e12      	ldrsh	r2, [r2, r0]
 80030b4:	1112      	asrs	r2, r2, #4
 80030b6:	801a      	strh	r2, [r3, #0]
    if (raw & 0x0800)
 80030b8:	187b      	adds	r3, r7, r1
 80030ba:	881b      	ldrh	r3, [r3, #0]
 80030bc:	001a      	movs	r2, r3
 80030be:	2380      	movs	r3, #128	@ 0x80
 80030c0:	011b      	lsls	r3, r3, #4
 80030c2:	4013      	ands	r3, r2
 80030c4:	d005      	beq.n	80030d2 <tmp102_read_raw+0x6a>
        raw |= (int16_t)~0x0FFF;
 80030c6:	187b      	adds	r3, r7, r1
 80030c8:	187a      	adds	r2, r7, r1
 80030ca:	8812      	ldrh	r2, [r2, #0]
 80030cc:	4906      	ldr	r1, [pc, #24]	@ (80030e8 <tmp102_read_raw+0x80>)
 80030ce:	430a      	orrs	r2, r1
 80030d0:	801a      	strh	r2, [r3, #0]

    *raw_out = raw;
 80030d2:	687b      	ldr	r3, [r7, #4]
 80030d4:	220e      	movs	r2, #14
 80030d6:	18ba      	adds	r2, r7, r2
 80030d8:	8812      	ldrh	r2, [r2, #0]
 80030da:	801a      	strh	r2, [r3, #0]
    return HAL_OK;
 80030dc:	2300      	movs	r3, #0
}
 80030de:	0018      	movs	r0, r3
 80030e0:	46bd      	mov	sp, r7
 80030e2:	b004      	add	sp, #16
 80030e4:	bd80      	pop	{r7, pc}
 80030e6:	46c0      	nop			@ (mov r8, r8)
 80030e8:	fffff000 	.word	0xfffff000

080030ec <I2C1_DebugScan>:

void I2C1_DebugScan(void)
{
 80030ec:	b580      	push	{r7, lr}
 80030ee:	b084      	sub	sp, #16
 80030f0:	af00      	add	r7, sp, #0
    printf("I2C1 quick probe:\r\n");
 80030f2:	4b18      	ldr	r3, [pc, #96]	@ (8003154 <I2C1_DebugScan+0x68>)
 80030f4:	0018      	movs	r0, r3
 80030f6:	f004 fa6b 	bl	80075d0 <puts>
    uint8_t cfg;
    int ok48 = I2C1_MemRead(0x48u, TMP102_REG_CONFIG, &cfg, 1);
 80030fa:	1dfa      	adds	r2, r7, #7
 80030fc:	2301      	movs	r3, #1
 80030fe:	2101      	movs	r1, #1
 8003100:	2048      	movs	r0, #72	@ 0x48
 8003102:	f7ff fe29 	bl	8002d58 <I2C1_MemRead>
 8003106:	0003      	movs	r3, r0
 8003108:	60fb      	str	r3, [r7, #12]
    int ok49 = I2C1_MemRead(0x49u, TMP102_REG_CONFIG, &cfg, 1);
 800310a:	1dfa      	adds	r2, r7, #7
 800310c:	2301      	movs	r3, #1
 800310e:	2101      	movs	r1, #1
 8003110:	2049      	movs	r0, #73	@ 0x49
 8003112:	f7ff fe21 	bl	8002d58 <I2C1_MemRead>
 8003116:	0003      	movs	r3, r0
 8003118:	60bb      	str	r3, [r7, #8]

    if (ok48 == 0) printf("  - device @ 0x48\r\n");
 800311a:	68fb      	ldr	r3, [r7, #12]
 800311c:	2b00      	cmp	r3, #0
 800311e:	d103      	bne.n	8003128 <I2C1_DebugScan+0x3c>
 8003120:	4b0d      	ldr	r3, [pc, #52]	@ (8003158 <I2C1_DebugScan+0x6c>)
 8003122:	0018      	movs	r0, r3
 8003124:	f004 fa54 	bl	80075d0 <puts>
    if (ok49 == 0) printf("  - device @ 0x49\r\n");
 8003128:	68bb      	ldr	r3, [r7, #8]
 800312a:	2b00      	cmp	r3, #0
 800312c:	d103      	bne.n	8003136 <I2C1_DebugScan+0x4a>
 800312e:	4b0b      	ldr	r3, [pc, #44]	@ (800315c <I2C1_DebugScan+0x70>)
 8003130:	0018      	movs	r0, r3
 8003132:	f004 fa4d 	bl	80075d0 <puts>
    if (ok48 != 0 && ok49 != 0) printf("  (no TMP102 found at 0x48/0x49)\r\n");
 8003136:	68fb      	ldr	r3, [r7, #12]
 8003138:	2b00      	cmp	r3, #0
 800313a:	d006      	beq.n	800314a <I2C1_DebugScan+0x5e>
 800313c:	68bb      	ldr	r3, [r7, #8]
 800313e:	2b00      	cmp	r3, #0
 8003140:	d003      	beq.n	800314a <I2C1_DebugScan+0x5e>
 8003142:	4b07      	ldr	r3, [pc, #28]	@ (8003160 <I2C1_DebugScan+0x74>)
 8003144:	0018      	movs	r0, r3
 8003146:	f004 fa43 	bl	80075d0 <puts>
}
 800314a:	46c0      	nop			@ (mov r8, r8)
 800314c:	46bd      	mov	sp, r7
 800314e:	b004      	add	sp, #16
 8003150:	bd80      	pop	{r7, pc}
 8003152:	46c0      	nop			@ (mov r8, r8)
 8003154:	08009628 	.word	0x08009628
 8003158:	0800963c 	.word	0x0800963c
 800315c:	08009650 	.word	0x08009650
 8003160:	08009664 	.word	0x08009664

08003164 <TMP102_DebugDump>:

void TMP102_DebugDump(void)
{
 8003164:	b580      	push	{r7, lr}
 8003166:	b082      	sub	sp, #8
 8003168:	af00      	add	r7, sp, #0
    uint8_t cfg[2] = {0};
 800316a:	003b      	movs	r3, r7
 800316c:	2200      	movs	r2, #0
 800316e:	801a      	strh	r2, [r3, #0]
    int ok = I2C1_MemRead(TMP102_ADDR7, TMP102_REG_CONFIG, cfg, 2);
 8003170:	003a      	movs	r2, r7
 8003172:	2302      	movs	r3, #2
 8003174:	2101      	movs	r1, #1
 8003176:	2048      	movs	r0, #72	@ 0x48
 8003178:	f7ff fdee 	bl	8002d58 <I2C1_MemRead>
 800317c:	0003      	movs	r3, r0
 800317e:	607b      	str	r3, [r7, #4]

    if (ok == 0) {
 8003180:	687b      	ldr	r3, [r7, #4]
 8003182:	2b00      	cmp	r3, #0
 8003184:	d10a      	bne.n	800319c <TMP102_DebugDump+0x38>
        printf("TMP102 config: 0x%02X 0x%02X (addr=0x%02X)\r\n",
               cfg[0], cfg[1], TMP102_ADDR7);
 8003186:	003b      	movs	r3, r7
 8003188:	781b      	ldrb	r3, [r3, #0]
        printf("TMP102 config: 0x%02X 0x%02X (addr=0x%02X)\r\n",
 800318a:	0019      	movs	r1, r3
               cfg[0], cfg[1], TMP102_ADDR7);
 800318c:	003b      	movs	r3, r7
 800318e:	785b      	ldrb	r3, [r3, #1]
        printf("TMP102 config: 0x%02X 0x%02X (addr=0x%02X)\r\n",
 8003190:	001a      	movs	r2, r3
 8003192:	4807      	ldr	r0, [pc, #28]	@ (80031b0 <TMP102_DebugDump+0x4c>)
 8003194:	2348      	movs	r3, #72	@ 0x48
 8003196:	f004 f9b5 	bl	8007504 <iprintf>
    } else {
        printf("TMP102 config read failed at 0x%02X\r\n", TMP102_ADDR7);
    }
}
 800319a:	e004      	b.n	80031a6 <TMP102_DebugDump+0x42>
        printf("TMP102 config read failed at 0x%02X\r\n", TMP102_ADDR7);
 800319c:	4b05      	ldr	r3, [pc, #20]	@ (80031b4 <TMP102_DebugDump+0x50>)
 800319e:	2148      	movs	r1, #72	@ 0x48
 80031a0:	0018      	movs	r0, r3
 80031a2:	f004 f9af 	bl	8007504 <iprintf>
}
 80031a6:	46c0      	nop			@ (mov r8, r8)
 80031a8:	46bd      	mov	sp, r7
 80031aa:	b002      	add	sp, #8
 80031ac:	bd80      	pop	{r7, pc}
 80031ae:	46c0      	nop			@ (mov r8, r8)
 80031b0:	08009688 	.word	0x08009688
 80031b4:	080096b8 	.word	0x080096b8

080031b8 <to_upper>:

#include <stdio.h>
#include <string.h>
#include <stdlib.h>

static void to_upper(char *s) {
 80031b8:	b580      	push	{r7, lr}
 80031ba:	b082      	sub	sp, #8
 80031bc:	af00      	add	r7, sp, #0
 80031be:	6078      	str	r0, [r7, #4]
    if (!s) return;
 80031c0:	687b      	ldr	r3, [r7, #4]
 80031c2:	2b00      	cmp	r3, #0
 80031c4:	d016      	beq.n	80031f4 <to_upper+0x3c>
    for (; *s; ++s) {
 80031c6:	e010      	b.n	80031ea <to_upper+0x32>
        if (*s >= 'a' && *s <= 'z') *s = (char)(*s - 'a' + 'A');
 80031c8:	687b      	ldr	r3, [r7, #4]
 80031ca:	781b      	ldrb	r3, [r3, #0]
 80031cc:	2b60      	cmp	r3, #96	@ 0x60
 80031ce:	d909      	bls.n	80031e4 <to_upper+0x2c>
 80031d0:	687b      	ldr	r3, [r7, #4]
 80031d2:	781b      	ldrb	r3, [r3, #0]
 80031d4:	2b7a      	cmp	r3, #122	@ 0x7a
 80031d6:	d805      	bhi.n	80031e4 <to_upper+0x2c>
 80031d8:	687b      	ldr	r3, [r7, #4]
 80031da:	781b      	ldrb	r3, [r3, #0]
 80031dc:	3b20      	subs	r3, #32
 80031de:	b2da      	uxtb	r2, r3
 80031e0:	687b      	ldr	r3, [r7, #4]
 80031e2:	701a      	strb	r2, [r3, #0]
    for (; *s; ++s) {
 80031e4:	687b      	ldr	r3, [r7, #4]
 80031e6:	3301      	adds	r3, #1
 80031e8:	607b      	str	r3, [r7, #4]
 80031ea:	687b      	ldr	r3, [r7, #4]
 80031ec:	781b      	ldrb	r3, [r3, #0]
 80031ee:	2b00      	cmp	r3, #0
 80031f0:	d1ea      	bne.n	80031c8 <to_upper+0x10>
 80031f2:	e000      	b.n	80031f6 <to_upper+0x3e>
    if (!s) return;
 80031f4:	46c0      	nop			@ (mov r8, r8)
    }
}
 80031f6:	46bd      	mov	sp, r7
 80031f8:	b002      	add	sp, #8
 80031fa:	bd80      	pop	{r7, pc}

080031fc <trim>:

static void trim(char *s) {
 80031fc:	b580      	push	{r7, lr}
 80031fe:	b084      	sub	sp, #16
 8003200:	af00      	add	r7, sp, #0
 8003202:	6078      	str	r0, [r7, #4]
    if (!s) return;
 8003204:	687b      	ldr	r3, [r7, #4]
 8003206:	2b00      	cmp	r3, #0
 8003208:	d053      	beq.n	80032b2 <trim+0xb6>
    char *p = s;
 800320a:	687b      	ldr	r3, [r7, #4]
 800320c:	60fb      	str	r3, [r7, #12]
    while (*p == ' ' || *p == '\t' || *p == '\r' || *p == '\n') ++p;
 800320e:	e002      	b.n	8003216 <trim+0x1a>
 8003210:	68fb      	ldr	r3, [r7, #12]
 8003212:	3301      	adds	r3, #1
 8003214:	60fb      	str	r3, [r7, #12]
 8003216:	68fb      	ldr	r3, [r7, #12]
 8003218:	781b      	ldrb	r3, [r3, #0]
 800321a:	2b20      	cmp	r3, #32
 800321c:	d0f8      	beq.n	8003210 <trim+0x14>
 800321e:	68fb      	ldr	r3, [r7, #12]
 8003220:	781b      	ldrb	r3, [r3, #0]
 8003222:	2b09      	cmp	r3, #9
 8003224:	d0f4      	beq.n	8003210 <trim+0x14>
 8003226:	68fb      	ldr	r3, [r7, #12]
 8003228:	781b      	ldrb	r3, [r3, #0]
 800322a:	2b0d      	cmp	r3, #13
 800322c:	d0f0      	beq.n	8003210 <trim+0x14>
 800322e:	68fb      	ldr	r3, [r7, #12]
 8003230:	781b      	ldrb	r3, [r3, #0]
 8003232:	2b0a      	cmp	r3, #10
 8003234:	d0ec      	beq.n	8003210 <trim+0x14>
    if (p != s) memmove(s, p, strlen(p) + 1);
 8003236:	68fa      	ldr	r2, [r7, #12]
 8003238:	687b      	ldr	r3, [r7, #4]
 800323a:	429a      	cmp	r2, r3
 800323c:	d00a      	beq.n	8003254 <trim+0x58>
 800323e:	68fb      	ldr	r3, [r7, #12]
 8003240:	0018      	movs	r0, r3
 8003242:	f7fc ff69 	bl	8000118 <strlen>
 8003246:	0003      	movs	r3, r0
 8003248:	1c5a      	adds	r2, r3, #1
 800324a:	68f9      	ldr	r1, [r7, #12]
 800324c:	687b      	ldr	r3, [r7, #4]
 800324e:	0018      	movs	r0, r3
 8003250:	f004 fab4 	bl	80077bc <memmove>
    size_t n = strlen(s);
 8003254:	687b      	ldr	r3, [r7, #4]
 8003256:	0018      	movs	r0, r3
 8003258:	f7fc ff5e 	bl	8000118 <strlen>
 800325c:	0003      	movs	r3, r0
 800325e:	60bb      	str	r3, [r7, #8]
    while (n > 0 && (s[n - 1] == ' ' || s[n - 1] == '\t' || s[n - 1] == '\r' || s[n - 1] == '\n')) {
 8003260:	e007      	b.n	8003272 <trim+0x76>
        s[--n] = '\0';
 8003262:	68bb      	ldr	r3, [r7, #8]
 8003264:	3b01      	subs	r3, #1
 8003266:	60bb      	str	r3, [r7, #8]
 8003268:	687a      	ldr	r2, [r7, #4]
 800326a:	68bb      	ldr	r3, [r7, #8]
 800326c:	18d3      	adds	r3, r2, r3
 800326e:	2200      	movs	r2, #0
 8003270:	701a      	strb	r2, [r3, #0]
    while (n > 0 && (s[n - 1] == ' ' || s[n - 1] == '\t' || s[n - 1] == '\r' || s[n - 1] == '\n')) {
 8003272:	68bb      	ldr	r3, [r7, #8]
 8003274:	2b00      	cmp	r3, #0
 8003276:	d01d      	beq.n	80032b4 <trim+0xb8>
 8003278:	68bb      	ldr	r3, [r7, #8]
 800327a:	3b01      	subs	r3, #1
 800327c:	687a      	ldr	r2, [r7, #4]
 800327e:	18d3      	adds	r3, r2, r3
 8003280:	781b      	ldrb	r3, [r3, #0]
 8003282:	2b20      	cmp	r3, #32
 8003284:	d0ed      	beq.n	8003262 <trim+0x66>
 8003286:	68bb      	ldr	r3, [r7, #8]
 8003288:	3b01      	subs	r3, #1
 800328a:	687a      	ldr	r2, [r7, #4]
 800328c:	18d3      	adds	r3, r2, r3
 800328e:	781b      	ldrb	r3, [r3, #0]
 8003290:	2b09      	cmp	r3, #9
 8003292:	d0e6      	beq.n	8003262 <trim+0x66>
 8003294:	68bb      	ldr	r3, [r7, #8]
 8003296:	3b01      	subs	r3, #1
 8003298:	687a      	ldr	r2, [r7, #4]
 800329a:	18d3      	adds	r3, r2, r3
 800329c:	781b      	ldrb	r3, [r3, #0]
 800329e:	2b0d      	cmp	r3, #13
 80032a0:	d0df      	beq.n	8003262 <trim+0x66>
 80032a2:	68bb      	ldr	r3, [r7, #8]
 80032a4:	3b01      	subs	r3, #1
 80032a6:	687a      	ldr	r2, [r7, #4]
 80032a8:	18d3      	adds	r3, r2, r3
 80032aa:	781b      	ldrb	r3, [r3, #0]
 80032ac:	2b0a      	cmp	r3, #10
 80032ae:	d0d8      	beq.n	8003262 <trim+0x66>
 80032b0:	e000      	b.n	80032b4 <trim+0xb8>
    if (!s) return;
 80032b2:	46c0      	nop			@ (mov r8, r8)
    }
}
 80032b4:	46bd      	mov	sp, r7
 80032b6:	b004      	add	sp, #16
 80032b8:	bd80      	pop	{r7, pc}
	...

080032bc <print_help>:

static void print_help(void) {
 80032bc:	b580      	push	{r7, lr}
 80032be:	af00      	add	r7, sp, #0
    printf("Commands: START, TEMP, CLEAN, STOP, STATUS, HELP\r\n");
 80032c0:	4b03      	ldr	r3, [pc, #12]	@ (80032d0 <print_help+0x14>)
 80032c2:	0018      	movs	r0, r3
 80032c4:	f004 f984 	bl	80075d0 <puts>
}
 80032c8:	46c0      	nop			@ (mov r8, r8)
 80032ca:	46bd      	mov	sp, r7
 80032cc:	bd80      	pop	{r7, pc}
 80032ce:	46c0      	nop			@ (mov r8, r8)
 80032d0:	080096e0 	.word	0x080096e0

080032d4 <handle_line>:

static void handle_line(char *line) {
 80032d4:	b5f0      	push	{r4, r5, r6, r7, lr}
 80032d6:	b08b      	sub	sp, #44	@ 0x2c
 80032d8:	af02      	add	r7, sp, #8
 80032da:	6078      	str	r0, [r7, #4]
    trim(line);
 80032dc:	687b      	ldr	r3, [r7, #4]
 80032de:	0018      	movs	r0, r3
 80032e0:	f7ff ff8c 	bl	80031fc <trim>
    to_upper(line);
 80032e4:	687b      	ldr	r3, [r7, #4]
 80032e6:	0018      	movs	r0, r3
 80032e8:	f7ff ff66 	bl	80031b8 <to_upper>

    if (strcmp(line, "HELP") == 0 || strcmp(line, "?") == 0) {
 80032ec:	4a7b      	ldr	r2, [pc, #492]	@ (80034dc <handle_line+0x208>)
 80032ee:	687b      	ldr	r3, [r7, #4]
 80032f0:	0011      	movs	r1, r2
 80032f2:	0018      	movs	r0, r3
 80032f4:	f7fc ff06 	bl	8000104 <strcmp>
 80032f8:	1e03      	subs	r3, r0, #0
 80032fa:	d007      	beq.n	800330c <handle_line+0x38>
 80032fc:	4a78      	ldr	r2, [pc, #480]	@ (80034e0 <handle_line+0x20c>)
 80032fe:	687b      	ldr	r3, [r7, #4]
 8003300:	0011      	movs	r1, r2
 8003302:	0018      	movs	r0, r3
 8003304:	f7fc fefe 	bl	8000104 <strcmp>
 8003308:	1e03      	subs	r3, r0, #0
 800330a:	d102      	bne.n	8003312 <handle_line+0x3e>
        print_help();
 800330c:	f7ff ffd6 	bl	80032bc <print_help>
 8003310:	e0e0      	b.n	80034d4 <handle_line+0x200>

    } else if (strcmp(line, "STATUS") == 0) {
 8003312:	4a74      	ldr	r2, [pc, #464]	@ (80034e4 <handle_line+0x210>)
 8003314:	687b      	ldr	r3, [r7, #4]
 8003316:	0011      	movs	r1, r2
 8003318:	0018      	movs	r0, r3
 800331a:	f7fc fef3 	bl	8000104 <strcmp>
 800331e:	1e03      	subs	r3, r0, #0
 8003320:	d121      	bne.n	8003366 <handle_line+0x92>
        uint16_t first = 0xFFFF, last = 0xFFFF;
 8003322:	2112      	movs	r1, #18
 8003324:	187b      	adds	r3, r7, r1
 8003326:	2201      	movs	r2, #1
 8003328:	4252      	negs	r2, r2
 800332a:	801a      	strh	r2, [r3, #0]
 800332c:	2010      	movs	r0, #16
 800332e:	183b      	adds	r3, r7, r0
 8003330:	2201      	movs	r2, #1
 8003332:	4252      	negs	r2, r2
 8003334:	801a      	strh	r2, [r3, #0]
        (void)fram_get_first_last(&first, &last);
 8003336:	183a      	adds	r2, r7, r0
 8003338:	187b      	adds	r3, r7, r1
 800333a:	0011      	movs	r1, r2
 800333c:	0018      	movs	r0, r3
 800333e:	f7ff fbbf 	bl	8002ac0 <fram_get_first_last>
        printf("Logging: %s, First=0x%04X Last=0x%04X\r\n",
               fram_logging_enabled() ? "ON" : "OFF",
 8003342:	f7ff fbaf 	bl	8002aa4 <fram_logging_enabled>
 8003346:	1e03      	subs	r3, r0, #0
        printf("Logging: %s, First=0x%04X Last=0x%04X\r\n",
 8003348:	d001      	beq.n	800334e <handle_line+0x7a>
 800334a:	4967      	ldr	r1, [pc, #412]	@ (80034e8 <handle_line+0x214>)
 800334c:	e000      	b.n	8003350 <handle_line+0x7c>
 800334e:	4967      	ldr	r1, [pc, #412]	@ (80034ec <handle_line+0x218>)
 8003350:	2312      	movs	r3, #18
 8003352:	18fb      	adds	r3, r7, r3
 8003354:	881b      	ldrh	r3, [r3, #0]
 8003356:	001a      	movs	r2, r3
 8003358:	2310      	movs	r3, #16
 800335a:	18fb      	adds	r3, r7, r3
 800335c:	881b      	ldrh	r3, [r3, #0]
 800335e:	4864      	ldr	r0, [pc, #400]	@ (80034f0 <handle_line+0x21c>)
 8003360:	f004 f8d0 	bl	8007504 <iprintf>

    } else if (line[0] != '\0') {
        printf("Unknown: %s\r\n", line);
        print_help();
    }
}
 8003364:	e0b6      	b.n	80034d4 <handle_line+0x200>
    } else if (strcmp(line, "START") == 0) {
 8003366:	4a63      	ldr	r2, [pc, #396]	@ (80034f4 <handle_line+0x220>)
 8003368:	687b      	ldr	r3, [r7, #4]
 800336a:	0011      	movs	r1, r2
 800336c:	0018      	movs	r0, r3
 800336e:	f7fc fec9 	bl	8000104 <strcmp>
 8003372:	1e03      	subs	r3, r0, #0
 8003374:	d106      	bne.n	8003384 <handle_line+0xb0>
        fram_cmd_start();
 8003376:	f7ff fbbf 	bl	8002af8 <fram_cmd_start>
        printf("Logging STARTED\r\n");
 800337a:	4b5f      	ldr	r3, [pc, #380]	@ (80034f8 <handle_line+0x224>)
 800337c:	0018      	movs	r0, r3
 800337e:	f004 f927 	bl	80075d0 <puts>
}
 8003382:	e0a7      	b.n	80034d4 <handle_line+0x200>
    } else if (strcmp(line, "STOP") == 0) {
 8003384:	4a5d      	ldr	r2, [pc, #372]	@ (80034fc <handle_line+0x228>)
 8003386:	687b      	ldr	r3, [r7, #4]
 8003388:	0011      	movs	r1, r2
 800338a:	0018      	movs	r0, r3
 800338c:	f7fc feba 	bl	8000104 <strcmp>
 8003390:	1e03      	subs	r3, r0, #0
 8003392:	d106      	bne.n	80033a2 <handle_line+0xce>
        fram_cmd_stop();
 8003394:	f7ff fbe0 	bl	8002b58 <fram_cmd_stop>
        printf("Logging STOPPED\r\n");
 8003398:	4b59      	ldr	r3, [pc, #356]	@ (8003500 <handle_line+0x22c>)
 800339a:	0018      	movs	r0, r3
 800339c:	f004 f918 	bl	80075d0 <puts>
}
 80033a0:	e098      	b.n	80034d4 <handle_line+0x200>
    } else if (strcmp(line, "CLEAN") == 0 || strcmp(line, "CLEAR") == 0) {
 80033a2:	4a58      	ldr	r2, [pc, #352]	@ (8003504 <handle_line+0x230>)
 80033a4:	687b      	ldr	r3, [r7, #4]
 80033a6:	0011      	movs	r1, r2
 80033a8:	0018      	movs	r0, r3
 80033aa:	f7fc feab 	bl	8000104 <strcmp>
 80033ae:	1e03      	subs	r3, r0, #0
 80033b0:	d007      	beq.n	80033c2 <handle_line+0xee>
 80033b2:	4a55      	ldr	r2, [pc, #340]	@ (8003508 <handle_line+0x234>)
 80033b4:	687b      	ldr	r3, [r7, #4]
 80033b6:	0011      	movs	r1, r2
 80033b8:	0018      	movs	r0, r3
 80033ba:	f7fc fea3 	bl	8000104 <strcmp>
 80033be:	1e03      	subs	r3, r0, #0
 80033c0:	d106      	bne.n	80033d0 <handle_line+0xfc>
        fram_cmd_clear();
 80033c2:	f7ff fbd3 	bl	8002b6c <fram_cmd_clear>
        printf("FRAM CLEARED\r\n");
 80033c6:	4b51      	ldr	r3, [pc, #324]	@ (800350c <handle_line+0x238>)
 80033c8:	0018      	movs	r0, r3
 80033ca:	f004 f901 	bl	80075d0 <puts>
 80033ce:	e081      	b.n	80034d4 <handle_line+0x200>
    } else if (strcmp(line, "TEMP") == 0) {
 80033d0:	4a4f      	ldr	r2, [pc, #316]	@ (8003510 <handle_line+0x23c>)
 80033d2:	687b      	ldr	r3, [r7, #4]
 80033d4:	0011      	movs	r1, r2
 80033d6:	0018      	movs	r0, r3
 80033d8:	f7fc fe94 	bl	8000104 <strcmp>
 80033dc:	1e03      	subs	r3, r0, #0
 80033de:	d16c      	bne.n	80034ba <handle_line+0x1e6>
        int16_t raw = 0;
 80033e0:	250e      	movs	r5, #14
 80033e2:	197b      	adds	r3, r7, r5
 80033e4:	2200      	movs	r2, #0
 80033e6:	801a      	strh	r2, [r3, #0]
        HAL_StatusTypeDef st = tmp102_read_raw(&raw);
 80033e8:	261f      	movs	r6, #31
 80033ea:	19bc      	adds	r4, r7, r6
 80033ec:	197b      	adds	r3, r7, r5
 80033ee:	0018      	movs	r0, r3
 80033f0:	f7ff fe3a 	bl	8003068 <tmp102_read_raw>
 80033f4:	0003      	movs	r3, r0
 80033f6:	7023      	strb	r3, [r4, #0]
        if (st == HAL_OK) {
 80033f8:	19bb      	adds	r3, r7, r6
 80033fa:	781b      	ldrb	r3, [r3, #0]
 80033fc:	2b00      	cmp	r3, #0
 80033fe:	d14e      	bne.n	800349e <handle_line+0x1ca>
            int c_tenths = ((raw >> 4) * 625) / 100;
 8003400:	197b      	adds	r3, r7, r5
 8003402:	2200      	movs	r2, #0
 8003404:	5e9b      	ldrsh	r3, [r3, r2]
 8003406:	111b      	asrs	r3, r3, #4
 8003408:	b21b      	sxth	r3, r3
 800340a:	001a      	movs	r2, r3
 800340c:	0013      	movs	r3, r2
 800340e:	015b      	lsls	r3, r3, #5
 8003410:	1a9b      	subs	r3, r3, r2
 8003412:	009b      	lsls	r3, r3, #2
 8003414:	189b      	adds	r3, r3, r2
 8003416:	009a      	lsls	r2, r3, #2
 8003418:	189b      	adds	r3, r3, r2
 800341a:	2164      	movs	r1, #100	@ 0x64
 800341c:	0018      	movs	r0, r3
 800341e:	f7fc ff21 	bl	8000264 <__divsi3>
 8003422:	0003      	movs	r3, r0
 8003424:	61bb      	str	r3, [r7, #24]
            int f_tenths = (c_tenths * 9) / 5 + 320;
 8003426:	69ba      	ldr	r2, [r7, #24]
 8003428:	0013      	movs	r3, r2
 800342a:	00db      	lsls	r3, r3, #3
 800342c:	189b      	adds	r3, r3, r2
 800342e:	2105      	movs	r1, #5
 8003430:	0018      	movs	r0, r3
 8003432:	f7fc ff17 	bl	8000264 <__divsi3>
 8003436:	0003      	movs	r3, r0
 8003438:	3341      	adds	r3, #65	@ 0x41
 800343a:	33ff      	adds	r3, #255	@ 0xff
 800343c:	617b      	str	r3, [r7, #20]
            printf("Temp: %d.%01d C (%d.%01d F)\r\n",
 800343e:	69bb      	ldr	r3, [r7, #24]
 8003440:	210a      	movs	r1, #10
 8003442:	0018      	movs	r0, r3
 8003444:	f7fc ff0e 	bl	8000264 <__divsi3>
 8003448:	0003      	movs	r3, r0
 800344a:	001d      	movs	r5, r3
                   c_tenths/10, abs(c_tenths%10),
 800344c:	69bb      	ldr	r3, [r7, #24]
 800344e:	210a      	movs	r1, #10
 8003450:	0018      	movs	r0, r3
 8003452:	f7fc ffed 	bl	8000430 <__aeabi_idivmod>
 8003456:	000b      	movs	r3, r1
            printf("Temp: %d.%01d C (%d.%01d F)\r\n",
 8003458:	17da      	asrs	r2, r3, #31
 800345a:	189c      	adds	r4, r3, r2
 800345c:	4054      	eors	r4, r2
 800345e:	697b      	ldr	r3, [r7, #20]
 8003460:	210a      	movs	r1, #10
 8003462:	0018      	movs	r0, r3
 8003464:	f7fc fefe 	bl	8000264 <__divsi3>
 8003468:	0003      	movs	r3, r0
 800346a:	001e      	movs	r6, r3
                   f_tenths/10, abs(f_tenths%10));
 800346c:	697b      	ldr	r3, [r7, #20]
 800346e:	210a      	movs	r1, #10
 8003470:	0018      	movs	r0, r3
 8003472:	f7fc ffdd 	bl	8000430 <__aeabi_idivmod>
 8003476:	000b      	movs	r3, r1
            printf("Temp: %d.%01d C (%d.%01d F)\r\n",
 8003478:	17da      	asrs	r2, r3, #31
 800347a:	189b      	adds	r3, r3, r2
 800347c:	4053      	eors	r3, r2
 800347e:	4825      	ldr	r0, [pc, #148]	@ (8003514 <handle_line+0x240>)
 8003480:	9300      	str	r3, [sp, #0]
 8003482:	0033      	movs	r3, r6
 8003484:	0022      	movs	r2, r4
 8003486:	0029      	movs	r1, r5
 8003488:	f004 f83c 	bl	8007504 <iprintf>
            fram_log_sample_on_data((uint16_t)raw);
 800348c:	250e      	movs	r5, #14
 800348e:	197b      	adds	r3, r7, r5
 8003490:	2200      	movs	r2, #0
 8003492:	5e9b      	ldrsh	r3, [r3, r2]
 8003494:	b29b      	uxth	r3, r3
 8003496:	0018      	movs	r0, r3
 8003498:	f7ff fb8a 	bl	8002bb0 <fram_log_sample_on_data>
}
 800349c:	e01a      	b.n	80034d4 <handle_line+0x200>
            printf("TEMP read ERROR\r\n");
 800349e:	4b1e      	ldr	r3, [pc, #120]	@ (8003518 <handle_line+0x244>)
 80034a0:	0018      	movs	r0, r3
 80034a2:	f004 f895 	bl	80075d0 <puts>
            I2C1_DebugScan();
 80034a6:	f7ff fe21 	bl	80030ec <I2C1_DebugScan>
            TMP102_DebugDump();
 80034aa:	f7ff fe5b 	bl	8003164 <TMP102_DebugDump>
            printf("If no device @ 0x%02X, check ADD0 strap & change TMP102_ADDR7.\r\n", TMP102_ADDR7);
 80034ae:	4b1b      	ldr	r3, [pc, #108]	@ (800351c <handle_line+0x248>)
 80034b0:	2148      	movs	r1, #72	@ 0x48
 80034b2:	0018      	movs	r0, r3
 80034b4:	f004 f826 	bl	8007504 <iprintf>
}
 80034b8:	e00c      	b.n	80034d4 <handle_line+0x200>
    } else if (line[0] != '\0') {
 80034ba:	687b      	ldr	r3, [r7, #4]
 80034bc:	781b      	ldrb	r3, [r3, #0]
 80034be:	2b00      	cmp	r3, #0
 80034c0:	d008      	beq.n	80034d4 <handle_line+0x200>
        printf("Unknown: %s\r\n", line);
 80034c2:	687a      	ldr	r2, [r7, #4]
 80034c4:	4b16      	ldr	r3, [pc, #88]	@ (8003520 <handle_line+0x24c>)
 80034c6:	0011      	movs	r1, r2
 80034c8:	0018      	movs	r0, r3
 80034ca:	f004 f81b 	bl	8007504 <iprintf>
        print_help();
 80034ce:	f7ff fef5 	bl	80032bc <print_help>
}
 80034d2:	e7ff      	b.n	80034d4 <handle_line+0x200>
 80034d4:	46c0      	nop			@ (mov r8, r8)
 80034d6:	46bd      	mov	sp, r7
 80034d8:	b009      	add	sp, #36	@ 0x24
 80034da:	bdf0      	pop	{r4, r5, r6, r7, pc}
 80034dc:	08009714 	.word	0x08009714
 80034e0:	0800971c 	.word	0x0800971c
 80034e4:	08009720 	.word	0x08009720
 80034e8:	08009728 	.word	0x08009728
 80034ec:	0800972c 	.word	0x0800972c
 80034f0:	08009730 	.word	0x08009730
 80034f4:	08009758 	.word	0x08009758
 80034f8:	08009760 	.word	0x08009760
 80034fc:	08009774 	.word	0x08009774
 8003500:	0800977c 	.word	0x0800977c
 8003504:	08009790 	.word	0x08009790
 8003508:	08009798 	.word	0x08009798
 800350c:	080097a0 	.word	0x080097a0
 8003510:	080097b0 	.word	0x080097b0
 8003514:	080097b8 	.word	0x080097b8
 8003518:	080097d8 	.word	0x080097d8
 800351c:	080097ec 	.word	0x080097ec
 8003520:	08009830 	.word	0x08009830

08003524 <main>:

int main(void)
{
 8003524:	b580      	push	{r7, lr}
 8003526:	b0a2      	sub	sp, #136	@ 0x88
 8003528:	af00      	add	r7, sp, #0
    HAL_Init();
 800352a:	f000 fcab 	bl	8003e84 <HAL_Init>

    /* Configure I2C1 on PB8/PB9 at 100 kHz using HSI16 as kernel clock */
    I2C1_Init_PB8PB9_100k_HSI16();
 800352e:	f7ff fb77 	bl	8002c20 <I2C1_Init_PB8PB9_100k_HSI16>

    FRAM_SPI_GPIO_Init();
 8003532:	f7ff f8f7 	bl	8002724 <FRAM_SPI_GPIO_Init>
    FRAM_SPI_PeriphInit();
 8003536:	f7ff f875 	bl	8002624 <FRAM_SPI_PeriphInit>

    MX_USART2_UART_Init();
 800353a:	f000 fc6d 	bl	8003e18 <MX_USART2_UART_Init>

    (void)tmp102_initialize();
 800353e:	f7ff fd6b 	bl	8003018 <tmp102_initialize>

    printf("\r\nUART online (115200 8N1)\r\n");
 8003542:	4b10      	ldr	r3, [pc, #64]	@ (8003584 <main+0x60>)
 8003544:	0018      	movs	r0, r3
 8003546:	f004 f843 	bl	80075d0 <puts>
    print_help();
 800354a:	f7ff feb7 	bl	80032bc <print_help>
    printf("> ");
 800354e:	4b0e      	ldr	r3, [pc, #56]	@ (8003588 <main+0x64>)
 8003550:	0018      	movs	r0, r3
 8003552:	f003 ffd7 	bl	8007504 <iprintf>

    char line[128];

    while (1) {
        int n = ring_read_line(line, sizeof line);
 8003556:	1d3b      	adds	r3, r7, #4
 8003558:	2180      	movs	r1, #128	@ 0x80
 800355a:	0018      	movs	r0, r3
 800355c:	f000 f944 	bl	80037e8 <ring_read_line>
 8003560:	0003      	movs	r3, r0
 8003562:	2284      	movs	r2, #132	@ 0x84
 8003564:	18b9      	adds	r1, r7, r2
 8003566:	600b      	str	r3, [r1, #0]
        if (n > 0) {
 8003568:	18bb      	adds	r3, r7, r2
 800356a:	681b      	ldr	r3, [r3, #0]
 800356c:	2b00      	cmp	r3, #0
 800356e:	ddf2      	ble.n	8003556 <main+0x32>
            handle_line(line);
 8003570:	1d3b      	adds	r3, r7, #4
 8003572:	0018      	movs	r0, r3
 8003574:	f7ff feae 	bl	80032d4 <handle_line>
            printf("> ");
 8003578:	4b03      	ldr	r3, [pc, #12]	@ (8003588 <main+0x64>)
 800357a:	0018      	movs	r0, r3
 800357c:	f003 ffc2 	bl	8007504 <iprintf>
    while (1) {
 8003580:	e7e9      	b.n	8003556 <main+0x32>
 8003582:	46c0      	nop			@ (mov r8, r8)
 8003584:	08009840 	.word	0x08009840
 8003588:	0800985c 	.word	0x0800985c

0800358c <Error_Handler>:
        }
    }
}

void Error_Handler(void)
{
 800358c:	b580      	push	{r7, lr}
 800358e:	af00      	add	r7, sp, #0
  \details Disables IRQ interrupts by setting the I-bit in the CPSR.
           Can only be executed in Privileged modes.
 */
__STATIC_FORCEINLINE void __disable_irq(void)
{
  __ASM volatile ("cpsid i" : : : "memory");
 8003590:	b672      	cpsid	i
}
 8003592:	46c0      	nop			@ (mov r8, r8)
    __disable_irq();
    while (1) { }
 8003594:	46c0      	nop			@ (mov r8, r8)
 8003596:	e7fd      	b.n	8003594 <Error_Handler+0x8>

08003598 <__io_putchar>:
/* Provided by usart.c */
void USR_USART2_WriteByte(uint8_t b);


int __io_putchar(int ch)
{
 8003598:	b580      	push	{r7, lr}
 800359a:	b082      	sub	sp, #8
 800359c:	af00      	add	r7, sp, #0
 800359e:	6078      	str	r0, [r7, #4]
if (ch == '\n') {
 80035a0:	687b      	ldr	r3, [r7, #4]
 80035a2:	2b0a      	cmp	r3, #10
 80035a4:	d102      	bne.n	80035ac <__io_putchar+0x14>
USR_USART2_WriteByte('\r');
 80035a6:	200d      	movs	r0, #13
 80035a8:	f000 fb70 	bl	8003c8c <USR_USART2_WriteByte>
}
USR_USART2_WriteByte((uint8_t)ch);
 80035ac:	687b      	ldr	r3, [r7, #4]
 80035ae:	b2db      	uxtb	r3, r3
 80035b0:	0018      	movs	r0, r3
 80035b2:	f000 fb6b 	bl	8003c8c <USR_USART2_WriteByte>
return ch;
 80035b6:	687b      	ldr	r3, [r7, #4]
}
 80035b8:	0018      	movs	r0, r3
 80035ba:	46bd      	mov	sp, r7
 80035bc:	b002      	add	sp, #8
 80035be:	bd80      	pop	{r7, pc}

080035c0 <inc>:
/* Storage */
static char    rb[RING_CAP];
static uint8_t head, tail, count, lines;
static uint8_t last_was_cr;

static inline uint8_t inc(uint8_t x){ return (uint8_t)((x + 1u) % RING_CAP); }
 80035c0:	b580      	push	{r7, lr}
 80035c2:	b082      	sub	sp, #8
 80035c4:	af00      	add	r7, sp, #0
 80035c6:	0002      	movs	r2, r0
 80035c8:	1dfb      	adds	r3, r7, #7
 80035ca:	701a      	strb	r2, [r3, #0]
 80035cc:	1dfb      	adds	r3, r7, #7
 80035ce:	781b      	ldrb	r3, [r3, #0]
 80035d0:	3301      	adds	r3, #1
 80035d2:	b2db      	uxtb	r3, r3
 80035d4:	0018      	movs	r0, r3
 80035d6:	46bd      	mov	sp, r7
 80035d8:	b002      	add	sp, #8
 80035da:	bd80      	pop	{r7, pc}

080035dc <dec>:
static inline uint8_t dec(uint8_t x){ return (uint8_t)((x + RING_CAP - 1u) % RING_CAP); }
 80035dc:	b580      	push	{r7, lr}
 80035de:	b082      	sub	sp, #8
 80035e0:	af00      	add	r7, sp, #0
 80035e2:	0002      	movs	r2, r0
 80035e4:	1dfb      	adds	r3, r7, #7
 80035e6:	701a      	strb	r2, [r3, #0]
 80035e8:	1dfb      	adds	r3, r7, #7
 80035ea:	781b      	ldrb	r3, [r3, #0]
 80035ec:	3b01      	subs	r3, #1
 80035ee:	b2db      	uxtb	r3, r3
 80035f0:	0018      	movs	r0, r3
 80035f2:	46bd      	mov	sp, r7
 80035f4:	b002      	add	sp, #8
 80035f6:	bd80      	pop	{r7, pc}

080035f8 <ring_init>:

void ring_init(void){
 80035f8:	b580      	push	{r7, lr}
 80035fa:	b082      	sub	sp, #8
 80035fc:	af00      	add	r7, sp, #0
    head = tail = count = lines = last_was_cr = 0u;
 80035fe:	4b13      	ldr	r3, [pc, #76]	@ (800364c <ring_init+0x54>)
 8003600:	2200      	movs	r2, #0
 8003602:	701a      	strb	r2, [r3, #0]
 8003604:	4b11      	ldr	r3, [pc, #68]	@ (800364c <ring_init+0x54>)
 8003606:	781a      	ldrb	r2, [r3, #0]
 8003608:	4b11      	ldr	r3, [pc, #68]	@ (8003650 <ring_init+0x58>)
 800360a:	701a      	strb	r2, [r3, #0]
 800360c:	4b10      	ldr	r3, [pc, #64]	@ (8003650 <ring_init+0x58>)
 800360e:	781a      	ldrb	r2, [r3, #0]
 8003610:	4b10      	ldr	r3, [pc, #64]	@ (8003654 <ring_init+0x5c>)
 8003612:	701a      	strb	r2, [r3, #0]
 8003614:	4b0f      	ldr	r3, [pc, #60]	@ (8003654 <ring_init+0x5c>)
 8003616:	781a      	ldrb	r2, [r3, #0]
 8003618:	4b0f      	ldr	r3, [pc, #60]	@ (8003658 <ring_init+0x60>)
 800361a:	701a      	strb	r2, [r3, #0]
 800361c:	4b0e      	ldr	r3, [pc, #56]	@ (8003658 <ring_init+0x60>)
 800361e:	781a      	ldrb	r2, [r3, #0]
 8003620:	4b0e      	ldr	r3, [pc, #56]	@ (800365c <ring_init+0x64>)
 8003622:	701a      	strb	r2, [r3, #0]
    for (uint32_t i=0;i<RING_CAP;i++) rb[i]=0;
 8003624:	2300      	movs	r3, #0
 8003626:	607b      	str	r3, [r7, #4]
 8003628:	e007      	b.n	800363a <ring_init+0x42>
 800362a:	4a0d      	ldr	r2, [pc, #52]	@ (8003660 <ring_init+0x68>)
 800362c:	687b      	ldr	r3, [r7, #4]
 800362e:	18d3      	adds	r3, r2, r3
 8003630:	2200      	movs	r2, #0
 8003632:	701a      	strb	r2, [r3, #0]
 8003634:	687b      	ldr	r3, [r7, #4]
 8003636:	3301      	adds	r3, #1
 8003638:	607b      	str	r3, [r7, #4]
 800363a:	687b      	ldr	r3, [r7, #4]
 800363c:	2bff      	cmp	r3, #255	@ 0xff
 800363e:	d9f4      	bls.n	800362a <ring_init+0x32>
}
 8003640:	46c0      	nop			@ (mov r8, r8)
 8003642:	46c0      	nop			@ (mov r8, r8)
 8003644:	46bd      	mov	sp, r7
 8003646:	b002      	add	sp, #8
 8003648:	bd80      	pop	{r7, pc}
 800364a:	46c0      	nop			@ (mov r8, r8)
 800364c:	20000360 	.word	0x20000360
 8003650:	2000035f 	.word	0x2000035f
 8003654:	2000035e 	.word	0x2000035e
 8003658:	2000035d 	.word	0x2000035d
 800365c:	2000035c 	.word	0x2000035c
 8003660:	2000025c 	.word	0x2000025c

08003664 <push_byte>:
void ring_clear(void){ ring_init(); }
int  ring_count(void){ return (int)count; }
int  ring_is_empty(void){ return count==0u; }
int  ring_has_line(void){ return lines>0u; }

static void push_byte(char ch){
 8003664:	b580      	push	{r7, lr}
 8003666:	b082      	sub	sp, #8
 8003668:	af00      	add	r7, sp, #0
 800366a:	0002      	movs	r2, r0
 800366c:	1dfb      	adds	r3, r7, #7
 800366e:	701a      	strb	r2, [r3, #0]
    if (count == RING_CAP) {
        if (rb[tail] == '\r' && lines) lines--;
        tail = inc(tail); count--;
    }
    rb[head]=ch; head=inc(head); count++;
 8003670:	4b0c      	ldr	r3, [pc, #48]	@ (80036a4 <push_byte+0x40>)
 8003672:	781b      	ldrb	r3, [r3, #0]
 8003674:	0019      	movs	r1, r3
 8003676:	4b0c      	ldr	r3, [pc, #48]	@ (80036a8 <push_byte+0x44>)
 8003678:	1dfa      	adds	r2, r7, #7
 800367a:	7812      	ldrb	r2, [r2, #0]
 800367c:	545a      	strb	r2, [r3, r1]
 800367e:	4b09      	ldr	r3, [pc, #36]	@ (80036a4 <push_byte+0x40>)
 8003680:	781b      	ldrb	r3, [r3, #0]
 8003682:	0018      	movs	r0, r3
 8003684:	f7ff ff9c 	bl	80035c0 <inc>
 8003688:	0003      	movs	r3, r0
 800368a:	001a      	movs	r2, r3
 800368c:	4b05      	ldr	r3, [pc, #20]	@ (80036a4 <push_byte+0x40>)
 800368e:	701a      	strb	r2, [r3, #0]
 8003690:	4b06      	ldr	r3, [pc, #24]	@ (80036ac <push_byte+0x48>)
 8003692:	781b      	ldrb	r3, [r3, #0]
 8003694:	3301      	adds	r3, #1
 8003696:	b2da      	uxtb	r2, r3
 8003698:	4b04      	ldr	r3, [pc, #16]	@ (80036ac <push_byte+0x48>)
 800369a:	701a      	strb	r2, [r3, #0]
}
 800369c:	46c0      	nop			@ (mov r8, r8)
 800369e:	46bd      	mov	sp, r7
 80036a0:	b002      	add	sp, #8
 80036a2:	bd80      	pop	{r7, pc}
 80036a4:	2000035c 	.word	0x2000035c
 80036a8:	2000025c 	.word	0x2000025c
 80036ac:	2000035e 	.word	0x2000035e

080036b0 <echo_bs_one>:

static void echo_bs_one(void){
 80036b0:	b580      	push	{r7, lr}
 80036b2:	af00      	add	r7, sp, #0
    __io_putchar('\b'); __io_putchar(' '); __io_putchar('\b');
 80036b4:	2008      	movs	r0, #8
 80036b6:	f7ff ff6f 	bl	8003598 <__io_putchar>
 80036ba:	2020      	movs	r0, #32
 80036bc:	f7ff ff6c 	bl	8003598 <__io_putchar>
 80036c0:	2008      	movs	r0, #8
 80036c2:	f7ff ff69 	bl	8003598 <__io_putchar>
}
 80036c6:	46c0      	nop			@ (mov r8, r8)
 80036c8:	46bd      	mov	sp, r7
 80036ca:	bd80      	pop	{r7, pc}

080036cc <ring_add>:

void ring_add(char ch){
 80036cc:	b5b0      	push	{r4, r5, r7, lr}
 80036ce:	b084      	sub	sp, #16
 80036d0:	af00      	add	r7, sp, #0
 80036d2:	0002      	movs	r2, r0
 80036d4:	1dfb      	adds	r3, r7, #7
 80036d6:	701a      	strb	r2, [r3, #0]
    unsigned char u = (unsigned char)ch;
 80036d8:	210f      	movs	r1, #15
 80036da:	187b      	adds	r3, r7, r1
 80036dc:	1dfa      	adds	r2, r7, #7
 80036de:	7812      	ldrb	r2, [r2, #0]
 80036e0:	701a      	strb	r2, [r3, #0]

    /* Backspace or DEL */
    if (u == '\b' || u == 0x7Fu){
 80036e2:	000a      	movs	r2, r1
 80036e4:	18bb      	adds	r3, r7, r2
 80036e6:	781b      	ldrb	r3, [r3, #0]
 80036e8:	2b08      	cmp	r3, #8
 80036ea:	d003      	beq.n	80036f4 <ring_add+0x28>
 80036ec:	18bb      	adds	r3, r7, r2
 80036ee:	781b      	ldrb	r3, [r3, #0]
 80036f0:	2b7f      	cmp	r3, #127	@ 0x7f
 80036f2:	d129      	bne.n	8003748 <ring_add+0x7c>
        last_was_cr = 0u;
 80036f4:	4b37      	ldr	r3, [pc, #220]	@ (80037d4 <ring_add+0x108>)
 80036f6:	2200      	movs	r2, #0
 80036f8:	701a      	strb	r2, [r3, #0]
        if (count>0u){
 80036fa:	4b37      	ldr	r3, [pc, #220]	@ (80037d8 <ring_add+0x10c>)
 80036fc:	781b      	ldrb	r3, [r3, #0]
 80036fe:	2b00      	cmp	r3, #0
 8003700:	d063      	beq.n	80037ca <ring_add+0xfe>
            uint8_t prev = dec(head);
 8003702:	4b36      	ldr	r3, [pc, #216]	@ (80037dc <ring_add+0x110>)
 8003704:	781b      	ldrb	r3, [r3, #0]
 8003706:	250e      	movs	r5, #14
 8003708:	197c      	adds	r4, r7, r5
 800370a:	0018      	movs	r0, r3
 800370c:	f7ff ff66 	bl	80035dc <dec>
 8003710:	0003      	movs	r3, r0
 8003712:	7023      	strb	r3, [r4, #0]
            if (rb[prev] != '\r'){ head=prev; rb[head]=0; count--; echo_bs_one(); }
 8003714:	0029      	movs	r1, r5
 8003716:	187b      	adds	r3, r7, r1
 8003718:	781b      	ldrb	r3, [r3, #0]
 800371a:	4a31      	ldr	r2, [pc, #196]	@ (80037e0 <ring_add+0x114>)
 800371c:	5cd3      	ldrb	r3, [r2, r3]
 800371e:	2b0d      	cmp	r3, #13
 8003720:	d053      	beq.n	80037ca <ring_add+0xfe>
 8003722:	4b2e      	ldr	r3, [pc, #184]	@ (80037dc <ring_add+0x110>)
 8003724:	187a      	adds	r2, r7, r1
 8003726:	7812      	ldrb	r2, [r2, #0]
 8003728:	701a      	strb	r2, [r3, #0]
 800372a:	4b2c      	ldr	r3, [pc, #176]	@ (80037dc <ring_add+0x110>)
 800372c:	781b      	ldrb	r3, [r3, #0]
 800372e:	001a      	movs	r2, r3
 8003730:	4b2b      	ldr	r3, [pc, #172]	@ (80037e0 <ring_add+0x114>)
 8003732:	2100      	movs	r1, #0
 8003734:	5499      	strb	r1, [r3, r2]
 8003736:	4b28      	ldr	r3, [pc, #160]	@ (80037d8 <ring_add+0x10c>)
 8003738:	781b      	ldrb	r3, [r3, #0]
 800373a:	3b01      	subs	r3, #1
 800373c:	b2da      	uxtb	r2, r3
 800373e:	4b26      	ldr	r3, [pc, #152]	@ (80037d8 <ring_add+0x10c>)
 8003740:	701a      	strb	r2, [r3, #0]
 8003742:	f7ff ffb5 	bl	80036b0 <echo_bs_one>
        }
        return;
 8003746:	e040      	b.n	80037ca <ring_add+0xfe>
    }

    /* Normalize line endings */
    if (u == '\n'){
 8003748:	230f      	movs	r3, #15
 800374a:	18fb      	adds	r3, r7, r3
 800374c:	781b      	ldrb	r3, [r3, #0]
 800374e:	2b0a      	cmp	r3, #10
 8003750:	d10b      	bne.n	800376a <ring_add+0x9e>
        if (last_was_cr){ last_was_cr=0u; return; } /* swallow LF after CR */
 8003752:	4b20      	ldr	r3, [pc, #128]	@ (80037d4 <ring_add+0x108>)
 8003754:	781b      	ldrb	r3, [r3, #0]
 8003756:	2b00      	cmp	r3, #0
 8003758:	d003      	beq.n	8003762 <ring_add+0x96>
 800375a:	4b1e      	ldr	r3, [pc, #120]	@ (80037d4 <ring_add+0x108>)
 800375c:	2200      	movs	r2, #0
 800375e:	701a      	strb	r2, [r3, #0]
 8003760:	e034      	b.n	80037cc <ring_add+0x100>
        u = '\r';
 8003762:	230f      	movs	r3, #15
 8003764:	18fb      	adds	r3, r7, r3
 8003766:	220d      	movs	r2, #13
 8003768:	701a      	strb	r2, [r3, #0]
    }

    if (u == '\r'){
 800376a:	230f      	movs	r3, #15
 800376c:	18fb      	adds	r3, r7, r3
 800376e:	781b      	ldrb	r3, [r3, #0]
 8003770:	2b0d      	cmp	r3, #13
 8003772:	d112      	bne.n	800379a <ring_add+0xce>
        push_byte('\r'); lines++; last_was_cr=1u;
 8003774:	200d      	movs	r0, #13
 8003776:	f7ff ff75 	bl	8003664 <push_byte>
 800377a:	4b1a      	ldr	r3, [pc, #104]	@ (80037e4 <ring_add+0x118>)
 800377c:	781b      	ldrb	r3, [r3, #0]
 800377e:	3301      	adds	r3, #1
 8003780:	b2da      	uxtb	r2, r3
 8003782:	4b18      	ldr	r3, [pc, #96]	@ (80037e4 <ring_add+0x118>)
 8003784:	701a      	strb	r2, [r3, #0]
 8003786:	4b13      	ldr	r3, [pc, #76]	@ (80037d4 <ring_add+0x108>)
 8003788:	2201      	movs	r2, #1
 800378a:	701a      	strb	r2, [r3, #0]
        /* minimal echo so IRQ stays quick */
        __io_putchar('\r'); __io_putchar('\n');
 800378c:	200d      	movs	r0, #13
 800378e:	f7ff ff03 	bl	8003598 <__io_putchar>
 8003792:	200a      	movs	r0, #10
 8003794:	f7ff ff00 	bl	8003598 <__io_putchar>
        return;
 8003798:	e018      	b.n	80037cc <ring_add+0x100>
    }

    if (u >= 32u && u <= 126u){
 800379a:	210f      	movs	r1, #15
 800379c:	187b      	adds	r3, r7, r1
 800379e:	781b      	ldrb	r3, [r3, #0]
 80037a0:	2b1f      	cmp	r3, #31
 80037a2:	d913      	bls.n	80037cc <ring_add+0x100>
 80037a4:	187b      	adds	r3, r7, r1
 80037a6:	781b      	ldrb	r3, [r3, #0]
 80037a8:	2b7e      	cmp	r3, #126	@ 0x7e
 80037aa:	d80f      	bhi.n	80037cc <ring_add+0x100>
        last_was_cr=0u; push_byte((char)u);
 80037ac:	4b09      	ldr	r3, [pc, #36]	@ (80037d4 <ring_add+0x108>)
 80037ae:	2200      	movs	r2, #0
 80037b0:	701a      	strb	r2, [r3, #0]
 80037b2:	000c      	movs	r4, r1
 80037b4:	187b      	adds	r3, r7, r1
 80037b6:	781b      	ldrb	r3, [r3, #0]
 80037b8:	0018      	movs	r0, r3
 80037ba:	f7ff ff53 	bl	8003664 <push_byte>
        __io_putchar((int)u);
 80037be:	193b      	adds	r3, r7, r4
 80037c0:	781b      	ldrb	r3, [r3, #0]
 80037c2:	0018      	movs	r0, r3
 80037c4:	f7ff fee8 	bl	8003598 <__io_putchar>
 80037c8:	e000      	b.n	80037cc <ring_add+0x100>
        return;
 80037ca:	46c0      	nop			@ (mov r8, r8)
    }
}
 80037cc:	46bd      	mov	sp, r7
 80037ce:	b004      	add	sp, #16
 80037d0:	bdb0      	pop	{r4, r5, r7, pc}
 80037d2:	46c0      	nop			@ (mov r8, r8)
 80037d4:	20000360 	.word	0x20000360
 80037d8:	2000035e 	.word	0x2000035e
 80037dc:	2000035c 	.word	0x2000035c
 80037e0:	2000025c 	.word	0x2000025c
 80037e4:	2000035f 	.word	0x2000035f

080037e8 <ring_read_line>:

int ring_read_line(char *dst, size_t dstlen){
 80037e8:	b590      	push	{r4, r7, lr}
 80037ea:	b085      	sub	sp, #20
 80037ec:	af00      	add	r7, sp, #0
 80037ee:	6078      	str	r0, [r7, #4]
 80037f0:	6039      	str	r1, [r7, #0]
    if (lines==0u || !dst || dstlen==0u) return 0;
 80037f2:	4b2f      	ldr	r3, [pc, #188]	@ (80038b0 <ring_read_line+0xc8>)
 80037f4:	781b      	ldrb	r3, [r3, #0]
 80037f6:	2b00      	cmp	r3, #0
 80037f8:	d005      	beq.n	8003806 <ring_read_line+0x1e>
 80037fa:	687b      	ldr	r3, [r7, #4]
 80037fc:	2b00      	cmp	r3, #0
 80037fe:	d002      	beq.n	8003806 <ring_read_line+0x1e>
 8003800:	683b      	ldr	r3, [r7, #0]
 8003802:	2b00      	cmp	r3, #0
 8003804:	d101      	bne.n	800380a <ring_read_line+0x22>
 8003806:	2300      	movs	r3, #0
 8003808:	e04d      	b.n	80038a6 <ring_read_line+0xbe>
    size_t n=0;
 800380a:	2300      	movs	r3, #0
 800380c:	60fb      	str	r3, [r7, #12]
    while (count>0u){
 800380e:	e039      	b.n	8003884 <ring_read_line+0x9c>
        char c=rb[tail]; tail=inc(tail); count--;
 8003810:	4b28      	ldr	r3, [pc, #160]	@ (80038b4 <ring_read_line+0xcc>)
 8003812:	781b      	ldrb	r3, [r3, #0]
 8003814:	0019      	movs	r1, r3
 8003816:	240b      	movs	r4, #11
 8003818:	193b      	adds	r3, r7, r4
 800381a:	4a27      	ldr	r2, [pc, #156]	@ (80038b8 <ring_read_line+0xd0>)
 800381c:	5c52      	ldrb	r2, [r2, r1]
 800381e:	701a      	strb	r2, [r3, #0]
 8003820:	4b24      	ldr	r3, [pc, #144]	@ (80038b4 <ring_read_line+0xcc>)
 8003822:	781b      	ldrb	r3, [r3, #0]
 8003824:	0018      	movs	r0, r3
 8003826:	f7ff fecb 	bl	80035c0 <inc>
 800382a:	0003      	movs	r3, r0
 800382c:	001a      	movs	r2, r3
 800382e:	4b21      	ldr	r3, [pc, #132]	@ (80038b4 <ring_read_line+0xcc>)
 8003830:	701a      	strb	r2, [r3, #0]
 8003832:	4b22      	ldr	r3, [pc, #136]	@ (80038bc <ring_read_line+0xd4>)
 8003834:	781b      	ldrb	r3, [r3, #0]
 8003836:	3b01      	subs	r3, #1
 8003838:	b2da      	uxtb	r2, r3
 800383a:	4b20      	ldr	r3, [pc, #128]	@ (80038bc <ring_read_line+0xd4>)
 800383c:	701a      	strb	r2, [r3, #0]
        if (c=='\r'){ lines--; if (n<dstlen) dst[n]='\0'; return (int)n; }
 800383e:	193b      	adds	r3, r7, r4
 8003840:	781b      	ldrb	r3, [r3, #0]
 8003842:	2b0d      	cmp	r3, #13
 8003844:	d110      	bne.n	8003868 <ring_read_line+0x80>
 8003846:	4b1a      	ldr	r3, [pc, #104]	@ (80038b0 <ring_read_line+0xc8>)
 8003848:	781b      	ldrb	r3, [r3, #0]
 800384a:	3b01      	subs	r3, #1
 800384c:	b2da      	uxtb	r2, r3
 800384e:	4b18      	ldr	r3, [pc, #96]	@ (80038b0 <ring_read_line+0xc8>)
 8003850:	701a      	strb	r2, [r3, #0]
 8003852:	68fa      	ldr	r2, [r7, #12]
 8003854:	683b      	ldr	r3, [r7, #0]
 8003856:	429a      	cmp	r2, r3
 8003858:	d204      	bcs.n	8003864 <ring_read_line+0x7c>
 800385a:	687a      	ldr	r2, [r7, #4]
 800385c:	68fb      	ldr	r3, [r7, #12]
 800385e:	18d3      	adds	r3, r2, r3
 8003860:	2200      	movs	r2, #0
 8003862:	701a      	strb	r2, [r3, #0]
 8003864:	68fb      	ldr	r3, [r7, #12]
 8003866:	e01e      	b.n	80038a6 <ring_read_line+0xbe>
        if (n+1<dstlen) dst[n++]=c;
 8003868:	68fb      	ldr	r3, [r7, #12]
 800386a:	3301      	adds	r3, #1
 800386c:	683a      	ldr	r2, [r7, #0]
 800386e:	429a      	cmp	r2, r3
 8003870:	d908      	bls.n	8003884 <ring_read_line+0x9c>
 8003872:	68fb      	ldr	r3, [r7, #12]
 8003874:	1c5a      	adds	r2, r3, #1
 8003876:	60fa      	str	r2, [r7, #12]
 8003878:	687a      	ldr	r2, [r7, #4]
 800387a:	18d3      	adds	r3, r2, r3
 800387c:	220b      	movs	r2, #11
 800387e:	18ba      	adds	r2, r7, r2
 8003880:	7812      	ldrb	r2, [r2, #0]
 8003882:	701a      	strb	r2, [r3, #0]
    while (count>0u){
 8003884:	4b0d      	ldr	r3, [pc, #52]	@ (80038bc <ring_read_line+0xd4>)
 8003886:	781b      	ldrb	r3, [r3, #0]
 8003888:	2b00      	cmp	r3, #0
 800388a:	d1c1      	bne.n	8003810 <ring_read_line+0x28>
    }
    lines=0u; if (n<dstlen) dst[n]='\0'; return (int)n;
 800388c:	4b08      	ldr	r3, [pc, #32]	@ (80038b0 <ring_read_line+0xc8>)
 800388e:	2200      	movs	r2, #0
 8003890:	701a      	strb	r2, [r3, #0]
 8003892:	68fa      	ldr	r2, [r7, #12]
 8003894:	683b      	ldr	r3, [r7, #0]
 8003896:	429a      	cmp	r2, r3
 8003898:	d204      	bcs.n	80038a4 <ring_read_line+0xbc>
 800389a:	687a      	ldr	r2, [r7, #4]
 800389c:	68fb      	ldr	r3, [r7, #12]
 800389e:	18d3      	adds	r3, r2, r3
 80038a0:	2200      	movs	r2, #0
 80038a2:	701a      	strb	r2, [r3, #0]
 80038a4:	68fb      	ldr	r3, [r7, #12]
 80038a6:	0018      	movs	r0, r3
 80038a8:	46bd      	mov	sp, r7
 80038aa:	b005      	add	sp, #20
 80038ac:	bd90      	pop	{r4, r7, pc}
 80038ae:	46c0      	nop			@ (mov r8, r8)
 80038b0:	2000035f 	.word	0x2000035f
 80038b4:	2000035d 	.word	0x2000035d
 80038b8:	2000025c 	.word	0x2000025c
 80038bc:	2000035e 	.word	0x2000035e

080038c0 <HAL_MspInit>:
/* USER CODE END 0 */
/**
  * Initializes the Global MSP.
  */
void HAL_MspInit(void)
{
 80038c0:	b580      	push	{r7, lr}
 80038c2:	b082      	sub	sp, #8
 80038c4:	af00      	add	r7, sp, #0

  /* USER CODE BEGIN MspInit 0 */

  /* USER CODE END MspInit 0 */

  __HAL_RCC_SYSCFG_CLK_ENABLE();
 80038c6:	4b0f      	ldr	r3, [pc, #60]	@ (8003904 <HAL_MspInit+0x44>)
 80038c8:	6c1a      	ldr	r2, [r3, #64]	@ 0x40
 80038ca:	4b0e      	ldr	r3, [pc, #56]	@ (8003904 <HAL_MspInit+0x44>)
 80038cc:	2101      	movs	r1, #1
 80038ce:	430a      	orrs	r2, r1
 80038d0:	641a      	str	r2, [r3, #64]	@ 0x40
 80038d2:	4b0c      	ldr	r3, [pc, #48]	@ (8003904 <HAL_MspInit+0x44>)
 80038d4:	6c1b      	ldr	r3, [r3, #64]	@ 0x40
 80038d6:	2201      	movs	r2, #1
 80038d8:	4013      	ands	r3, r2
 80038da:	607b      	str	r3, [r7, #4]
 80038dc:	687b      	ldr	r3, [r7, #4]
  __HAL_RCC_PWR_CLK_ENABLE();
 80038de:	4b09      	ldr	r3, [pc, #36]	@ (8003904 <HAL_MspInit+0x44>)
 80038e0:	6bda      	ldr	r2, [r3, #60]	@ 0x3c
 80038e2:	4b08      	ldr	r3, [pc, #32]	@ (8003904 <HAL_MspInit+0x44>)
 80038e4:	2180      	movs	r1, #128	@ 0x80
 80038e6:	0549      	lsls	r1, r1, #21
 80038e8:	430a      	orrs	r2, r1
 80038ea:	63da      	str	r2, [r3, #60]	@ 0x3c
 80038ec:	4b05      	ldr	r3, [pc, #20]	@ (8003904 <HAL_MspInit+0x44>)
 80038ee:	6bda      	ldr	r2, [r3, #60]	@ 0x3c
 80038f0:	2380      	movs	r3, #128	@ 0x80
 80038f2:	055b      	lsls	r3, r3, #21
 80038f4:	4013      	ands	r3, r2
 80038f6:	603b      	str	r3, [r7, #0]
 80038f8:	683b      	ldr	r3, [r7, #0]
  /* System interrupt init*/

  /* USER CODE BEGIN MspInit 1 */

  /* USER CODE END MspInit 1 */
}
 80038fa:	46c0      	nop			@ (mov r8, r8)
 80038fc:	46bd      	mov	sp, r7
 80038fe:	b002      	add	sp, #8
 8003900:	bd80      	pop	{r7, pc}
 8003902:	46c0      	nop			@ (mov r8, r8)
 8003904:	40021000 	.word	0x40021000

08003908 <HAL_SPI_MspInit>:
  * This function configures the hardware resources used in this example
  * @param hspi: SPI handle pointer
  * @retval None
  */
void HAL_SPI_MspInit(SPI_HandleTypeDef* hspi)
{
 8003908:	b590      	push	{r4, r7, lr}
 800390a:	b08b      	sub	sp, #44	@ 0x2c
 800390c:	af00      	add	r7, sp, #0
 800390e:	6078      	str	r0, [r7, #4]
  GPIO_InitTypeDef GPIO_InitStruct = {0};
 8003910:	2414      	movs	r4, #20
 8003912:	193b      	adds	r3, r7, r4
 8003914:	0018      	movs	r0, r3
 8003916:	2314      	movs	r3, #20
 8003918:	001a      	movs	r2, r3
 800391a:	2100      	movs	r1, #0
 800391c:	f003 ff60 	bl	80077e0 <memset>
  if(hspi->Instance==SPI1)
 8003920:	687b      	ldr	r3, [r7, #4]
 8003922:	681b      	ldr	r3, [r3, #0]
 8003924:	4a2c      	ldr	r2, [pc, #176]	@ (80039d8 <HAL_SPI_MspInit+0xd0>)
 8003926:	4293      	cmp	r3, r2
 8003928:	d151      	bne.n	80039ce <HAL_SPI_MspInit+0xc6>
  {
    /* USER CODE BEGIN SPI1_MspInit 0 */

    /* USER CODE END SPI1_MspInit 0 */
    /* Peripheral clock enable */
    __HAL_RCC_SPI1_CLK_ENABLE();
 800392a:	4b2c      	ldr	r3, [pc, #176]	@ (80039dc <HAL_SPI_MspInit+0xd4>)
 800392c:	6c1a      	ldr	r2, [r3, #64]	@ 0x40
 800392e:	4b2b      	ldr	r3, [pc, #172]	@ (80039dc <HAL_SPI_MspInit+0xd4>)
 8003930:	2180      	movs	r1, #128	@ 0x80
 8003932:	0149      	lsls	r1, r1, #5
 8003934:	430a      	orrs	r2, r1
 8003936:	641a      	str	r2, [r3, #64]	@ 0x40
 8003938:	4b28      	ldr	r3, [pc, #160]	@ (80039dc <HAL_SPI_MspInit+0xd4>)
 800393a:	6c1a      	ldr	r2, [r3, #64]	@ 0x40
 800393c:	2380      	movs	r3, #128	@ 0x80
 800393e:	015b      	lsls	r3, r3, #5
 8003940:	4013      	ands	r3, r2
 8003942:	613b      	str	r3, [r7, #16]
 8003944:	693b      	ldr	r3, [r7, #16]

    __HAL_RCC_GPIOA_CLK_ENABLE();
 8003946:	4b25      	ldr	r3, [pc, #148]	@ (80039dc <HAL_SPI_MspInit+0xd4>)
 8003948:	6b5a      	ldr	r2, [r3, #52]	@ 0x34
 800394a:	4b24      	ldr	r3, [pc, #144]	@ (80039dc <HAL_SPI_MspInit+0xd4>)
 800394c:	2101      	movs	r1, #1
 800394e:	430a      	orrs	r2, r1
 8003950:	635a      	str	r2, [r3, #52]	@ 0x34
 8003952:	4b22      	ldr	r3, [pc, #136]	@ (80039dc <HAL_SPI_MspInit+0xd4>)
 8003954:	6b5b      	ldr	r3, [r3, #52]	@ 0x34
 8003956:	2201      	movs	r2, #1
 8003958:	4013      	ands	r3, r2
 800395a:	60fb      	str	r3, [r7, #12]
 800395c:	68fb      	ldr	r3, [r7, #12]
    __HAL_RCC_GPIOB_CLK_ENABLE();
 800395e:	4b1f      	ldr	r3, [pc, #124]	@ (80039dc <HAL_SPI_MspInit+0xd4>)
 8003960:	6b5a      	ldr	r2, [r3, #52]	@ 0x34
 8003962:	4b1e      	ldr	r3, [pc, #120]	@ (80039dc <HAL_SPI_MspInit+0xd4>)
 8003964:	2102      	movs	r1, #2
 8003966:	430a      	orrs	r2, r1
 8003968:	635a      	str	r2, [r3, #52]	@ 0x34
 800396a:	4b1c      	ldr	r3, [pc, #112]	@ (80039dc <HAL_SPI_MspInit+0xd4>)
 800396c:	6b5b      	ldr	r3, [r3, #52]	@ 0x34
 800396e:	2202      	movs	r2, #2
 8003970:	4013      	ands	r3, r2
 8003972:	60bb      	str	r3, [r7, #8]
 8003974:	68bb      	ldr	r3, [r7, #8]
    /**SPI1 GPIO Configuration
    PA6     ------> SPI1_MISO
    PA7     ------> SPI1_MOSI
    PB3     ------> SPI1_SCK
    */
    GPIO_InitStruct.Pin = GPIO_PIN_6|GPIO_PIN_7;
 8003976:	193b      	adds	r3, r7, r4
 8003978:	22c0      	movs	r2, #192	@ 0xc0
 800397a:	601a      	str	r2, [r3, #0]
    GPIO_InitStruct.Mode = GPIO_MODE_AF_PP;
 800397c:	193b      	adds	r3, r7, r4
 800397e:	2202      	movs	r2, #2
 8003980:	605a      	str	r2, [r3, #4]
    GPIO_InitStruct.Pull = GPIO_NOPULL;
 8003982:	193b      	adds	r3, r7, r4
 8003984:	2200      	movs	r2, #0
 8003986:	609a      	str	r2, [r3, #8]
    GPIO_InitStruct.Speed = GPIO_SPEED_FREQ_LOW;
 8003988:	193b      	adds	r3, r7, r4
 800398a:	2200      	movs	r2, #0
 800398c:	60da      	str	r2, [r3, #12]
    GPIO_InitStruct.Alternate = GPIO_AF0_SPI1;
 800398e:	193b      	adds	r3, r7, r4
 8003990:	2200      	movs	r2, #0
 8003992:	611a      	str	r2, [r3, #16]
    HAL_GPIO_Init(GPIOA, &GPIO_InitStruct);
 8003994:	193a      	adds	r2, r7, r4
 8003996:	23a0      	movs	r3, #160	@ 0xa0
 8003998:	05db      	lsls	r3, r3, #23
 800399a:	0011      	movs	r1, r2
 800399c:	0018      	movs	r0, r3
 800399e:	f000 fca1 	bl	80042e4 <HAL_GPIO_Init>

    GPIO_InitStruct.Pin = GPIO_PIN_3;
 80039a2:	0021      	movs	r1, r4
 80039a4:	187b      	adds	r3, r7, r1
 80039a6:	2208      	movs	r2, #8
 80039a8:	601a      	str	r2, [r3, #0]
    GPIO_InitStruct.Mode = GPIO_MODE_AF_PP;
 80039aa:	187b      	adds	r3, r7, r1
 80039ac:	2202      	movs	r2, #2
 80039ae:	605a      	str	r2, [r3, #4]
    GPIO_InitStruct.Pull = GPIO_NOPULL;
 80039b0:	187b      	adds	r3, r7, r1
 80039b2:	2200      	movs	r2, #0
 80039b4:	609a      	str	r2, [r3, #8]
    GPIO_InitStruct.Speed = GPIO_SPEED_FREQ_LOW;
 80039b6:	187b      	adds	r3, r7, r1
 80039b8:	2200      	movs	r2, #0
 80039ba:	60da      	str	r2, [r3, #12]
    GPIO_InitStruct.Alternate = GPIO_AF0_SPI1;
 80039bc:	187b      	adds	r3, r7, r1
 80039be:	2200      	movs	r2, #0
 80039c0:	611a      	str	r2, [r3, #16]
    HAL_GPIO_Init(GPIOB, &GPIO_InitStruct);
 80039c2:	187b      	adds	r3, r7, r1
 80039c4:	4a06      	ldr	r2, [pc, #24]	@ (80039e0 <HAL_SPI_MspInit+0xd8>)
 80039c6:	0019      	movs	r1, r3
 80039c8:	0010      	movs	r0, r2
 80039ca:	f000 fc8b 	bl	80042e4 <HAL_GPIO_Init>

    /* USER CODE END SPI1_MspInit 1 */

  }

}
 80039ce:	46c0      	nop			@ (mov r8, r8)
 80039d0:	46bd      	mov	sp, r7
 80039d2:	b00b      	add	sp, #44	@ 0x2c
 80039d4:	bd90      	pop	{r4, r7, pc}
 80039d6:	46c0      	nop			@ (mov r8, r8)
 80039d8:	40013000 	.word	0x40013000
 80039dc:	40021000 	.word	0x40021000
 80039e0:	50000400 	.word	0x50000400

080039e4 <HAL_UART_MspInit>:
  * This function configures the hardware resources used in this example
  * @param huart: UART handle pointer
  * @retval None
  */
void HAL_UART_MspInit(UART_HandleTypeDef* huart)
{
 80039e4:	b590      	push	{r4, r7, lr}
 80039e6:	b097      	sub	sp, #92	@ 0x5c
 80039e8:	af00      	add	r7, sp, #0
 80039ea:	6078      	str	r0, [r7, #4]
  GPIO_InitTypeDef GPIO_InitStruct = {0};
 80039ec:	2344      	movs	r3, #68	@ 0x44
 80039ee:	18fb      	adds	r3, r7, r3
 80039f0:	0018      	movs	r0, r3
 80039f2:	2314      	movs	r3, #20
 80039f4:	001a      	movs	r2, r3
 80039f6:	2100      	movs	r1, #0
 80039f8:	f003 fef2 	bl	80077e0 <memset>
  RCC_PeriphCLKInitTypeDef PeriphClkInit = {0};
 80039fc:	2410      	movs	r4, #16
 80039fe:	193b      	adds	r3, r7, r4
 8003a00:	0018      	movs	r0, r3
 8003a02:	2334      	movs	r3, #52	@ 0x34
 8003a04:	001a      	movs	r2, r3
 8003a06:	2100      	movs	r1, #0
 8003a08:	f003 feea 	bl	80077e0 <memset>
  if(huart->Instance==USART2)
 8003a0c:	687b      	ldr	r3, [r7, #4]
 8003a0e:	681b      	ldr	r3, [r3, #0]
 8003a10:	4a22      	ldr	r2, [pc, #136]	@ (8003a9c <HAL_UART_MspInit+0xb8>)
 8003a12:	4293      	cmp	r3, r2
 8003a14:	d13e      	bne.n	8003a94 <HAL_UART_MspInit+0xb0>

    /* USER CODE END USART2_MspInit 0 */

  /** Initializes the peripherals clocks
  */
    PeriphClkInit.PeriphClockSelection = RCC_PERIPHCLK_USART2;
 8003a16:	193b      	adds	r3, r7, r4
 8003a18:	2202      	movs	r2, #2
 8003a1a:	601a      	str	r2, [r3, #0]
    PeriphClkInit.Usart2ClockSelection = RCC_USART2CLKSOURCE_PCLK1;
 8003a1c:	193b      	adds	r3, r7, r4
 8003a1e:	2200      	movs	r2, #0
 8003a20:	609a      	str	r2, [r3, #8]
    if (HAL_RCCEx_PeriphCLKConfig(&PeriphClkInit) != HAL_OK)
 8003a22:	193b      	adds	r3, r7, r4
 8003a24:	0018      	movs	r0, r3
 8003a26:	f000 fe8d 	bl	8004744 <HAL_RCCEx_PeriphCLKConfig>
 8003a2a:	1e03      	subs	r3, r0, #0
 8003a2c:	d001      	beq.n	8003a32 <HAL_UART_MspInit+0x4e>
    {
      Error_Handler();
 8003a2e:	f7ff fdad 	bl	800358c <Error_Handler>
    }

    /* Peripheral clock enable */
    __HAL_RCC_USART2_CLK_ENABLE();
 8003a32:	4b1b      	ldr	r3, [pc, #108]	@ (8003aa0 <HAL_UART_MspInit+0xbc>)
 8003a34:	6bda      	ldr	r2, [r3, #60]	@ 0x3c
 8003a36:	4b1a      	ldr	r3, [pc, #104]	@ (8003aa0 <HAL_UART_MspInit+0xbc>)
 8003a38:	2180      	movs	r1, #128	@ 0x80
 8003a3a:	0289      	lsls	r1, r1, #10
 8003a3c:	430a      	orrs	r2, r1
 8003a3e:	63da      	str	r2, [r3, #60]	@ 0x3c
 8003a40:	4b17      	ldr	r3, [pc, #92]	@ (8003aa0 <HAL_UART_MspInit+0xbc>)
 8003a42:	6bda      	ldr	r2, [r3, #60]	@ 0x3c
 8003a44:	2380      	movs	r3, #128	@ 0x80
 8003a46:	029b      	lsls	r3, r3, #10
 8003a48:	4013      	ands	r3, r2
 8003a4a:	60fb      	str	r3, [r7, #12]
 8003a4c:	68fb      	ldr	r3, [r7, #12]

    __HAL_RCC_GPIOA_CLK_ENABLE();
 8003a4e:	4b14      	ldr	r3, [pc, #80]	@ (8003aa0 <HAL_UART_MspInit+0xbc>)
 8003a50:	6b5a      	ldr	r2, [r3, #52]	@ 0x34
 8003a52:	4b13      	ldr	r3, [pc, #76]	@ (8003aa0 <HAL_UART_MspInit+0xbc>)
 8003a54:	2101      	movs	r1, #1
 8003a56:	430a      	orrs	r2, r1
 8003a58:	635a      	str	r2, [r3, #52]	@ 0x34
 8003a5a:	4b11      	ldr	r3, [pc, #68]	@ (8003aa0 <HAL_UART_MspInit+0xbc>)
 8003a5c:	6b5b      	ldr	r3, [r3, #52]	@ 0x34
 8003a5e:	2201      	movs	r2, #1
 8003a60:	4013      	ands	r3, r2
 8003a62:	60bb      	str	r3, [r7, #8]
 8003a64:	68bb      	ldr	r3, [r7, #8]
    /**USART2 GPIO Configuration
    PA2     ------> USART2_TX
    PA3     ------> USART2_RX
    */
    GPIO_InitStruct.Pin = USART2_TX_Pin|USART2_RX_Pin;
 8003a66:	2144      	movs	r1, #68	@ 0x44
 8003a68:	187b      	adds	r3, r7, r1
 8003a6a:	220c      	movs	r2, #12
 8003a6c:	601a      	str	r2, [r3, #0]
    GPIO_InitStruct.Mode = GPIO_MODE_AF_PP;
 8003a6e:	187b      	adds	r3, r7, r1
 8003a70:	2202      	movs	r2, #2
 8003a72:	605a      	str	r2, [r3, #4]
    GPIO_InitStruct.Pull = GPIO_PULLUP;
 8003a74:	187b      	adds	r3, r7, r1
 8003a76:	2201      	movs	r2, #1
 8003a78:	609a      	str	r2, [r3, #8]
    GPIO_InitStruct.Speed = GPIO_SPEED_FREQ_LOW;
 8003a7a:	187b      	adds	r3, r7, r1
 8003a7c:	2200      	movs	r2, #0
 8003a7e:	60da      	str	r2, [r3, #12]
    GPIO_InitStruct.Alternate = GPIO_AF1_USART2;
 8003a80:	187b      	adds	r3, r7, r1
 8003a82:	2201      	movs	r2, #1
 8003a84:	611a      	str	r2, [r3, #16]
    HAL_GPIO_Init(GPIOA, &GPIO_InitStruct);
 8003a86:	187a      	adds	r2, r7, r1
 8003a88:	23a0      	movs	r3, #160	@ 0xa0
 8003a8a:	05db      	lsls	r3, r3, #23
 8003a8c:	0011      	movs	r1, r2
 8003a8e:	0018      	movs	r0, r3
 8003a90:	f000 fc28 	bl	80042e4 <HAL_GPIO_Init>

    /* USER CODE END USART2_MspInit 1 */

  }

}
 8003a94:	46c0      	nop			@ (mov r8, r8)
 8003a96:	46bd      	mov	sp, r7
 8003a98:	b017      	add	sp, #92	@ 0x5c
 8003a9a:	bd90      	pop	{r4, r7, pc}
 8003a9c:	40004400 	.word	0x40004400
 8003aa0:	40021000 	.word	0x40021000

08003aa4 <NMI_Handler>:
/******************************************************************************/
/**
  * @brief This function handles Non maskable interrupt.
  */
void NMI_Handler(void)
{
 8003aa4:	b580      	push	{r7, lr}
 8003aa6:	af00      	add	r7, sp, #0
  /* USER CODE BEGIN NonMaskableInt_IRQn 0 */

  /* USER CODE END NonMaskableInt_IRQn 0 */
  /* USER CODE BEGIN NonMaskableInt_IRQn 1 */
   while (1)
 8003aa8:	46c0      	nop			@ (mov r8, r8)
 8003aaa:	e7fd      	b.n	8003aa8 <NMI_Handler+0x4>

08003aac <HardFault_Handler>:

/**
  * @brief This function handles Hard fault interrupt.
  */
void HardFault_Handler(void)
{
 8003aac:	b580      	push	{r7, lr}
 8003aae:	af00      	add	r7, sp, #0
  /* USER CODE BEGIN HardFault_IRQn 0 */

  /* USER CODE END HardFault_IRQn 0 */
  while (1)
 8003ab0:	46c0      	nop			@ (mov r8, r8)
 8003ab2:	e7fd      	b.n	8003ab0 <HardFault_Handler+0x4>

08003ab4 <SVC_Handler>:

/**
  * @brief This function handles System service call via SWI instruction.
  */
void SVC_Handler(void)
{
 8003ab4:	b580      	push	{r7, lr}
 8003ab6:	af00      	add	r7, sp, #0

  /* USER CODE END SVC_IRQn 0 */
  /* USER CODE BEGIN SVC_IRQn 1 */

  /* USER CODE END SVC_IRQn 1 */
}
 8003ab8:	46c0      	nop			@ (mov r8, r8)
 8003aba:	46bd      	mov	sp, r7
 8003abc:	bd80      	pop	{r7, pc}

08003abe <PendSV_Handler>:

/**
  * @brief This function handles Pendable request for system service.
  */
void PendSV_Handler(void)
{
 8003abe:	b580      	push	{r7, lr}
 8003ac0:	af00      	add	r7, sp, #0

  /* USER CODE END PendSV_IRQn 0 */
  /* USER CODE BEGIN PendSV_IRQn 1 */

  /* USER CODE END PendSV_IRQn 1 */
}
 8003ac2:	46c0      	nop			@ (mov r8, r8)
 8003ac4:	46bd      	mov	sp, r7
 8003ac6:	bd80      	pop	{r7, pc}

08003ac8 <SysTick_Handler>:

/**
  * @brief This function handles System tick timer.
  */
void SysTick_Handler(void)
{
 8003ac8:	b580      	push	{r7, lr}
 8003aca:	af00      	add	r7, sp, #0
  /* USER CODE BEGIN SysTick_IRQn 0 */

  /* USER CODE END SysTick_IRQn 0 */
  HAL_IncTick();
 8003acc:	f000 fa44 	bl	8003f58 <HAL_IncTick>
  /* USER CODE BEGIN SysTick_IRQn 1 */

  /* USER CODE END SysTick_IRQn 1 */
}
 8003ad0:	46c0      	nop			@ (mov r8, r8)
 8003ad2:	46bd      	mov	sp, r7
 8003ad4:	bd80      	pop	{r7, pc}

08003ad6 <_getpid>:
void initialise_monitor_handles()
{
}

int _getpid(void)
{
 8003ad6:	b580      	push	{r7, lr}
 8003ad8:	af00      	add	r7, sp, #0
  return 1;
 8003ada:	2301      	movs	r3, #1
}
 8003adc:	0018      	movs	r0, r3
 8003ade:	46bd      	mov	sp, r7
 8003ae0:	bd80      	pop	{r7, pc}

08003ae2 <_kill>:

int _kill(int pid, int sig)
{
 8003ae2:	b580      	push	{r7, lr}
 8003ae4:	b082      	sub	sp, #8
 8003ae6:	af00      	add	r7, sp, #0
 8003ae8:	6078      	str	r0, [r7, #4]
 8003aea:	6039      	str	r1, [r7, #0]
  (void)pid;
  (void)sig;
  errno = EINVAL;
 8003aec:	f003 fed2 	bl	8007894 <__errno>
 8003af0:	0003      	movs	r3, r0
 8003af2:	2216      	movs	r2, #22
 8003af4:	601a      	str	r2, [r3, #0]
  return -1;
 8003af6:	2301      	movs	r3, #1
 8003af8:	425b      	negs	r3, r3
}
 8003afa:	0018      	movs	r0, r3
 8003afc:	46bd      	mov	sp, r7
 8003afe:	b002      	add	sp, #8
 8003b00:	bd80      	pop	{r7, pc}

08003b02 <_exit>:

void _exit (int status)
{
 8003b02:	b580      	push	{r7, lr}
 8003b04:	b082      	sub	sp, #8
 8003b06:	af00      	add	r7, sp, #0
 8003b08:	6078      	str	r0, [r7, #4]
  _kill(status, -1);
 8003b0a:	2301      	movs	r3, #1
 8003b0c:	425a      	negs	r2, r3
 8003b0e:	687b      	ldr	r3, [r7, #4]
 8003b10:	0011      	movs	r1, r2
 8003b12:	0018      	movs	r0, r3
 8003b14:	f7ff ffe5 	bl	8003ae2 <_kill>
  while (1) {}    /* Make sure we hang here */
 8003b18:	46c0      	nop			@ (mov r8, r8)
 8003b1a:	e7fd      	b.n	8003b18 <_exit+0x16>

08003b1c <_read>:
}

__attribute__((weak)) int _read(int file, char *ptr, int len)
{
 8003b1c:	b580      	push	{r7, lr}
 8003b1e:	b086      	sub	sp, #24
 8003b20:	af00      	add	r7, sp, #0
 8003b22:	60f8      	str	r0, [r7, #12]
 8003b24:	60b9      	str	r1, [r7, #8]
 8003b26:	607a      	str	r2, [r7, #4]
  (void)file;
  int DataIdx;

  for (DataIdx = 0; DataIdx < len; DataIdx++)
 8003b28:	2300      	movs	r3, #0
 8003b2a:	617b      	str	r3, [r7, #20]
 8003b2c:	e00a      	b.n	8003b44 <_read+0x28>
  {
    *ptr++ = __io_getchar();
 8003b2e:	e000      	b.n	8003b32 <_read+0x16>
 8003b30:	bf00      	nop
 8003b32:	0001      	movs	r1, r0
 8003b34:	68bb      	ldr	r3, [r7, #8]
 8003b36:	1c5a      	adds	r2, r3, #1
 8003b38:	60ba      	str	r2, [r7, #8]
 8003b3a:	b2ca      	uxtb	r2, r1
 8003b3c:	701a      	strb	r2, [r3, #0]
  for (DataIdx = 0; DataIdx < len; DataIdx++)
 8003b3e:	697b      	ldr	r3, [r7, #20]
 8003b40:	3301      	adds	r3, #1
 8003b42:	617b      	str	r3, [r7, #20]
 8003b44:	697a      	ldr	r2, [r7, #20]
 8003b46:	687b      	ldr	r3, [r7, #4]
 8003b48:	429a      	cmp	r2, r3
 8003b4a:	dbf0      	blt.n	8003b2e <_read+0x12>
  }

  return len;
 8003b4c:	687b      	ldr	r3, [r7, #4]
}
 8003b4e:	0018      	movs	r0, r3
 8003b50:	46bd      	mov	sp, r7
 8003b52:	b006      	add	sp, #24
 8003b54:	bd80      	pop	{r7, pc}

08003b56 <_write>:

__attribute__((weak)) int _write(int file, char *ptr, int len)
{
 8003b56:	b580      	push	{r7, lr}
 8003b58:	b086      	sub	sp, #24
 8003b5a:	af00      	add	r7, sp, #0
 8003b5c:	60f8      	str	r0, [r7, #12]
 8003b5e:	60b9      	str	r1, [r7, #8]
 8003b60:	607a      	str	r2, [r7, #4]
  (void)file;
  int DataIdx;

  for (DataIdx = 0; DataIdx < len; DataIdx++)
 8003b62:	2300      	movs	r3, #0
 8003b64:	617b      	str	r3, [r7, #20]
 8003b66:	e009      	b.n	8003b7c <_write+0x26>
  {
    __io_putchar(*ptr++);
 8003b68:	68bb      	ldr	r3, [r7, #8]
 8003b6a:	1c5a      	adds	r2, r3, #1
 8003b6c:	60ba      	str	r2, [r7, #8]
 8003b6e:	781b      	ldrb	r3, [r3, #0]
 8003b70:	0018      	movs	r0, r3
 8003b72:	f7ff fd11 	bl	8003598 <__io_putchar>
  for (DataIdx = 0; DataIdx < len; DataIdx++)
 8003b76:	697b      	ldr	r3, [r7, #20]
 8003b78:	3301      	adds	r3, #1
 8003b7a:	617b      	str	r3, [r7, #20]
 8003b7c:	697a      	ldr	r2, [r7, #20]
 8003b7e:	687b      	ldr	r3, [r7, #4]
 8003b80:	429a      	cmp	r2, r3
 8003b82:	dbf1      	blt.n	8003b68 <_write+0x12>
  }
  return len;
 8003b84:	687b      	ldr	r3, [r7, #4]
}
 8003b86:	0018      	movs	r0, r3
 8003b88:	46bd      	mov	sp, r7
 8003b8a:	b006      	add	sp, #24
 8003b8c:	bd80      	pop	{r7, pc}

08003b8e <_close>:

int _close(int file)
{
 8003b8e:	b580      	push	{r7, lr}
 8003b90:	b082      	sub	sp, #8
 8003b92:	af00      	add	r7, sp, #0
 8003b94:	6078      	str	r0, [r7, #4]
  (void)file;
  return -1;
 8003b96:	2301      	movs	r3, #1
 8003b98:	425b      	negs	r3, r3
}
 8003b9a:	0018      	movs	r0, r3
 8003b9c:	46bd      	mov	sp, r7
 8003b9e:	b002      	add	sp, #8
 8003ba0:	bd80      	pop	{r7, pc}

08003ba2 <_fstat>:


int _fstat(int file, struct stat *st)
{
 8003ba2:	b580      	push	{r7, lr}
 8003ba4:	b082      	sub	sp, #8
 8003ba6:	af00      	add	r7, sp, #0
 8003ba8:	6078      	str	r0, [r7, #4]
 8003baa:	6039      	str	r1, [r7, #0]
  (void)file;
  st->st_mode = S_IFCHR;
 8003bac:	683b      	ldr	r3, [r7, #0]
 8003bae:	2280      	movs	r2, #128	@ 0x80
 8003bb0:	0192      	lsls	r2, r2, #6
 8003bb2:	605a      	str	r2, [r3, #4]
  return 0;
 8003bb4:	2300      	movs	r3, #0
}
 8003bb6:	0018      	movs	r0, r3
 8003bb8:	46bd      	mov	sp, r7
 8003bba:	b002      	add	sp, #8
 8003bbc:	bd80      	pop	{r7, pc}

08003bbe <_isatty>:

int _isatty(int file)
{
 8003bbe:	b580      	push	{r7, lr}
 8003bc0:	b082      	sub	sp, #8
 8003bc2:	af00      	add	r7, sp, #0
 8003bc4:	6078      	str	r0, [r7, #4]
  (void)file;
  return 1;
 8003bc6:	2301      	movs	r3, #1
}
 8003bc8:	0018      	movs	r0, r3
 8003bca:	46bd      	mov	sp, r7
 8003bcc:	b002      	add	sp, #8
 8003bce:	bd80      	pop	{r7, pc}

08003bd0 <_lseek>:

int _lseek(int file, int ptr, int dir)
{
 8003bd0:	b580      	push	{r7, lr}
 8003bd2:	b084      	sub	sp, #16
 8003bd4:	af00      	add	r7, sp, #0
 8003bd6:	60f8      	str	r0, [r7, #12]
 8003bd8:	60b9      	str	r1, [r7, #8]
 8003bda:	607a      	str	r2, [r7, #4]
  (void)file;
  (void)ptr;
  (void)dir;
  return 0;
 8003bdc:	2300      	movs	r3, #0
}
 8003bde:	0018      	movs	r0, r3
 8003be0:	46bd      	mov	sp, r7
 8003be2:	b004      	add	sp, #16
 8003be4:	bd80      	pop	{r7, pc}
	...

08003be8 <_sbrk>:
 *
 * @param incr Memory size
 * @return Pointer to allocated memory
 */
void *_sbrk(ptrdiff_t incr)
{
 8003be8:	b580      	push	{r7, lr}
 8003bea:	b086      	sub	sp, #24
 8003bec:	af00      	add	r7, sp, #0
 8003bee:	6078      	str	r0, [r7, #4]
  extern uint8_t _end; /* Symbol defined in the linker script */
  extern uint8_t _estack; /* Symbol defined in the linker script */
  extern uint32_t _Min_Stack_Size; /* Symbol defined in the linker script */
  const uint32_t stack_limit = (uint32_t)&_estack - (uint32_t)&_Min_Stack_Size;
 8003bf0:	4a14      	ldr	r2, [pc, #80]	@ (8003c44 <_sbrk+0x5c>)
 8003bf2:	4b15      	ldr	r3, [pc, #84]	@ (8003c48 <_sbrk+0x60>)
 8003bf4:	1ad3      	subs	r3, r2, r3
 8003bf6:	617b      	str	r3, [r7, #20]
  const uint8_t *max_heap = (uint8_t *)stack_limit;
 8003bf8:	697b      	ldr	r3, [r7, #20]
 8003bfa:	613b      	str	r3, [r7, #16]
  uint8_t *prev_heap_end;

  /* Initialize heap end at first call */
  if (NULL == __sbrk_heap_end)
 8003bfc:	4b13      	ldr	r3, [pc, #76]	@ (8003c4c <_sbrk+0x64>)
 8003bfe:	681b      	ldr	r3, [r3, #0]
 8003c00:	2b00      	cmp	r3, #0
 8003c02:	d102      	bne.n	8003c0a <_sbrk+0x22>
  {
    __sbrk_heap_end = &_end;
 8003c04:	4b11      	ldr	r3, [pc, #68]	@ (8003c4c <_sbrk+0x64>)
 8003c06:	4a12      	ldr	r2, [pc, #72]	@ (8003c50 <_sbrk+0x68>)
 8003c08:	601a      	str	r2, [r3, #0]
  }

  /* Protect heap from growing into the reserved MSP stack */
  if (__sbrk_heap_end + incr > max_heap)
 8003c0a:	4b10      	ldr	r3, [pc, #64]	@ (8003c4c <_sbrk+0x64>)
 8003c0c:	681a      	ldr	r2, [r3, #0]
 8003c0e:	687b      	ldr	r3, [r7, #4]
 8003c10:	18d3      	adds	r3, r2, r3
 8003c12:	693a      	ldr	r2, [r7, #16]
 8003c14:	429a      	cmp	r2, r3
 8003c16:	d207      	bcs.n	8003c28 <_sbrk+0x40>
  {
    errno = ENOMEM;
 8003c18:	f003 fe3c 	bl	8007894 <__errno>
 8003c1c:	0003      	movs	r3, r0
 8003c1e:	220c      	movs	r2, #12
 8003c20:	601a      	str	r2, [r3, #0]
    return (void *)-1;
 8003c22:	2301      	movs	r3, #1
 8003c24:	425b      	negs	r3, r3
 8003c26:	e009      	b.n	8003c3c <_sbrk+0x54>
  }

  prev_heap_end = __sbrk_heap_end;
 8003c28:	4b08      	ldr	r3, [pc, #32]	@ (8003c4c <_sbrk+0x64>)
 8003c2a:	681b      	ldr	r3, [r3, #0]
 8003c2c:	60fb      	str	r3, [r7, #12]
  __sbrk_heap_end += incr;
 8003c2e:	4b07      	ldr	r3, [pc, #28]	@ (8003c4c <_sbrk+0x64>)
 8003c30:	681a      	ldr	r2, [r3, #0]
 8003c32:	687b      	ldr	r3, [r7, #4]
 8003c34:	18d2      	adds	r2, r2, r3
 8003c36:	4b05      	ldr	r3, [pc, #20]	@ (8003c4c <_sbrk+0x64>)
 8003c38:	601a      	str	r2, [r3, #0]

  return (void *)prev_heap_end;
 8003c3a:	68fb      	ldr	r3, [r7, #12]
}
 8003c3c:	0018      	movs	r0, r3
 8003c3e:	46bd      	mov	sp, r7
 8003c40:	b006      	add	sp, #24
 8003c42:	bd80      	pop	{r7, pc}
 8003c44:	20009000 	.word	0x20009000
 8003c48:	00000400 	.word	0x00000400
 8003c4c:	20000364 	.word	0x20000364
 8003c50:	20000550 	.word	0x20000550

08003c54 <SystemInit>:
  * @brief  Setup the microcontroller system.
  * @param  None
  * @retval None
  */
void SystemInit(void)
{
 8003c54:	b580      	push	{r7, lr}
 8003c56:	af00      	add	r7, sp, #0
  /* Configure the Vector Table location -------------------------------------*/
#if defined(USER_VECT_TAB_ADDRESS)
  SCB->VTOR = VECT_TAB_BASE_ADDRESS | VECT_TAB_OFFSET; /* Vector Table Relocation */
#endif /* USER_VECT_TAB_ADDRESS */
}
 8003c58:	46c0      	nop			@ (mov r8, r8)
 8003c5a:	46bd      	mov	sp, r7
 8003c5c:	bd80      	pop	{r7, pc}
	...

08003c60 <uart2_clear_rx_errors>:

UART_HandleTypeDef huart2;

/* --- Low-level helpers --------------------------------------------------- */
static inline void uart2_clear_rx_errors(void)
{
 8003c60:	b580      	push	{r7, lr}
 8003c62:	b082      	sub	sp, #8
 8003c64:	af00      	add	r7, sp, #0
    uint32_t isr = USART2->ISR;
 8003c66:	4b08      	ldr	r3, [pc, #32]	@ (8003c88 <uart2_clear_rx_errors+0x28>)
 8003c68:	69db      	ldr	r3, [r3, #28]
 8003c6a:	607b      	str	r3, [r7, #4]
    if (isr & (USART_ISR_ORE | USART_ISR_FE | USART_ISR_NE | USART_ISR_PE)) {
 8003c6c:	687b      	ldr	r3, [r7, #4]
 8003c6e:	220f      	movs	r2, #15
 8003c70:	4013      	ands	r3, r2
 8003c72:	d004      	beq.n	8003c7e <uart2_clear_rx_errors+0x1e>
        (void)USART2->RDR; /* read clears ORE */
 8003c74:	4b04      	ldr	r3, [pc, #16]	@ (8003c88 <uart2_clear_rx_errors+0x28>)
 8003c76:	6a5b      	ldr	r3, [r3, #36]	@ 0x24
        USART2->ICR = (USART_ICR_ORECF | USART_ICR_FECF | USART_ICR_NECF | USART_ICR_PECF);
 8003c78:	4b03      	ldr	r3, [pc, #12]	@ (8003c88 <uart2_clear_rx_errors+0x28>)
 8003c7a:	220f      	movs	r2, #15
 8003c7c:	621a      	str	r2, [r3, #32]
    }
}
 8003c7e:	46c0      	nop			@ (mov r8, r8)
 8003c80:	46bd      	mov	sp, r7
 8003c82:	b002      	add	sp, #8
 8003c84:	bd80      	pop	{r7, pc}
 8003c86:	46c0      	nop			@ (mov r8, r8)
 8003c88:	40004400 	.word	0x40004400

08003c8c <USR_USART2_WriteByte>:

/* Optional: direct TX putchar used by retarget.c */
void USR_USART2_WriteByte(uint8_t b)
{
 8003c8c:	b580      	push	{r7, lr}
 8003c8e:	b082      	sub	sp, #8
 8003c90:	af00      	add	r7, sp, #0
 8003c92:	0002      	movs	r2, r0
 8003c94:	1dfb      	adds	r3, r7, #7
 8003c96:	701a      	strb	r2, [r3, #0]
#ifdef USART_ISR_TXE_TXFNF
    while (!(USART2->ISR & USART_ISR_TXE_TXFNF)) { }
 8003c98:	46c0      	nop			@ (mov r8, r8)
 8003c9a:	4b06      	ldr	r3, [pc, #24]	@ (8003cb4 <USR_USART2_WriteByte+0x28>)
 8003c9c:	69db      	ldr	r3, [r3, #28]
 8003c9e:	2280      	movs	r2, #128	@ 0x80
 8003ca0:	4013      	ands	r3, r2
 8003ca2:	d0fa      	beq.n	8003c9a <USR_USART2_WriteByte+0xe>
#else
    while (!(USART2->ISR & USART_ISR_TXE)) { }
#endif
    USART2->TDR = b;
 8003ca4:	4b03      	ldr	r3, [pc, #12]	@ (8003cb4 <USR_USART2_WriteByte+0x28>)
 8003ca6:	1dfa      	adds	r2, r7, #7
 8003ca8:	7812      	ldrb	r2, [r2, #0]
 8003caa:	629a      	str	r2, [r3, #40]	@ 0x28
}
 8003cac:	46c0      	nop			@ (mov r8, r8)
 8003cae:	46bd      	mov	sp, r7
 8003cb0:	b002      	add	sp, #8
 8003cb2:	bd80      	pop	{r7, pc}
 8003cb4:	40004400 	.word	0x40004400

08003cb8 <USR_USART2_UART_Init>:

/* --- Init ----------------------------------------------------------------- */
void USR_USART2_UART_Init(uint32_t baudrate)
{
 8003cb8:	b590      	push	{r4, r7, lr}
 8003cba:	b08b      	sub	sp, #44	@ 0x2c
 8003cbc:	af00      	add	r7, sp, #0
 8003cbe:	6078      	str	r0, [r7, #4]
    __HAL_RCC_GPIOA_CLK_ENABLE();
 8003cc0:	4b3d      	ldr	r3, [pc, #244]	@ (8003db8 <USR_USART2_UART_Init+0x100>)
 8003cc2:	6b5a      	ldr	r2, [r3, #52]	@ 0x34
 8003cc4:	4b3c      	ldr	r3, [pc, #240]	@ (8003db8 <USR_USART2_UART_Init+0x100>)
 8003cc6:	2101      	movs	r1, #1
 8003cc8:	430a      	orrs	r2, r1
 8003cca:	635a      	str	r2, [r3, #52]	@ 0x34
 8003ccc:	4b3a      	ldr	r3, [pc, #232]	@ (8003db8 <USR_USART2_UART_Init+0x100>)
 8003cce:	6b5b      	ldr	r3, [r3, #52]	@ 0x34
 8003cd0:	2201      	movs	r2, #1
 8003cd2:	4013      	ands	r3, r2
 8003cd4:	613b      	str	r3, [r7, #16]
 8003cd6:	693b      	ldr	r3, [r7, #16]
    __HAL_RCC_USART2_CLK_ENABLE();
 8003cd8:	4b37      	ldr	r3, [pc, #220]	@ (8003db8 <USR_USART2_UART_Init+0x100>)
 8003cda:	6bda      	ldr	r2, [r3, #60]	@ 0x3c
 8003cdc:	4b36      	ldr	r3, [pc, #216]	@ (8003db8 <USR_USART2_UART_Init+0x100>)
 8003cde:	2180      	movs	r1, #128	@ 0x80
 8003ce0:	0289      	lsls	r1, r1, #10
 8003ce2:	430a      	orrs	r2, r1
 8003ce4:	63da      	str	r2, [r3, #60]	@ 0x3c
 8003ce6:	4b34      	ldr	r3, [pc, #208]	@ (8003db8 <USR_USART2_UART_Init+0x100>)
 8003ce8:	6bda      	ldr	r2, [r3, #60]	@ 0x3c
 8003cea:	2380      	movs	r3, #128	@ 0x80
 8003cec:	029b      	lsls	r3, r3, #10
 8003cee:	4013      	ands	r3, r2
 8003cf0:	60fb      	str	r3, [r7, #12]
 8003cf2:	68fb      	ldr	r3, [r7, #12]

    /* PA2=TX, PA3=RX (AF1) */
    GPIO_InitTypeDef gpio = {0};
 8003cf4:	2414      	movs	r4, #20
 8003cf6:	193b      	adds	r3, r7, r4
 8003cf8:	0018      	movs	r0, r3
 8003cfa:	2314      	movs	r3, #20
 8003cfc:	001a      	movs	r2, r3
 8003cfe:	2100      	movs	r1, #0
 8003d00:	f003 fd6e 	bl	80077e0 <memset>
    gpio.Pin       = GPIO_PIN_2 | GPIO_PIN_3;
 8003d04:	0021      	movs	r1, r4
 8003d06:	187b      	adds	r3, r7, r1
 8003d08:	220c      	movs	r2, #12
 8003d0a:	601a      	str	r2, [r3, #0]
    gpio.Mode      = GPIO_MODE_AF_PP;
 8003d0c:	187b      	adds	r3, r7, r1
 8003d0e:	2202      	movs	r2, #2
 8003d10:	605a      	str	r2, [r3, #4]
    gpio.Pull      = GPIO_PULLUP;
 8003d12:	187b      	adds	r3, r7, r1
 8003d14:	2201      	movs	r2, #1
 8003d16:	609a      	str	r2, [r3, #8]
    gpio.Speed     = GPIO_SPEED_FREQ_HIGH;
 8003d18:	187b      	adds	r3, r7, r1
 8003d1a:	2202      	movs	r2, #2
 8003d1c:	60da      	str	r2, [r3, #12]
    gpio.Alternate = GPIO_AF1_USART2;
 8003d1e:	187b      	adds	r3, r7, r1
 8003d20:	2201      	movs	r2, #1
 8003d22:	611a      	str	r2, [r3, #16]
    HAL_GPIO_Init(GPIOA, &gpio);
 8003d24:	187a      	adds	r2, r7, r1
 8003d26:	23a0      	movs	r3, #160	@ 0xa0
 8003d28:	05db      	lsls	r3, r3, #23
 8003d2a:	0011      	movs	r1, r2
 8003d2c:	0018      	movs	r0, r3
 8003d2e:	f000 fad9 	bl	80042e4 <HAL_GPIO_Init>

    huart2.Instance            = USART2;
 8003d32:	4b22      	ldr	r3, [pc, #136]	@ (8003dbc <USR_USART2_UART_Init+0x104>)
 8003d34:	4a22      	ldr	r2, [pc, #136]	@ (8003dc0 <USR_USART2_UART_Init+0x108>)
 8003d36:	601a      	str	r2, [r3, #0]
    huart2.Init.BaudRate       = baudrate ? baudrate : 115200u;
 8003d38:	687b      	ldr	r3, [r7, #4]
 8003d3a:	2b00      	cmp	r3, #0
 8003d3c:	d001      	beq.n	8003d42 <USR_USART2_UART_Init+0x8a>
 8003d3e:	687a      	ldr	r2, [r7, #4]
 8003d40:	e001      	b.n	8003d46 <USR_USART2_UART_Init+0x8e>
 8003d42:	23e1      	movs	r3, #225	@ 0xe1
 8003d44:	025a      	lsls	r2, r3, #9
 8003d46:	4b1d      	ldr	r3, [pc, #116]	@ (8003dbc <USR_USART2_UART_Init+0x104>)
 8003d48:	605a      	str	r2, [r3, #4]
    huart2.Init.WordLength     = UART_WORDLENGTH_8B;
 8003d4a:	4b1c      	ldr	r3, [pc, #112]	@ (8003dbc <USR_USART2_UART_Init+0x104>)
 8003d4c:	2200      	movs	r2, #0
 8003d4e:	609a      	str	r2, [r3, #8]
    huart2.Init.StopBits       = UART_STOPBITS_1;
 8003d50:	4b1a      	ldr	r3, [pc, #104]	@ (8003dbc <USR_USART2_UART_Init+0x104>)
 8003d52:	2200      	movs	r2, #0
 8003d54:	60da      	str	r2, [r3, #12]
    huart2.Init.Parity         = UART_PARITY_NONE;
 8003d56:	4b19      	ldr	r3, [pc, #100]	@ (8003dbc <USR_USART2_UART_Init+0x104>)
 8003d58:	2200      	movs	r2, #0
 8003d5a:	611a      	str	r2, [r3, #16]
    huart2.Init.Mode           = UART_MODE_TX_RX;
 8003d5c:	4b17      	ldr	r3, [pc, #92]	@ (8003dbc <USR_USART2_UART_Init+0x104>)
 8003d5e:	220c      	movs	r2, #12
 8003d60:	615a      	str	r2, [r3, #20]
    huart2.Init.HwFlowCtl      = UART_HWCONTROL_NONE;
 8003d62:	4b16      	ldr	r3, [pc, #88]	@ (8003dbc <USR_USART2_UART_Init+0x104>)
 8003d64:	2200      	movs	r2, #0
 8003d66:	619a      	str	r2, [r3, #24]
    huart2.Init.OverSampling   = UART_OVERSAMPLING_16;
 8003d68:	4b14      	ldr	r3, [pc, #80]	@ (8003dbc <USR_USART2_UART_Init+0x104>)
 8003d6a:	2200      	movs	r2, #0
 8003d6c:	61da      	str	r2, [r3, #28]
#ifdef UART_ONE_BIT_SAMPLE_DISABLE
    huart2.Init.OneBitSampling = UART_ONE_BIT_SAMPLE_DISABLE;
 8003d6e:	4b13      	ldr	r3, [pc, #76]	@ (8003dbc <USR_USART2_UART_Init+0x104>)
 8003d70:	2200      	movs	r2, #0
 8003d72:	621a      	str	r2, [r3, #32]
#endif
    huart2.AdvancedInit.AdvFeatureInit = UART_ADVFEATURE_NO_INIT;
 8003d74:	4b11      	ldr	r3, [pc, #68]	@ (8003dbc <USR_USART2_UART_Init+0x104>)
 8003d76:	2200      	movs	r2, #0
 8003d78:	629a      	str	r2, [r3, #40]	@ 0x28

    if (HAL_UART_Init(&huart2) != HAL_OK) {
 8003d7a:	4b10      	ldr	r3, [pc, #64]	@ (8003dbc <USR_USART2_UART_Init+0x104>)
 8003d7c:	0018      	movs	r0, r3
 8003d7e:	f001 fdb9 	bl	80058f4 <HAL_UART_Init>
 8003d82:	1e03      	subs	r3, r0, #0
 8003d84:	d001      	beq.n	8003d8a <USR_USART2_UART_Init+0xd2>
        Error_Handler();
 8003d86:	f7ff fc01 	bl	800358c <Error_Handler>

    /* Enable RXNE/RXFNE interrupt so we never miss bytes */
#ifdef UART_IT_RXNE_RXFNE
    __HAL_UART_ENABLE_IT(&huart2, UART_IT_RXNE_RXFNE);
#else
    __HAL_UART_ENABLE_IT(&huart2, UART_IT_RXNE);
 8003d8a:	4b0c      	ldr	r3, [pc, #48]	@ (8003dbc <USR_USART2_UART_Init+0x104>)
 8003d8c:	681b      	ldr	r3, [r3, #0]
 8003d8e:	681a      	ldr	r2, [r3, #0]
 8003d90:	4b0a      	ldr	r3, [pc, #40]	@ (8003dbc <USR_USART2_UART_Init+0x104>)
 8003d92:	681b      	ldr	r3, [r3, #0]
 8003d94:	2120      	movs	r1, #32
 8003d96:	430a      	orrs	r2, r1
 8003d98:	601a      	str	r2, [r3, #0]
    /* NVIC */
#ifdef USART2_LPUART2_IRQn
    HAL_NVIC_SetPriority(USART2_LPUART2_IRQn, 0, 0);
    HAL_NVIC_EnableIRQ(USART2_LPUART2_IRQn);
#else
    HAL_NVIC_SetPriority(USART2_IRQn, 0, 0);
 8003d9a:	2200      	movs	r2, #0
 8003d9c:	2100      	movs	r1, #0
 8003d9e:	201c      	movs	r0, #28
 8003da0:	f000 f9a2 	bl	80040e8 <HAL_NVIC_SetPriority>
    HAL_NVIC_EnableIRQ(USART2_IRQn);
 8003da4:	201c      	movs	r0, #28
 8003da6:	f000 f9b4 	bl	8004112 <HAL_NVIC_EnableIRQ>
#endif

    uart2_clear_rx_errors();
 8003daa:	f7ff ff59 	bl	8003c60 <uart2_clear_rx_errors>
}
 8003dae:	46c0      	nop			@ (mov r8, r8)
 8003db0:	46bd      	mov	sp, r7
 8003db2:	b00b      	add	sp, #44	@ 0x2c
 8003db4:	bd90      	pop	{r4, r7, pc}
 8003db6:	46c0      	nop			@ (mov r8, r8)
 8003db8:	40021000 	.word	0x40021000
 8003dbc:	20000368 	.word	0x20000368
 8003dc0:	40004400 	.word	0x40004400

08003dc4 <usart2_rx_drain>:

/* --- IRQ handler: drain RX FIFO fast and push to ring -------------------- */
static inline void usart2_rx_drain(void)
{
 8003dc4:	b580      	push	{r7, lr}
 8003dc6:	b082      	sub	sp, #8
 8003dc8:	af00      	add	r7, sp, #0
    for (;;)
    {
#ifdef USART_ISR_RXNE_RXFNE
        if (!(USART2->ISR & USART_ISR_RXNE_RXFNE)) break;
 8003dca:	4b0a      	ldr	r3, [pc, #40]	@ (8003df4 <usart2_rx_drain+0x30>)
 8003dcc:	69db      	ldr	r3, [r3, #28]
 8003dce:	2220      	movs	r2, #32
 8003dd0:	4013      	ands	r3, r2
 8003dd2:	d009      	beq.n	8003de8 <usart2_rx_drain+0x24>
#else
        if (!(USART2->ISR & USART_ISR_RXNE)) break;
#endif
        uint8_t b = (uint8_t)USART2->RDR;
 8003dd4:	4b07      	ldr	r3, [pc, #28]	@ (8003df4 <usart2_rx_drain+0x30>)
 8003dd6:	6a5a      	ldr	r2, [r3, #36]	@ 0x24
 8003dd8:	1dfb      	adds	r3, r7, #7
 8003dda:	701a      	strb	r2, [r3, #0]
        ring_add((char)b);              /* push immediately; ring handles CR/LF/backspace */
 8003ddc:	1dfb      	adds	r3, r7, #7
 8003dde:	781b      	ldrb	r3, [r3, #0]
 8003de0:	0018      	movs	r0, r3
 8003de2:	f7ff fc73 	bl	80036cc <ring_add>
    {
 8003de6:	e7f0      	b.n	8003dca <usart2_rx_drain+0x6>
        if (!(USART2->ISR & USART_ISR_RXNE_RXFNE)) break;
 8003de8:	46c0      	nop			@ (mov r8, r8)
    }
}
 8003dea:	46c0      	nop			@ (mov r8, r8)
 8003dec:	46bd      	mov	sp, r7
 8003dee:	b002      	add	sp, #8
 8003df0:	bd80      	pop	{r7, pc}
 8003df2:	46c0      	nop			@ (mov r8, r8)
 8003df4:	40004400 	.word	0x40004400

08003df8 <USART2_IRQHandler>:
#ifdef USART2_LPUART2_IRQn
void USART2_LPUART2_IRQHandler(void)
#else
void USART2_IRQHandler(void)
#endif
{
 8003df8:	b580      	push	{r7, lr}
 8003dfa:	af00      	add	r7, sp, #0
    /* RX data ready? Drain all */
    usart2_rx_drain();
 8003dfc:	f7ff ffe2 	bl	8003dc4 <usart2_rx_drain>

    /* Errors? Clear and keep going */
    uart2_clear_rx_errors();
 8003e00:	f7ff ff2e 	bl	8003c60 <uart2_clear_rx_errors>

    /* Let HAL clear any other flags it expects */
    HAL_UART_IRQHandler(&huart2);
 8003e04:	4b03      	ldr	r3, [pc, #12]	@ (8003e14 <USART2_IRQHandler+0x1c>)
 8003e06:	0018      	movs	r0, r3
 8003e08:	f001 fdca 	bl	80059a0 <HAL_UART_IRQHandler>
}
 8003e0c:	46c0      	nop			@ (mov r8, r8)
 8003e0e:	46bd      	mov	sp, r7
 8003e10:	bd80      	pop	{r7, pc}
 8003e12:	46c0      	nop			@ (mov r8, r8)
 8003e14:	20000368 	.word	0x20000368

08003e18 <MX_USART2_UART_Init>:

/* CubeMX-compat wrapper so main.c can call MX_USART2_UART_Init()
 * without depending on generated usart.c. This delegates to our
 * robust USR_USART2_UART_Init and sets up the ring retarget. */
void MX_USART2_UART_Init(void)
{
 8003e18:	b580      	push	{r7, lr}
 8003e1a:	af00      	add	r7, sp, #0
    /* Ensure system clock is configured (optional if already done) */
    /* USR_SystemClock_Config(); */ /* leave to main if needed */
    USR_USART2_UART_Init(115200u);
 8003e1c:	23e1      	movs	r3, #225	@ 0xe1
 8003e1e:	025b      	lsls	r3, r3, #9
 8003e20:	0018      	movs	r0, r3
 8003e22:	f7ff ff49 	bl	8003cb8 <USR_USART2_UART_Init>
    ring_init();
 8003e26:	f7ff fbe7 	bl	80035f8 <ring_init>
}
 8003e2a:	46c0      	nop			@ (mov r8, r8)
 8003e2c:	46bd      	mov	sp, r7
 8003e2e:	bd80      	pop	{r7, pc}

08003e30 <Reset_Handler>:

  .section .text.Reset_Handler
  .weak Reset_Handler
  .type Reset_Handler, %function
Reset_Handler:
  ldr   r0, =_estack
 8003e30:	480d      	ldr	r0, [pc, #52]	@ (8003e68 <LoopForever+0x2>)
  mov   sp, r0          /* set stack pointer */
 8003e32:	4685      	mov	sp, r0

/* Call the clock system initialization function.*/
  bl  SystemInit
 8003e34:	f7ff ff0e 	bl	8003c54 <SystemInit>

/* Copy the data segment initializers from flash to SRAM */
  ldr r0, =_sdata
 8003e38:	480c      	ldr	r0, [pc, #48]	@ (8003e6c <LoopForever+0x6>)
  ldr r1, =_edata
 8003e3a:	490d      	ldr	r1, [pc, #52]	@ (8003e70 <LoopForever+0xa>)
  ldr r2, =_sidata
 8003e3c:	4a0d      	ldr	r2, [pc, #52]	@ (8003e74 <LoopForever+0xe>)
  movs r3, #0
 8003e3e:	2300      	movs	r3, #0
  b LoopCopyDataInit
 8003e40:	e002      	b.n	8003e48 <LoopCopyDataInit>

08003e42 <CopyDataInit>:

CopyDataInit:
  ldr r4, [r2, r3]
 8003e42:	58d4      	ldr	r4, [r2, r3]
  str r4, [r0, r3]
 8003e44:	50c4      	str	r4, [r0, r3]
  adds r3, r3, #4
 8003e46:	3304      	adds	r3, #4

08003e48 <LoopCopyDataInit>:

LoopCopyDataInit:
  adds r4, r0, r3
 8003e48:	18c4      	adds	r4, r0, r3
  cmp r4, r1
 8003e4a:	428c      	cmp	r4, r1
  bcc CopyDataInit
 8003e4c:	d3f9      	bcc.n	8003e42 <CopyDataInit>

/* Zero fill the bss segment. */
  ldr r2, =_sbss
 8003e4e:	4a0a      	ldr	r2, [pc, #40]	@ (8003e78 <LoopForever+0x12>)
  ldr r4, =_ebss
 8003e50:	4c0a      	ldr	r4, [pc, #40]	@ (8003e7c <LoopForever+0x16>)
  movs r3, #0
 8003e52:	2300      	movs	r3, #0
  b LoopFillZerobss
 8003e54:	e001      	b.n	8003e5a <LoopFillZerobss>

08003e56 <FillZerobss>:

FillZerobss:
  str  r3, [r2]
 8003e56:	6013      	str	r3, [r2, #0]
  adds r2, r2, #4
 8003e58:	3204      	adds	r2, #4

08003e5a <LoopFillZerobss>:

LoopFillZerobss:
  cmp r2, r4
 8003e5a:	42a2      	cmp	r2, r4
  bcc FillZerobss
 8003e5c:	d3fb      	bcc.n	8003e56 <FillZerobss>

/* Call static constructors */
  bl __libc_init_array
 8003e5e:	f003 fd1f 	bl	80078a0 <__libc_init_array>
/* Call the application s entry point.*/
  bl main
 8003e62:	f7ff fb5f 	bl	8003524 <main>

08003e66 <LoopForever>:

LoopForever:
  b LoopForever
 8003e66:	e7fe      	b.n	8003e66 <LoopForever>
  ldr   r0, =_estack
 8003e68:	20009000 	.word	0x20009000
  ldr r0, =_sdata
 8003e6c:	20000000 	.word	0x20000000
  ldr r1, =_edata
 8003e70:	200001d8 	.word	0x200001d8
  ldr r2, =_sidata
 8003e74:	08009c5c 	.word	0x08009c5c
  ldr r2, =_sbss
 8003e78:	200001d8 	.word	0x200001d8
  ldr r4, =_ebss
 8003e7c:	2000054c 	.word	0x2000054c

08003e80 <ADC1_COMP_IRQHandler>:
 * @retval None
*/
  .section .text.Default_Handler,"ax",%progbits
Default_Handler:
Infinite_Loop:
  b Infinite_Loop
 8003e80:	e7fe      	b.n	8003e80 <ADC1_COMP_IRQHandler>
	...

08003e84 <HAL_Init>:
  *         each 1ms in the SysTick_Handler() interrupt handler.
  *
  * @retval HAL status
  */
HAL_StatusTypeDef HAL_Init(void)
{
 8003e84:	b580      	push	{r7, lr}
 8003e86:	b082      	sub	sp, #8
 8003e88:	af00      	add	r7, sp, #0
  HAL_StatusTypeDef  status = HAL_OK;
 8003e8a:	1dfb      	adds	r3, r7, #7
 8003e8c:	2200      	movs	r2, #0
 8003e8e:	701a      	strb	r2, [r3, #0]
#if (INSTRUCTION_CACHE_ENABLE == 0U)
  __HAL_FLASH_INSTRUCTION_CACHE_DISABLE();
#endif /* INSTRUCTION_CACHE_ENABLE */

#if (PREFETCH_ENABLE != 0U)
  __HAL_FLASH_PREFETCH_BUFFER_ENABLE();
 8003e90:	4b0b      	ldr	r3, [pc, #44]	@ (8003ec0 <HAL_Init+0x3c>)
 8003e92:	681a      	ldr	r2, [r3, #0]
 8003e94:	4b0a      	ldr	r3, [pc, #40]	@ (8003ec0 <HAL_Init+0x3c>)
 8003e96:	2180      	movs	r1, #128	@ 0x80
 8003e98:	0049      	lsls	r1, r1, #1
 8003e9a:	430a      	orrs	r2, r1
 8003e9c:	601a      	str	r2, [r3, #0]
#endif /* PREFETCH_ENABLE */

  /* Use SysTick as time base source and configure 1ms tick (default clock after Reset is HSI) */
  if (HAL_InitTick(TICK_INT_PRIORITY) != HAL_OK)
 8003e9e:	2000      	movs	r0, #0
 8003ea0:	f000 f810 	bl	8003ec4 <HAL_InitTick>
 8003ea4:	1e03      	subs	r3, r0, #0
 8003ea6:	d003      	beq.n	8003eb0 <HAL_Init+0x2c>
  {
    status = HAL_ERROR;
 8003ea8:	1dfb      	adds	r3, r7, #7
 8003eaa:	2201      	movs	r2, #1
 8003eac:	701a      	strb	r2, [r3, #0]
 8003eae:	e001      	b.n	8003eb4 <HAL_Init+0x30>
  }
  else
  {
  /* Init the low level hardware */
  HAL_MspInit();
 8003eb0:	f7ff fd06 	bl	80038c0 <HAL_MspInit>
  }

  /* Return function status */
  return status;
 8003eb4:	1dfb      	adds	r3, r7, #7
 8003eb6:	781b      	ldrb	r3, [r3, #0]
}
 8003eb8:	0018      	movs	r0, r3
 8003eba:	46bd      	mov	sp, r7
 8003ebc:	b002      	add	sp, #8
 8003ebe:	bd80      	pop	{r7, pc}
 8003ec0:	40022000 	.word	0x40022000

08003ec4 <HAL_InitTick>:
  *       implementation  in user file.
  * @param TickPriority Tick interrupt priority.
  * @retval HAL status
  */
__weak HAL_StatusTypeDef HAL_InitTick(uint32_t TickPriority)
{
 8003ec4:	b590      	push	{r4, r7, lr}
 8003ec6:	b085      	sub	sp, #20
 8003ec8:	af00      	add	r7, sp, #0
 8003eca:	6078      	str	r0, [r7, #4]
  HAL_StatusTypeDef  status = HAL_OK;
 8003ecc:	230f      	movs	r3, #15
 8003ece:	18fb      	adds	r3, r7, r3
 8003ed0:	2200      	movs	r2, #0
 8003ed2:	701a      	strb	r2, [r3, #0]

  /* Check uwTickFreq for MisraC 2012 (even if uwTickFreq is a enum type that doesn't take the value zero)*/ 
  if ((uint32_t)uwTickFreq != 0U)
 8003ed4:	4b1d      	ldr	r3, [pc, #116]	@ (8003f4c <HAL_InitTick+0x88>)
 8003ed6:	781b      	ldrb	r3, [r3, #0]
 8003ed8:	2b00      	cmp	r3, #0
 8003eda:	d02b      	beq.n	8003f34 <HAL_InitTick+0x70>
  {
    /*Configure the SysTick to have interrupt in 1ms time basis*/
    if (HAL_SYSTICK_Config(SystemCoreClock / (1000U /(uint32_t)uwTickFreq)) == 0U)
 8003edc:	4b1c      	ldr	r3, [pc, #112]	@ (8003f50 <HAL_InitTick+0x8c>)
 8003ede:	681c      	ldr	r4, [r3, #0]
 8003ee0:	4b1a      	ldr	r3, [pc, #104]	@ (8003f4c <HAL_InitTick+0x88>)
 8003ee2:	781b      	ldrb	r3, [r3, #0]
 8003ee4:	0019      	movs	r1, r3
 8003ee6:	23fa      	movs	r3, #250	@ 0xfa
 8003ee8:	0098      	lsls	r0, r3, #2
 8003eea:	f7fc f931 	bl	8000150 <__udivsi3>
 8003eee:	0003      	movs	r3, r0
 8003ef0:	0019      	movs	r1, r3
 8003ef2:	0020      	movs	r0, r4
 8003ef4:	f7fc f92c 	bl	8000150 <__udivsi3>
 8003ef8:	0003      	movs	r3, r0
 8003efa:	0018      	movs	r0, r3
 8003efc:	f000 f919 	bl	8004132 <HAL_SYSTICK_Config>
 8003f00:	1e03      	subs	r3, r0, #0
 8003f02:	d112      	bne.n	8003f2a <HAL_InitTick+0x66>
    {
      /* Configure the SysTick IRQ priority */
      if (TickPriority < (1UL << __NVIC_PRIO_BITS))
 8003f04:	687b      	ldr	r3, [r7, #4]
 8003f06:	2b03      	cmp	r3, #3
 8003f08:	d80a      	bhi.n	8003f20 <HAL_InitTick+0x5c>
      {
        HAL_NVIC_SetPriority(SysTick_IRQn, TickPriority, 0U);
 8003f0a:	6879      	ldr	r1, [r7, #4]
 8003f0c:	2301      	movs	r3, #1
 8003f0e:	425b      	negs	r3, r3
 8003f10:	2200      	movs	r2, #0
 8003f12:	0018      	movs	r0, r3
 8003f14:	f000 f8e8 	bl	80040e8 <HAL_NVIC_SetPriority>
        uwTickPrio = TickPriority;
 8003f18:	4b0e      	ldr	r3, [pc, #56]	@ (8003f54 <HAL_InitTick+0x90>)
 8003f1a:	687a      	ldr	r2, [r7, #4]
 8003f1c:	601a      	str	r2, [r3, #0]
 8003f1e:	e00d      	b.n	8003f3c <HAL_InitTick+0x78>
      }
      else
      {
        status = HAL_ERROR;
 8003f20:	230f      	movs	r3, #15
 8003f22:	18fb      	adds	r3, r7, r3
 8003f24:	2201      	movs	r2, #1
 8003f26:	701a      	strb	r2, [r3, #0]
 8003f28:	e008      	b.n	8003f3c <HAL_InitTick+0x78>
      }
    }
    else
    {
      status = HAL_ERROR;
 8003f2a:	230f      	movs	r3, #15
 8003f2c:	18fb      	adds	r3, r7, r3
 8003f2e:	2201      	movs	r2, #1
 8003f30:	701a      	strb	r2, [r3, #0]
 8003f32:	e003      	b.n	8003f3c <HAL_InitTick+0x78>
    }
  }
  else
  {
    status = HAL_ERROR;
 8003f34:	230f      	movs	r3, #15
 8003f36:	18fb      	adds	r3, r7, r3
 8003f38:	2201      	movs	r2, #1
 8003f3a:	701a      	strb	r2, [r3, #0]
  }

  /* Return function status */
  return status;
 8003f3c:	230f      	movs	r3, #15
 8003f3e:	18fb      	adds	r3, r7, r3
 8003f40:	781b      	ldrb	r3, [r3, #0]
}
 8003f42:	0018      	movs	r0, r3
 8003f44:	46bd      	mov	sp, r7
 8003f46:	b005      	add	sp, #20
 8003f48:	bd90      	pop	{r4, r7, pc}
 8003f4a:	46c0      	nop			@ (mov r8, r8)
 8003f4c:	2000000c 	.word	0x2000000c
 8003f50:	20000004 	.word	0x20000004
 8003f54:	20000008 	.word	0x20000008

08003f58 <HAL_IncTick>:
  * @note This function is declared as __weak to be overwritten in case of other
  *      implementations in user file.
  * @retval None
  */
__weak void HAL_IncTick(void)
{
 8003f58:	b580      	push	{r7, lr}
 8003f5a:	af00      	add	r7, sp, #0
  uwTick += (uint32_t)uwTickFreq;
 8003f5c:	4b05      	ldr	r3, [pc, #20]	@ (8003f74 <HAL_IncTick+0x1c>)
 8003f5e:	781b      	ldrb	r3, [r3, #0]
 8003f60:	001a      	movs	r2, r3
 8003f62:	4b05      	ldr	r3, [pc, #20]	@ (8003f78 <HAL_IncTick+0x20>)
 8003f64:	681b      	ldr	r3, [r3, #0]
 8003f66:	18d2      	adds	r2, r2, r3
 8003f68:	4b03      	ldr	r3, [pc, #12]	@ (8003f78 <HAL_IncTick+0x20>)
 8003f6a:	601a      	str	r2, [r3, #0]
}
 8003f6c:	46c0      	nop			@ (mov r8, r8)
 8003f6e:	46bd      	mov	sp, r7
 8003f70:	bd80      	pop	{r7, pc}
 8003f72:	46c0      	nop			@ (mov r8, r8)
 8003f74:	2000000c 	.word	0x2000000c
 8003f78:	200003fc 	.word	0x200003fc

08003f7c <HAL_GetTick>:
  * @note This function is declared as __weak to be overwritten in case of other
  *       implementations in user file.
  * @retval tick value
  */
__weak uint32_t HAL_GetTick(void)
{
 8003f7c:	b580      	push	{r7, lr}
 8003f7e:	af00      	add	r7, sp, #0
  return uwTick;
 8003f80:	4b02      	ldr	r3, [pc, #8]	@ (8003f8c <HAL_GetTick+0x10>)
 8003f82:	681b      	ldr	r3, [r3, #0]
}
 8003f84:	0018      	movs	r0, r3
 8003f86:	46bd      	mov	sp, r7
 8003f88:	bd80      	pop	{r7, pc}
 8003f8a:	46c0      	nop			@ (mov r8, r8)
 8003f8c:	200003fc 	.word	0x200003fc

08003f90 <__NVIC_EnableIRQ>:
  \details Enables a device specific interrupt in the NVIC interrupt controller.
  \param [in]      IRQn  Device specific interrupt number.
  \note    IRQn must not be negative.
 */
__STATIC_INLINE void __NVIC_EnableIRQ(IRQn_Type IRQn)
{
 8003f90:	b580      	push	{r7, lr}
 8003f92:	b082      	sub	sp, #8
 8003f94:	af00      	add	r7, sp, #0
 8003f96:	0002      	movs	r2, r0
 8003f98:	1dfb      	adds	r3, r7, #7
 8003f9a:	701a      	strb	r2, [r3, #0]
  if ((int32_t)(IRQn) >= 0)
 8003f9c:	1dfb      	adds	r3, r7, #7
 8003f9e:	781b      	ldrb	r3, [r3, #0]
 8003fa0:	2b7f      	cmp	r3, #127	@ 0x7f
 8003fa2:	d809      	bhi.n	8003fb8 <__NVIC_EnableIRQ+0x28>
  {
    __COMPILER_BARRIER();
    NVIC->ISER[0U] = (uint32_t)(1UL << (((uint32_t)IRQn) & 0x1FUL));
 8003fa4:	1dfb      	adds	r3, r7, #7
 8003fa6:	781b      	ldrb	r3, [r3, #0]
 8003fa8:	001a      	movs	r2, r3
 8003faa:	231f      	movs	r3, #31
 8003fac:	401a      	ands	r2, r3
 8003fae:	4b04      	ldr	r3, [pc, #16]	@ (8003fc0 <__NVIC_EnableIRQ+0x30>)
 8003fb0:	2101      	movs	r1, #1
 8003fb2:	4091      	lsls	r1, r2
 8003fb4:	000a      	movs	r2, r1
 8003fb6:	601a      	str	r2, [r3, #0]
    __COMPILER_BARRIER();
  }
}
 8003fb8:	46c0      	nop			@ (mov r8, r8)
 8003fba:	46bd      	mov	sp, r7
 8003fbc:	b002      	add	sp, #8
 8003fbe:	bd80      	pop	{r7, pc}
 8003fc0:	e000e100 	.word	0xe000e100

08003fc4 <__NVIC_SetPriority>:
  \param [in]      IRQn  Interrupt number.
  \param [in]  priority  Priority to set.
  \note    The priority cannot be set for every processor exception.
 */
__STATIC_INLINE void __NVIC_SetPriority(IRQn_Type IRQn, uint32_t priority)
{
 8003fc4:	b590      	push	{r4, r7, lr}
 8003fc6:	b083      	sub	sp, #12
 8003fc8:	af00      	add	r7, sp, #0
 8003fca:	0002      	movs	r2, r0
 8003fcc:	6039      	str	r1, [r7, #0]
 8003fce:	1dfb      	adds	r3, r7, #7
 8003fd0:	701a      	strb	r2, [r3, #0]
  if ((int32_t)(IRQn) >= 0)
 8003fd2:	1dfb      	adds	r3, r7, #7
 8003fd4:	781b      	ldrb	r3, [r3, #0]
 8003fd6:	2b7f      	cmp	r3, #127	@ 0x7f
 8003fd8:	d828      	bhi.n	800402c <__NVIC_SetPriority+0x68>
  {
    NVIC->IP[_IP_IDX(IRQn)]  = ((uint32_t)(NVIC->IP[_IP_IDX(IRQn)]  & ~(0xFFUL << _BIT_SHIFT(IRQn))) |
 8003fda:	4a2f      	ldr	r2, [pc, #188]	@ (8004098 <__NVIC_SetPriority+0xd4>)
 8003fdc:	1dfb      	adds	r3, r7, #7
 8003fde:	781b      	ldrb	r3, [r3, #0]
 8003fe0:	b25b      	sxtb	r3, r3
 8003fe2:	089b      	lsrs	r3, r3, #2
 8003fe4:	33c0      	adds	r3, #192	@ 0xc0
 8003fe6:	009b      	lsls	r3, r3, #2
 8003fe8:	589b      	ldr	r3, [r3, r2]
 8003fea:	1dfa      	adds	r2, r7, #7
 8003fec:	7812      	ldrb	r2, [r2, #0]
 8003fee:	0011      	movs	r1, r2
 8003ff0:	2203      	movs	r2, #3
 8003ff2:	400a      	ands	r2, r1
 8003ff4:	00d2      	lsls	r2, r2, #3
 8003ff6:	21ff      	movs	r1, #255	@ 0xff
 8003ff8:	4091      	lsls	r1, r2
 8003ffa:	000a      	movs	r2, r1
 8003ffc:	43d2      	mvns	r2, r2
 8003ffe:	401a      	ands	r2, r3
 8004000:	0011      	movs	r1, r2
       (((priority << (8U - __NVIC_PRIO_BITS)) & (uint32_t)0xFFUL) << _BIT_SHIFT(IRQn)));
 8004002:	683b      	ldr	r3, [r7, #0]
 8004004:	019b      	lsls	r3, r3, #6
 8004006:	22ff      	movs	r2, #255	@ 0xff
 8004008:	401a      	ands	r2, r3
 800400a:	1dfb      	adds	r3, r7, #7
 800400c:	781b      	ldrb	r3, [r3, #0]
 800400e:	0018      	movs	r0, r3
 8004010:	2303      	movs	r3, #3
 8004012:	4003      	ands	r3, r0
 8004014:	00db      	lsls	r3, r3, #3
 8004016:	409a      	lsls	r2, r3
    NVIC->IP[_IP_IDX(IRQn)]  = ((uint32_t)(NVIC->IP[_IP_IDX(IRQn)]  & ~(0xFFUL << _BIT_SHIFT(IRQn))) |
 8004018:	481f      	ldr	r0, [pc, #124]	@ (8004098 <__NVIC_SetPriority+0xd4>)
 800401a:	1dfb      	adds	r3, r7, #7
 800401c:	781b      	ldrb	r3, [r3, #0]
 800401e:	b25b      	sxtb	r3, r3
 8004020:	089b      	lsrs	r3, r3, #2
 8004022:	430a      	orrs	r2, r1
 8004024:	33c0      	adds	r3, #192	@ 0xc0
 8004026:	009b      	lsls	r3, r3, #2
 8004028:	501a      	str	r2, [r3, r0]
  else
  {
    SCB->SHP[_SHP_IDX(IRQn)] = ((uint32_t)(SCB->SHP[_SHP_IDX(IRQn)] & ~(0xFFUL << _BIT_SHIFT(IRQn))) |
       (((priority << (8U - __NVIC_PRIO_BITS)) & (uint32_t)0xFFUL) << _BIT_SHIFT(IRQn)));
  }
}
 800402a:	e031      	b.n	8004090 <__NVIC_SetPriority+0xcc>
    SCB->SHP[_SHP_IDX(IRQn)] = ((uint32_t)(SCB->SHP[_SHP_IDX(IRQn)] & ~(0xFFUL << _BIT_SHIFT(IRQn))) |
 800402c:	4a1b      	ldr	r2, [pc, #108]	@ (800409c <__NVIC_SetPriority+0xd8>)
 800402e:	1dfb      	adds	r3, r7, #7
 8004030:	781b      	ldrb	r3, [r3, #0]
 8004032:	0019      	movs	r1, r3
 8004034:	230f      	movs	r3, #15
 8004036:	400b      	ands	r3, r1
 8004038:	3b08      	subs	r3, #8
 800403a:	089b      	lsrs	r3, r3, #2
 800403c:	3306      	adds	r3, #6
 800403e:	009b      	lsls	r3, r3, #2
 8004040:	18d3      	adds	r3, r2, r3
 8004042:	3304      	adds	r3, #4
 8004044:	681b      	ldr	r3, [r3, #0]
 8004046:	1dfa      	adds	r2, r7, #7
 8004048:	7812      	ldrb	r2, [r2, #0]
 800404a:	0011      	movs	r1, r2
 800404c:	2203      	movs	r2, #3
 800404e:	400a      	ands	r2, r1
 8004050:	00d2      	lsls	r2, r2, #3
 8004052:	21ff      	movs	r1, #255	@ 0xff
 8004054:	4091      	lsls	r1, r2
 8004056:	000a      	movs	r2, r1
 8004058:	43d2      	mvns	r2, r2
 800405a:	401a      	ands	r2, r3
 800405c:	0011      	movs	r1, r2
       (((priority << (8U - __NVIC_PRIO_BITS)) & (uint32_t)0xFFUL) << _BIT_SHIFT(IRQn)));
 800405e:	683b      	ldr	r3, [r7, #0]
 8004060:	019b      	lsls	r3, r3, #6
 8004062:	22ff      	movs	r2, #255	@ 0xff
 8004064:	401a      	ands	r2, r3
 8004066:	1dfb      	adds	r3, r7, #7
 8004068:	781b      	ldrb	r3, [r3, #0]
 800406a:	0018      	movs	r0, r3
 800406c:	2303      	movs	r3, #3
 800406e:	4003      	ands	r3, r0
 8004070:	00db      	lsls	r3, r3, #3
 8004072:	409a      	lsls	r2, r3
    SCB->SHP[_SHP_IDX(IRQn)] = ((uint32_t)(SCB->SHP[_SHP_IDX(IRQn)] & ~(0xFFUL << _BIT_SHIFT(IRQn))) |
 8004074:	4809      	ldr	r0, [pc, #36]	@ (800409c <__NVIC_SetPriority+0xd8>)
 8004076:	1dfb      	adds	r3, r7, #7
 8004078:	781b      	ldrb	r3, [r3, #0]
 800407a:	001c      	movs	r4, r3
 800407c:	230f      	movs	r3, #15
 800407e:	4023      	ands	r3, r4
 8004080:	3b08      	subs	r3, #8
 8004082:	089b      	lsrs	r3, r3, #2
 8004084:	430a      	orrs	r2, r1
 8004086:	3306      	adds	r3, #6
 8004088:	009b      	lsls	r3, r3, #2
 800408a:	18c3      	adds	r3, r0, r3
 800408c:	3304      	adds	r3, #4
 800408e:	601a      	str	r2, [r3, #0]
}
 8004090:	46c0      	nop			@ (mov r8, r8)
 8004092:	46bd      	mov	sp, r7
 8004094:	b003      	add	sp, #12
 8004096:	bd90      	pop	{r4, r7, pc}
 8004098:	e000e100 	.word	0xe000e100
 800409c:	e000ed00 	.word	0xe000ed00

080040a0 <SysTick_Config>:
  \note    When the variable <b>__Vendor_SysTickConfig</b> is set to 1, then the
           function <b>SysTick_Config</b> is not included. In this case, the file <b><i>device</i>.h</b>
           must contain a vendor-specific implementation of this function.
 */
__STATIC_INLINE uint32_t SysTick_Config(uint32_t ticks)
{
 80040a0:	b580      	push	{r7, lr}
 80040a2:	b082      	sub	sp, #8
 80040a4:	af00      	add	r7, sp, #0
 80040a6:	6078      	str	r0, [r7, #4]
  if ((ticks - 1UL) > SysTick_LOAD_RELOAD_Msk)
 80040a8:	687b      	ldr	r3, [r7, #4]
 80040aa:	1e5a      	subs	r2, r3, #1
 80040ac:	2380      	movs	r3, #128	@ 0x80
 80040ae:	045b      	lsls	r3, r3, #17
 80040b0:	429a      	cmp	r2, r3
 80040b2:	d301      	bcc.n	80040b8 <SysTick_Config+0x18>
  {
    return (1UL);                                                   /* Reload value impossible */
 80040b4:	2301      	movs	r3, #1
 80040b6:	e010      	b.n	80040da <SysTick_Config+0x3a>
  }

  SysTick->LOAD  = (uint32_t)(ticks - 1UL);                         /* set reload register */
 80040b8:	4b0a      	ldr	r3, [pc, #40]	@ (80040e4 <SysTick_Config+0x44>)
 80040ba:	687a      	ldr	r2, [r7, #4]
 80040bc:	3a01      	subs	r2, #1
 80040be:	605a      	str	r2, [r3, #4]
  NVIC_SetPriority (SysTick_IRQn, (1UL << __NVIC_PRIO_BITS) - 1UL); /* set Priority for Systick Interrupt */
 80040c0:	2301      	movs	r3, #1
 80040c2:	425b      	negs	r3, r3
 80040c4:	2103      	movs	r1, #3
 80040c6:	0018      	movs	r0, r3
 80040c8:	f7ff ff7c 	bl	8003fc4 <__NVIC_SetPriority>
  SysTick->VAL   = 0UL;                                             /* Load the SysTick Counter Value */
 80040cc:	4b05      	ldr	r3, [pc, #20]	@ (80040e4 <SysTick_Config+0x44>)
 80040ce:	2200      	movs	r2, #0
 80040d0:	609a      	str	r2, [r3, #8]
  SysTick->CTRL  = SysTick_CTRL_CLKSOURCE_Msk |
 80040d2:	4b04      	ldr	r3, [pc, #16]	@ (80040e4 <SysTick_Config+0x44>)
 80040d4:	2207      	movs	r2, #7
 80040d6:	601a      	str	r2, [r3, #0]
                   SysTick_CTRL_TICKINT_Msk   |
                   SysTick_CTRL_ENABLE_Msk;                         /* Enable SysTick IRQ and SysTick Timer */
  return (0UL);                                                     /* Function successful */
 80040d8:	2300      	movs	r3, #0
}
 80040da:	0018      	movs	r0, r3
 80040dc:	46bd      	mov	sp, r7
 80040de:	b002      	add	sp, #8
 80040e0:	bd80      	pop	{r7, pc}
 80040e2:	46c0      	nop			@ (mov r8, r8)
 80040e4:	e000e010 	.word	0xe000e010

080040e8 <HAL_NVIC_SetPriority>:
  *         with stm32g0xx devices, this parameter is a dummy value and it is ignored, because
  *         no subpriority supported in Cortex M0+ based products.
  * @retval None
  */
void HAL_NVIC_SetPriority(IRQn_Type IRQn, uint32_t PreemptPriority, uint32_t SubPriority)
{
 80040e8:	b580      	push	{r7, lr}
 80040ea:	b084      	sub	sp, #16
 80040ec:	af00      	add	r7, sp, #0
 80040ee:	60b9      	str	r1, [r7, #8]
 80040f0:	607a      	str	r2, [r7, #4]
 80040f2:	210f      	movs	r1, #15
 80040f4:	187b      	adds	r3, r7, r1
 80040f6:	1c02      	adds	r2, r0, #0
 80040f8:	701a      	strb	r2, [r3, #0]
  /* Prevent unused argument(s) compilation warning */
  UNUSED(SubPriority);

  /* Check the parameters */
  assert_param(IS_NVIC_PREEMPTION_PRIORITY(PreemptPriority));
  NVIC_SetPriority(IRQn, PreemptPriority);
 80040fa:	68ba      	ldr	r2, [r7, #8]
 80040fc:	187b      	adds	r3, r7, r1
 80040fe:	781b      	ldrb	r3, [r3, #0]
 8004100:	b25b      	sxtb	r3, r3
 8004102:	0011      	movs	r1, r2
 8004104:	0018      	movs	r0, r3
 8004106:	f7ff ff5d 	bl	8003fc4 <__NVIC_SetPriority>
}
 800410a:	46c0      	nop			@ (mov r8, r8)
 800410c:	46bd      	mov	sp, r7
 800410e:	b004      	add	sp, #16
 8004110:	bd80      	pop	{r7, pc}

08004112 <HAL_NVIC_EnableIRQ>:
  *         This parameter can be an enumerator of IRQn_Type enumeration
  *         (For the complete STM32 Devices IRQ Channels list, please refer to the appropriate CMSIS device file (stm32g0xxxx.h))
  * @retval None
  */
void HAL_NVIC_EnableIRQ(IRQn_Type IRQn)
{
 8004112:	b580      	push	{r7, lr}
 8004114:	b082      	sub	sp, #8
 8004116:	af00      	add	r7, sp, #0
 8004118:	0002      	movs	r2, r0
 800411a:	1dfb      	adds	r3, r7, #7
 800411c:	701a      	strb	r2, [r3, #0]
  /* Check the parameters */
  assert_param(IS_NVIC_DEVICE_IRQ(IRQn));

  /* Enable interrupt */
  NVIC_EnableIRQ(IRQn);
 800411e:	1dfb      	adds	r3, r7, #7
 8004120:	781b      	ldrb	r3, [r3, #0]
 8004122:	b25b      	sxtb	r3, r3
 8004124:	0018      	movs	r0, r3
 8004126:	f7ff ff33 	bl	8003f90 <__NVIC_EnableIRQ>
}
 800412a:	46c0      	nop			@ (mov r8, r8)
 800412c:	46bd      	mov	sp, r7
 800412e:	b002      	add	sp, #8
 8004130:	bd80      	pop	{r7, pc}

08004132 <HAL_SYSTICK_Config>:
  * @param  TicksNumb Specifies the ticks Number of ticks between two interrupts.
  * @retval status:  - 0  Function succeeded.
  *                  - 1  Function failed.
  */
uint32_t HAL_SYSTICK_Config(uint32_t TicksNumb)
{
 8004132:	b580      	push	{r7, lr}
 8004134:	b082      	sub	sp, #8
 8004136:	af00      	add	r7, sp, #0
 8004138:	6078      	str	r0, [r7, #4]
  return SysTick_Config(TicksNumb);
 800413a:	687b      	ldr	r3, [r7, #4]
 800413c:	0018      	movs	r0, r3
 800413e:	f7ff ffaf 	bl	80040a0 <SysTick_Config>
 8004142:	0003      	movs	r3, r0
}
 8004144:	0018      	movs	r0, r3
 8004146:	46bd      	mov	sp, r7
 8004148:	b002      	add	sp, #8
 800414a:	bd80      	pop	{r7, pc}

0800414c <HAL_DMA_Abort>:
  * @param hdma Pointer to a DMA_HandleTypeDef structure that contains
  *             the configuration information for the specified DMA Channel.
  * @retval HAL status
  */
HAL_StatusTypeDef HAL_DMA_Abort(DMA_HandleTypeDef *hdma)
{
 800414c:	b580      	push	{r7, lr}
 800414e:	b082      	sub	sp, #8
 8004150:	af00      	add	r7, sp, #0
 8004152:	6078      	str	r0, [r7, #4]
  /* Check the DMA peripheral handle */
  if (NULL == hdma)
 8004154:	687b      	ldr	r3, [r7, #4]
 8004156:	2b00      	cmp	r3, #0
 8004158:	d101      	bne.n	800415e <HAL_DMA_Abort+0x12>
  {
    return HAL_ERROR;
 800415a:	2301      	movs	r3, #1
 800415c:	e050      	b.n	8004200 <HAL_DMA_Abort+0xb4>
  }

  /* Check the DMA peripheral state */
  if (hdma->State != HAL_DMA_STATE_BUSY)
 800415e:	687b      	ldr	r3, [r7, #4]
 8004160:	2225      	movs	r2, #37	@ 0x25
 8004162:	5c9b      	ldrb	r3, [r3, r2]
 8004164:	b2db      	uxtb	r3, r3
 8004166:	2b02      	cmp	r3, #2
 8004168:	d008      	beq.n	800417c <HAL_DMA_Abort+0x30>
  {
    hdma->ErrorCode = HAL_DMA_ERROR_NO_XFER;
 800416a:	687b      	ldr	r3, [r7, #4]
 800416c:	2204      	movs	r2, #4
 800416e:	63da      	str	r2, [r3, #60]	@ 0x3c

    /* Process Unlocked */
    __HAL_UNLOCK(hdma);
 8004170:	687b      	ldr	r3, [r7, #4]
 8004172:	2224      	movs	r2, #36	@ 0x24
 8004174:	2100      	movs	r1, #0
 8004176:	5499      	strb	r1, [r3, r2]

    return HAL_ERROR;
 8004178:	2301      	movs	r3, #1
 800417a:	e041      	b.n	8004200 <HAL_DMA_Abort+0xb4>
  }
  else
  {
    /* Disable DMA IT */
    __HAL_DMA_DISABLE_IT(hdma, (DMA_IT_TC | DMA_IT_HT | DMA_IT_TE));
 800417c:	687b      	ldr	r3, [r7, #4]
 800417e:	681b      	ldr	r3, [r3, #0]
 8004180:	681a      	ldr	r2, [r3, #0]
 8004182:	687b      	ldr	r3, [r7, #4]
 8004184:	681b      	ldr	r3, [r3, #0]
 8004186:	210e      	movs	r1, #14
 8004188:	438a      	bics	r2, r1
 800418a:	601a      	str	r2, [r3, #0]

    /* disable the DMAMUX sync overrun IT*/
    hdma->DMAmuxChannel->CCR &= ~DMAMUX_CxCR_SOIE;
 800418c:	687b      	ldr	r3, [r7, #4]
 800418e:	6c5b      	ldr	r3, [r3, #68]	@ 0x44
 8004190:	681a      	ldr	r2, [r3, #0]
 8004192:	687b      	ldr	r3, [r7, #4]
 8004194:	6c5b      	ldr	r3, [r3, #68]	@ 0x44
 8004196:	491c      	ldr	r1, [pc, #112]	@ (8004208 <HAL_DMA_Abort+0xbc>)
 8004198:	400a      	ands	r2, r1
 800419a:	601a      	str	r2, [r3, #0]

    /* Disable the channel */
    __HAL_DMA_DISABLE(hdma);
 800419c:	687b      	ldr	r3, [r7, #4]
 800419e:	681b      	ldr	r3, [r3, #0]
 80041a0:	681a      	ldr	r2, [r3, #0]
 80041a2:	687b      	ldr	r3, [r7, #4]
 80041a4:	681b      	ldr	r3, [r3, #0]
 80041a6:	2101      	movs	r1, #1
 80041a8:	438a      	bics	r2, r1
 80041aa:	601a      	str	r2, [r3, #0]

    /* Clear all flags */
#if defined(DMA2)
    hdma->DmaBaseAddress->IFCR = (DMA_ISR_GIF1 << (hdma->ChannelIndex & 0x1CU));
#else
    __HAL_DMA_CLEAR_FLAG(hdma, ((DMA_FLAG_GI1) << (hdma->ChannelIndex  & 0x1CU)));
 80041ac:	4b17      	ldr	r3, [pc, #92]	@ (800420c <HAL_DMA_Abort+0xc0>)
 80041ae:	6859      	ldr	r1, [r3, #4]
 80041b0:	687b      	ldr	r3, [r7, #4]
 80041b2:	6c1b      	ldr	r3, [r3, #64]	@ 0x40
 80041b4:	221c      	movs	r2, #28
 80041b6:	4013      	ands	r3, r2
 80041b8:	2201      	movs	r2, #1
 80041ba:	409a      	lsls	r2, r3
 80041bc:	4b13      	ldr	r3, [pc, #76]	@ (800420c <HAL_DMA_Abort+0xc0>)
 80041be:	430a      	orrs	r2, r1
 80041c0:	605a      	str	r2, [r3, #4]
#endif /* DMA2 */

    /* Clear the DMAMUX synchro overrun flag */
    hdma->DMAmuxChannelStatus->CFR = hdma->DMAmuxChannelStatusMask;
 80041c2:	687b      	ldr	r3, [r7, #4]
 80041c4:	6c9b      	ldr	r3, [r3, #72]	@ 0x48
 80041c6:	687a      	ldr	r2, [r7, #4]
 80041c8:	6cd2      	ldr	r2, [r2, #76]	@ 0x4c
 80041ca:	605a      	str	r2, [r3, #4]

    if (hdma->DMAmuxRequestGen != 0U)
 80041cc:	687b      	ldr	r3, [r7, #4]
 80041ce:	6d1b      	ldr	r3, [r3, #80]	@ 0x50
 80041d0:	2b00      	cmp	r3, #0
 80041d2:	d00c      	beq.n	80041ee <HAL_DMA_Abort+0xa2>
    {
      /* if using DMAMUX request generator, disable the DMAMUX request generator overrun IT*/
      /* disable the request gen overrun IT*/
      hdma->DMAmuxRequestGen->RGCR &= ~DMAMUX_RGxCR_OIE;
 80041d4:	687b      	ldr	r3, [r7, #4]
 80041d6:	6d1b      	ldr	r3, [r3, #80]	@ 0x50
 80041d8:	681a      	ldr	r2, [r3, #0]
 80041da:	687b      	ldr	r3, [r7, #4]
 80041dc:	6d1b      	ldr	r3, [r3, #80]	@ 0x50
 80041de:	490a      	ldr	r1, [pc, #40]	@ (8004208 <HAL_DMA_Abort+0xbc>)
 80041e0:	400a      	ands	r2, r1
 80041e2:	601a      	str	r2, [r3, #0]

      /* Clear the DMAMUX request generator overrun flag */
      hdma->DMAmuxRequestGenStatus->RGCFR = hdma->DMAmuxRequestGenStatusMask;
 80041e4:	687b      	ldr	r3, [r7, #4]
 80041e6:	6d5b      	ldr	r3, [r3, #84]	@ 0x54
 80041e8:	687a      	ldr	r2, [r7, #4]
 80041ea:	6d92      	ldr	r2, [r2, #88]	@ 0x58
 80041ec:	605a      	str	r2, [r3, #4]
    }

    /* Change the DMA state */
    hdma->State = HAL_DMA_STATE_READY;
 80041ee:	687b      	ldr	r3, [r7, #4]
 80041f0:	2225      	movs	r2, #37	@ 0x25
 80041f2:	2101      	movs	r1, #1
 80041f4:	5499      	strb	r1, [r3, r2]

    /* Process Unlocked */
    __HAL_UNLOCK(hdma);
 80041f6:	687b      	ldr	r3, [r7, #4]
 80041f8:	2224      	movs	r2, #36	@ 0x24
 80041fa:	2100      	movs	r1, #0
 80041fc:	5499      	strb	r1, [r3, r2]
  }

  return HAL_OK;
 80041fe:	2300      	movs	r3, #0
}
 8004200:	0018      	movs	r0, r3
 8004202:	46bd      	mov	sp, r7
 8004204:	b002      	add	sp, #8
 8004206:	bd80      	pop	{r7, pc}
 8004208:	fffffeff 	.word	0xfffffeff
 800420c:	40020000 	.word	0x40020000

08004210 <HAL_DMA_Abort_IT>:
  * @param hdma Pointer to a DMA_HandleTypeDef structure that contains
  *             the configuration information for the specified DMA Channel.
  * @retval HAL status
  */
HAL_StatusTypeDef HAL_DMA_Abort_IT(DMA_HandleTypeDef *hdma)
{
 8004210:	b580      	push	{r7, lr}
 8004212:	b084      	sub	sp, #16
 8004214:	af00      	add	r7, sp, #0
 8004216:	6078      	str	r0, [r7, #4]
  HAL_StatusTypeDef status = HAL_OK;
 8004218:	210f      	movs	r1, #15
 800421a:	187b      	adds	r3, r7, r1
 800421c:	2200      	movs	r2, #0
 800421e:	701a      	strb	r2, [r3, #0]

  if (hdma->State != HAL_DMA_STATE_BUSY)
 8004220:	687b      	ldr	r3, [r7, #4]
 8004222:	2225      	movs	r2, #37	@ 0x25
 8004224:	5c9b      	ldrb	r3, [r3, r2]
 8004226:	b2db      	uxtb	r3, r3
 8004228:	2b02      	cmp	r3, #2
 800422a:	d006      	beq.n	800423a <HAL_DMA_Abort_IT+0x2a>
  {
    /* no transfer ongoing */
    hdma->ErrorCode = HAL_DMA_ERROR_NO_XFER;
 800422c:	687b      	ldr	r3, [r7, #4]
 800422e:	2204      	movs	r2, #4
 8004230:	63da      	str	r2, [r3, #60]	@ 0x3c

    status = HAL_ERROR;
 8004232:	187b      	adds	r3, r7, r1
 8004234:	2201      	movs	r2, #1
 8004236:	701a      	strb	r2, [r3, #0]
 8004238:	e049      	b.n	80042ce <HAL_DMA_Abort_IT+0xbe>
  }
  else
  {
    /* Disable DMA IT */
    __HAL_DMA_DISABLE_IT(hdma, (DMA_IT_TC | DMA_IT_HT | DMA_IT_TE));
 800423a:	687b      	ldr	r3, [r7, #4]
 800423c:	681b      	ldr	r3, [r3, #0]
 800423e:	681a      	ldr	r2, [r3, #0]
 8004240:	687b      	ldr	r3, [r7, #4]
 8004242:	681b      	ldr	r3, [r3, #0]
 8004244:	210e      	movs	r1, #14
 8004246:	438a      	bics	r2, r1
 8004248:	601a      	str	r2, [r3, #0]

    /* Disable the channel */
    __HAL_DMA_DISABLE(hdma);
 800424a:	687b      	ldr	r3, [r7, #4]
 800424c:	681b      	ldr	r3, [r3, #0]
 800424e:	681a      	ldr	r2, [r3, #0]
 8004250:	687b      	ldr	r3, [r7, #4]
 8004252:	681b      	ldr	r3, [r3, #0]
 8004254:	2101      	movs	r1, #1
 8004256:	438a      	bics	r2, r1
 8004258:	601a      	str	r2, [r3, #0]

    /* disable the DMAMUX sync overrun IT*/
    hdma->DMAmuxChannel->CCR &= ~DMAMUX_CxCR_SOIE;
 800425a:	687b      	ldr	r3, [r7, #4]
 800425c:	6c5b      	ldr	r3, [r3, #68]	@ 0x44
 800425e:	681a      	ldr	r2, [r3, #0]
 8004260:	687b      	ldr	r3, [r7, #4]
 8004262:	6c5b      	ldr	r3, [r3, #68]	@ 0x44
 8004264:	491d      	ldr	r1, [pc, #116]	@ (80042dc <HAL_DMA_Abort_IT+0xcc>)
 8004266:	400a      	ands	r2, r1
 8004268:	601a      	str	r2, [r3, #0]

    /* Clear all flags */
#if defined(DMA2)
    hdma->DmaBaseAddress->IFCR = (DMA_ISR_GIF1 << (hdma->ChannelIndex & 0x1CU));
#else
    __HAL_DMA_CLEAR_FLAG(hdma, ((DMA_FLAG_GI1) << (hdma->ChannelIndex & 0x1CU)));
 800426a:	4b1d      	ldr	r3, [pc, #116]	@ (80042e0 <HAL_DMA_Abort_IT+0xd0>)
 800426c:	6859      	ldr	r1, [r3, #4]
 800426e:	687b      	ldr	r3, [r7, #4]
 8004270:	6c1b      	ldr	r3, [r3, #64]	@ 0x40
 8004272:	221c      	movs	r2, #28
 8004274:	4013      	ands	r3, r2
 8004276:	2201      	movs	r2, #1
 8004278:	409a      	lsls	r2, r3
 800427a:	4b19      	ldr	r3, [pc, #100]	@ (80042e0 <HAL_DMA_Abort_IT+0xd0>)
 800427c:	430a      	orrs	r2, r1
 800427e:	605a      	str	r2, [r3, #4]
#endif /* DMA2 */

    /* Clear the DMAMUX synchro overrun flag */
    hdma->DMAmuxChannelStatus->CFR = hdma->DMAmuxChannelStatusMask;
 8004280:	687b      	ldr	r3, [r7, #4]
 8004282:	6c9b      	ldr	r3, [r3, #72]	@ 0x48
 8004284:	687a      	ldr	r2, [r7, #4]
 8004286:	6cd2      	ldr	r2, [r2, #76]	@ 0x4c
 8004288:	605a      	str	r2, [r3, #4]

    if (hdma->DMAmuxRequestGen != 0U)
 800428a:	687b      	ldr	r3, [r7, #4]
 800428c:	6d1b      	ldr	r3, [r3, #80]	@ 0x50
 800428e:	2b00      	cmp	r3, #0
 8004290:	d00c      	beq.n	80042ac <HAL_DMA_Abort_IT+0x9c>
    {
      /* if using DMAMUX request generator, disable the DMAMUX request generator overrun IT*/
      /* disable the request gen overrun IT*/
      hdma->DMAmuxRequestGen->RGCR &= ~DMAMUX_RGxCR_OIE;
 8004292:	687b      	ldr	r3, [r7, #4]
 8004294:	6d1b      	ldr	r3, [r3, #80]	@ 0x50
 8004296:	681a      	ldr	r2, [r3, #0]
 8004298:	687b      	ldr	r3, [r7, #4]
 800429a:	6d1b      	ldr	r3, [r3, #80]	@ 0x50
 800429c:	490f      	ldr	r1, [pc, #60]	@ (80042dc <HAL_DMA_Abort_IT+0xcc>)
 800429e:	400a      	ands	r2, r1
 80042a0:	601a      	str	r2, [r3, #0]

      /* Clear the DMAMUX request generator overrun flag */
      hdma->DMAmuxRequestGenStatus->RGCFR = hdma->DMAmuxRequestGenStatusMask;
 80042a2:	687b      	ldr	r3, [r7, #4]
 80042a4:	6d5b      	ldr	r3, [r3, #84]	@ 0x54
 80042a6:	687a      	ldr	r2, [r7, #4]
 80042a8:	6d92      	ldr	r2, [r2, #88]	@ 0x58
 80042aa:	605a      	str	r2, [r3, #4]
    }

    /* Change the DMA state */
    hdma->State = HAL_DMA_STATE_READY;
 80042ac:	687b      	ldr	r3, [r7, #4]
 80042ae:	2225      	movs	r2, #37	@ 0x25
 80042b0:	2101      	movs	r1, #1
 80042b2:	5499      	strb	r1, [r3, r2]

    /* Process Unlocked */
    __HAL_UNLOCK(hdma);
 80042b4:	687b      	ldr	r3, [r7, #4]
 80042b6:	2224      	movs	r2, #36	@ 0x24
 80042b8:	2100      	movs	r1, #0
 80042ba:	5499      	strb	r1, [r3, r2]

    /* Call User Abort callback */
    if (hdma->XferAbortCallback != NULL)
 80042bc:	687b      	ldr	r3, [r7, #4]
 80042be:	6b9b      	ldr	r3, [r3, #56]	@ 0x38
 80042c0:	2b00      	cmp	r3, #0
 80042c2:	d004      	beq.n	80042ce <HAL_DMA_Abort_IT+0xbe>
    {
      hdma->XferAbortCallback(hdma);
 80042c4:	687b      	ldr	r3, [r7, #4]
 80042c6:	6b9b      	ldr	r3, [r3, #56]	@ 0x38
 80042c8:	687a      	ldr	r2, [r7, #4]
 80042ca:	0010      	movs	r0, r2
 80042cc:	4798      	blx	r3
    }
  }
  return status;
 80042ce:	230f      	movs	r3, #15
 80042d0:	18fb      	adds	r3, r7, r3
 80042d2:	781b      	ldrb	r3, [r3, #0]
}
 80042d4:	0018      	movs	r0, r3
 80042d6:	46bd      	mov	sp, r7
 80042d8:	b004      	add	sp, #16
 80042da:	bd80      	pop	{r7, pc}
 80042dc:	fffffeff 	.word	0xfffffeff
 80042e0:	40020000 	.word	0x40020000

080042e4 <HAL_GPIO_Init>:
  * @param  GPIO_Init pointer to a GPIO_InitTypeDef structure that contains
  *         the configuration information for the specified GPIO peripheral.
  * @retval None
  */
void HAL_GPIO_Init(GPIO_TypeDef  *GPIOx, GPIO_InitTypeDef *GPIO_Init)
{
 80042e4:	b580      	push	{r7, lr}
 80042e6:	b086      	sub	sp, #24
 80042e8:	af00      	add	r7, sp, #0
 80042ea:	6078      	str	r0, [r7, #4]
 80042ec:	6039      	str	r1, [r7, #0]
  uint32_t position = 0x00u;
 80042ee:	2300      	movs	r3, #0
 80042f0:	617b      	str	r3, [r7, #20]
  assert_param(IS_GPIO_ALL_INSTANCE(GPIOx));
  assert_param(IS_GPIO_PIN(GPIO_Init->Pin));
  assert_param(IS_GPIO_MODE(GPIO_Init->Mode));

  /* Configure the port pins */
  while (((GPIO_Init->Pin) >> position) != 0x00u)
 80042f2:	e147      	b.n	8004584 <HAL_GPIO_Init+0x2a0>
  {
    /* Get current io position */
    iocurrent = (GPIO_Init->Pin) & (1uL << position);
 80042f4:	683b      	ldr	r3, [r7, #0]
 80042f6:	681b      	ldr	r3, [r3, #0]
 80042f8:	2101      	movs	r1, #1
 80042fa:	697a      	ldr	r2, [r7, #20]
 80042fc:	4091      	lsls	r1, r2
 80042fe:	000a      	movs	r2, r1
 8004300:	4013      	ands	r3, r2
 8004302:	60fb      	str	r3, [r7, #12]

    if (iocurrent != 0x00u)
 8004304:	68fb      	ldr	r3, [r7, #12]
 8004306:	2b00      	cmp	r3, #0
 8004308:	d100      	bne.n	800430c <HAL_GPIO_Init+0x28>
 800430a:	e138      	b.n	800457e <HAL_GPIO_Init+0x29a>
    {
      /*--------------------- GPIO Mode Configuration ------------------------*/
      /* In case of Output or Alternate function mode selection */
      if (((GPIO_Init->Mode & GPIO_MODE) == MODE_OUTPUT) || ((GPIO_Init->Mode & GPIO_MODE) == MODE_AF))
 800430c:	683b      	ldr	r3, [r7, #0]
 800430e:	685b      	ldr	r3, [r3, #4]
 8004310:	2203      	movs	r2, #3
 8004312:	4013      	ands	r3, r2
 8004314:	2b01      	cmp	r3, #1
 8004316:	d005      	beq.n	8004324 <HAL_GPIO_Init+0x40>
 8004318:	683b      	ldr	r3, [r7, #0]
 800431a:	685b      	ldr	r3, [r3, #4]
 800431c:	2203      	movs	r2, #3
 800431e:	4013      	ands	r3, r2
 8004320:	2b02      	cmp	r3, #2
 8004322:	d130      	bne.n	8004386 <HAL_GPIO_Init+0xa2>
      {
        /* Check the Speed parameter */
        assert_param(IS_GPIO_SPEED(GPIO_Init->Speed));

        /* Configure the IO Speed */
        temp = GPIOx->OSPEEDR;
 8004324:	687b      	ldr	r3, [r7, #4]
 8004326:	689b      	ldr	r3, [r3, #8]
 8004328:	613b      	str	r3, [r7, #16]
        temp &= ~(GPIO_OSPEEDR_OSPEED0 << (position * 2u));
 800432a:	697b      	ldr	r3, [r7, #20]
 800432c:	005b      	lsls	r3, r3, #1
 800432e:	2203      	movs	r2, #3
 8004330:	409a      	lsls	r2, r3
 8004332:	0013      	movs	r3, r2
 8004334:	43da      	mvns	r2, r3
 8004336:	693b      	ldr	r3, [r7, #16]
 8004338:	4013      	ands	r3, r2
 800433a:	613b      	str	r3, [r7, #16]
        temp |= (GPIO_Init->Speed << (position * 2u));
 800433c:	683b      	ldr	r3, [r7, #0]
 800433e:	68da      	ldr	r2, [r3, #12]
 8004340:	697b      	ldr	r3, [r7, #20]
 8004342:	005b      	lsls	r3, r3, #1
 8004344:	409a      	lsls	r2, r3
 8004346:	0013      	movs	r3, r2
 8004348:	693a      	ldr	r2, [r7, #16]
 800434a:	4313      	orrs	r3, r2
 800434c:	613b      	str	r3, [r7, #16]
        GPIOx->OSPEEDR = temp;
 800434e:	687b      	ldr	r3, [r7, #4]
 8004350:	693a      	ldr	r2, [r7, #16]
 8004352:	609a      	str	r2, [r3, #8]

        /* Configure the IO Output Type */
        temp = GPIOx->OTYPER;
 8004354:	687b      	ldr	r3, [r7, #4]
 8004356:	685b      	ldr	r3, [r3, #4]
 8004358:	613b      	str	r3, [r7, #16]
        temp &= ~(GPIO_OTYPER_OT0 << position) ;
 800435a:	2201      	movs	r2, #1
 800435c:	697b      	ldr	r3, [r7, #20]
 800435e:	409a      	lsls	r2, r3
 8004360:	0013      	movs	r3, r2
 8004362:	43da      	mvns	r2, r3
 8004364:	693b      	ldr	r3, [r7, #16]
 8004366:	4013      	ands	r3, r2
 8004368:	613b      	str	r3, [r7, #16]
        temp |= (((GPIO_Init->Mode & OUTPUT_TYPE) >> OUTPUT_TYPE_Pos) << position);
 800436a:	683b      	ldr	r3, [r7, #0]
 800436c:	685b      	ldr	r3, [r3, #4]
 800436e:	091b      	lsrs	r3, r3, #4
 8004370:	2201      	movs	r2, #1
 8004372:	401a      	ands	r2, r3
 8004374:	697b      	ldr	r3, [r7, #20]
 8004376:	409a      	lsls	r2, r3
 8004378:	0013      	movs	r3, r2
 800437a:	693a      	ldr	r2, [r7, #16]
 800437c:	4313      	orrs	r3, r2
 800437e:	613b      	str	r3, [r7, #16]
        GPIOx->OTYPER = temp;
 8004380:	687b      	ldr	r3, [r7, #4]
 8004382:	693a      	ldr	r2, [r7, #16]
 8004384:	605a      	str	r2, [r3, #4]
      }

      if ((GPIO_Init->Mode & GPIO_MODE) != MODE_ANALOG)
 8004386:	683b      	ldr	r3, [r7, #0]
 8004388:	685b      	ldr	r3, [r3, #4]
 800438a:	2203      	movs	r2, #3
 800438c:	4013      	ands	r3, r2
 800438e:	2b03      	cmp	r3, #3
 8004390:	d017      	beq.n	80043c2 <HAL_GPIO_Init+0xde>
      {
        /* Check the Pull parameter */
        assert_param(IS_GPIO_PULL(GPIO_Init->Pull));

        /* Activate the Pull-up or Pull down resistor for the current IO */
        temp = GPIOx->PUPDR;
 8004392:	687b      	ldr	r3, [r7, #4]
 8004394:	68db      	ldr	r3, [r3, #12]
 8004396:	613b      	str	r3, [r7, #16]
        temp &= ~(GPIO_PUPDR_PUPD0 << (position * 2u));
 8004398:	697b      	ldr	r3, [r7, #20]
 800439a:	005b      	lsls	r3, r3, #1
 800439c:	2203      	movs	r2, #3
 800439e:	409a      	lsls	r2, r3
 80043a0:	0013      	movs	r3, r2
 80043a2:	43da      	mvns	r2, r3
 80043a4:	693b      	ldr	r3, [r7, #16]
 80043a6:	4013      	ands	r3, r2
 80043a8:	613b      	str	r3, [r7, #16]
        temp |= ((GPIO_Init->Pull) << (position * 2u));
 80043aa:	683b      	ldr	r3, [r7, #0]
 80043ac:	689a      	ldr	r2, [r3, #8]
 80043ae:	697b      	ldr	r3, [r7, #20]
 80043b0:	005b      	lsls	r3, r3, #1
 80043b2:	409a      	lsls	r2, r3
 80043b4:	0013      	movs	r3, r2
 80043b6:	693a      	ldr	r2, [r7, #16]
 80043b8:	4313      	orrs	r3, r2
 80043ba:	613b      	str	r3, [r7, #16]
        GPIOx->PUPDR = temp;
 80043bc:	687b      	ldr	r3, [r7, #4]
 80043be:	693a      	ldr	r2, [r7, #16]
 80043c0:	60da      	str	r2, [r3, #12]
      }

      /* In case of Alternate function mode selection */
      if ((GPIO_Init->Mode & GPIO_MODE) == MODE_AF)
 80043c2:	683b      	ldr	r3, [r7, #0]
 80043c4:	685b      	ldr	r3, [r3, #4]
 80043c6:	2203      	movs	r2, #3
 80043c8:	4013      	ands	r3, r2
 80043ca:	2b02      	cmp	r3, #2
 80043cc:	d123      	bne.n	8004416 <HAL_GPIO_Init+0x132>
        /* Check the Alternate function parameters */
        assert_param(IS_GPIO_AF_INSTANCE(GPIOx));
        assert_param(IS_GPIO_AF(GPIO_Init->Alternate));

        /* Configure Alternate function mapped with the current IO */
        temp = GPIOx->AFR[position >> 3u];
 80043ce:	697b      	ldr	r3, [r7, #20]
 80043d0:	08da      	lsrs	r2, r3, #3
 80043d2:	687b      	ldr	r3, [r7, #4]
 80043d4:	3208      	adds	r2, #8
 80043d6:	0092      	lsls	r2, r2, #2
 80043d8:	58d3      	ldr	r3, [r2, r3]
 80043da:	613b      	str	r3, [r7, #16]
        temp &= ~(0xFu << ((position & 0x07u) * 4u));
 80043dc:	697b      	ldr	r3, [r7, #20]
 80043de:	2207      	movs	r2, #7
 80043e0:	4013      	ands	r3, r2
 80043e2:	009b      	lsls	r3, r3, #2
 80043e4:	220f      	movs	r2, #15
 80043e6:	409a      	lsls	r2, r3
 80043e8:	0013      	movs	r3, r2
 80043ea:	43da      	mvns	r2, r3
 80043ec:	693b      	ldr	r3, [r7, #16]
 80043ee:	4013      	ands	r3, r2
 80043f0:	613b      	str	r3, [r7, #16]
        temp |= ((GPIO_Init->Alternate) << ((position & 0x07u) * 4u));
 80043f2:	683b      	ldr	r3, [r7, #0]
 80043f4:	691a      	ldr	r2, [r3, #16]
 80043f6:	697b      	ldr	r3, [r7, #20]
 80043f8:	2107      	movs	r1, #7
 80043fa:	400b      	ands	r3, r1
 80043fc:	009b      	lsls	r3, r3, #2
 80043fe:	409a      	lsls	r2, r3
 8004400:	0013      	movs	r3, r2
 8004402:	693a      	ldr	r2, [r7, #16]
 8004404:	4313      	orrs	r3, r2
 8004406:	613b      	str	r3, [r7, #16]
        GPIOx->AFR[position >> 3u] = temp;
 8004408:	697b      	ldr	r3, [r7, #20]
 800440a:	08da      	lsrs	r2, r3, #3
 800440c:	687b      	ldr	r3, [r7, #4]
 800440e:	3208      	adds	r2, #8
 8004410:	0092      	lsls	r2, r2, #2
 8004412:	6939      	ldr	r1, [r7, #16]
 8004414:	50d1      	str	r1, [r2, r3]
      }

      /* Configure IO Direction mode (Input, Output, Alternate or Analog) */
      temp = GPIOx->MODER;
 8004416:	687b      	ldr	r3, [r7, #4]
 8004418:	681b      	ldr	r3, [r3, #0]
 800441a:	613b      	str	r3, [r7, #16]
      temp &= ~(GPIO_MODER_MODE0 << (position * 2u));
 800441c:	697b      	ldr	r3, [r7, #20]
 800441e:	005b      	lsls	r3, r3, #1
 8004420:	2203      	movs	r2, #3
 8004422:	409a      	lsls	r2, r3
 8004424:	0013      	movs	r3, r2
 8004426:	43da      	mvns	r2, r3
 8004428:	693b      	ldr	r3, [r7, #16]
 800442a:	4013      	ands	r3, r2
 800442c:	613b      	str	r3, [r7, #16]
      temp |= ((GPIO_Init->Mode & GPIO_MODE) << (position * 2u));
 800442e:	683b      	ldr	r3, [r7, #0]
 8004430:	685b      	ldr	r3, [r3, #4]
 8004432:	2203      	movs	r2, #3
 8004434:	401a      	ands	r2, r3
 8004436:	697b      	ldr	r3, [r7, #20]
 8004438:	005b      	lsls	r3, r3, #1
 800443a:	409a      	lsls	r2, r3
 800443c:	0013      	movs	r3, r2
 800443e:	693a      	ldr	r2, [r7, #16]
 8004440:	4313      	orrs	r3, r2
 8004442:	613b      	str	r3, [r7, #16]
      GPIOx->MODER = temp;
 8004444:	687b      	ldr	r3, [r7, #4]
 8004446:	693a      	ldr	r2, [r7, #16]
 8004448:	601a      	str	r2, [r3, #0]

      /*--------------------- EXTI Mode Configuration ------------------------*/
      /* Configure the External Interrupt or event for the current IO */
      if ((GPIO_Init->Mode & EXTI_MODE) != 0x00u)
 800444a:	683b      	ldr	r3, [r7, #0]
 800444c:	685a      	ldr	r2, [r3, #4]
 800444e:	23c0      	movs	r3, #192	@ 0xc0
 8004450:	029b      	lsls	r3, r3, #10
 8004452:	4013      	ands	r3, r2
 8004454:	d100      	bne.n	8004458 <HAL_GPIO_Init+0x174>
 8004456:	e092      	b.n	800457e <HAL_GPIO_Init+0x29a>
      {
        temp = EXTI->EXTICR[position >> 2u];
 8004458:	4a50      	ldr	r2, [pc, #320]	@ (800459c <HAL_GPIO_Init+0x2b8>)
 800445a:	697b      	ldr	r3, [r7, #20]
 800445c:	089b      	lsrs	r3, r3, #2
 800445e:	3318      	adds	r3, #24
 8004460:	009b      	lsls	r3, r3, #2
 8004462:	589b      	ldr	r3, [r3, r2]
 8004464:	613b      	str	r3, [r7, #16]
        temp &= ~(0x0FuL << (8u * (position & 0x03u)));
 8004466:	697b      	ldr	r3, [r7, #20]
 8004468:	2203      	movs	r2, #3
 800446a:	4013      	ands	r3, r2
 800446c:	00db      	lsls	r3, r3, #3
 800446e:	220f      	movs	r2, #15
 8004470:	409a      	lsls	r2, r3
 8004472:	0013      	movs	r3, r2
 8004474:	43da      	mvns	r2, r3
 8004476:	693b      	ldr	r3, [r7, #16]
 8004478:	4013      	ands	r3, r2
 800447a:	613b      	str	r3, [r7, #16]
        temp |= (GPIO_GET_INDEX(GPIOx) << (8u * (position & 0x03u)));
 800447c:	687a      	ldr	r2, [r7, #4]
 800447e:	23a0      	movs	r3, #160	@ 0xa0
 8004480:	05db      	lsls	r3, r3, #23
 8004482:	429a      	cmp	r2, r3
 8004484:	d013      	beq.n	80044ae <HAL_GPIO_Init+0x1ca>
 8004486:	687b      	ldr	r3, [r7, #4]
 8004488:	4a45      	ldr	r2, [pc, #276]	@ (80045a0 <HAL_GPIO_Init+0x2bc>)
 800448a:	4293      	cmp	r3, r2
 800448c:	d00d      	beq.n	80044aa <HAL_GPIO_Init+0x1c6>
 800448e:	687b      	ldr	r3, [r7, #4]
 8004490:	4a44      	ldr	r2, [pc, #272]	@ (80045a4 <HAL_GPIO_Init+0x2c0>)
 8004492:	4293      	cmp	r3, r2
 8004494:	d007      	beq.n	80044a6 <HAL_GPIO_Init+0x1c2>
 8004496:	687b      	ldr	r3, [r7, #4]
 8004498:	4a43      	ldr	r2, [pc, #268]	@ (80045a8 <HAL_GPIO_Init+0x2c4>)
 800449a:	4293      	cmp	r3, r2
 800449c:	d101      	bne.n	80044a2 <HAL_GPIO_Init+0x1be>
 800449e:	2303      	movs	r3, #3
 80044a0:	e006      	b.n	80044b0 <HAL_GPIO_Init+0x1cc>
 80044a2:	2305      	movs	r3, #5
 80044a4:	e004      	b.n	80044b0 <HAL_GPIO_Init+0x1cc>
 80044a6:	2302      	movs	r3, #2
 80044a8:	e002      	b.n	80044b0 <HAL_GPIO_Init+0x1cc>
 80044aa:	2301      	movs	r3, #1
 80044ac:	e000      	b.n	80044b0 <HAL_GPIO_Init+0x1cc>
 80044ae:	2300      	movs	r3, #0
 80044b0:	697a      	ldr	r2, [r7, #20]
 80044b2:	2103      	movs	r1, #3
 80044b4:	400a      	ands	r2, r1
 80044b6:	00d2      	lsls	r2, r2, #3
 80044b8:	4093      	lsls	r3, r2
 80044ba:	693a      	ldr	r2, [r7, #16]
 80044bc:	4313      	orrs	r3, r2
 80044be:	613b      	str	r3, [r7, #16]
        EXTI->EXTICR[position >> 2u] = temp;
 80044c0:	4936      	ldr	r1, [pc, #216]	@ (800459c <HAL_GPIO_Init+0x2b8>)
 80044c2:	697b      	ldr	r3, [r7, #20]
 80044c4:	089b      	lsrs	r3, r3, #2
 80044c6:	3318      	adds	r3, #24
 80044c8:	009b      	lsls	r3, r3, #2
 80044ca:	693a      	ldr	r2, [r7, #16]
 80044cc:	505a      	str	r2, [r3, r1]

        /* Clear Rising Falling edge configuration */
        temp = EXTI->RTSR1;
 80044ce:	4b33      	ldr	r3, [pc, #204]	@ (800459c <HAL_GPIO_Init+0x2b8>)
 80044d0:	681b      	ldr	r3, [r3, #0]
 80044d2:	613b      	str	r3, [r7, #16]
        temp &= ~(iocurrent);
 80044d4:	68fb      	ldr	r3, [r7, #12]
 80044d6:	43da      	mvns	r2, r3
 80044d8:	693b      	ldr	r3, [r7, #16]
 80044da:	4013      	ands	r3, r2
 80044dc:	613b      	str	r3, [r7, #16]
        if ((GPIO_Init->Mode & TRIGGER_RISING) != 0x00u)
 80044de:	683b      	ldr	r3, [r7, #0]
 80044e0:	685a      	ldr	r2, [r3, #4]
 80044e2:	2380      	movs	r3, #128	@ 0x80
 80044e4:	035b      	lsls	r3, r3, #13
 80044e6:	4013      	ands	r3, r2
 80044e8:	d003      	beq.n	80044f2 <HAL_GPIO_Init+0x20e>
        {
          temp |= iocurrent;
 80044ea:	693a      	ldr	r2, [r7, #16]
 80044ec:	68fb      	ldr	r3, [r7, #12]
 80044ee:	4313      	orrs	r3, r2
 80044f0:	613b      	str	r3, [r7, #16]
        }
        EXTI->RTSR1 = temp;
 80044f2:	4b2a      	ldr	r3, [pc, #168]	@ (800459c <HAL_GPIO_Init+0x2b8>)
 80044f4:	693a      	ldr	r2, [r7, #16]
 80044f6:	601a      	str	r2, [r3, #0]

        temp = EXTI->FTSR1;
 80044f8:	4b28      	ldr	r3, [pc, #160]	@ (800459c <HAL_GPIO_Init+0x2b8>)
 80044fa:	685b      	ldr	r3, [r3, #4]
 80044fc:	613b      	str	r3, [r7, #16]
        temp &= ~(iocurrent);
 80044fe:	68fb      	ldr	r3, [r7, #12]
 8004500:	43da      	mvns	r2, r3
 8004502:	693b      	ldr	r3, [r7, #16]
 8004504:	4013      	ands	r3, r2
 8004506:	613b      	str	r3, [r7, #16]
        if ((GPIO_Init->Mode & TRIGGER_FALLING) != 0x00u)
 8004508:	683b      	ldr	r3, [r7, #0]
 800450a:	685a      	ldr	r2, [r3, #4]
 800450c:	2380      	movs	r3, #128	@ 0x80
 800450e:	039b      	lsls	r3, r3, #14
 8004510:	4013      	ands	r3, r2
 8004512:	d003      	beq.n	800451c <HAL_GPIO_Init+0x238>
        {
          temp |= iocurrent;
 8004514:	693a      	ldr	r2, [r7, #16]
 8004516:	68fb      	ldr	r3, [r7, #12]
 8004518:	4313      	orrs	r3, r2
 800451a:	613b      	str	r3, [r7, #16]
        }
        EXTI->FTSR1 = temp;
 800451c:	4b1f      	ldr	r3, [pc, #124]	@ (800459c <HAL_GPIO_Init+0x2b8>)
 800451e:	693a      	ldr	r2, [r7, #16]
 8004520:	605a      	str	r2, [r3, #4]

        /* Clear EXTI line configuration */
        temp = EXTI->EMR1;
 8004522:	4a1e      	ldr	r2, [pc, #120]	@ (800459c <HAL_GPIO_Init+0x2b8>)
 8004524:	2384      	movs	r3, #132	@ 0x84
 8004526:	58d3      	ldr	r3, [r2, r3]
 8004528:	613b      	str	r3, [r7, #16]
        temp &= ~(iocurrent);
 800452a:	68fb      	ldr	r3, [r7, #12]
 800452c:	43da      	mvns	r2, r3
 800452e:	693b      	ldr	r3, [r7, #16]
 8004530:	4013      	ands	r3, r2
 8004532:	613b      	str	r3, [r7, #16]
        if ((GPIO_Init->Mode & EXTI_EVT) != 0x00u)
 8004534:	683b      	ldr	r3, [r7, #0]
 8004536:	685a      	ldr	r2, [r3, #4]
 8004538:	2380      	movs	r3, #128	@ 0x80
 800453a:	029b      	lsls	r3, r3, #10
 800453c:	4013      	ands	r3, r2
 800453e:	d003      	beq.n	8004548 <HAL_GPIO_Init+0x264>
        {
          temp |= iocurrent;
 8004540:	693a      	ldr	r2, [r7, #16]
 8004542:	68fb      	ldr	r3, [r7, #12]
 8004544:	4313      	orrs	r3, r2
 8004546:	613b      	str	r3, [r7, #16]
        }
        EXTI->EMR1 = temp;
 8004548:	4914      	ldr	r1, [pc, #80]	@ (800459c <HAL_GPIO_Init+0x2b8>)
 800454a:	2284      	movs	r2, #132	@ 0x84
 800454c:	693b      	ldr	r3, [r7, #16]
 800454e:	508b      	str	r3, [r1, r2]

        temp = EXTI->IMR1;
 8004550:	4a12      	ldr	r2, [pc, #72]	@ (800459c <HAL_GPIO_Init+0x2b8>)
 8004552:	2380      	movs	r3, #128	@ 0x80
 8004554:	58d3      	ldr	r3, [r2, r3]
 8004556:	613b      	str	r3, [r7, #16]
        temp &= ~(iocurrent);
 8004558:	68fb      	ldr	r3, [r7, #12]
 800455a:	43da      	mvns	r2, r3
 800455c:	693b      	ldr	r3, [r7, #16]
 800455e:	4013      	ands	r3, r2
 8004560:	613b      	str	r3, [r7, #16]
        if ((GPIO_Init->Mode & EXTI_IT) != 0x00u)
 8004562:	683b      	ldr	r3, [r7, #0]
 8004564:	685a      	ldr	r2, [r3, #4]
 8004566:	2380      	movs	r3, #128	@ 0x80
 8004568:	025b      	lsls	r3, r3, #9
 800456a:	4013      	ands	r3, r2
 800456c:	d003      	beq.n	8004576 <HAL_GPIO_Init+0x292>
        {
          temp |= iocurrent;
 800456e:	693a      	ldr	r2, [r7, #16]
 8004570:	68fb      	ldr	r3, [r7, #12]
 8004572:	4313      	orrs	r3, r2
 8004574:	613b      	str	r3, [r7, #16]
        }
        EXTI->IMR1 = temp;
 8004576:	4909      	ldr	r1, [pc, #36]	@ (800459c <HAL_GPIO_Init+0x2b8>)
 8004578:	2280      	movs	r2, #128	@ 0x80
 800457a:	693b      	ldr	r3, [r7, #16]
 800457c:	508b      	str	r3, [r1, r2]
      }
    }

    position++;
 800457e:	697b      	ldr	r3, [r7, #20]
 8004580:	3301      	adds	r3, #1
 8004582:	617b      	str	r3, [r7, #20]
  while (((GPIO_Init->Pin) >> position) != 0x00u)
 8004584:	683b      	ldr	r3, [r7, #0]
 8004586:	681a      	ldr	r2, [r3, #0]
 8004588:	697b      	ldr	r3, [r7, #20]
 800458a:	40da      	lsrs	r2, r3
 800458c:	1e13      	subs	r3, r2, #0
 800458e:	d000      	beq.n	8004592 <HAL_GPIO_Init+0x2ae>
 8004590:	e6b0      	b.n	80042f4 <HAL_GPIO_Init+0x10>
  }
}
 8004592:	46c0      	nop			@ (mov r8, r8)
 8004594:	46c0      	nop			@ (mov r8, r8)
 8004596:	46bd      	mov	sp, r7
 8004598:	b006      	add	sp, #24
 800459a:	bd80      	pop	{r7, pc}
 800459c:	40021800 	.word	0x40021800
 80045a0:	50000400 	.word	0x50000400
 80045a4:	50000800 	.word	0x50000800
 80045a8:	50000c00 	.word	0x50000c00

080045ac <HAL_GPIO_WritePin>:
  *            @arg GPIO_PIN_RESET: to clear the port pin
  *            @arg GPIO_PIN_SET: to set the port pin
  * @retval None
  */
void HAL_GPIO_WritePin(GPIO_TypeDef *GPIOx, uint16_t GPIO_Pin, GPIO_PinState PinState)
{
 80045ac:	b580      	push	{r7, lr}
 80045ae:	b082      	sub	sp, #8
 80045b0:	af00      	add	r7, sp, #0
 80045b2:	6078      	str	r0, [r7, #4]
 80045b4:	0008      	movs	r0, r1
 80045b6:	0011      	movs	r1, r2
 80045b8:	1cbb      	adds	r3, r7, #2
 80045ba:	1c02      	adds	r2, r0, #0
 80045bc:	801a      	strh	r2, [r3, #0]
 80045be:	1c7b      	adds	r3, r7, #1
 80045c0:	1c0a      	adds	r2, r1, #0
 80045c2:	701a      	strb	r2, [r3, #0]
  /* Check the parameters */
  assert_param(IS_GPIO_PIN(GPIO_Pin));
  assert_param(IS_GPIO_PIN_ACTION(PinState));

  if (PinState != GPIO_PIN_RESET)
 80045c4:	1c7b      	adds	r3, r7, #1
 80045c6:	781b      	ldrb	r3, [r3, #0]
 80045c8:	2b00      	cmp	r3, #0
 80045ca:	d004      	beq.n	80045d6 <HAL_GPIO_WritePin+0x2a>
  {
    GPIOx->BSRR = (uint32_t)GPIO_Pin;
 80045cc:	1cbb      	adds	r3, r7, #2
 80045ce:	881a      	ldrh	r2, [r3, #0]
 80045d0:	687b      	ldr	r3, [r7, #4]
 80045d2:	619a      	str	r2, [r3, #24]
  }
  else
  {
    GPIOx->BRR = (uint32_t)GPIO_Pin;
  }
}
 80045d4:	e003      	b.n	80045de <HAL_GPIO_WritePin+0x32>
    GPIOx->BRR = (uint32_t)GPIO_Pin;
 80045d6:	1cbb      	adds	r3, r7, #2
 80045d8:	881a      	ldrh	r2, [r3, #0]
 80045da:	687b      	ldr	r3, [r7, #4]
 80045dc:	629a      	str	r2, [r3, #40]	@ 0x28
}
 80045de:	46c0      	nop			@ (mov r8, r8)
 80045e0:	46bd      	mov	sp, r7
 80045e2:	b002      	add	sp, #8
 80045e4:	bd80      	pop	{r7, pc}
	...

080045e8 <LL_RCC_GetAPB1Prescaler>:
  *         @arg @ref LL_RCC_APB1_DIV_4
  *         @arg @ref LL_RCC_APB1_DIV_8
  *         @arg @ref LL_RCC_APB1_DIV_16
  */
__STATIC_INLINE uint32_t LL_RCC_GetAPB1Prescaler(void)
{
 80045e8:	b580      	push	{r7, lr}
 80045ea:	af00      	add	r7, sp, #0
  return (uint32_t)(READ_BIT(RCC->CFGR, RCC_CFGR_PPRE));
 80045ec:	4b03      	ldr	r3, [pc, #12]	@ (80045fc <LL_RCC_GetAPB1Prescaler+0x14>)
 80045ee:	689a      	ldr	r2, [r3, #8]
 80045f0:	23e0      	movs	r3, #224	@ 0xe0
 80045f2:	01db      	lsls	r3, r3, #7
 80045f4:	4013      	ands	r3, r2
}
 80045f6:	0018      	movs	r0, r3
 80045f8:	46bd      	mov	sp, r7
 80045fa:	bd80      	pop	{r7, pc}
 80045fc:	40021000 	.word	0x40021000

08004600 <HAL_RCC_GetSysClockFreq>:
  *
  *
  * @retval SYSCLK frequency
  */
uint32_t HAL_RCC_GetSysClockFreq(void)
{
 8004600:	b580      	push	{r7, lr}
 8004602:	b086      	sub	sp, #24
 8004604:	af00      	add	r7, sp, #0
  uint32_t pllvco, pllsource, pllr, pllm, hsidiv;
  uint32_t sysclockfreq;

  if (__HAL_RCC_GET_SYSCLK_SOURCE() == RCC_SYSCLKSOURCE_STATUS_HSI)
 8004606:	4b3c      	ldr	r3, [pc, #240]	@ (80046f8 <HAL_RCC_GetSysClockFreq+0xf8>)
 8004608:	689b      	ldr	r3, [r3, #8]
 800460a:	2238      	movs	r2, #56	@ 0x38
 800460c:	4013      	ands	r3, r2
 800460e:	d10f      	bne.n	8004630 <HAL_RCC_GetSysClockFreq+0x30>
  {
    /* HSISYS can be derived for HSI16 */
    hsidiv = (1UL << ((READ_BIT(RCC->CR, RCC_CR_HSIDIV)) >> RCC_CR_HSIDIV_Pos));
 8004610:	4b39      	ldr	r3, [pc, #228]	@ (80046f8 <HAL_RCC_GetSysClockFreq+0xf8>)
 8004612:	681b      	ldr	r3, [r3, #0]
 8004614:	0adb      	lsrs	r3, r3, #11
 8004616:	2207      	movs	r2, #7
 8004618:	4013      	ands	r3, r2
 800461a:	2201      	movs	r2, #1
 800461c:	409a      	lsls	r2, r3
 800461e:	0013      	movs	r3, r2
 8004620:	603b      	str	r3, [r7, #0]

    /* HSI used as system clock source */
    sysclockfreq = (HSI_VALUE / hsidiv);
 8004622:	6839      	ldr	r1, [r7, #0]
 8004624:	4835      	ldr	r0, [pc, #212]	@ (80046fc <HAL_RCC_GetSysClockFreq+0xfc>)
 8004626:	f7fb fd93 	bl	8000150 <__udivsi3>
 800462a:	0003      	movs	r3, r0
 800462c:	613b      	str	r3, [r7, #16]
 800462e:	e05d      	b.n	80046ec <HAL_RCC_GetSysClockFreq+0xec>
  }
  else if (__HAL_RCC_GET_SYSCLK_SOURCE() == RCC_SYSCLKSOURCE_STATUS_HSE)
 8004630:	4b31      	ldr	r3, [pc, #196]	@ (80046f8 <HAL_RCC_GetSysClockFreq+0xf8>)
 8004632:	689b      	ldr	r3, [r3, #8]
 8004634:	2238      	movs	r2, #56	@ 0x38
 8004636:	4013      	ands	r3, r2
 8004638:	2b08      	cmp	r3, #8
 800463a:	d102      	bne.n	8004642 <HAL_RCC_GetSysClockFreq+0x42>
  {
    /* HSE used as system clock source */
    sysclockfreq = HSE_VALUE;
 800463c:	4b30      	ldr	r3, [pc, #192]	@ (8004700 <HAL_RCC_GetSysClockFreq+0x100>)
 800463e:	613b      	str	r3, [r7, #16]
 8004640:	e054      	b.n	80046ec <HAL_RCC_GetSysClockFreq+0xec>
  }
  else if (__HAL_RCC_GET_SYSCLK_SOURCE() == RCC_SYSCLKSOURCE_STATUS_PLLCLK)
 8004642:	4b2d      	ldr	r3, [pc, #180]	@ (80046f8 <HAL_RCC_GetSysClockFreq+0xf8>)
 8004644:	689b      	ldr	r3, [r3, #8]
 8004646:	2238      	movs	r2, #56	@ 0x38
 8004648:	4013      	ands	r3, r2
 800464a:	2b10      	cmp	r3, #16
 800464c:	d138      	bne.n	80046c0 <HAL_RCC_GetSysClockFreq+0xc0>
    /* PLL used as system clock  source */

    /* PLL_VCO = ((HSE_VALUE or HSI_VALUE)/ PLLM) * PLLN
    SYSCLK = PLL_VCO / PLLR
    */
    pllsource = (RCC->PLLCFGR & RCC_PLLCFGR_PLLSRC);
 800464e:	4b2a      	ldr	r3, [pc, #168]	@ (80046f8 <HAL_RCC_GetSysClockFreq+0xf8>)
 8004650:	68db      	ldr	r3, [r3, #12]
 8004652:	2203      	movs	r2, #3
 8004654:	4013      	ands	r3, r2
 8004656:	60fb      	str	r3, [r7, #12]
    pllm = ((RCC->PLLCFGR & RCC_PLLCFGR_PLLM) >> RCC_PLLCFGR_PLLM_Pos) + 1U ;
 8004658:	4b27      	ldr	r3, [pc, #156]	@ (80046f8 <HAL_RCC_GetSysClockFreq+0xf8>)
 800465a:	68db      	ldr	r3, [r3, #12]
 800465c:	091b      	lsrs	r3, r3, #4
 800465e:	2207      	movs	r2, #7
 8004660:	4013      	ands	r3, r2
 8004662:	3301      	adds	r3, #1
 8004664:	60bb      	str	r3, [r7, #8]

    switch (pllsource)
 8004666:	68fb      	ldr	r3, [r7, #12]
 8004668:	2b03      	cmp	r3, #3
 800466a:	d10d      	bne.n	8004688 <HAL_RCC_GetSysClockFreq+0x88>
    {
      case RCC_PLLSOURCE_HSE:  /* HSE used as PLL clock source */
        pllvco = (HSE_VALUE / pllm) * ((RCC->PLLCFGR & RCC_PLLCFGR_PLLN) >> RCC_PLLCFGR_PLLN_Pos);
 800466c:	68b9      	ldr	r1, [r7, #8]
 800466e:	4824      	ldr	r0, [pc, #144]	@ (8004700 <HAL_RCC_GetSysClockFreq+0x100>)
 8004670:	f7fb fd6e 	bl	8000150 <__udivsi3>
 8004674:	0003      	movs	r3, r0
 8004676:	0019      	movs	r1, r3
 8004678:	4b1f      	ldr	r3, [pc, #124]	@ (80046f8 <HAL_RCC_GetSysClockFreq+0xf8>)
 800467a:	68db      	ldr	r3, [r3, #12]
 800467c:	0a1b      	lsrs	r3, r3, #8
 800467e:	227f      	movs	r2, #127	@ 0x7f
 8004680:	4013      	ands	r3, r2
 8004682:	434b      	muls	r3, r1
 8004684:	617b      	str	r3, [r7, #20]
        break;
 8004686:	e00d      	b.n	80046a4 <HAL_RCC_GetSysClockFreq+0xa4>

      case RCC_PLLSOURCE_HSI:  /* HSI16 used as PLL clock source */
      default:                 /* HSI16 used as PLL clock source */
        pllvco = (HSI_VALUE / pllm) * ((RCC->PLLCFGR & RCC_PLLCFGR_PLLN) >> RCC_PLLCFGR_PLLN_Pos) ;
 8004688:	68b9      	ldr	r1, [r7, #8]
 800468a:	481c      	ldr	r0, [pc, #112]	@ (80046fc <HAL_RCC_GetSysClockFreq+0xfc>)
 800468c:	f7fb fd60 	bl	8000150 <__udivsi3>
 8004690:	0003      	movs	r3, r0
 8004692:	0019      	movs	r1, r3
 8004694:	4b18      	ldr	r3, [pc, #96]	@ (80046f8 <HAL_RCC_GetSysClockFreq+0xf8>)
 8004696:	68db      	ldr	r3, [r3, #12]
 8004698:	0a1b      	lsrs	r3, r3, #8
 800469a:	227f      	movs	r2, #127	@ 0x7f
 800469c:	4013      	ands	r3, r2
 800469e:	434b      	muls	r3, r1
 80046a0:	617b      	str	r3, [r7, #20]
        break;
 80046a2:	46c0      	nop			@ (mov r8, r8)
    }
    pllr = (((RCC->PLLCFGR & RCC_PLLCFGR_PLLR) >> RCC_PLLCFGR_PLLR_Pos) + 1U);
 80046a4:	4b14      	ldr	r3, [pc, #80]	@ (80046f8 <HAL_RCC_GetSysClockFreq+0xf8>)
 80046a6:	68db      	ldr	r3, [r3, #12]
 80046a8:	0f5b      	lsrs	r3, r3, #29
 80046aa:	2207      	movs	r2, #7
 80046ac:	4013      	ands	r3, r2
 80046ae:	3301      	adds	r3, #1
 80046b0:	607b      	str	r3, [r7, #4]
    sysclockfreq = pllvco / pllr;
 80046b2:	6879      	ldr	r1, [r7, #4]
 80046b4:	6978      	ldr	r0, [r7, #20]
 80046b6:	f7fb fd4b 	bl	8000150 <__udivsi3>
 80046ba:	0003      	movs	r3, r0
 80046bc:	613b      	str	r3, [r7, #16]
 80046be:	e015      	b.n	80046ec <HAL_RCC_GetSysClockFreq+0xec>
  }
  else if (__HAL_RCC_GET_SYSCLK_SOURCE() == RCC_SYSCLKSOURCE_STATUS_LSE)
 80046c0:	4b0d      	ldr	r3, [pc, #52]	@ (80046f8 <HAL_RCC_GetSysClockFreq+0xf8>)
 80046c2:	689b      	ldr	r3, [r3, #8]
 80046c4:	2238      	movs	r2, #56	@ 0x38
 80046c6:	4013      	ands	r3, r2
 80046c8:	2b20      	cmp	r3, #32
 80046ca:	d103      	bne.n	80046d4 <HAL_RCC_GetSysClockFreq+0xd4>
  {
    /* LSE used as system clock source */
    sysclockfreq = LSE_VALUE;
 80046cc:	2380      	movs	r3, #128	@ 0x80
 80046ce:	021b      	lsls	r3, r3, #8
 80046d0:	613b      	str	r3, [r7, #16]
 80046d2:	e00b      	b.n	80046ec <HAL_RCC_GetSysClockFreq+0xec>
  }
  else if (__HAL_RCC_GET_SYSCLK_SOURCE() == RCC_SYSCLKSOURCE_STATUS_LSI)
 80046d4:	4b08      	ldr	r3, [pc, #32]	@ (80046f8 <HAL_RCC_GetSysClockFreq+0xf8>)
 80046d6:	689b      	ldr	r3, [r3, #8]
 80046d8:	2238      	movs	r2, #56	@ 0x38
 80046da:	4013      	ands	r3, r2
 80046dc:	2b18      	cmp	r3, #24
 80046de:	d103      	bne.n	80046e8 <HAL_RCC_GetSysClockFreq+0xe8>
  {
    /* LSI used as system clock source */
    sysclockfreq = LSI_VALUE;
 80046e0:	23fa      	movs	r3, #250	@ 0xfa
 80046e2:	01db      	lsls	r3, r3, #7
 80046e4:	613b      	str	r3, [r7, #16]
 80046e6:	e001      	b.n	80046ec <HAL_RCC_GetSysClockFreq+0xec>
  }
  else
  {
    sysclockfreq = 0U;
 80046e8:	2300      	movs	r3, #0
 80046ea:	613b      	str	r3, [r7, #16]
  }

  return sysclockfreq;
 80046ec:	693b      	ldr	r3, [r7, #16]
}
 80046ee:	0018      	movs	r0, r3
 80046f0:	46bd      	mov	sp, r7
 80046f2:	b006      	add	sp, #24
 80046f4:	bd80      	pop	{r7, pc}
 80046f6:	46c0      	nop			@ (mov r8, r8)
 80046f8:	40021000 	.word	0x40021000
 80046fc:	00f42400 	.word	0x00f42400
 8004700:	007a1200 	.word	0x007a1200

08004704 <HAL_RCC_GetHCLKFreq>:
  *
  * @note   The SystemCoreClock CMSIS variable is used to store System Clock Frequency.
  * @retval HCLK frequency in Hz
  */
uint32_t HAL_RCC_GetHCLKFreq(void)
{
 8004704:	b580      	push	{r7, lr}
 8004706:	af00      	add	r7, sp, #0
  return SystemCoreClock;
 8004708:	4b02      	ldr	r3, [pc, #8]	@ (8004714 <HAL_RCC_GetHCLKFreq+0x10>)
 800470a:	681b      	ldr	r3, [r3, #0]
}
 800470c:	0018      	movs	r0, r3
 800470e:	46bd      	mov	sp, r7
 8004710:	bd80      	pop	{r7, pc}
 8004712:	46c0      	nop			@ (mov r8, r8)
 8004714:	20000004 	.word	0x20000004

08004718 <HAL_RCC_GetPCLK1Freq>:
  * @note   Each time PCLK1 changes, this function must be called to update the
  *         right PCLK1 value. Otherwise, any configuration based on this function will be incorrect.
  * @retval PCLK1 frequency in Hz
  */
uint32_t HAL_RCC_GetPCLK1Freq(void)
{
 8004718:	b5b0      	push	{r4, r5, r7, lr}
 800471a:	af00      	add	r7, sp, #0
  /* Get HCLK source and Compute PCLK1 frequency ---------------------------*/
  return ((uint32_t)(__LL_RCC_CALC_PCLK1_FREQ(HAL_RCC_GetHCLKFreq(), LL_RCC_GetAPB1Prescaler())));
 800471c:	f7ff fff2 	bl	8004704 <HAL_RCC_GetHCLKFreq>
 8004720:	0004      	movs	r4, r0
 8004722:	f7ff ff61 	bl	80045e8 <LL_RCC_GetAPB1Prescaler>
 8004726:	0003      	movs	r3, r0
 8004728:	0b1a      	lsrs	r2, r3, #12
 800472a:	4b05      	ldr	r3, [pc, #20]	@ (8004740 <HAL_RCC_GetPCLK1Freq+0x28>)
 800472c:	0092      	lsls	r2, r2, #2
 800472e:	58d3      	ldr	r3, [r2, r3]
 8004730:	221f      	movs	r2, #31
 8004732:	4013      	ands	r3, r2
 8004734:	40dc      	lsrs	r4, r3
 8004736:	0023      	movs	r3, r4
}
 8004738:	0018      	movs	r0, r3
 800473a:	46bd      	mov	sp, r7
 800473c:	bdb0      	pop	{r4, r5, r7, pc}
 800473e:	46c0      	nop			@ (mov r8, r8)
 8004740:	080098a0 	.word	0x080098a0

08004744 <HAL_RCCEx_PeriphCLKConfig>:
  *         the RTC clock source: in this case the access to Backup domain is enabled.
  *
  * @retval HAL status
  */
HAL_StatusTypeDef HAL_RCCEx_PeriphCLKConfig(RCC_PeriphCLKInitTypeDef  *PeriphClkInit)
{
 8004744:	b580      	push	{r7, lr}
 8004746:	b086      	sub	sp, #24
 8004748:	af00      	add	r7, sp, #0
 800474a:	6078      	str	r0, [r7, #4]
  uint32_t tmpregister;
  uint32_t tickstart;
  HAL_StatusTypeDef ret    = HAL_OK;   /* Intermediate status */
 800474c:	2313      	movs	r3, #19
 800474e:	18fb      	adds	r3, r7, r3
 8004750:	2200      	movs	r2, #0
 8004752:	701a      	strb	r2, [r3, #0]
  HAL_StatusTypeDef status = HAL_OK;   /* Final status */
 8004754:	2312      	movs	r3, #18
 8004756:	18fb      	adds	r3, r7, r3
 8004758:	2200      	movs	r2, #0
 800475a:	701a      	strb	r2, [r3, #0]

  /* Check the parameters */
  assert_param(IS_RCC_PERIPHCLOCK(PeriphClkInit->PeriphClockSelection));

  /*-------------------------- RTC clock source configuration ----------------------*/
  if ((PeriphClkInit->PeriphClockSelection & RCC_PERIPHCLK_RTC) == RCC_PERIPHCLK_RTC)
 800475c:	687b      	ldr	r3, [r7, #4]
 800475e:	681a      	ldr	r2, [r3, #0]
 8004760:	2380      	movs	r3, #128	@ 0x80
 8004762:	029b      	lsls	r3, r3, #10
 8004764:	4013      	ands	r3, r2
 8004766:	d100      	bne.n	800476a <HAL_RCCEx_PeriphCLKConfig+0x26>
 8004768:	e0a3      	b.n	80048b2 <HAL_RCCEx_PeriphCLKConfig+0x16e>
  {
    FlagStatus       pwrclkchanged = RESET;
 800476a:	2011      	movs	r0, #17
 800476c:	183b      	adds	r3, r7, r0
 800476e:	2200      	movs	r2, #0
 8004770:	701a      	strb	r2, [r3, #0]

    /* Check for RTC Parameters used to output RTCCLK */
    assert_param(IS_RCC_RTCCLKSOURCE(PeriphClkInit->RTCClockSelection));

    /* Enable Power Clock */
    if (__HAL_RCC_PWR_IS_CLK_DISABLED())
 8004772:	4bc3      	ldr	r3, [pc, #780]	@ (8004a80 <HAL_RCCEx_PeriphCLKConfig+0x33c>)
 8004774:	6bda      	ldr	r2, [r3, #60]	@ 0x3c
 8004776:	2380      	movs	r3, #128	@ 0x80
 8004778:	055b      	lsls	r3, r3, #21
 800477a:	4013      	ands	r3, r2
 800477c:	d110      	bne.n	80047a0 <HAL_RCCEx_PeriphCLKConfig+0x5c>
    {
      __HAL_RCC_PWR_CLK_ENABLE();
 800477e:	4bc0      	ldr	r3, [pc, #768]	@ (8004a80 <HAL_RCCEx_PeriphCLKConfig+0x33c>)
 8004780:	6bda      	ldr	r2, [r3, #60]	@ 0x3c
 8004782:	4bbf      	ldr	r3, [pc, #764]	@ (8004a80 <HAL_RCCEx_PeriphCLKConfig+0x33c>)
 8004784:	2180      	movs	r1, #128	@ 0x80
 8004786:	0549      	lsls	r1, r1, #21
 8004788:	430a      	orrs	r2, r1
 800478a:	63da      	str	r2, [r3, #60]	@ 0x3c
 800478c:	4bbc      	ldr	r3, [pc, #752]	@ (8004a80 <HAL_RCCEx_PeriphCLKConfig+0x33c>)
 800478e:	6bda      	ldr	r2, [r3, #60]	@ 0x3c
 8004790:	2380      	movs	r3, #128	@ 0x80
 8004792:	055b      	lsls	r3, r3, #21
 8004794:	4013      	ands	r3, r2
 8004796:	60bb      	str	r3, [r7, #8]
 8004798:	68bb      	ldr	r3, [r7, #8]
      pwrclkchanged = SET;
 800479a:	183b      	adds	r3, r7, r0
 800479c:	2201      	movs	r2, #1
 800479e:	701a      	strb	r2, [r3, #0]
    }

    /* Enable write access to Backup domain */
    SET_BIT(PWR->CR1, PWR_CR1_DBP);
 80047a0:	4bb8      	ldr	r3, [pc, #736]	@ (8004a84 <HAL_RCCEx_PeriphCLKConfig+0x340>)
 80047a2:	681a      	ldr	r2, [r3, #0]
 80047a4:	4bb7      	ldr	r3, [pc, #732]	@ (8004a84 <HAL_RCCEx_PeriphCLKConfig+0x340>)
 80047a6:	2180      	movs	r1, #128	@ 0x80
 80047a8:	0049      	lsls	r1, r1, #1
 80047aa:	430a      	orrs	r2, r1
 80047ac:	601a      	str	r2, [r3, #0]

    /* Wait for Backup domain Write protection disable */
    tickstart = HAL_GetTick();
 80047ae:	f7ff fbe5 	bl	8003f7c <HAL_GetTick>
 80047b2:	0003      	movs	r3, r0
 80047b4:	60fb      	str	r3, [r7, #12]

    while ((PWR->CR1 & PWR_CR1_DBP) == 0U)
 80047b6:	e00b      	b.n	80047d0 <HAL_RCCEx_PeriphCLKConfig+0x8c>
    {
      if ((HAL_GetTick() - tickstart) > RCC_DBP_TIMEOUT_VALUE)
 80047b8:	f7ff fbe0 	bl	8003f7c <HAL_GetTick>
 80047bc:	0002      	movs	r2, r0
 80047be:	68fb      	ldr	r3, [r7, #12]
 80047c0:	1ad3      	subs	r3, r2, r3
 80047c2:	2b02      	cmp	r3, #2
 80047c4:	d904      	bls.n	80047d0 <HAL_RCCEx_PeriphCLKConfig+0x8c>
      {
        ret = HAL_TIMEOUT;
 80047c6:	2313      	movs	r3, #19
 80047c8:	18fb      	adds	r3, r7, r3
 80047ca:	2203      	movs	r2, #3
 80047cc:	701a      	strb	r2, [r3, #0]
        break;
 80047ce:	e005      	b.n	80047dc <HAL_RCCEx_PeriphCLKConfig+0x98>
    while ((PWR->CR1 & PWR_CR1_DBP) == 0U)
 80047d0:	4bac      	ldr	r3, [pc, #688]	@ (8004a84 <HAL_RCCEx_PeriphCLKConfig+0x340>)
 80047d2:	681a      	ldr	r2, [r3, #0]
 80047d4:	2380      	movs	r3, #128	@ 0x80
 80047d6:	005b      	lsls	r3, r3, #1
 80047d8:	4013      	ands	r3, r2
 80047da:	d0ed      	beq.n	80047b8 <HAL_RCCEx_PeriphCLKConfig+0x74>
      }
    }

    if (ret == HAL_OK)
 80047dc:	2313      	movs	r3, #19
 80047de:	18fb      	adds	r3, r7, r3
 80047e0:	781b      	ldrb	r3, [r3, #0]
 80047e2:	2b00      	cmp	r3, #0
 80047e4:	d154      	bne.n	8004890 <HAL_RCCEx_PeriphCLKConfig+0x14c>
    {
      /* Reset the Backup domain only if the RTC Clock source selection is modified from default */
      tmpregister = READ_BIT(RCC->BDCR, RCC_BDCR_RTCSEL);
 80047e6:	4ba6      	ldr	r3, [pc, #664]	@ (8004a80 <HAL_RCCEx_PeriphCLKConfig+0x33c>)
 80047e8:	6dda      	ldr	r2, [r3, #92]	@ 0x5c
 80047ea:	23c0      	movs	r3, #192	@ 0xc0
 80047ec:	009b      	lsls	r3, r3, #2
 80047ee:	4013      	ands	r3, r2
 80047f0:	617b      	str	r3, [r7, #20]

      /* Reset the Backup domain only if the RTC Clock source selection is modified */
      if ((tmpregister != RCC_RTCCLKSOURCE_NONE) && (tmpregister != PeriphClkInit->RTCClockSelection))
 80047f2:	697b      	ldr	r3, [r7, #20]
 80047f4:	2b00      	cmp	r3, #0
 80047f6:	d019      	beq.n	800482c <HAL_RCCEx_PeriphCLKConfig+0xe8>
 80047f8:	687b      	ldr	r3, [r7, #4]
 80047fa:	6b1b      	ldr	r3, [r3, #48]	@ 0x30
 80047fc:	697a      	ldr	r2, [r7, #20]
 80047fe:	429a      	cmp	r2, r3
 8004800:	d014      	beq.n	800482c <HAL_RCCEx_PeriphCLKConfig+0xe8>
      {
        /* Store the content of BDCR register before the reset of Backup Domain */
        tmpregister = READ_BIT(RCC->BDCR, ~(RCC_BDCR_RTCSEL));
 8004802:	4b9f      	ldr	r3, [pc, #636]	@ (8004a80 <HAL_RCCEx_PeriphCLKConfig+0x33c>)
 8004804:	6ddb      	ldr	r3, [r3, #92]	@ 0x5c
 8004806:	4aa0      	ldr	r2, [pc, #640]	@ (8004a88 <HAL_RCCEx_PeriphCLKConfig+0x344>)
 8004808:	4013      	ands	r3, r2
 800480a:	617b      	str	r3, [r7, #20]
        /* RTC Clock selection can be changed only if the Backup Domain is reset */
        __HAL_RCC_BACKUPRESET_FORCE();
 800480c:	4b9c      	ldr	r3, [pc, #624]	@ (8004a80 <HAL_RCCEx_PeriphCLKConfig+0x33c>)
 800480e:	6dda      	ldr	r2, [r3, #92]	@ 0x5c
 8004810:	4b9b      	ldr	r3, [pc, #620]	@ (8004a80 <HAL_RCCEx_PeriphCLKConfig+0x33c>)
 8004812:	2180      	movs	r1, #128	@ 0x80
 8004814:	0249      	lsls	r1, r1, #9
 8004816:	430a      	orrs	r2, r1
 8004818:	65da      	str	r2, [r3, #92]	@ 0x5c
        __HAL_RCC_BACKUPRESET_RELEASE();
 800481a:	4b99      	ldr	r3, [pc, #612]	@ (8004a80 <HAL_RCCEx_PeriphCLKConfig+0x33c>)
 800481c:	6dda      	ldr	r2, [r3, #92]	@ 0x5c
 800481e:	4b98      	ldr	r3, [pc, #608]	@ (8004a80 <HAL_RCCEx_PeriphCLKConfig+0x33c>)
 8004820:	499a      	ldr	r1, [pc, #616]	@ (8004a8c <HAL_RCCEx_PeriphCLKConfig+0x348>)
 8004822:	400a      	ands	r2, r1
 8004824:	65da      	str	r2, [r3, #92]	@ 0x5c
        /* Restore the Content of BDCR register */
        RCC->BDCR = tmpregister;
 8004826:	4b96      	ldr	r3, [pc, #600]	@ (8004a80 <HAL_RCCEx_PeriphCLKConfig+0x33c>)
 8004828:	697a      	ldr	r2, [r7, #20]
 800482a:	65da      	str	r2, [r3, #92]	@ 0x5c
      }

      /* Wait for LSE reactivation if LSE was enable prior to Backup Domain reset */
      if (HAL_IS_BIT_SET(tmpregister, RCC_BDCR_LSEON))
 800482c:	697b      	ldr	r3, [r7, #20]
 800482e:	2201      	movs	r2, #1
 8004830:	4013      	ands	r3, r2
 8004832:	d016      	beq.n	8004862 <HAL_RCCEx_PeriphCLKConfig+0x11e>
      {
        /* Get Start Tick*/
        tickstart = HAL_GetTick();
 8004834:	f7ff fba2 	bl	8003f7c <HAL_GetTick>
 8004838:	0003      	movs	r3, r0
 800483a:	60fb      	str	r3, [r7, #12]

        /* Wait till LSE is ready */
        while (READ_BIT(RCC->BDCR, RCC_BDCR_LSERDY) == 0U)
 800483c:	e00c      	b.n	8004858 <HAL_RCCEx_PeriphCLKConfig+0x114>
        {
          if ((HAL_GetTick() - tickstart) > RCC_LSE_TIMEOUT_VALUE)
 800483e:	f7ff fb9d 	bl	8003f7c <HAL_GetTick>
 8004842:	0002      	movs	r2, r0
 8004844:	68fb      	ldr	r3, [r7, #12]
 8004846:	1ad3      	subs	r3, r2, r3
 8004848:	4a91      	ldr	r2, [pc, #580]	@ (8004a90 <HAL_RCCEx_PeriphCLKConfig+0x34c>)
 800484a:	4293      	cmp	r3, r2
 800484c:	d904      	bls.n	8004858 <HAL_RCCEx_PeriphCLKConfig+0x114>
          {
            ret = HAL_TIMEOUT;
 800484e:	2313      	movs	r3, #19
 8004850:	18fb      	adds	r3, r7, r3
 8004852:	2203      	movs	r2, #3
 8004854:	701a      	strb	r2, [r3, #0]
            break;
 8004856:	e004      	b.n	8004862 <HAL_RCCEx_PeriphCLKConfig+0x11e>
        while (READ_BIT(RCC->BDCR, RCC_BDCR_LSERDY) == 0U)
 8004858:	4b89      	ldr	r3, [pc, #548]	@ (8004a80 <HAL_RCCEx_PeriphCLKConfig+0x33c>)
 800485a:	6ddb      	ldr	r3, [r3, #92]	@ 0x5c
 800485c:	2202      	movs	r2, #2
 800485e:	4013      	ands	r3, r2
 8004860:	d0ed      	beq.n	800483e <HAL_RCCEx_PeriphCLKConfig+0xfa>
          }
        }
      }

      if (ret == HAL_OK)
 8004862:	2313      	movs	r3, #19
 8004864:	18fb      	adds	r3, r7, r3
 8004866:	781b      	ldrb	r3, [r3, #0]
 8004868:	2b00      	cmp	r3, #0
 800486a:	d10a      	bne.n	8004882 <HAL_RCCEx_PeriphCLKConfig+0x13e>
      {
        /* Apply new RTC clock source selection */
        __HAL_RCC_RTC_CONFIG(PeriphClkInit->RTCClockSelection);
 800486c:	4b84      	ldr	r3, [pc, #528]	@ (8004a80 <HAL_RCCEx_PeriphCLKConfig+0x33c>)
 800486e:	6ddb      	ldr	r3, [r3, #92]	@ 0x5c
 8004870:	4a85      	ldr	r2, [pc, #532]	@ (8004a88 <HAL_RCCEx_PeriphCLKConfig+0x344>)
 8004872:	4013      	ands	r3, r2
 8004874:	0019      	movs	r1, r3
 8004876:	687b      	ldr	r3, [r7, #4]
 8004878:	6b1a      	ldr	r2, [r3, #48]	@ 0x30
 800487a:	4b81      	ldr	r3, [pc, #516]	@ (8004a80 <HAL_RCCEx_PeriphCLKConfig+0x33c>)
 800487c:	430a      	orrs	r2, r1
 800487e:	65da      	str	r2, [r3, #92]	@ 0x5c
 8004880:	e00c      	b.n	800489c <HAL_RCCEx_PeriphCLKConfig+0x158>
      }
      else
      {
        /* set overall return value */
        status = ret;
 8004882:	2312      	movs	r3, #18
 8004884:	18fb      	adds	r3, r7, r3
 8004886:	2213      	movs	r2, #19
 8004888:	18ba      	adds	r2, r7, r2
 800488a:	7812      	ldrb	r2, [r2, #0]
 800488c:	701a      	strb	r2, [r3, #0]
 800488e:	e005      	b.n	800489c <HAL_RCCEx_PeriphCLKConfig+0x158>
      }
    }
    else
    {
      /* set overall return value */
      status = ret;
 8004890:	2312      	movs	r3, #18
 8004892:	18fb      	adds	r3, r7, r3
 8004894:	2213      	movs	r2, #19
 8004896:	18ba      	adds	r2, r7, r2
 8004898:	7812      	ldrb	r2, [r2, #0]
 800489a:	701a      	strb	r2, [r3, #0]
    }

    /* Restore clock configuration if changed */
    if (pwrclkchanged == SET)
 800489c:	2311      	movs	r3, #17
 800489e:	18fb      	adds	r3, r7, r3
 80048a0:	781b      	ldrb	r3, [r3, #0]
 80048a2:	2b01      	cmp	r3, #1
 80048a4:	d105      	bne.n	80048b2 <HAL_RCCEx_PeriphCLKConfig+0x16e>
    {
      __HAL_RCC_PWR_CLK_DISABLE();
 80048a6:	4b76      	ldr	r3, [pc, #472]	@ (8004a80 <HAL_RCCEx_PeriphCLKConfig+0x33c>)
 80048a8:	6bda      	ldr	r2, [r3, #60]	@ 0x3c
 80048aa:	4b75      	ldr	r3, [pc, #468]	@ (8004a80 <HAL_RCCEx_PeriphCLKConfig+0x33c>)
 80048ac:	4979      	ldr	r1, [pc, #484]	@ (8004a94 <HAL_RCCEx_PeriphCLKConfig+0x350>)
 80048ae:	400a      	ands	r2, r1
 80048b0:	63da      	str	r2, [r3, #60]	@ 0x3c
    }
  }

  /*-------------------------- USART1 clock source configuration -------------------*/
  if (((PeriphClkInit->PeriphClockSelection) & RCC_PERIPHCLK_USART1) == RCC_PERIPHCLK_USART1)
 80048b2:	687b      	ldr	r3, [r7, #4]
 80048b4:	681b      	ldr	r3, [r3, #0]
 80048b6:	2201      	movs	r2, #1
 80048b8:	4013      	ands	r3, r2
 80048ba:	d009      	beq.n	80048d0 <HAL_RCCEx_PeriphCLKConfig+0x18c>
  {
    /* Check the parameters */
    assert_param(IS_RCC_USART1CLKSOURCE(PeriphClkInit->Usart1ClockSelection));

    /* Configure the USART1 clock source */
    __HAL_RCC_USART1_CONFIG(PeriphClkInit->Usart1ClockSelection);
 80048bc:	4b70      	ldr	r3, [pc, #448]	@ (8004a80 <HAL_RCCEx_PeriphCLKConfig+0x33c>)
 80048be:	6d5b      	ldr	r3, [r3, #84]	@ 0x54
 80048c0:	2203      	movs	r2, #3
 80048c2:	4393      	bics	r3, r2
 80048c4:	0019      	movs	r1, r3
 80048c6:	687b      	ldr	r3, [r7, #4]
 80048c8:	685a      	ldr	r2, [r3, #4]
 80048ca:	4b6d      	ldr	r3, [pc, #436]	@ (8004a80 <HAL_RCCEx_PeriphCLKConfig+0x33c>)
 80048cc:	430a      	orrs	r2, r1
 80048ce:	655a      	str	r2, [r3, #84]	@ 0x54
  }

#if defined(RCC_CCIPR_USART2SEL)
  /*-------------------------- USART2 clock source configuration -------------------*/
  if (((PeriphClkInit->PeriphClockSelection) & RCC_PERIPHCLK_USART2) == RCC_PERIPHCLK_USART2)
 80048d0:	687b      	ldr	r3, [r7, #4]
 80048d2:	681b      	ldr	r3, [r3, #0]
 80048d4:	2202      	movs	r2, #2
 80048d6:	4013      	ands	r3, r2
 80048d8:	d009      	beq.n	80048ee <HAL_RCCEx_PeriphCLKConfig+0x1aa>
  {
    /* Check the parameters */
    assert_param(IS_RCC_USART2CLKSOURCE(PeriphClkInit->Usart2ClockSelection));

    /* Configure the USART2 clock source */
    __HAL_RCC_USART2_CONFIG(PeriphClkInit->Usart2ClockSelection);
 80048da:	4b69      	ldr	r3, [pc, #420]	@ (8004a80 <HAL_RCCEx_PeriphCLKConfig+0x33c>)
 80048dc:	6d5b      	ldr	r3, [r3, #84]	@ 0x54
 80048de:	220c      	movs	r2, #12
 80048e0:	4393      	bics	r3, r2
 80048e2:	0019      	movs	r1, r3
 80048e4:	687b      	ldr	r3, [r7, #4]
 80048e6:	689a      	ldr	r2, [r3, #8]
 80048e8:	4b65      	ldr	r3, [pc, #404]	@ (8004a80 <HAL_RCCEx_PeriphCLKConfig+0x33c>)
 80048ea:	430a      	orrs	r2, r1
 80048ec:	655a      	str	r2, [r3, #84]	@ 0x54
  }
#endif /* RCC_CCIPR_USART3SEL */

#if defined(LPUART1)
  /*-------------------------- LPUART1 clock source configuration ------------------*/
  if (((PeriphClkInit->PeriphClockSelection) & RCC_PERIPHCLK_LPUART1) == RCC_PERIPHCLK_LPUART1)
 80048ee:	687b      	ldr	r3, [r7, #4]
 80048f0:	681b      	ldr	r3, [r3, #0]
 80048f2:	2210      	movs	r2, #16
 80048f4:	4013      	ands	r3, r2
 80048f6:	d009      	beq.n	800490c <HAL_RCCEx_PeriphCLKConfig+0x1c8>
  {
    /* Check the parameters */
    assert_param(IS_RCC_LPUART1CLKSOURCE(PeriphClkInit->Lpuart1ClockSelection));

    /* Configure the LPUART1 clock source */
    __HAL_RCC_LPUART1_CONFIG(PeriphClkInit->Lpuart1ClockSelection);
 80048f8:	4b61      	ldr	r3, [pc, #388]	@ (8004a80 <HAL_RCCEx_PeriphCLKConfig+0x33c>)
 80048fa:	6d5b      	ldr	r3, [r3, #84]	@ 0x54
 80048fc:	4a66      	ldr	r2, [pc, #408]	@ (8004a98 <HAL_RCCEx_PeriphCLKConfig+0x354>)
 80048fe:	4013      	ands	r3, r2
 8004900:	0019      	movs	r1, r3
 8004902:	687b      	ldr	r3, [r7, #4]
 8004904:	68da      	ldr	r2, [r3, #12]
 8004906:	4b5e      	ldr	r3, [pc, #376]	@ (8004a80 <HAL_RCCEx_PeriphCLKConfig+0x33c>)
 8004908:	430a      	orrs	r2, r1
 800490a:	655a      	str	r2, [r3, #84]	@ 0x54
  }
#endif /* LPUART2 */

#if defined(RCC_CCIPR_LPTIM1SEL)
  /*-------------------------- LPTIM1 clock source configuration -------------------*/
  if (((PeriphClkInit->PeriphClockSelection) & RCC_PERIPHCLK_LPTIM1) == (RCC_PERIPHCLK_LPTIM1))
 800490c:	687b      	ldr	r3, [r7, #4]
 800490e:	681a      	ldr	r2, [r3, #0]
 8004910:	2380      	movs	r3, #128	@ 0x80
 8004912:	009b      	lsls	r3, r3, #2
 8004914:	4013      	ands	r3, r2
 8004916:	d009      	beq.n	800492c <HAL_RCCEx_PeriphCLKConfig+0x1e8>
  {
    assert_param(IS_RCC_LPTIM1CLKSOURCE(PeriphClkInit->Lptim1ClockSelection));
    __HAL_RCC_LPTIM1_CONFIG(PeriphClkInit->Lptim1ClockSelection);
 8004918:	4b59      	ldr	r3, [pc, #356]	@ (8004a80 <HAL_RCCEx_PeriphCLKConfig+0x33c>)
 800491a:	6d5b      	ldr	r3, [r3, #84]	@ 0x54
 800491c:	4a5f      	ldr	r2, [pc, #380]	@ (8004a9c <HAL_RCCEx_PeriphCLKConfig+0x358>)
 800491e:	4013      	ands	r3, r2
 8004920:	0019      	movs	r1, r3
 8004922:	687b      	ldr	r3, [r7, #4]
 8004924:	699a      	ldr	r2, [r3, #24]
 8004926:	4b56      	ldr	r3, [pc, #344]	@ (8004a80 <HAL_RCCEx_PeriphCLKConfig+0x33c>)
 8004928:	430a      	orrs	r2, r1
 800492a:	655a      	str	r2, [r3, #84]	@ 0x54
  }
#endif /* RCC_CCIPR_LPTIM1SEL */

#if defined(RCC_CCIPR_LPTIM2SEL)
  /*-------------------------- LPTIM2 clock source configuration -------------------*/
  if (((PeriphClkInit->PeriphClockSelection) & RCC_PERIPHCLK_LPTIM2) == (RCC_PERIPHCLK_LPTIM2))
 800492c:	687b      	ldr	r3, [r7, #4]
 800492e:	681a      	ldr	r2, [r3, #0]
 8004930:	2380      	movs	r3, #128	@ 0x80
 8004932:	00db      	lsls	r3, r3, #3
 8004934:	4013      	ands	r3, r2
 8004936:	d009      	beq.n	800494c <HAL_RCCEx_PeriphCLKConfig+0x208>
  {
    assert_param(IS_RCC_LPTIM2CLKSOURCE(PeriphClkInit->Lptim2ClockSelection));
    __HAL_RCC_LPTIM2_CONFIG(PeriphClkInit->Lptim2ClockSelection);
 8004938:	4b51      	ldr	r3, [pc, #324]	@ (8004a80 <HAL_RCCEx_PeriphCLKConfig+0x33c>)
 800493a:	6d5b      	ldr	r3, [r3, #84]	@ 0x54
 800493c:	4a58      	ldr	r2, [pc, #352]	@ (8004aa0 <HAL_RCCEx_PeriphCLKConfig+0x35c>)
 800493e:	4013      	ands	r3, r2
 8004940:	0019      	movs	r1, r3
 8004942:	687b      	ldr	r3, [r7, #4]
 8004944:	69da      	ldr	r2, [r3, #28]
 8004946:	4b4e      	ldr	r3, [pc, #312]	@ (8004a80 <HAL_RCCEx_PeriphCLKConfig+0x33c>)
 8004948:	430a      	orrs	r2, r1
 800494a:	655a      	str	r2, [r3, #84]	@ 0x54
  }
#endif /* RCC_CCIPR_LPTIM2SEL */

  /*-------------------------- I2C1 clock source configuration ---------------------*/
  if (((PeriphClkInit->PeriphClockSelection) & RCC_PERIPHCLK_I2C1) == RCC_PERIPHCLK_I2C1)
 800494c:	687b      	ldr	r3, [r7, #4]
 800494e:	681b      	ldr	r3, [r3, #0]
 8004950:	2220      	movs	r2, #32
 8004952:	4013      	ands	r3, r2
 8004954:	d009      	beq.n	800496a <HAL_RCCEx_PeriphCLKConfig+0x226>
  {
    /* Check the parameters */
    assert_param(IS_RCC_I2C1CLKSOURCE(PeriphClkInit->I2c1ClockSelection));

    /* Configure the I2C1 clock source */
    __HAL_RCC_I2C1_CONFIG(PeriphClkInit->I2c1ClockSelection);
 8004956:	4b4a      	ldr	r3, [pc, #296]	@ (8004a80 <HAL_RCCEx_PeriphCLKConfig+0x33c>)
 8004958:	6d5b      	ldr	r3, [r3, #84]	@ 0x54
 800495a:	4a52      	ldr	r2, [pc, #328]	@ (8004aa4 <HAL_RCCEx_PeriphCLKConfig+0x360>)
 800495c:	4013      	ands	r3, r2
 800495e:	0019      	movs	r1, r3
 8004960:	687b      	ldr	r3, [r7, #4]
 8004962:	691a      	ldr	r2, [r3, #16]
 8004964:	4b46      	ldr	r3, [pc, #280]	@ (8004a80 <HAL_RCCEx_PeriphCLKConfig+0x33c>)
 8004966:	430a      	orrs	r2, r1
 8004968:	655a      	str	r2, [r3, #84]	@ 0x54
      __HAL_RCC_PLLCLKOUT_ENABLE(RCC_PLLQCLK);
    }
  }
#endif /* RNG */
  /*-------------------------- ADC clock source configuration ----------------------*/
  if (((PeriphClkInit->PeriphClockSelection) & RCC_PERIPHCLK_ADC) == RCC_PERIPHCLK_ADC)
 800496a:	687b      	ldr	r3, [r7, #4]
 800496c:	681a      	ldr	r2, [r3, #0]
 800496e:	2380      	movs	r3, #128	@ 0x80
 8004970:	01db      	lsls	r3, r3, #7
 8004972:	4013      	ands	r3, r2
 8004974:	d015      	beq.n	80049a2 <HAL_RCCEx_PeriphCLKConfig+0x25e>
  {
    /* Check the parameters */
    assert_param(IS_RCC_ADCCLKSOURCE(PeriphClkInit->AdcClockSelection));

    /* Configure the ADC interface clock source */
    __HAL_RCC_ADC_CONFIG(PeriphClkInit->AdcClockSelection);
 8004976:	4b42      	ldr	r3, [pc, #264]	@ (8004a80 <HAL_RCCEx_PeriphCLKConfig+0x33c>)
 8004978:	6d5b      	ldr	r3, [r3, #84]	@ 0x54
 800497a:	009b      	lsls	r3, r3, #2
 800497c:	0899      	lsrs	r1, r3, #2
 800497e:	687b      	ldr	r3, [r7, #4]
 8004980:	6a1a      	ldr	r2, [r3, #32]
 8004982:	4b3f      	ldr	r3, [pc, #252]	@ (8004a80 <HAL_RCCEx_PeriphCLKConfig+0x33c>)
 8004984:	430a      	orrs	r2, r1
 8004986:	655a      	str	r2, [r3, #84]	@ 0x54

    if (PeriphClkInit->AdcClockSelection == RCC_ADCCLKSOURCE_PLLADC)
 8004988:	687b      	ldr	r3, [r7, #4]
 800498a:	6a1a      	ldr	r2, [r3, #32]
 800498c:	2380      	movs	r3, #128	@ 0x80
 800498e:	05db      	lsls	r3, r3, #23
 8004990:	429a      	cmp	r2, r3
 8004992:	d106      	bne.n	80049a2 <HAL_RCCEx_PeriphCLKConfig+0x25e>
    {
      /* Enable PLLPCLK output */
      __HAL_RCC_PLLCLKOUT_ENABLE(RCC_PLLPCLK);
 8004994:	4b3a      	ldr	r3, [pc, #232]	@ (8004a80 <HAL_RCCEx_PeriphCLKConfig+0x33c>)
 8004996:	68da      	ldr	r2, [r3, #12]
 8004998:	4b39      	ldr	r3, [pc, #228]	@ (8004a80 <HAL_RCCEx_PeriphCLKConfig+0x33c>)
 800499a:	2180      	movs	r1, #128	@ 0x80
 800499c:	0249      	lsls	r1, r1, #9
 800499e:	430a      	orrs	r2, r1
 80049a0:	60da      	str	r2, [r3, #12]
    }
  }

#if defined(CEC)
  /*-------------------------- CEC clock source configuration ---------------------*/
  if (((PeriphClkInit->PeriphClockSelection) & RCC_PERIPHCLK_CEC) == RCC_PERIPHCLK_CEC)
 80049a2:	687b      	ldr	r3, [r7, #4]
 80049a4:	681a      	ldr	r2, [r3, #0]
 80049a6:	2380      	movs	r3, #128	@ 0x80
 80049a8:	031b      	lsls	r3, r3, #12
 80049aa:	4013      	ands	r3, r2
 80049ac:	d009      	beq.n	80049c2 <HAL_RCCEx_PeriphCLKConfig+0x27e>
  {
    /* Check the parameters */
    assert_param(IS_RCC_CECCLKSOURCE(PeriphClkInit->CecClockSelection));

    /* Configure the CEC clock source */
    __HAL_RCC_CEC_CONFIG(PeriphClkInit->CecClockSelection);
 80049ae:	4b34      	ldr	r3, [pc, #208]	@ (8004a80 <HAL_RCCEx_PeriphCLKConfig+0x33c>)
 80049b0:	6d5b      	ldr	r3, [r3, #84]	@ 0x54
 80049b2:	2240      	movs	r2, #64	@ 0x40
 80049b4:	4393      	bics	r3, r2
 80049b6:	0019      	movs	r1, r3
 80049b8:	687b      	ldr	r3, [r7, #4]
 80049ba:	6a5a      	ldr	r2, [r3, #36]	@ 0x24
 80049bc:	4b30      	ldr	r3, [pc, #192]	@ (8004a80 <HAL_RCCEx_PeriphCLKConfig+0x33c>)
 80049be:	430a      	orrs	r2, r1
 80049c0:	655a      	str	r2, [r3, #84]	@ 0x54
  }
#endif /* CEC */

#if defined(RCC_CCIPR_TIM1SEL)
  /*-------------------------- TIM1 clock source configuration ---------------------*/
  if (((PeriphClkInit->PeriphClockSelection) & RCC_PERIPHCLK_TIM1) == RCC_PERIPHCLK_TIM1)
 80049c2:	687b      	ldr	r3, [r7, #4]
 80049c4:	681a      	ldr	r2, [r3, #0]
 80049c6:	2380      	movs	r3, #128	@ 0x80
 80049c8:	039b      	lsls	r3, r3, #14
 80049ca:	4013      	ands	r3, r2
 80049cc:	d016      	beq.n	80049fc <HAL_RCCEx_PeriphCLKConfig+0x2b8>
  {
    /* Check the parameters */
    assert_param(IS_RCC_TIM1CLKSOURCE(PeriphClkInit->Tim1ClockSelection));

    /* Configure the TIM1 clock source */
    __HAL_RCC_TIM1_CONFIG(PeriphClkInit->Tim1ClockSelection);
 80049ce:	4b2c      	ldr	r3, [pc, #176]	@ (8004a80 <HAL_RCCEx_PeriphCLKConfig+0x33c>)
 80049d0:	6d5b      	ldr	r3, [r3, #84]	@ 0x54
 80049d2:	4a35      	ldr	r2, [pc, #212]	@ (8004aa8 <HAL_RCCEx_PeriphCLKConfig+0x364>)
 80049d4:	4013      	ands	r3, r2
 80049d6:	0019      	movs	r1, r3
 80049d8:	687b      	ldr	r3, [r7, #4]
 80049da:	6a9a      	ldr	r2, [r3, #40]	@ 0x28
 80049dc:	4b28      	ldr	r3, [pc, #160]	@ (8004a80 <HAL_RCCEx_PeriphCLKConfig+0x33c>)
 80049de:	430a      	orrs	r2, r1
 80049e0:	655a      	str	r2, [r3, #84]	@ 0x54

    if (PeriphClkInit->Tim1ClockSelection == RCC_TIM1CLKSOURCE_PLL)
 80049e2:	687b      	ldr	r3, [r7, #4]
 80049e4:	6a9a      	ldr	r2, [r3, #40]	@ 0x28
 80049e6:	2380      	movs	r3, #128	@ 0x80
 80049e8:	03db      	lsls	r3, r3, #15
 80049ea:	429a      	cmp	r2, r3
 80049ec:	d106      	bne.n	80049fc <HAL_RCCEx_PeriphCLKConfig+0x2b8>
    {
      /* Enable PLLQCLK output */
      __HAL_RCC_PLLCLKOUT_ENABLE(RCC_PLLQCLK);
 80049ee:	4b24      	ldr	r3, [pc, #144]	@ (8004a80 <HAL_RCCEx_PeriphCLKConfig+0x33c>)
 80049f0:	68da      	ldr	r2, [r3, #12]
 80049f2:	4b23      	ldr	r3, [pc, #140]	@ (8004a80 <HAL_RCCEx_PeriphCLKConfig+0x33c>)
 80049f4:	2180      	movs	r1, #128	@ 0x80
 80049f6:	0449      	lsls	r1, r1, #17
 80049f8:	430a      	orrs	r2, r1
 80049fa:	60da      	str	r2, [r3, #12]
  }
#endif /* RCC_CCIPR_TIM1SEL */

#if defined(RCC_CCIPR_TIM15SEL)
  /*-------------------------- TIM15 clock source configuration ---------------------*/
  if (((PeriphClkInit->PeriphClockSelection) & RCC_PERIPHCLK_TIM15) == RCC_PERIPHCLK_TIM15)
 80049fc:	687b      	ldr	r3, [r7, #4]
 80049fe:	681a      	ldr	r2, [r3, #0]
 8004a00:	2380      	movs	r3, #128	@ 0x80
 8004a02:	03db      	lsls	r3, r3, #15
 8004a04:	4013      	ands	r3, r2
 8004a06:	d016      	beq.n	8004a36 <HAL_RCCEx_PeriphCLKConfig+0x2f2>
  {
    /* Check the parameters */
    assert_param(IS_RCC_TIM15CLKSOURCE(PeriphClkInit->Tim15ClockSelection));

    /* Configure the TIM15 clock source */
    __HAL_RCC_TIM15_CONFIG(PeriphClkInit->Tim15ClockSelection);
 8004a08:	4b1d      	ldr	r3, [pc, #116]	@ (8004a80 <HAL_RCCEx_PeriphCLKConfig+0x33c>)
 8004a0a:	6d5b      	ldr	r3, [r3, #84]	@ 0x54
 8004a0c:	4a27      	ldr	r2, [pc, #156]	@ (8004aac <HAL_RCCEx_PeriphCLKConfig+0x368>)
 8004a0e:	4013      	ands	r3, r2
 8004a10:	0019      	movs	r1, r3
 8004a12:	687b      	ldr	r3, [r7, #4]
 8004a14:	6ada      	ldr	r2, [r3, #44]	@ 0x2c
 8004a16:	4b1a      	ldr	r3, [pc, #104]	@ (8004a80 <HAL_RCCEx_PeriphCLKConfig+0x33c>)
 8004a18:	430a      	orrs	r2, r1
 8004a1a:	655a      	str	r2, [r3, #84]	@ 0x54

    if (PeriphClkInit->Tim15ClockSelection == RCC_TIM15CLKSOURCE_PLL)
 8004a1c:	687b      	ldr	r3, [r7, #4]
 8004a1e:	6ada      	ldr	r2, [r3, #44]	@ 0x2c
 8004a20:	2380      	movs	r3, #128	@ 0x80
 8004a22:	045b      	lsls	r3, r3, #17
 8004a24:	429a      	cmp	r2, r3
 8004a26:	d106      	bne.n	8004a36 <HAL_RCCEx_PeriphCLKConfig+0x2f2>
    {
      /* Enable PLLQCLK output */
      __HAL_RCC_PLLCLKOUT_ENABLE(RCC_PLLQCLK);
 8004a28:	4b15      	ldr	r3, [pc, #84]	@ (8004a80 <HAL_RCCEx_PeriphCLKConfig+0x33c>)
 8004a2a:	68da      	ldr	r2, [r3, #12]
 8004a2c:	4b14      	ldr	r3, [pc, #80]	@ (8004a80 <HAL_RCCEx_PeriphCLKConfig+0x33c>)
 8004a2e:	2180      	movs	r1, #128	@ 0x80
 8004a30:	0449      	lsls	r1, r1, #17
 8004a32:	430a      	orrs	r2, r1
 8004a34:	60da      	str	r2, [r3, #12]
    }
  }
#endif /* RCC_CCIPR_TIM15SEL */

  /*-------------------------- I2S1 clock source configuration ---------------------*/
  if (((PeriphClkInit->PeriphClockSelection) & RCC_PERIPHCLK_I2S1) == RCC_PERIPHCLK_I2S1)
 8004a36:	687b      	ldr	r3, [r7, #4]
 8004a38:	681a      	ldr	r2, [r3, #0]
 8004a3a:	2380      	movs	r3, #128	@ 0x80
 8004a3c:	011b      	lsls	r3, r3, #4
 8004a3e:	4013      	ands	r3, r2
 8004a40:	d016      	beq.n	8004a70 <HAL_RCCEx_PeriphCLKConfig+0x32c>
  {
    /* Check the parameters */
    assert_param(IS_RCC_I2S1CLKSOURCE(PeriphClkInit->I2s1ClockSelection));

    /* Configure the I2S1 clock source */
    __HAL_RCC_I2S1_CONFIG(PeriphClkInit->I2s1ClockSelection);
 8004a42:	4b0f      	ldr	r3, [pc, #60]	@ (8004a80 <HAL_RCCEx_PeriphCLKConfig+0x33c>)
 8004a44:	6d5b      	ldr	r3, [r3, #84]	@ 0x54
 8004a46:	4a1a      	ldr	r2, [pc, #104]	@ (8004ab0 <HAL_RCCEx_PeriphCLKConfig+0x36c>)
 8004a48:	4013      	ands	r3, r2
 8004a4a:	0019      	movs	r1, r3
 8004a4c:	687b      	ldr	r3, [r7, #4]
 8004a4e:	695a      	ldr	r2, [r3, #20]
 8004a50:	4b0b      	ldr	r3, [pc, #44]	@ (8004a80 <HAL_RCCEx_PeriphCLKConfig+0x33c>)
 8004a52:	430a      	orrs	r2, r1
 8004a54:	655a      	str	r2, [r3, #84]	@ 0x54

    if (PeriphClkInit->I2s1ClockSelection == RCC_I2S1CLKSOURCE_PLL)
 8004a56:	687b      	ldr	r3, [r7, #4]
 8004a58:	695a      	ldr	r2, [r3, #20]
 8004a5a:	2380      	movs	r3, #128	@ 0x80
 8004a5c:	01db      	lsls	r3, r3, #7
 8004a5e:	429a      	cmp	r2, r3
 8004a60:	d106      	bne.n	8004a70 <HAL_RCCEx_PeriphCLKConfig+0x32c>
    {
      /* Enable PLLPCLK output */
      __HAL_RCC_PLLCLKOUT_ENABLE(RCC_PLLPCLK);
 8004a62:	4b07      	ldr	r3, [pc, #28]	@ (8004a80 <HAL_RCCEx_PeriphCLKConfig+0x33c>)
 8004a64:	68da      	ldr	r2, [r3, #12]
 8004a66:	4b06      	ldr	r3, [pc, #24]	@ (8004a80 <HAL_RCCEx_PeriphCLKConfig+0x33c>)
 8004a68:	2180      	movs	r1, #128	@ 0x80
 8004a6a:	0249      	lsls	r1, r1, #9
 8004a6c:	430a      	orrs	r2, r1
 8004a6e:	60da      	str	r2, [r3, #12]
      __HAL_RCC_PLLCLKOUT_ENABLE(RCC_PLLQCLK);
    }
  }
#endif /* FDCAN1 || FDCAN2 */

  return status;
 8004a70:	2312      	movs	r3, #18
 8004a72:	18fb      	adds	r3, r7, r3
 8004a74:	781b      	ldrb	r3, [r3, #0]
}
 8004a76:	0018      	movs	r0, r3
 8004a78:	46bd      	mov	sp, r7
 8004a7a:	b006      	add	sp, #24
 8004a7c:	bd80      	pop	{r7, pc}
 8004a7e:	46c0      	nop			@ (mov r8, r8)
 8004a80:	40021000 	.word	0x40021000
 8004a84:	40007000 	.word	0x40007000
 8004a88:	fffffcff 	.word	0xfffffcff
 8004a8c:	fffeffff 	.word	0xfffeffff
 8004a90:	00001388 	.word	0x00001388
 8004a94:	efffffff 	.word	0xefffffff
 8004a98:	fffff3ff 	.word	0xfffff3ff
 8004a9c:	fff3ffff 	.word	0xfff3ffff
 8004aa0:	ffcfffff 	.word	0xffcfffff
 8004aa4:	ffffcfff 	.word	0xffffcfff
 8004aa8:	ffbfffff 	.word	0xffbfffff
 8004aac:	feffffff 	.word	0xfeffffff
 8004ab0:	ffff3fff 	.word	0xffff3fff

08004ab4 <HAL_SPI_Init>:
  * @param  hspi pointer to a SPI_HandleTypeDef structure that contains
  *               the configuration information for SPI module.
  * @retval HAL status
  */
HAL_StatusTypeDef HAL_SPI_Init(SPI_HandleTypeDef *hspi)
{
 8004ab4:	b580      	push	{r7, lr}
 8004ab6:	b084      	sub	sp, #16
 8004ab8:	af00      	add	r7, sp, #0
 8004aba:	6078      	str	r0, [r7, #4]
  uint32_t frxth;

  /* Check the SPI handle allocation */
  if (hspi == NULL)
 8004abc:	687b      	ldr	r3, [r7, #4]
 8004abe:	2b00      	cmp	r3, #0
 8004ac0:	d101      	bne.n	8004ac6 <HAL_SPI_Init+0x12>
  {
    return HAL_ERROR;
 8004ac2:	2301      	movs	r3, #1
 8004ac4:	e0a8      	b.n	8004c18 <HAL_SPI_Init+0x164>
  assert_param(IS_SPI_NSS(hspi->Init.NSS));
  assert_param(IS_SPI_NSSP(hspi->Init.NSSPMode));
  assert_param(IS_SPI_BAUDRATE_PRESCALER(hspi->Init.BaudRatePrescaler));
  assert_param(IS_SPI_FIRST_BIT(hspi->Init.FirstBit));
  assert_param(IS_SPI_TIMODE(hspi->Init.TIMode));
  if (hspi->Init.TIMode == SPI_TIMODE_DISABLE)
 8004ac6:	687b      	ldr	r3, [r7, #4]
 8004ac8:	6a5b      	ldr	r3, [r3, #36]	@ 0x24
 8004aca:	2b00      	cmp	r3, #0
 8004acc:	d109      	bne.n	8004ae2 <HAL_SPI_Init+0x2e>
  {
    assert_param(IS_SPI_CPOL(hspi->Init.CLKPolarity));
    assert_param(IS_SPI_CPHA(hspi->Init.CLKPhase));

    if (hspi->Init.Mode == SPI_MODE_MASTER)
 8004ace:	687b      	ldr	r3, [r7, #4]
 8004ad0:	685a      	ldr	r2, [r3, #4]
 8004ad2:	2382      	movs	r3, #130	@ 0x82
 8004ad4:	005b      	lsls	r3, r3, #1
 8004ad6:	429a      	cmp	r2, r3
 8004ad8:	d009      	beq.n	8004aee <HAL_SPI_Init+0x3a>
      assert_param(IS_SPI_BAUDRATE_PRESCALER(hspi->Init.BaudRatePrescaler));
    }
    else
    {
      /* Baudrate prescaler not use in Motoraola Slave mode. force to default value */
      hspi->Init.BaudRatePrescaler = SPI_BAUDRATEPRESCALER_2;
 8004ada:	687b      	ldr	r3, [r7, #4]
 8004adc:	2200      	movs	r2, #0
 8004ade:	61da      	str	r2, [r3, #28]
 8004ae0:	e005      	b.n	8004aee <HAL_SPI_Init+0x3a>
  else
  {
    assert_param(IS_SPI_BAUDRATE_PRESCALER(hspi->Init.BaudRatePrescaler));

    /* Force polarity and phase to TI protocaol requirements */
    hspi->Init.CLKPolarity = SPI_POLARITY_LOW;
 8004ae2:	687b      	ldr	r3, [r7, #4]
 8004ae4:	2200      	movs	r2, #0
 8004ae6:	611a      	str	r2, [r3, #16]
    hspi->Init.CLKPhase    = SPI_PHASE_1EDGE;
 8004ae8:	687b      	ldr	r3, [r7, #4]
 8004aea:	2200      	movs	r2, #0
 8004aec:	615a      	str	r2, [r3, #20]
  {
    assert_param(IS_SPI_CRC_POLYNOMIAL(hspi->Init.CRCPolynomial));
    assert_param(IS_SPI_CRC_LENGTH(hspi->Init.CRCLength));
  }
#else
  hspi->Init.CRCCalculation = SPI_CRCCALCULATION_DISABLE;
 8004aee:	687b      	ldr	r3, [r7, #4]
 8004af0:	2200      	movs	r2, #0
 8004af2:	629a      	str	r2, [r3, #40]	@ 0x28
#endif /* USE_SPI_CRC */

  if (hspi->State == HAL_SPI_STATE_RESET)
 8004af4:	687b      	ldr	r3, [r7, #4]
 8004af6:	225d      	movs	r2, #93	@ 0x5d
 8004af8:	5c9b      	ldrb	r3, [r3, r2]
 8004afa:	b2db      	uxtb	r3, r3
 8004afc:	2b00      	cmp	r3, #0
 8004afe:	d107      	bne.n	8004b10 <HAL_SPI_Init+0x5c>
  {
    /* Allocate lock resource and initialize it */
    hspi->Lock = HAL_UNLOCKED;
 8004b00:	687b      	ldr	r3, [r7, #4]
 8004b02:	225c      	movs	r2, #92	@ 0x5c
 8004b04:	2100      	movs	r1, #0
 8004b06:	5499      	strb	r1, [r3, r2]

    /* Init the low level hardware : GPIO, CLOCK, NVIC... */
    hspi->MspInitCallback(hspi);
#else
    /* Init the low level hardware : GPIO, CLOCK, NVIC... */
    HAL_SPI_MspInit(hspi);
 8004b08:	687b      	ldr	r3, [r7, #4]
 8004b0a:	0018      	movs	r0, r3
 8004b0c:	f7fe fefc 	bl	8003908 <HAL_SPI_MspInit>
#endif /* USE_HAL_SPI_REGISTER_CALLBACKS */
  }

  hspi->State = HAL_SPI_STATE_BUSY;
 8004b10:	687b      	ldr	r3, [r7, #4]
 8004b12:	225d      	movs	r2, #93	@ 0x5d
 8004b14:	2102      	movs	r1, #2
 8004b16:	5499      	strb	r1, [r3, r2]

  /* Disable the selected SPI peripheral */
  __HAL_SPI_DISABLE(hspi);
 8004b18:	687b      	ldr	r3, [r7, #4]
 8004b1a:	681b      	ldr	r3, [r3, #0]
 8004b1c:	681a      	ldr	r2, [r3, #0]
 8004b1e:	687b      	ldr	r3, [r7, #4]
 8004b20:	681b      	ldr	r3, [r3, #0]
 8004b22:	2140      	movs	r1, #64	@ 0x40
 8004b24:	438a      	bics	r2, r1
 8004b26:	601a      	str	r2, [r3, #0]

  /* Align by default the rs fifo threshold on the data size */
  if (hspi->Init.DataSize > SPI_DATASIZE_8BIT)
 8004b28:	687b      	ldr	r3, [r7, #4]
 8004b2a:	68da      	ldr	r2, [r3, #12]
 8004b2c:	23e0      	movs	r3, #224	@ 0xe0
 8004b2e:	00db      	lsls	r3, r3, #3
 8004b30:	429a      	cmp	r2, r3
 8004b32:	d902      	bls.n	8004b3a <HAL_SPI_Init+0x86>
  {
    frxth = SPI_RXFIFO_THRESHOLD_HF;
 8004b34:	2300      	movs	r3, #0
 8004b36:	60fb      	str	r3, [r7, #12]
 8004b38:	e002      	b.n	8004b40 <HAL_SPI_Init+0x8c>
  }
  else
  {
    frxth = SPI_RXFIFO_THRESHOLD_QF;
 8004b3a:	2380      	movs	r3, #128	@ 0x80
 8004b3c:	015b      	lsls	r3, r3, #5
 8004b3e:	60fb      	str	r3, [r7, #12]
  }

  /* CRC calculation is valid only for 16Bit and 8 Bit */
  if ((hspi->Init.DataSize != SPI_DATASIZE_16BIT) && (hspi->Init.DataSize != SPI_DATASIZE_8BIT))
 8004b40:	687b      	ldr	r3, [r7, #4]
 8004b42:	68da      	ldr	r2, [r3, #12]
 8004b44:	23f0      	movs	r3, #240	@ 0xf0
 8004b46:	011b      	lsls	r3, r3, #4
 8004b48:	429a      	cmp	r2, r3
 8004b4a:	d008      	beq.n	8004b5e <HAL_SPI_Init+0xaa>
 8004b4c:	687b      	ldr	r3, [r7, #4]
 8004b4e:	68da      	ldr	r2, [r3, #12]
 8004b50:	23e0      	movs	r3, #224	@ 0xe0
 8004b52:	00db      	lsls	r3, r3, #3
 8004b54:	429a      	cmp	r2, r3
 8004b56:	d002      	beq.n	8004b5e <HAL_SPI_Init+0xaa>
  {
    /* CRC must be disabled */
    hspi->Init.CRCCalculation = SPI_CRCCALCULATION_DISABLE;
 8004b58:	687b      	ldr	r3, [r7, #4]
 8004b5a:	2200      	movs	r2, #0
 8004b5c:	629a      	str	r2, [r3, #40]	@ 0x28
  }

  /*----------------------- SPIx CR1 & CR2 Configuration ---------------------*/
  /* Configure : SPI Mode, Communication Mode, Clock polarity and phase, NSS management,
  Communication speed, First bit and CRC calculation state */
  WRITE_REG(hspi->Instance->CR1, ((hspi->Init.Mode & (SPI_CR1_MSTR | SPI_CR1_SSI)) |
 8004b5e:	687b      	ldr	r3, [r7, #4]
 8004b60:	685a      	ldr	r2, [r3, #4]
 8004b62:	2382      	movs	r3, #130	@ 0x82
 8004b64:	005b      	lsls	r3, r3, #1
 8004b66:	401a      	ands	r2, r3
 8004b68:	687b      	ldr	r3, [r7, #4]
 8004b6a:	6899      	ldr	r1, [r3, #8]
 8004b6c:	2384      	movs	r3, #132	@ 0x84
 8004b6e:	021b      	lsls	r3, r3, #8
 8004b70:	400b      	ands	r3, r1
 8004b72:	431a      	orrs	r2, r3
 8004b74:	687b      	ldr	r3, [r7, #4]
 8004b76:	691b      	ldr	r3, [r3, #16]
 8004b78:	2102      	movs	r1, #2
 8004b7a:	400b      	ands	r3, r1
 8004b7c:	431a      	orrs	r2, r3
 8004b7e:	687b      	ldr	r3, [r7, #4]
 8004b80:	695b      	ldr	r3, [r3, #20]
 8004b82:	2101      	movs	r1, #1
 8004b84:	400b      	ands	r3, r1
 8004b86:	431a      	orrs	r2, r3
 8004b88:	687b      	ldr	r3, [r7, #4]
 8004b8a:	6999      	ldr	r1, [r3, #24]
 8004b8c:	2380      	movs	r3, #128	@ 0x80
 8004b8e:	009b      	lsls	r3, r3, #2
 8004b90:	400b      	ands	r3, r1
 8004b92:	431a      	orrs	r2, r3
 8004b94:	687b      	ldr	r3, [r7, #4]
 8004b96:	69db      	ldr	r3, [r3, #28]
 8004b98:	2138      	movs	r1, #56	@ 0x38
 8004b9a:	400b      	ands	r3, r1
 8004b9c:	431a      	orrs	r2, r3
 8004b9e:	687b      	ldr	r3, [r7, #4]
 8004ba0:	6a1b      	ldr	r3, [r3, #32]
 8004ba2:	2180      	movs	r1, #128	@ 0x80
 8004ba4:	400b      	ands	r3, r1
 8004ba6:	431a      	orrs	r2, r3
 8004ba8:	0011      	movs	r1, r2
 8004baa:	687b      	ldr	r3, [r7, #4]
 8004bac:	6a9a      	ldr	r2, [r3, #40]	@ 0x28
 8004bae:	2380      	movs	r3, #128	@ 0x80
 8004bb0:	019b      	lsls	r3, r3, #6
 8004bb2:	401a      	ands	r2, r3
 8004bb4:	687b      	ldr	r3, [r7, #4]
 8004bb6:	681b      	ldr	r3, [r3, #0]
 8004bb8:	430a      	orrs	r2, r1
 8004bba:	601a      	str	r2, [r3, #0]
    }
  }
#endif /* USE_SPI_CRC */

  /* Configure : NSS management, TI Mode, NSS Pulse, Data size and Rx Fifo threshold */
  WRITE_REG(hspi->Instance->CR2, (((hspi->Init.NSS >> 16U) & SPI_CR2_SSOE) |
 8004bbc:	687b      	ldr	r3, [r7, #4]
 8004bbe:	699b      	ldr	r3, [r3, #24]
 8004bc0:	0c1b      	lsrs	r3, r3, #16
 8004bc2:	2204      	movs	r2, #4
 8004bc4:	401a      	ands	r2, r3
 8004bc6:	687b      	ldr	r3, [r7, #4]
 8004bc8:	6a5b      	ldr	r3, [r3, #36]	@ 0x24
 8004bca:	2110      	movs	r1, #16
 8004bcc:	400b      	ands	r3, r1
 8004bce:	431a      	orrs	r2, r3
 8004bd0:	687b      	ldr	r3, [r7, #4]
 8004bd2:	6b5b      	ldr	r3, [r3, #52]	@ 0x34
 8004bd4:	2108      	movs	r1, #8
 8004bd6:	400b      	ands	r3, r1
 8004bd8:	431a      	orrs	r2, r3
 8004bda:	687b      	ldr	r3, [r7, #4]
 8004bdc:	68d9      	ldr	r1, [r3, #12]
 8004bde:	23f0      	movs	r3, #240	@ 0xf0
 8004be0:	011b      	lsls	r3, r3, #4
 8004be2:	400b      	ands	r3, r1
 8004be4:	431a      	orrs	r2, r3
 8004be6:	0011      	movs	r1, r2
 8004be8:	68fa      	ldr	r2, [r7, #12]
 8004bea:	2380      	movs	r3, #128	@ 0x80
 8004bec:	015b      	lsls	r3, r3, #5
 8004bee:	401a      	ands	r2, r3
 8004bf0:	687b      	ldr	r3, [r7, #4]
 8004bf2:	681b      	ldr	r3, [r3, #0]
 8004bf4:	430a      	orrs	r2, r1
 8004bf6:	605a      	str	r2, [r3, #4]
  }
#endif /* USE_SPI_CRC */

#if defined(SPI_I2SCFGR_I2SMOD)
  /* Activate the SPI mode (Make sure that I2SMOD bit in I2SCFGR register is reset) */
  CLEAR_BIT(hspi->Instance->I2SCFGR, SPI_I2SCFGR_I2SMOD);
 8004bf8:	687b      	ldr	r3, [r7, #4]
 8004bfa:	681b      	ldr	r3, [r3, #0]
 8004bfc:	69da      	ldr	r2, [r3, #28]
 8004bfe:	687b      	ldr	r3, [r7, #4]
 8004c00:	681b      	ldr	r3, [r3, #0]
 8004c02:	4907      	ldr	r1, [pc, #28]	@ (8004c20 <HAL_SPI_Init+0x16c>)
 8004c04:	400a      	ands	r2, r1
 8004c06:	61da      	str	r2, [r3, #28]
#endif /* SPI_I2SCFGR_I2SMOD */

  hspi->ErrorCode = HAL_SPI_ERROR_NONE;
 8004c08:	687b      	ldr	r3, [r7, #4]
 8004c0a:	2200      	movs	r2, #0
 8004c0c:	661a      	str	r2, [r3, #96]	@ 0x60
  hspi->State     = HAL_SPI_STATE_READY;
 8004c0e:	687b      	ldr	r3, [r7, #4]
 8004c10:	225d      	movs	r2, #93	@ 0x5d
 8004c12:	2101      	movs	r1, #1
 8004c14:	5499      	strb	r1, [r3, r2]

  return HAL_OK;
 8004c16:	2300      	movs	r3, #0
}
 8004c18:	0018      	movs	r0, r3
 8004c1a:	46bd      	mov	sp, r7
 8004c1c:	b004      	add	sp, #16
 8004c1e:	bd80      	pop	{r7, pc}
 8004c20:	fffff7ff 	.word	0xfffff7ff

08004c24 <HAL_SPI_Transmit>:
  * @param  Size amount of data to be sent
  * @param  Timeout Timeout duration
  * @retval HAL status
  */
HAL_StatusTypeDef HAL_SPI_Transmit(SPI_HandleTypeDef *hspi, uint8_t *pData, uint16_t Size, uint32_t Timeout)
{
 8004c24:	b580      	push	{r7, lr}
 8004c26:	b088      	sub	sp, #32
 8004c28:	af00      	add	r7, sp, #0
 8004c2a:	60f8      	str	r0, [r7, #12]
 8004c2c:	60b9      	str	r1, [r7, #8]
 8004c2e:	603b      	str	r3, [r7, #0]
 8004c30:	1dbb      	adds	r3, r7, #6
 8004c32:	801a      	strh	r2, [r3, #0]
  uint32_t tickstart;
  HAL_StatusTypeDef errorcode = HAL_OK;
 8004c34:	231f      	movs	r3, #31
 8004c36:	18fb      	adds	r3, r7, r3
 8004c38:	2200      	movs	r2, #0
 8004c3a:	701a      	strb	r2, [r3, #0]

  /* Check Direction parameter */
  assert_param(IS_SPI_DIRECTION_2LINES_OR_1LINE(hspi->Init.Direction));

  /* Process Locked */
  __HAL_LOCK(hspi);
 8004c3c:	68fb      	ldr	r3, [r7, #12]
 8004c3e:	225c      	movs	r2, #92	@ 0x5c
 8004c40:	5c9b      	ldrb	r3, [r3, r2]
 8004c42:	2b01      	cmp	r3, #1
 8004c44:	d101      	bne.n	8004c4a <HAL_SPI_Transmit+0x26>
 8004c46:	2302      	movs	r3, #2
 8004c48:	e147      	b.n	8004eda <HAL_SPI_Transmit+0x2b6>
 8004c4a:	68fb      	ldr	r3, [r7, #12]
 8004c4c:	225c      	movs	r2, #92	@ 0x5c
 8004c4e:	2101      	movs	r1, #1
 8004c50:	5499      	strb	r1, [r3, r2]

  /* Init tickstart for timeout management*/
  tickstart = HAL_GetTick();
 8004c52:	f7ff f993 	bl	8003f7c <HAL_GetTick>
 8004c56:	0003      	movs	r3, r0
 8004c58:	61bb      	str	r3, [r7, #24]
  initial_TxXferCount = Size;
 8004c5a:	2316      	movs	r3, #22
 8004c5c:	18fb      	adds	r3, r7, r3
 8004c5e:	1dba      	adds	r2, r7, #6
 8004c60:	8812      	ldrh	r2, [r2, #0]
 8004c62:	801a      	strh	r2, [r3, #0]

  if (hspi->State != HAL_SPI_STATE_READY)
 8004c64:	68fb      	ldr	r3, [r7, #12]
 8004c66:	225d      	movs	r2, #93	@ 0x5d
 8004c68:	5c9b      	ldrb	r3, [r3, r2]
 8004c6a:	b2db      	uxtb	r3, r3
 8004c6c:	2b01      	cmp	r3, #1
 8004c6e:	d004      	beq.n	8004c7a <HAL_SPI_Transmit+0x56>
  {
    errorcode = HAL_BUSY;
 8004c70:	231f      	movs	r3, #31
 8004c72:	18fb      	adds	r3, r7, r3
 8004c74:	2202      	movs	r2, #2
 8004c76:	701a      	strb	r2, [r3, #0]
    goto error;
 8004c78:	e128      	b.n	8004ecc <HAL_SPI_Transmit+0x2a8>
  }

  if ((pData == NULL) || (Size == 0U))
 8004c7a:	68bb      	ldr	r3, [r7, #8]
 8004c7c:	2b00      	cmp	r3, #0
 8004c7e:	d003      	beq.n	8004c88 <HAL_SPI_Transmit+0x64>
 8004c80:	1dbb      	adds	r3, r7, #6
 8004c82:	881b      	ldrh	r3, [r3, #0]
 8004c84:	2b00      	cmp	r3, #0
 8004c86:	d104      	bne.n	8004c92 <HAL_SPI_Transmit+0x6e>
  {
    errorcode = HAL_ERROR;
 8004c88:	231f      	movs	r3, #31
 8004c8a:	18fb      	adds	r3, r7, r3
 8004c8c:	2201      	movs	r2, #1
 8004c8e:	701a      	strb	r2, [r3, #0]
    goto error;
 8004c90:	e11c      	b.n	8004ecc <HAL_SPI_Transmit+0x2a8>
  }

  /* Set the transaction information */
  hspi->State       = HAL_SPI_STATE_BUSY_TX;
 8004c92:	68fb      	ldr	r3, [r7, #12]
 8004c94:	225d      	movs	r2, #93	@ 0x5d
 8004c96:	2103      	movs	r1, #3
 8004c98:	5499      	strb	r1, [r3, r2]
  hspi->ErrorCode   = HAL_SPI_ERROR_NONE;
 8004c9a:	68fb      	ldr	r3, [r7, #12]
 8004c9c:	2200      	movs	r2, #0
 8004c9e:	661a      	str	r2, [r3, #96]	@ 0x60
  hspi->pTxBuffPtr  = (uint8_t *)pData;
 8004ca0:	68fb      	ldr	r3, [r7, #12]
 8004ca2:	68ba      	ldr	r2, [r7, #8]
 8004ca4:	639a      	str	r2, [r3, #56]	@ 0x38
  hspi->TxXferSize  = Size;
 8004ca6:	68fb      	ldr	r3, [r7, #12]
 8004ca8:	1dba      	adds	r2, r7, #6
 8004caa:	8812      	ldrh	r2, [r2, #0]
 8004cac:	879a      	strh	r2, [r3, #60]	@ 0x3c
  hspi->TxXferCount = Size;
 8004cae:	68fb      	ldr	r3, [r7, #12]
 8004cb0:	1dba      	adds	r2, r7, #6
 8004cb2:	8812      	ldrh	r2, [r2, #0]
 8004cb4:	87da      	strh	r2, [r3, #62]	@ 0x3e

  /*Init field not used in handle to zero */
  hspi->pRxBuffPtr  = (uint8_t *)NULL;
 8004cb6:	68fb      	ldr	r3, [r7, #12]
 8004cb8:	2200      	movs	r2, #0
 8004cba:	641a      	str	r2, [r3, #64]	@ 0x40
  hspi->RxXferSize  = 0U;
 8004cbc:	68fb      	ldr	r3, [r7, #12]
 8004cbe:	2244      	movs	r2, #68	@ 0x44
 8004cc0:	2100      	movs	r1, #0
 8004cc2:	5299      	strh	r1, [r3, r2]
  hspi->RxXferCount = 0U;
 8004cc4:	68fb      	ldr	r3, [r7, #12]
 8004cc6:	2246      	movs	r2, #70	@ 0x46
 8004cc8:	2100      	movs	r1, #0
 8004cca:	5299      	strh	r1, [r3, r2]
  hspi->TxISR       = NULL;
 8004ccc:	68fb      	ldr	r3, [r7, #12]
 8004cce:	2200      	movs	r2, #0
 8004cd0:	651a      	str	r2, [r3, #80]	@ 0x50
  hspi->RxISR       = NULL;
 8004cd2:	68fb      	ldr	r3, [r7, #12]
 8004cd4:	2200      	movs	r2, #0
 8004cd6:	64da      	str	r2, [r3, #76]	@ 0x4c

  /* Configure communication direction : 1Line */
  if (hspi->Init.Direction == SPI_DIRECTION_1LINE)
 8004cd8:	68fb      	ldr	r3, [r7, #12]
 8004cda:	689a      	ldr	r2, [r3, #8]
 8004cdc:	2380      	movs	r3, #128	@ 0x80
 8004cde:	021b      	lsls	r3, r3, #8
 8004ce0:	429a      	cmp	r2, r3
 8004ce2:	d110      	bne.n	8004d06 <HAL_SPI_Transmit+0xe2>
  {
    /* Disable SPI Peripheral before set 1Line direction (BIDIOE bit) */
    __HAL_SPI_DISABLE(hspi);
 8004ce4:	68fb      	ldr	r3, [r7, #12]
 8004ce6:	681b      	ldr	r3, [r3, #0]
 8004ce8:	681a      	ldr	r2, [r3, #0]
 8004cea:	68fb      	ldr	r3, [r7, #12]
 8004cec:	681b      	ldr	r3, [r3, #0]
 8004cee:	2140      	movs	r1, #64	@ 0x40
 8004cf0:	438a      	bics	r2, r1
 8004cf2:	601a      	str	r2, [r3, #0]
    SPI_1LINE_TX(hspi);
 8004cf4:	68fb      	ldr	r3, [r7, #12]
 8004cf6:	681b      	ldr	r3, [r3, #0]
 8004cf8:	681a      	ldr	r2, [r3, #0]
 8004cfa:	68fb      	ldr	r3, [r7, #12]
 8004cfc:	681b      	ldr	r3, [r3, #0]
 8004cfe:	2180      	movs	r1, #128	@ 0x80
 8004d00:	01c9      	lsls	r1, r1, #7
 8004d02:	430a      	orrs	r2, r1
 8004d04:	601a      	str	r2, [r3, #0]
    SPI_RESET_CRC(hspi);
  }
#endif /* USE_SPI_CRC */

  /* Check if the SPI is already enabled */
  if ((hspi->Instance->CR1 & SPI_CR1_SPE) != SPI_CR1_SPE)
 8004d06:	68fb      	ldr	r3, [r7, #12]
 8004d08:	681b      	ldr	r3, [r3, #0]
 8004d0a:	681b      	ldr	r3, [r3, #0]
 8004d0c:	2240      	movs	r2, #64	@ 0x40
 8004d0e:	4013      	ands	r3, r2
 8004d10:	2b40      	cmp	r3, #64	@ 0x40
 8004d12:	d007      	beq.n	8004d24 <HAL_SPI_Transmit+0x100>
  {
    /* Enable SPI peripheral */
    __HAL_SPI_ENABLE(hspi);
 8004d14:	68fb      	ldr	r3, [r7, #12]
 8004d16:	681b      	ldr	r3, [r3, #0]
 8004d18:	681a      	ldr	r2, [r3, #0]
 8004d1a:	68fb      	ldr	r3, [r7, #12]
 8004d1c:	681b      	ldr	r3, [r3, #0]
 8004d1e:	2140      	movs	r1, #64	@ 0x40
 8004d20:	430a      	orrs	r2, r1
 8004d22:	601a      	str	r2, [r3, #0]
  }

  /* Transmit data in 16 Bit mode */
  if (hspi->Init.DataSize > SPI_DATASIZE_8BIT)
 8004d24:	68fb      	ldr	r3, [r7, #12]
 8004d26:	68da      	ldr	r2, [r3, #12]
 8004d28:	23e0      	movs	r3, #224	@ 0xe0
 8004d2a:	00db      	lsls	r3, r3, #3
 8004d2c:	429a      	cmp	r2, r3
 8004d2e:	d952      	bls.n	8004dd6 <HAL_SPI_Transmit+0x1b2>
  {
    if ((hspi->Init.Mode == SPI_MODE_SLAVE) || (initial_TxXferCount == 0x01U))
 8004d30:	68fb      	ldr	r3, [r7, #12]
 8004d32:	685b      	ldr	r3, [r3, #4]
 8004d34:	2b00      	cmp	r3, #0
 8004d36:	d004      	beq.n	8004d42 <HAL_SPI_Transmit+0x11e>
 8004d38:	2316      	movs	r3, #22
 8004d3a:	18fb      	adds	r3, r7, r3
 8004d3c:	881b      	ldrh	r3, [r3, #0]
 8004d3e:	2b01      	cmp	r3, #1
 8004d40:	d143      	bne.n	8004dca <HAL_SPI_Transmit+0x1a6>
    {
      hspi->Instance->DR = *((uint16_t *)hspi->pTxBuffPtr);
 8004d42:	68fb      	ldr	r3, [r7, #12]
 8004d44:	6b9b      	ldr	r3, [r3, #56]	@ 0x38
 8004d46:	881a      	ldrh	r2, [r3, #0]
 8004d48:	68fb      	ldr	r3, [r7, #12]
 8004d4a:	681b      	ldr	r3, [r3, #0]
 8004d4c:	60da      	str	r2, [r3, #12]
      hspi->pTxBuffPtr += sizeof(uint16_t);
 8004d4e:	68fb      	ldr	r3, [r7, #12]
 8004d50:	6b9b      	ldr	r3, [r3, #56]	@ 0x38
 8004d52:	1c9a      	adds	r2, r3, #2
 8004d54:	68fb      	ldr	r3, [r7, #12]
 8004d56:	639a      	str	r2, [r3, #56]	@ 0x38
      hspi->TxXferCount--;
 8004d58:	68fb      	ldr	r3, [r7, #12]
 8004d5a:	8fdb      	ldrh	r3, [r3, #62]	@ 0x3e
 8004d5c:	b29b      	uxth	r3, r3
 8004d5e:	3b01      	subs	r3, #1
 8004d60:	b29a      	uxth	r2, r3
 8004d62:	68fb      	ldr	r3, [r7, #12]
 8004d64:	87da      	strh	r2, [r3, #62]	@ 0x3e
    }
    /* Transmit data in 16 Bit mode */
    while (hspi->TxXferCount > 0U)
 8004d66:	e030      	b.n	8004dca <HAL_SPI_Transmit+0x1a6>
    {
      /* Wait until TXE flag is set to send data */
      if (__HAL_SPI_GET_FLAG(hspi, SPI_FLAG_TXE))
 8004d68:	68fb      	ldr	r3, [r7, #12]
 8004d6a:	681b      	ldr	r3, [r3, #0]
 8004d6c:	689b      	ldr	r3, [r3, #8]
 8004d6e:	2202      	movs	r2, #2
 8004d70:	4013      	ands	r3, r2
 8004d72:	2b02      	cmp	r3, #2
 8004d74:	d112      	bne.n	8004d9c <HAL_SPI_Transmit+0x178>
      {
        hspi->Instance->DR = *((uint16_t *)hspi->pTxBuffPtr);
 8004d76:	68fb      	ldr	r3, [r7, #12]
 8004d78:	6b9b      	ldr	r3, [r3, #56]	@ 0x38
 8004d7a:	881a      	ldrh	r2, [r3, #0]
 8004d7c:	68fb      	ldr	r3, [r7, #12]
 8004d7e:	681b      	ldr	r3, [r3, #0]
 8004d80:	60da      	str	r2, [r3, #12]
        hspi->pTxBuffPtr += sizeof(uint16_t);
 8004d82:	68fb      	ldr	r3, [r7, #12]
 8004d84:	6b9b      	ldr	r3, [r3, #56]	@ 0x38
 8004d86:	1c9a      	adds	r2, r3, #2
 8004d88:	68fb      	ldr	r3, [r7, #12]
 8004d8a:	639a      	str	r2, [r3, #56]	@ 0x38
        hspi->TxXferCount--;
 8004d8c:	68fb      	ldr	r3, [r7, #12]
 8004d8e:	8fdb      	ldrh	r3, [r3, #62]	@ 0x3e
 8004d90:	b29b      	uxth	r3, r3
 8004d92:	3b01      	subs	r3, #1
 8004d94:	b29a      	uxth	r2, r3
 8004d96:	68fb      	ldr	r3, [r7, #12]
 8004d98:	87da      	strh	r2, [r3, #62]	@ 0x3e
 8004d9a:	e016      	b.n	8004dca <HAL_SPI_Transmit+0x1a6>
      }
      else
      {
        /* Timeout management */
        if ((((HAL_GetTick() - tickstart) >=  Timeout) && (Timeout != HAL_MAX_DELAY)) || (Timeout == 0U))
 8004d9c:	f7ff f8ee 	bl	8003f7c <HAL_GetTick>
 8004da0:	0002      	movs	r2, r0
 8004da2:	69bb      	ldr	r3, [r7, #24]
 8004da4:	1ad3      	subs	r3, r2, r3
 8004da6:	683a      	ldr	r2, [r7, #0]
 8004da8:	429a      	cmp	r2, r3
 8004daa:	d802      	bhi.n	8004db2 <HAL_SPI_Transmit+0x18e>
 8004dac:	683b      	ldr	r3, [r7, #0]
 8004dae:	3301      	adds	r3, #1
 8004db0:	d102      	bne.n	8004db8 <HAL_SPI_Transmit+0x194>
 8004db2:	683b      	ldr	r3, [r7, #0]
 8004db4:	2b00      	cmp	r3, #0
 8004db6:	d108      	bne.n	8004dca <HAL_SPI_Transmit+0x1a6>
        {
          errorcode = HAL_TIMEOUT;
 8004db8:	231f      	movs	r3, #31
 8004dba:	18fb      	adds	r3, r7, r3
 8004dbc:	2203      	movs	r2, #3
 8004dbe:	701a      	strb	r2, [r3, #0]
          hspi->State = HAL_SPI_STATE_READY;
 8004dc0:	68fb      	ldr	r3, [r7, #12]
 8004dc2:	225d      	movs	r2, #93	@ 0x5d
 8004dc4:	2101      	movs	r1, #1
 8004dc6:	5499      	strb	r1, [r3, r2]
          goto error;
 8004dc8:	e080      	b.n	8004ecc <HAL_SPI_Transmit+0x2a8>
    while (hspi->TxXferCount > 0U)
 8004dca:	68fb      	ldr	r3, [r7, #12]
 8004dcc:	8fdb      	ldrh	r3, [r3, #62]	@ 0x3e
 8004dce:	b29b      	uxth	r3, r3
 8004dd0:	2b00      	cmp	r3, #0
 8004dd2:	d1c9      	bne.n	8004d68 <HAL_SPI_Transmit+0x144>
 8004dd4:	e053      	b.n	8004e7e <HAL_SPI_Transmit+0x25a>
    }
  }
  /* Transmit data in 8 Bit mode */
  else
  {
    if ((hspi->Init.Mode == SPI_MODE_SLAVE) || (initial_TxXferCount == 0x01U))
 8004dd6:	68fb      	ldr	r3, [r7, #12]
 8004dd8:	685b      	ldr	r3, [r3, #4]
 8004dda:	2b00      	cmp	r3, #0
 8004ddc:	d004      	beq.n	8004de8 <HAL_SPI_Transmit+0x1c4>
 8004dde:	2316      	movs	r3, #22
 8004de0:	18fb      	adds	r3, r7, r3
 8004de2:	881b      	ldrh	r3, [r3, #0]
 8004de4:	2b01      	cmp	r3, #1
 8004de6:	d145      	bne.n	8004e74 <HAL_SPI_Transmit+0x250>
    {
      *((__IO uint8_t *)&hspi->Instance->DR) = (*hspi->pTxBuffPtr);
 8004de8:	68fb      	ldr	r3, [r7, #12]
 8004dea:	6b9a      	ldr	r2, [r3, #56]	@ 0x38
 8004dec:	68fb      	ldr	r3, [r7, #12]
 8004dee:	681b      	ldr	r3, [r3, #0]
 8004df0:	330c      	adds	r3, #12
 8004df2:	7812      	ldrb	r2, [r2, #0]
 8004df4:	701a      	strb	r2, [r3, #0]
      hspi->pTxBuffPtr += sizeof(uint8_t);
 8004df6:	68fb      	ldr	r3, [r7, #12]
 8004df8:	6b9b      	ldr	r3, [r3, #56]	@ 0x38
 8004dfa:	1c5a      	adds	r2, r3, #1
 8004dfc:	68fb      	ldr	r3, [r7, #12]
 8004dfe:	639a      	str	r2, [r3, #56]	@ 0x38
      hspi->TxXferCount--;
 8004e00:	68fb      	ldr	r3, [r7, #12]
 8004e02:	8fdb      	ldrh	r3, [r3, #62]	@ 0x3e
 8004e04:	b29b      	uxth	r3, r3
 8004e06:	3b01      	subs	r3, #1
 8004e08:	b29a      	uxth	r2, r3
 8004e0a:	68fb      	ldr	r3, [r7, #12]
 8004e0c:	87da      	strh	r2, [r3, #62]	@ 0x3e
    }
    while (hspi->TxXferCount > 0U)
 8004e0e:	e031      	b.n	8004e74 <HAL_SPI_Transmit+0x250>
    {
      /* Wait until TXE flag is set to send data */
      if (__HAL_SPI_GET_FLAG(hspi, SPI_FLAG_TXE))
 8004e10:	68fb      	ldr	r3, [r7, #12]
 8004e12:	681b      	ldr	r3, [r3, #0]
 8004e14:	689b      	ldr	r3, [r3, #8]
 8004e16:	2202      	movs	r2, #2
 8004e18:	4013      	ands	r3, r2
 8004e1a:	2b02      	cmp	r3, #2
 8004e1c:	d113      	bne.n	8004e46 <HAL_SPI_Transmit+0x222>
      {
        *((__IO uint8_t *)&hspi->Instance->DR) = (*hspi->pTxBuffPtr);
 8004e1e:	68fb      	ldr	r3, [r7, #12]
 8004e20:	6b9a      	ldr	r2, [r3, #56]	@ 0x38
 8004e22:	68fb      	ldr	r3, [r7, #12]
 8004e24:	681b      	ldr	r3, [r3, #0]
 8004e26:	330c      	adds	r3, #12
 8004e28:	7812      	ldrb	r2, [r2, #0]
 8004e2a:	701a      	strb	r2, [r3, #0]
        hspi->pTxBuffPtr += sizeof(uint8_t);
 8004e2c:	68fb      	ldr	r3, [r7, #12]
 8004e2e:	6b9b      	ldr	r3, [r3, #56]	@ 0x38
 8004e30:	1c5a      	adds	r2, r3, #1
 8004e32:	68fb      	ldr	r3, [r7, #12]
 8004e34:	639a      	str	r2, [r3, #56]	@ 0x38
        hspi->TxXferCount--;
 8004e36:	68fb      	ldr	r3, [r7, #12]
 8004e38:	8fdb      	ldrh	r3, [r3, #62]	@ 0x3e
 8004e3a:	b29b      	uxth	r3, r3
 8004e3c:	3b01      	subs	r3, #1
 8004e3e:	b29a      	uxth	r2, r3
 8004e40:	68fb      	ldr	r3, [r7, #12]
 8004e42:	87da      	strh	r2, [r3, #62]	@ 0x3e
 8004e44:	e016      	b.n	8004e74 <HAL_SPI_Transmit+0x250>
      }
      else
      {
        /* Timeout management */
        if ((((HAL_GetTick() - tickstart) >=  Timeout) && (Timeout != HAL_MAX_DELAY)) || (Timeout == 0U))
 8004e46:	f7ff f899 	bl	8003f7c <HAL_GetTick>
 8004e4a:	0002      	movs	r2, r0
 8004e4c:	69bb      	ldr	r3, [r7, #24]
 8004e4e:	1ad3      	subs	r3, r2, r3
 8004e50:	683a      	ldr	r2, [r7, #0]
 8004e52:	429a      	cmp	r2, r3
 8004e54:	d802      	bhi.n	8004e5c <HAL_SPI_Transmit+0x238>
 8004e56:	683b      	ldr	r3, [r7, #0]
 8004e58:	3301      	adds	r3, #1
 8004e5a:	d102      	bne.n	8004e62 <HAL_SPI_Transmit+0x23e>
 8004e5c:	683b      	ldr	r3, [r7, #0]
 8004e5e:	2b00      	cmp	r3, #0
 8004e60:	d108      	bne.n	8004e74 <HAL_SPI_Transmit+0x250>
        {
          errorcode = HAL_TIMEOUT;
 8004e62:	231f      	movs	r3, #31
 8004e64:	18fb      	adds	r3, r7, r3
 8004e66:	2203      	movs	r2, #3
 8004e68:	701a      	strb	r2, [r3, #0]
          hspi->State = HAL_SPI_STATE_READY;
 8004e6a:	68fb      	ldr	r3, [r7, #12]
 8004e6c:	225d      	movs	r2, #93	@ 0x5d
 8004e6e:	2101      	movs	r1, #1
 8004e70:	5499      	strb	r1, [r3, r2]
          goto error;
 8004e72:	e02b      	b.n	8004ecc <HAL_SPI_Transmit+0x2a8>
    while (hspi->TxXferCount > 0U)
 8004e74:	68fb      	ldr	r3, [r7, #12]
 8004e76:	8fdb      	ldrh	r3, [r3, #62]	@ 0x3e
 8004e78:	b29b      	uxth	r3, r3
 8004e7a:	2b00      	cmp	r3, #0
 8004e7c:	d1c8      	bne.n	8004e10 <HAL_SPI_Transmit+0x1ec>
    SET_BIT(hspi->Instance->CR1, SPI_CR1_CRCNEXT);
  }
#endif /* USE_SPI_CRC */

  /* Check the end of the transaction */
  if (SPI_EndRxTxTransaction(hspi, Timeout, tickstart) != HAL_OK)
 8004e7e:	69ba      	ldr	r2, [r7, #24]
 8004e80:	6839      	ldr	r1, [r7, #0]
 8004e82:	68fb      	ldr	r3, [r7, #12]
 8004e84:	0018      	movs	r0, r3
 8004e86:	f000 fcef 	bl	8005868 <SPI_EndRxTxTransaction>
 8004e8a:	1e03      	subs	r3, r0, #0
 8004e8c:	d002      	beq.n	8004e94 <HAL_SPI_Transmit+0x270>
  {
    hspi->ErrorCode = HAL_SPI_ERROR_FLAG;
 8004e8e:	68fb      	ldr	r3, [r7, #12]
 8004e90:	2220      	movs	r2, #32
 8004e92:	661a      	str	r2, [r3, #96]	@ 0x60
  }

  /* Clear overrun flag in 2 Lines communication mode because received is not read */
  if (hspi->Init.Direction == SPI_DIRECTION_2LINES)
 8004e94:	68fb      	ldr	r3, [r7, #12]
 8004e96:	689b      	ldr	r3, [r3, #8]
 8004e98:	2b00      	cmp	r3, #0
 8004e9a:	d10a      	bne.n	8004eb2 <HAL_SPI_Transmit+0x28e>
  {
    __HAL_SPI_CLEAR_OVRFLAG(hspi);
 8004e9c:	2300      	movs	r3, #0
 8004e9e:	613b      	str	r3, [r7, #16]
 8004ea0:	68fb      	ldr	r3, [r7, #12]
 8004ea2:	681b      	ldr	r3, [r3, #0]
 8004ea4:	68db      	ldr	r3, [r3, #12]
 8004ea6:	613b      	str	r3, [r7, #16]
 8004ea8:	68fb      	ldr	r3, [r7, #12]
 8004eaa:	681b      	ldr	r3, [r3, #0]
 8004eac:	689b      	ldr	r3, [r3, #8]
 8004eae:	613b      	str	r3, [r7, #16]
 8004eb0:	693b      	ldr	r3, [r7, #16]
  }

  if (hspi->ErrorCode != HAL_SPI_ERROR_NONE)
 8004eb2:	68fb      	ldr	r3, [r7, #12]
 8004eb4:	6e1b      	ldr	r3, [r3, #96]	@ 0x60
 8004eb6:	2b00      	cmp	r3, #0
 8004eb8:	d004      	beq.n	8004ec4 <HAL_SPI_Transmit+0x2a0>
  {
    errorcode = HAL_ERROR;
 8004eba:	231f      	movs	r3, #31
 8004ebc:	18fb      	adds	r3, r7, r3
 8004ebe:	2201      	movs	r2, #1
 8004ec0:	701a      	strb	r2, [r3, #0]
 8004ec2:	e003      	b.n	8004ecc <HAL_SPI_Transmit+0x2a8>
  }
  else
  {
    hspi->State = HAL_SPI_STATE_READY;
 8004ec4:	68fb      	ldr	r3, [r7, #12]
 8004ec6:	225d      	movs	r2, #93	@ 0x5d
 8004ec8:	2101      	movs	r1, #1
 8004eca:	5499      	strb	r1, [r3, r2]
  }

error:
  /* Process Unlocked */
  __HAL_UNLOCK(hspi);
 8004ecc:	68fb      	ldr	r3, [r7, #12]
 8004ece:	225c      	movs	r2, #92	@ 0x5c
 8004ed0:	2100      	movs	r1, #0
 8004ed2:	5499      	strb	r1, [r3, r2]
  return errorcode;
 8004ed4:	231f      	movs	r3, #31
 8004ed6:	18fb      	adds	r3, r7, r3
 8004ed8:	781b      	ldrb	r3, [r3, #0]
}
 8004eda:	0018      	movs	r0, r3
 8004edc:	46bd      	mov	sp, r7
 8004ede:	b008      	add	sp, #32
 8004ee0:	bd80      	pop	{r7, pc}
	...

08004ee4 <HAL_SPI_Receive>:
  * @param  Size amount of data to be received
  * @param  Timeout Timeout duration
  * @retval HAL status
  */
HAL_StatusTypeDef HAL_SPI_Receive(SPI_HandleTypeDef *hspi, uint8_t *pData, uint16_t Size, uint32_t Timeout)
{
 8004ee4:	b590      	push	{r4, r7, lr}
 8004ee6:	b089      	sub	sp, #36	@ 0x24
 8004ee8:	af02      	add	r7, sp, #8
 8004eea:	60f8      	str	r0, [r7, #12]
 8004eec:	60b9      	str	r1, [r7, #8]
 8004eee:	603b      	str	r3, [r7, #0]
 8004ef0:	1dbb      	adds	r3, r7, #6
 8004ef2:	801a      	strh	r2, [r3, #0]
  __IO uint32_t tmpreg = 0U;
  __IO uint8_t  *ptmpreg8;
  __IO uint8_t  tmpreg8 = 0;
#endif /* USE_SPI_CRC */
  uint32_t tickstart;
  HAL_StatusTypeDef errorcode = HAL_OK;
 8004ef4:	2117      	movs	r1, #23
 8004ef6:	187b      	adds	r3, r7, r1
 8004ef8:	2200      	movs	r2, #0
 8004efa:	701a      	strb	r2, [r3, #0]

  if (hspi->State != HAL_SPI_STATE_READY)
 8004efc:	68fb      	ldr	r3, [r7, #12]
 8004efe:	225d      	movs	r2, #93	@ 0x5d
 8004f00:	5c9b      	ldrb	r3, [r3, r2]
 8004f02:	b2db      	uxtb	r3, r3
 8004f04:	2b01      	cmp	r3, #1
 8004f06:	d003      	beq.n	8004f10 <HAL_SPI_Receive+0x2c>
  {
    errorcode = HAL_BUSY;
 8004f08:	187b      	adds	r3, r7, r1
 8004f0a:	2202      	movs	r2, #2
 8004f0c:	701a      	strb	r2, [r3, #0]
    goto error;
 8004f0e:	e12b      	b.n	8005168 <HAL_SPI_Receive+0x284>
  }

  if ((hspi->Init.Mode == SPI_MODE_MASTER) && (hspi->Init.Direction == SPI_DIRECTION_2LINES))
 8004f10:	68fb      	ldr	r3, [r7, #12]
 8004f12:	685a      	ldr	r2, [r3, #4]
 8004f14:	2382      	movs	r3, #130	@ 0x82
 8004f16:	005b      	lsls	r3, r3, #1
 8004f18:	429a      	cmp	r2, r3
 8004f1a:	d113      	bne.n	8004f44 <HAL_SPI_Receive+0x60>
 8004f1c:	68fb      	ldr	r3, [r7, #12]
 8004f1e:	689b      	ldr	r3, [r3, #8]
 8004f20:	2b00      	cmp	r3, #0
 8004f22:	d10f      	bne.n	8004f44 <HAL_SPI_Receive+0x60>
  {
    hspi->State = HAL_SPI_STATE_BUSY_RX;
 8004f24:	68fb      	ldr	r3, [r7, #12]
 8004f26:	225d      	movs	r2, #93	@ 0x5d
 8004f28:	2104      	movs	r1, #4
 8004f2a:	5499      	strb	r1, [r3, r2]
    /* Call transmit-receive function to send Dummy data on Tx line and generate clock on CLK line */
    return HAL_SPI_TransmitReceive(hspi, pData, pData, Size, Timeout);
 8004f2c:	1dbb      	adds	r3, r7, #6
 8004f2e:	881c      	ldrh	r4, [r3, #0]
 8004f30:	68ba      	ldr	r2, [r7, #8]
 8004f32:	68b9      	ldr	r1, [r7, #8]
 8004f34:	68f8      	ldr	r0, [r7, #12]
 8004f36:	683b      	ldr	r3, [r7, #0]
 8004f38:	9300      	str	r3, [sp, #0]
 8004f3a:	0023      	movs	r3, r4
 8004f3c:	f000 f924 	bl	8005188 <HAL_SPI_TransmitReceive>
 8004f40:	0003      	movs	r3, r0
 8004f42:	e118      	b.n	8005176 <HAL_SPI_Receive+0x292>
  }

  /* Process Locked */
  __HAL_LOCK(hspi);
 8004f44:	68fb      	ldr	r3, [r7, #12]
 8004f46:	225c      	movs	r2, #92	@ 0x5c
 8004f48:	5c9b      	ldrb	r3, [r3, r2]
 8004f4a:	2b01      	cmp	r3, #1
 8004f4c:	d101      	bne.n	8004f52 <HAL_SPI_Receive+0x6e>
 8004f4e:	2302      	movs	r3, #2
 8004f50:	e111      	b.n	8005176 <HAL_SPI_Receive+0x292>
 8004f52:	68fb      	ldr	r3, [r7, #12]
 8004f54:	225c      	movs	r2, #92	@ 0x5c
 8004f56:	2101      	movs	r1, #1
 8004f58:	5499      	strb	r1, [r3, r2]

  /* Init tickstart for timeout management*/
  tickstart = HAL_GetTick();
 8004f5a:	f7ff f80f 	bl	8003f7c <HAL_GetTick>
 8004f5e:	0003      	movs	r3, r0
 8004f60:	613b      	str	r3, [r7, #16]

  if ((pData == NULL) || (Size == 0U))
 8004f62:	68bb      	ldr	r3, [r7, #8]
 8004f64:	2b00      	cmp	r3, #0
 8004f66:	d003      	beq.n	8004f70 <HAL_SPI_Receive+0x8c>
 8004f68:	1dbb      	adds	r3, r7, #6
 8004f6a:	881b      	ldrh	r3, [r3, #0]
 8004f6c:	2b00      	cmp	r3, #0
 8004f6e:	d104      	bne.n	8004f7a <HAL_SPI_Receive+0x96>
  {
    errorcode = HAL_ERROR;
 8004f70:	2317      	movs	r3, #23
 8004f72:	18fb      	adds	r3, r7, r3
 8004f74:	2201      	movs	r2, #1
 8004f76:	701a      	strb	r2, [r3, #0]
    goto error;
 8004f78:	e0f6      	b.n	8005168 <HAL_SPI_Receive+0x284>
  }

  /* Set the transaction information */
  hspi->State       = HAL_SPI_STATE_BUSY_RX;
 8004f7a:	68fb      	ldr	r3, [r7, #12]
 8004f7c:	225d      	movs	r2, #93	@ 0x5d
 8004f7e:	2104      	movs	r1, #4
 8004f80:	5499      	strb	r1, [r3, r2]
  hspi->ErrorCode   = HAL_SPI_ERROR_NONE;
 8004f82:	68fb      	ldr	r3, [r7, #12]
 8004f84:	2200      	movs	r2, #0
 8004f86:	661a      	str	r2, [r3, #96]	@ 0x60
  hspi->pRxBuffPtr  = (uint8_t *)pData;
 8004f88:	68fb      	ldr	r3, [r7, #12]
 8004f8a:	68ba      	ldr	r2, [r7, #8]
 8004f8c:	641a      	str	r2, [r3, #64]	@ 0x40
  hspi->RxXferSize  = Size;
 8004f8e:	68fb      	ldr	r3, [r7, #12]
 8004f90:	1dba      	adds	r2, r7, #6
 8004f92:	2144      	movs	r1, #68	@ 0x44
 8004f94:	8812      	ldrh	r2, [r2, #0]
 8004f96:	525a      	strh	r2, [r3, r1]
  hspi->RxXferCount = Size;
 8004f98:	68fb      	ldr	r3, [r7, #12]
 8004f9a:	1dba      	adds	r2, r7, #6
 8004f9c:	2146      	movs	r1, #70	@ 0x46
 8004f9e:	8812      	ldrh	r2, [r2, #0]
 8004fa0:	525a      	strh	r2, [r3, r1]

  /*Init field not used in handle to zero */
  hspi->pTxBuffPtr  = (uint8_t *)NULL;
 8004fa2:	68fb      	ldr	r3, [r7, #12]
 8004fa4:	2200      	movs	r2, #0
 8004fa6:	639a      	str	r2, [r3, #56]	@ 0x38
  hspi->TxXferSize  = 0U;
 8004fa8:	68fb      	ldr	r3, [r7, #12]
 8004faa:	2200      	movs	r2, #0
 8004fac:	879a      	strh	r2, [r3, #60]	@ 0x3c
  hspi->TxXferCount = 0U;
 8004fae:	68fb      	ldr	r3, [r7, #12]
 8004fb0:	2200      	movs	r2, #0
 8004fb2:	87da      	strh	r2, [r3, #62]	@ 0x3e
  hspi->RxISR       = NULL;
 8004fb4:	68fb      	ldr	r3, [r7, #12]
 8004fb6:	2200      	movs	r2, #0
 8004fb8:	64da      	str	r2, [r3, #76]	@ 0x4c
  hspi->TxISR       = NULL;
 8004fba:	68fb      	ldr	r3, [r7, #12]
 8004fbc:	2200      	movs	r2, #0
 8004fbe:	651a      	str	r2, [r3, #80]	@ 0x50
    hspi->RxXferCount--;
  }
#endif /* USE_SPI_CRC */

  /* Set the Rx Fifo threshold */
  if (hspi->Init.DataSize > SPI_DATASIZE_8BIT)
 8004fc0:	68fb      	ldr	r3, [r7, #12]
 8004fc2:	68da      	ldr	r2, [r3, #12]
 8004fc4:	23e0      	movs	r3, #224	@ 0xe0
 8004fc6:	00db      	lsls	r3, r3, #3
 8004fc8:	429a      	cmp	r2, r3
 8004fca:	d908      	bls.n	8004fde <HAL_SPI_Receive+0xfa>
  {
    /* Set RX Fifo threshold according the reception data length: 16bit */
    CLEAR_BIT(hspi->Instance->CR2, SPI_RXFIFO_THRESHOLD);
 8004fcc:	68fb      	ldr	r3, [r7, #12]
 8004fce:	681b      	ldr	r3, [r3, #0]
 8004fd0:	685a      	ldr	r2, [r3, #4]
 8004fd2:	68fb      	ldr	r3, [r7, #12]
 8004fd4:	681b      	ldr	r3, [r3, #0]
 8004fd6:	496a      	ldr	r1, [pc, #424]	@ (8005180 <HAL_SPI_Receive+0x29c>)
 8004fd8:	400a      	ands	r2, r1
 8004fda:	605a      	str	r2, [r3, #4]
 8004fdc:	e008      	b.n	8004ff0 <HAL_SPI_Receive+0x10c>
  }
  else
  {
    /* Set RX Fifo threshold according the reception data length: 8bit */
    SET_BIT(hspi->Instance->CR2, SPI_RXFIFO_THRESHOLD);
 8004fde:	68fb      	ldr	r3, [r7, #12]
 8004fe0:	681b      	ldr	r3, [r3, #0]
 8004fe2:	685a      	ldr	r2, [r3, #4]
 8004fe4:	68fb      	ldr	r3, [r7, #12]
 8004fe6:	681b      	ldr	r3, [r3, #0]
 8004fe8:	2180      	movs	r1, #128	@ 0x80
 8004fea:	0149      	lsls	r1, r1, #5
 8004fec:	430a      	orrs	r2, r1
 8004fee:	605a      	str	r2, [r3, #4]
  }

  /* Configure communication direction: 1Line */
  if (hspi->Init.Direction == SPI_DIRECTION_1LINE)
 8004ff0:	68fb      	ldr	r3, [r7, #12]
 8004ff2:	689a      	ldr	r2, [r3, #8]
 8004ff4:	2380      	movs	r3, #128	@ 0x80
 8004ff6:	021b      	lsls	r3, r3, #8
 8004ff8:	429a      	cmp	r2, r3
 8004ffa:	d10f      	bne.n	800501c <HAL_SPI_Receive+0x138>
  {
    /* Disable SPI Peripheral before set 1Line direction (BIDIOE bit) */
    __HAL_SPI_DISABLE(hspi);
 8004ffc:	68fb      	ldr	r3, [r7, #12]
 8004ffe:	681b      	ldr	r3, [r3, #0]
 8005000:	681a      	ldr	r2, [r3, #0]
 8005002:	68fb      	ldr	r3, [r7, #12]
 8005004:	681b      	ldr	r3, [r3, #0]
 8005006:	2140      	movs	r1, #64	@ 0x40
 8005008:	438a      	bics	r2, r1
 800500a:	601a      	str	r2, [r3, #0]
    SPI_1LINE_RX(hspi);
 800500c:	68fb      	ldr	r3, [r7, #12]
 800500e:	681b      	ldr	r3, [r3, #0]
 8005010:	681a      	ldr	r2, [r3, #0]
 8005012:	68fb      	ldr	r3, [r7, #12]
 8005014:	681b      	ldr	r3, [r3, #0]
 8005016:	495b      	ldr	r1, [pc, #364]	@ (8005184 <HAL_SPI_Receive+0x2a0>)
 8005018:	400a      	ands	r2, r1
 800501a:	601a      	str	r2, [r3, #0]
  }

  /* Check if the SPI is already enabled */
  if ((hspi->Instance->CR1 & SPI_CR1_SPE) != SPI_CR1_SPE)
 800501c:	68fb      	ldr	r3, [r7, #12]
 800501e:	681b      	ldr	r3, [r3, #0]
 8005020:	681b      	ldr	r3, [r3, #0]
 8005022:	2240      	movs	r2, #64	@ 0x40
 8005024:	4013      	ands	r3, r2
 8005026:	2b40      	cmp	r3, #64	@ 0x40
 8005028:	d007      	beq.n	800503a <HAL_SPI_Receive+0x156>
  {
    /* Enable SPI peripheral */
    __HAL_SPI_ENABLE(hspi);
 800502a:	68fb      	ldr	r3, [r7, #12]
 800502c:	681b      	ldr	r3, [r3, #0]
 800502e:	681a      	ldr	r2, [r3, #0]
 8005030:	68fb      	ldr	r3, [r7, #12]
 8005032:	681b      	ldr	r3, [r3, #0]
 8005034:	2140      	movs	r1, #64	@ 0x40
 8005036:	430a      	orrs	r2, r1
 8005038:	601a      	str	r2, [r3, #0]
  }

  /* Receive data in 8 Bit mode */
  if (hspi->Init.DataSize <= SPI_DATASIZE_8BIT)
 800503a:	68fb      	ldr	r3, [r7, #12]
 800503c:	68da      	ldr	r2, [r3, #12]
 800503e:	23e0      	movs	r3, #224	@ 0xe0
 8005040:	00db      	lsls	r3, r3, #3
 8005042:	429a      	cmp	r2, r3
 8005044:	d900      	bls.n	8005048 <HAL_SPI_Receive+0x164>
 8005046:	e071      	b.n	800512c <HAL_SPI_Receive+0x248>
  {
    /* Transfer loop */
    while (hspi->RxXferCount > 0U)
 8005048:	e035      	b.n	80050b6 <HAL_SPI_Receive+0x1d2>
    {
      /* Check the RXNE flag */
      if (__HAL_SPI_GET_FLAG(hspi, SPI_FLAG_RXNE))
 800504a:	68fb      	ldr	r3, [r7, #12]
 800504c:	681b      	ldr	r3, [r3, #0]
 800504e:	689b      	ldr	r3, [r3, #8]
 8005050:	2201      	movs	r2, #1
 8005052:	4013      	ands	r3, r2
 8005054:	2b01      	cmp	r3, #1
 8005056:	d117      	bne.n	8005088 <HAL_SPI_Receive+0x1a4>
      {
        /* read the received data */
        (* (uint8_t *)hspi->pRxBuffPtr) = *(__IO uint8_t *)&hspi->Instance->DR;
 8005058:	68fb      	ldr	r3, [r7, #12]
 800505a:	681b      	ldr	r3, [r3, #0]
 800505c:	330c      	adds	r3, #12
 800505e:	001a      	movs	r2, r3
 8005060:	68fb      	ldr	r3, [r7, #12]
 8005062:	6c1b      	ldr	r3, [r3, #64]	@ 0x40
 8005064:	7812      	ldrb	r2, [r2, #0]
 8005066:	b2d2      	uxtb	r2, r2
 8005068:	701a      	strb	r2, [r3, #0]
        hspi->pRxBuffPtr += sizeof(uint8_t);
 800506a:	68fb      	ldr	r3, [r7, #12]
 800506c:	6c1b      	ldr	r3, [r3, #64]	@ 0x40
 800506e:	1c5a      	adds	r2, r3, #1
 8005070:	68fb      	ldr	r3, [r7, #12]
 8005072:	641a      	str	r2, [r3, #64]	@ 0x40
        hspi->RxXferCount--;
 8005074:	68fb      	ldr	r3, [r7, #12]
 8005076:	2246      	movs	r2, #70	@ 0x46
 8005078:	5a9b      	ldrh	r3, [r3, r2]
 800507a:	b29b      	uxth	r3, r3
 800507c:	3b01      	subs	r3, #1
 800507e:	b299      	uxth	r1, r3
 8005080:	68fb      	ldr	r3, [r7, #12]
 8005082:	2246      	movs	r2, #70	@ 0x46
 8005084:	5299      	strh	r1, [r3, r2]
 8005086:	e016      	b.n	80050b6 <HAL_SPI_Receive+0x1d2>
      }
      else
      {
        /* Timeout management */
        if ((((HAL_GetTick() - tickstart) >=  Timeout) && (Timeout != HAL_MAX_DELAY)) || (Timeout == 0U))
 8005088:	f7fe ff78 	bl	8003f7c <HAL_GetTick>
 800508c:	0002      	movs	r2, r0
 800508e:	693b      	ldr	r3, [r7, #16]
 8005090:	1ad3      	subs	r3, r2, r3
 8005092:	683a      	ldr	r2, [r7, #0]
 8005094:	429a      	cmp	r2, r3
 8005096:	d802      	bhi.n	800509e <HAL_SPI_Receive+0x1ba>
 8005098:	683b      	ldr	r3, [r7, #0]
 800509a:	3301      	adds	r3, #1
 800509c:	d102      	bne.n	80050a4 <HAL_SPI_Receive+0x1c0>
 800509e:	683b      	ldr	r3, [r7, #0]
 80050a0:	2b00      	cmp	r3, #0
 80050a2:	d108      	bne.n	80050b6 <HAL_SPI_Receive+0x1d2>
        {
          errorcode = HAL_TIMEOUT;
 80050a4:	2317      	movs	r3, #23
 80050a6:	18fb      	adds	r3, r7, r3
 80050a8:	2203      	movs	r2, #3
 80050aa:	701a      	strb	r2, [r3, #0]
          hspi->State = HAL_SPI_STATE_READY;
 80050ac:	68fb      	ldr	r3, [r7, #12]
 80050ae:	225d      	movs	r2, #93	@ 0x5d
 80050b0:	2101      	movs	r1, #1
 80050b2:	5499      	strb	r1, [r3, r2]
          goto error;
 80050b4:	e058      	b.n	8005168 <HAL_SPI_Receive+0x284>
    while (hspi->RxXferCount > 0U)
 80050b6:	68fb      	ldr	r3, [r7, #12]
 80050b8:	2246      	movs	r2, #70	@ 0x46
 80050ba:	5a9b      	ldrh	r3, [r3, r2]
 80050bc:	b29b      	uxth	r3, r3
 80050be:	2b00      	cmp	r3, #0
 80050c0:	d1c3      	bne.n	800504a <HAL_SPI_Receive+0x166>
 80050c2:	e039      	b.n	8005138 <HAL_SPI_Receive+0x254>
  {
    /* Transfer loop */
    while (hspi->RxXferCount > 0U)
    {
      /* Check the RXNE flag */
      if (__HAL_SPI_GET_FLAG(hspi, SPI_FLAG_RXNE))
 80050c4:	68fb      	ldr	r3, [r7, #12]
 80050c6:	681b      	ldr	r3, [r3, #0]
 80050c8:	689b      	ldr	r3, [r3, #8]
 80050ca:	2201      	movs	r2, #1
 80050cc:	4013      	ands	r3, r2
 80050ce:	2b01      	cmp	r3, #1
 80050d0:	d115      	bne.n	80050fe <HAL_SPI_Receive+0x21a>
      {
        *((uint16_t *)hspi->pRxBuffPtr) = (uint16_t)hspi->Instance->DR;
 80050d2:	68fb      	ldr	r3, [r7, #12]
 80050d4:	681b      	ldr	r3, [r3, #0]
 80050d6:	68da      	ldr	r2, [r3, #12]
 80050d8:	68fb      	ldr	r3, [r7, #12]
 80050da:	6c1b      	ldr	r3, [r3, #64]	@ 0x40
 80050dc:	b292      	uxth	r2, r2
 80050de:	801a      	strh	r2, [r3, #0]
        hspi->pRxBuffPtr += sizeof(uint16_t);
 80050e0:	68fb      	ldr	r3, [r7, #12]
 80050e2:	6c1b      	ldr	r3, [r3, #64]	@ 0x40
 80050e4:	1c9a      	adds	r2, r3, #2
 80050e6:	68fb      	ldr	r3, [r7, #12]
 80050e8:	641a      	str	r2, [r3, #64]	@ 0x40
        hspi->RxXferCount--;
 80050ea:	68fb      	ldr	r3, [r7, #12]
 80050ec:	2246      	movs	r2, #70	@ 0x46
 80050ee:	5a9b      	ldrh	r3, [r3, r2]
 80050f0:	b29b      	uxth	r3, r3
 80050f2:	3b01      	subs	r3, #1
 80050f4:	b299      	uxth	r1, r3
 80050f6:	68fb      	ldr	r3, [r7, #12]
 80050f8:	2246      	movs	r2, #70	@ 0x46
 80050fa:	5299      	strh	r1, [r3, r2]
 80050fc:	e016      	b.n	800512c <HAL_SPI_Receive+0x248>
      }
      else
      {
        /* Timeout management */
        if ((((HAL_GetTick() - tickstart) >=  Timeout) && (Timeout != HAL_MAX_DELAY)) || (Timeout == 0U))
 80050fe:	f7fe ff3d 	bl	8003f7c <HAL_GetTick>
 8005102:	0002      	movs	r2, r0
 8005104:	693b      	ldr	r3, [r7, #16]
 8005106:	1ad3      	subs	r3, r2, r3
 8005108:	683a      	ldr	r2, [r7, #0]
 800510a:	429a      	cmp	r2, r3
 800510c:	d802      	bhi.n	8005114 <HAL_SPI_Receive+0x230>
 800510e:	683b      	ldr	r3, [r7, #0]
 8005110:	3301      	adds	r3, #1
 8005112:	d102      	bne.n	800511a <HAL_SPI_Receive+0x236>
 8005114:	683b      	ldr	r3, [r7, #0]
 8005116:	2b00      	cmp	r3, #0
 8005118:	d108      	bne.n	800512c <HAL_SPI_Receive+0x248>
        {
          errorcode = HAL_TIMEOUT;
 800511a:	2317      	movs	r3, #23
 800511c:	18fb      	adds	r3, r7, r3
 800511e:	2203      	movs	r2, #3
 8005120:	701a      	strb	r2, [r3, #0]
          hspi->State = HAL_SPI_STATE_READY;
 8005122:	68fb      	ldr	r3, [r7, #12]
 8005124:	225d      	movs	r2, #93	@ 0x5d
 8005126:	2101      	movs	r1, #1
 8005128:	5499      	strb	r1, [r3, r2]
          goto error;
 800512a:	e01d      	b.n	8005168 <HAL_SPI_Receive+0x284>
    while (hspi->RxXferCount > 0U)
 800512c:	68fb      	ldr	r3, [r7, #12]
 800512e:	2246      	movs	r2, #70	@ 0x46
 8005130:	5a9b      	ldrh	r3, [r3, r2]
 8005132:	b29b      	uxth	r3, r3
 8005134:	2b00      	cmp	r3, #0
 8005136:	d1c5      	bne.n	80050c4 <HAL_SPI_Receive+0x1e0>
    }
  }
#endif /* USE_SPI_CRC */

  /* Check the end of the transaction */
  if (SPI_EndRxTransaction(hspi, Timeout, tickstart) != HAL_OK)
 8005138:	693a      	ldr	r2, [r7, #16]
 800513a:	6839      	ldr	r1, [r7, #0]
 800513c:	68fb      	ldr	r3, [r7, #12]
 800513e:	0018      	movs	r0, r3
 8005140:	f000 fb34 	bl	80057ac <SPI_EndRxTransaction>
 8005144:	1e03      	subs	r3, r0, #0
 8005146:	d002      	beq.n	800514e <HAL_SPI_Receive+0x26a>
  {
    hspi->ErrorCode = HAL_SPI_ERROR_FLAG;
 8005148:	68fb      	ldr	r3, [r7, #12]
 800514a:	2220      	movs	r2, #32
 800514c:	661a      	str	r2, [r3, #96]	@ 0x60
    SET_BIT(hspi->ErrorCode, HAL_SPI_ERROR_CRC);
    __HAL_SPI_CLEAR_CRCERRFLAG(hspi);
  }
#endif /* USE_SPI_CRC */

  if (hspi->ErrorCode != HAL_SPI_ERROR_NONE)
 800514e:	68fb      	ldr	r3, [r7, #12]
 8005150:	6e1b      	ldr	r3, [r3, #96]	@ 0x60
 8005152:	2b00      	cmp	r3, #0
 8005154:	d004      	beq.n	8005160 <HAL_SPI_Receive+0x27c>
  {
    errorcode = HAL_ERROR;
 8005156:	2317      	movs	r3, #23
 8005158:	18fb      	adds	r3, r7, r3
 800515a:	2201      	movs	r2, #1
 800515c:	701a      	strb	r2, [r3, #0]
 800515e:	e003      	b.n	8005168 <HAL_SPI_Receive+0x284>
  }
  else
  {
    hspi->State = HAL_SPI_STATE_READY;
 8005160:	68fb      	ldr	r3, [r7, #12]
 8005162:	225d      	movs	r2, #93	@ 0x5d
 8005164:	2101      	movs	r1, #1
 8005166:	5499      	strb	r1, [r3, r2]
  }

error :
  __HAL_UNLOCK(hspi);
 8005168:	68fb      	ldr	r3, [r7, #12]
 800516a:	225c      	movs	r2, #92	@ 0x5c
 800516c:	2100      	movs	r1, #0
 800516e:	5499      	strb	r1, [r3, r2]
  return errorcode;
 8005170:	2317      	movs	r3, #23
 8005172:	18fb      	adds	r3, r7, r3
 8005174:	781b      	ldrb	r3, [r3, #0]
}
 8005176:	0018      	movs	r0, r3
 8005178:	46bd      	mov	sp, r7
 800517a:	b007      	add	sp, #28
 800517c:	bd90      	pop	{r4, r7, pc}
 800517e:	46c0      	nop			@ (mov r8, r8)
 8005180:	ffffefff 	.word	0xffffefff
 8005184:	ffffbfff 	.word	0xffffbfff

08005188 <HAL_SPI_TransmitReceive>:
  * @param  Timeout Timeout duration
  * @retval HAL status
  */
HAL_StatusTypeDef HAL_SPI_TransmitReceive(SPI_HandleTypeDef *hspi, uint8_t *pTxData, uint8_t *pRxData, uint16_t Size,
                                          uint32_t Timeout)
{
 8005188:	b580      	push	{r7, lr}
 800518a:	b08a      	sub	sp, #40	@ 0x28
 800518c:	af00      	add	r7, sp, #0
 800518e:	60f8      	str	r0, [r7, #12]
 8005190:	60b9      	str	r1, [r7, #8]
 8005192:	607a      	str	r2, [r7, #4]
 8005194:	001a      	movs	r2, r3
 8005196:	1cbb      	adds	r3, r7, #2
 8005198:	801a      	strh	r2, [r3, #0]
  __IO uint8_t  *ptmpreg8;
  __IO uint8_t  tmpreg8 = 0;
#endif /* USE_SPI_CRC */

  /* Variable used to alternate Rx and Tx during transfer */
  uint32_t             txallowed = 1U;
 800519a:	2301      	movs	r3, #1
 800519c:	627b      	str	r3, [r7, #36]	@ 0x24
  HAL_StatusTypeDef    errorcode = HAL_OK;
 800519e:	2323      	movs	r3, #35	@ 0x23
 80051a0:	18fb      	adds	r3, r7, r3
 80051a2:	2200      	movs	r2, #0
 80051a4:	701a      	strb	r2, [r3, #0]

  /* Check Direction parameter */
  assert_param(IS_SPI_DIRECTION_2LINES(hspi->Init.Direction));

  /* Process Locked */
  __HAL_LOCK(hspi);
 80051a6:	68fb      	ldr	r3, [r7, #12]
 80051a8:	225c      	movs	r2, #92	@ 0x5c
 80051aa:	5c9b      	ldrb	r3, [r3, r2]
 80051ac:	2b01      	cmp	r3, #1
 80051ae:	d101      	bne.n	80051b4 <HAL_SPI_TransmitReceive+0x2c>
 80051b0:	2302      	movs	r3, #2
 80051b2:	e1c4      	b.n	800553e <HAL_SPI_TransmitReceive+0x3b6>
 80051b4:	68fb      	ldr	r3, [r7, #12]
 80051b6:	225c      	movs	r2, #92	@ 0x5c
 80051b8:	2101      	movs	r1, #1
 80051ba:	5499      	strb	r1, [r3, r2]

  /* Init tickstart for timeout management*/
  tickstart = HAL_GetTick();
 80051bc:	f7fe fede 	bl	8003f7c <HAL_GetTick>
 80051c0:	0003      	movs	r3, r0
 80051c2:	61fb      	str	r3, [r7, #28]

  /* Init temporary variables */
  tmp_state           = hspi->State;
 80051c4:	201b      	movs	r0, #27
 80051c6:	183b      	adds	r3, r7, r0
 80051c8:	68fa      	ldr	r2, [r7, #12]
 80051ca:	215d      	movs	r1, #93	@ 0x5d
 80051cc:	5c52      	ldrb	r2, [r2, r1]
 80051ce:	701a      	strb	r2, [r3, #0]
  tmp_mode            = hspi->Init.Mode;
 80051d0:	68fb      	ldr	r3, [r7, #12]
 80051d2:	685b      	ldr	r3, [r3, #4]
 80051d4:	617b      	str	r3, [r7, #20]
  initial_TxXferCount = Size;
 80051d6:	2312      	movs	r3, #18
 80051d8:	18fb      	adds	r3, r7, r3
 80051da:	1cba      	adds	r2, r7, #2
 80051dc:	8812      	ldrh	r2, [r2, #0]
 80051de:	801a      	strh	r2, [r3, #0]
#if (USE_SPI_CRC != 0U)
  spi_cr1             = READ_REG(hspi->Instance->CR1);
  spi_cr2             = READ_REG(hspi->Instance->CR2);
#endif /* USE_SPI_CRC */

  if (!((tmp_state == HAL_SPI_STATE_READY) || \
 80051e0:	183b      	adds	r3, r7, r0
 80051e2:	781b      	ldrb	r3, [r3, #0]
 80051e4:	2b01      	cmp	r3, #1
 80051e6:	d011      	beq.n	800520c <HAL_SPI_TransmitReceive+0x84>
 80051e8:	697a      	ldr	r2, [r7, #20]
 80051ea:	2382      	movs	r3, #130	@ 0x82
 80051ec:	005b      	lsls	r3, r3, #1
 80051ee:	429a      	cmp	r2, r3
 80051f0:	d107      	bne.n	8005202 <HAL_SPI_TransmitReceive+0x7a>
        ((tmp_mode == SPI_MODE_MASTER) && (hspi->Init.Direction == SPI_DIRECTION_2LINES) && (tmp_state == HAL_SPI_STATE_BUSY_RX))))
 80051f2:	68fb      	ldr	r3, [r7, #12]
 80051f4:	689b      	ldr	r3, [r3, #8]
 80051f6:	2b00      	cmp	r3, #0
 80051f8:	d103      	bne.n	8005202 <HAL_SPI_TransmitReceive+0x7a>
 80051fa:	183b      	adds	r3, r7, r0
 80051fc:	781b      	ldrb	r3, [r3, #0]
 80051fe:	2b04      	cmp	r3, #4
 8005200:	d004      	beq.n	800520c <HAL_SPI_TransmitReceive+0x84>
  {
    errorcode = HAL_BUSY;
 8005202:	2323      	movs	r3, #35	@ 0x23
 8005204:	18fb      	adds	r3, r7, r3
 8005206:	2202      	movs	r2, #2
 8005208:	701a      	strb	r2, [r3, #0]
    goto error;
 800520a:	e191      	b.n	8005530 <HAL_SPI_TransmitReceive+0x3a8>
  }

  if ((pTxData == NULL) || (pRxData == NULL) || (Size == 0U))
 800520c:	68bb      	ldr	r3, [r7, #8]
 800520e:	2b00      	cmp	r3, #0
 8005210:	d006      	beq.n	8005220 <HAL_SPI_TransmitReceive+0x98>
 8005212:	687b      	ldr	r3, [r7, #4]
 8005214:	2b00      	cmp	r3, #0
 8005216:	d003      	beq.n	8005220 <HAL_SPI_TransmitReceive+0x98>
 8005218:	1cbb      	adds	r3, r7, #2
 800521a:	881b      	ldrh	r3, [r3, #0]
 800521c:	2b00      	cmp	r3, #0
 800521e:	d104      	bne.n	800522a <HAL_SPI_TransmitReceive+0xa2>
  {
    errorcode = HAL_ERROR;
 8005220:	2323      	movs	r3, #35	@ 0x23
 8005222:	18fb      	adds	r3, r7, r3
 8005224:	2201      	movs	r2, #1
 8005226:	701a      	strb	r2, [r3, #0]
    goto error;
 8005228:	e182      	b.n	8005530 <HAL_SPI_TransmitReceive+0x3a8>
  }

  /* Don't overwrite in case of HAL_SPI_STATE_BUSY_RX */
  if (hspi->State != HAL_SPI_STATE_BUSY_RX)
 800522a:	68fb      	ldr	r3, [r7, #12]
 800522c:	225d      	movs	r2, #93	@ 0x5d
 800522e:	5c9b      	ldrb	r3, [r3, r2]
 8005230:	b2db      	uxtb	r3, r3
 8005232:	2b04      	cmp	r3, #4
 8005234:	d003      	beq.n	800523e <HAL_SPI_TransmitReceive+0xb6>
  {
    hspi->State = HAL_SPI_STATE_BUSY_TX_RX;
 8005236:	68fb      	ldr	r3, [r7, #12]
 8005238:	225d      	movs	r2, #93	@ 0x5d
 800523a:	2105      	movs	r1, #5
 800523c:	5499      	strb	r1, [r3, r2]
  }

  /* Set the transaction information */
  hspi->ErrorCode   = HAL_SPI_ERROR_NONE;
 800523e:	68fb      	ldr	r3, [r7, #12]
 8005240:	2200      	movs	r2, #0
 8005242:	661a      	str	r2, [r3, #96]	@ 0x60
  hspi->pRxBuffPtr  = (uint8_t *)pRxData;
 8005244:	68fb      	ldr	r3, [r7, #12]
 8005246:	687a      	ldr	r2, [r7, #4]
 8005248:	641a      	str	r2, [r3, #64]	@ 0x40
  hspi->RxXferCount = Size;
 800524a:	68fb      	ldr	r3, [r7, #12]
 800524c:	1cba      	adds	r2, r7, #2
 800524e:	2146      	movs	r1, #70	@ 0x46
 8005250:	8812      	ldrh	r2, [r2, #0]
 8005252:	525a      	strh	r2, [r3, r1]
  hspi->RxXferSize  = Size;
 8005254:	68fb      	ldr	r3, [r7, #12]
 8005256:	1cba      	adds	r2, r7, #2
 8005258:	2144      	movs	r1, #68	@ 0x44
 800525a:	8812      	ldrh	r2, [r2, #0]
 800525c:	525a      	strh	r2, [r3, r1]
  hspi->pTxBuffPtr  = (uint8_t *)pTxData;
 800525e:	68fb      	ldr	r3, [r7, #12]
 8005260:	68ba      	ldr	r2, [r7, #8]
 8005262:	639a      	str	r2, [r3, #56]	@ 0x38
  hspi->TxXferCount = Size;
 8005264:	68fb      	ldr	r3, [r7, #12]
 8005266:	1cba      	adds	r2, r7, #2
 8005268:	8812      	ldrh	r2, [r2, #0]
 800526a:	87da      	strh	r2, [r3, #62]	@ 0x3e
  hspi->TxXferSize  = Size;
 800526c:	68fb      	ldr	r3, [r7, #12]
 800526e:	1cba      	adds	r2, r7, #2
 8005270:	8812      	ldrh	r2, [r2, #0]
 8005272:	879a      	strh	r2, [r3, #60]	@ 0x3c

  /*Init field not used in handle to zero */
  hspi->RxISR       = NULL;
 8005274:	68fb      	ldr	r3, [r7, #12]
 8005276:	2200      	movs	r2, #0
 8005278:	64da      	str	r2, [r3, #76]	@ 0x4c
  hspi->TxISR       = NULL;
 800527a:	68fb      	ldr	r3, [r7, #12]
 800527c:	2200      	movs	r2, #0
 800527e:	651a      	str	r2, [r3, #80]	@ 0x50
    SPI_RESET_CRC(hspi);
  }
#endif /* USE_SPI_CRC */

  /* Set the Rx Fifo threshold */
  if (hspi->Init.DataSize > SPI_DATASIZE_8BIT)
 8005280:	68fb      	ldr	r3, [r7, #12]
 8005282:	68da      	ldr	r2, [r3, #12]
 8005284:	23e0      	movs	r3, #224	@ 0xe0
 8005286:	00db      	lsls	r3, r3, #3
 8005288:	429a      	cmp	r2, r3
 800528a:	d908      	bls.n	800529e <HAL_SPI_TransmitReceive+0x116>
  {
    /* Set fiforxthreshold according the reception data length: 16bit */
    CLEAR_BIT(hspi->Instance->CR2, SPI_RXFIFO_THRESHOLD);
 800528c:	68fb      	ldr	r3, [r7, #12]
 800528e:	681b      	ldr	r3, [r3, #0]
 8005290:	685a      	ldr	r2, [r3, #4]
 8005292:	68fb      	ldr	r3, [r7, #12]
 8005294:	681b      	ldr	r3, [r3, #0]
 8005296:	49ac      	ldr	r1, [pc, #688]	@ (8005548 <HAL_SPI_TransmitReceive+0x3c0>)
 8005298:	400a      	ands	r2, r1
 800529a:	605a      	str	r2, [r3, #4]
 800529c:	e008      	b.n	80052b0 <HAL_SPI_TransmitReceive+0x128>
  }
  else
  {
    /* Set fiforxthreshold according the reception data length: 8bit */
    SET_BIT(hspi->Instance->CR2, SPI_RXFIFO_THRESHOLD);
 800529e:	68fb      	ldr	r3, [r7, #12]
 80052a0:	681b      	ldr	r3, [r3, #0]
 80052a2:	685a      	ldr	r2, [r3, #4]
 80052a4:	68fb      	ldr	r3, [r7, #12]
 80052a6:	681b      	ldr	r3, [r3, #0]
 80052a8:	2180      	movs	r1, #128	@ 0x80
 80052aa:	0149      	lsls	r1, r1, #5
 80052ac:	430a      	orrs	r2, r1
 80052ae:	605a      	str	r2, [r3, #4]
  }

  /* Check if the SPI is already enabled */
  if ((hspi->Instance->CR1 & SPI_CR1_SPE) != SPI_CR1_SPE)
 80052b0:	68fb      	ldr	r3, [r7, #12]
 80052b2:	681b      	ldr	r3, [r3, #0]
 80052b4:	681b      	ldr	r3, [r3, #0]
 80052b6:	2240      	movs	r2, #64	@ 0x40
 80052b8:	4013      	ands	r3, r2
 80052ba:	2b40      	cmp	r3, #64	@ 0x40
 80052bc:	d007      	beq.n	80052ce <HAL_SPI_TransmitReceive+0x146>
  {
    /* Enable SPI peripheral */
    __HAL_SPI_ENABLE(hspi);
 80052be:	68fb      	ldr	r3, [r7, #12]
 80052c0:	681b      	ldr	r3, [r3, #0]
 80052c2:	681a      	ldr	r2, [r3, #0]
 80052c4:	68fb      	ldr	r3, [r7, #12]
 80052c6:	681b      	ldr	r3, [r3, #0]
 80052c8:	2140      	movs	r1, #64	@ 0x40
 80052ca:	430a      	orrs	r2, r1
 80052cc:	601a      	str	r2, [r3, #0]
  }

  /* Transmit and Receive data in 16 Bit mode */
  if (hspi->Init.DataSize > SPI_DATASIZE_8BIT)
 80052ce:	68fb      	ldr	r3, [r7, #12]
 80052d0:	68da      	ldr	r2, [r3, #12]
 80052d2:	23e0      	movs	r3, #224	@ 0xe0
 80052d4:	00db      	lsls	r3, r3, #3
 80052d6:	429a      	cmp	r2, r3
 80052d8:	d800      	bhi.n	80052dc <HAL_SPI_TransmitReceive+0x154>
 80052da:	e083      	b.n	80053e4 <HAL_SPI_TransmitReceive+0x25c>
  {
    if ((hspi->Init.Mode == SPI_MODE_SLAVE) || (initial_TxXferCount == 0x01U))
 80052dc:	68fb      	ldr	r3, [r7, #12]
 80052de:	685b      	ldr	r3, [r3, #4]
 80052e0:	2b00      	cmp	r3, #0
 80052e2:	d005      	beq.n	80052f0 <HAL_SPI_TransmitReceive+0x168>
 80052e4:	2312      	movs	r3, #18
 80052e6:	18fb      	adds	r3, r7, r3
 80052e8:	881b      	ldrh	r3, [r3, #0]
 80052ea:	2b01      	cmp	r3, #1
 80052ec:	d000      	beq.n	80052f0 <HAL_SPI_TransmitReceive+0x168>
 80052ee:	e06d      	b.n	80053cc <HAL_SPI_TransmitReceive+0x244>
    {
      hspi->Instance->DR = *((uint16_t *)hspi->pTxBuffPtr);
 80052f0:	68fb      	ldr	r3, [r7, #12]
 80052f2:	6b9b      	ldr	r3, [r3, #56]	@ 0x38
 80052f4:	881a      	ldrh	r2, [r3, #0]
 80052f6:	68fb      	ldr	r3, [r7, #12]
 80052f8:	681b      	ldr	r3, [r3, #0]
 80052fa:	60da      	str	r2, [r3, #12]
      hspi->pTxBuffPtr += sizeof(uint16_t);
 80052fc:	68fb      	ldr	r3, [r7, #12]
 80052fe:	6b9b      	ldr	r3, [r3, #56]	@ 0x38
 8005300:	1c9a      	adds	r2, r3, #2
 8005302:	68fb      	ldr	r3, [r7, #12]
 8005304:	639a      	str	r2, [r3, #56]	@ 0x38
      hspi->TxXferCount--;
 8005306:	68fb      	ldr	r3, [r7, #12]
 8005308:	8fdb      	ldrh	r3, [r3, #62]	@ 0x3e
 800530a:	b29b      	uxth	r3, r3
 800530c:	3b01      	subs	r3, #1
 800530e:	b29a      	uxth	r2, r3
 8005310:	68fb      	ldr	r3, [r7, #12]
 8005312:	87da      	strh	r2, [r3, #62]	@ 0x3e
        SET_BIT(hspi->Instance->CR1, SPI_CR1_CRCNEXT);
      }
#endif /* USE_SPI_CRC */

    }
    while ((hspi->TxXferCount > 0U) || (hspi->RxXferCount > 0U))
 8005314:	e05a      	b.n	80053cc <HAL_SPI_TransmitReceive+0x244>
    {
      /* Check TXE flag */
      if ((__HAL_SPI_GET_FLAG(hspi, SPI_FLAG_TXE)) && (hspi->TxXferCount > 0U) && (txallowed == 1U))
 8005316:	68fb      	ldr	r3, [r7, #12]
 8005318:	681b      	ldr	r3, [r3, #0]
 800531a:	689b      	ldr	r3, [r3, #8]
 800531c:	2202      	movs	r2, #2
 800531e:	4013      	ands	r3, r2
 8005320:	2b02      	cmp	r3, #2
 8005322:	d11b      	bne.n	800535c <HAL_SPI_TransmitReceive+0x1d4>
 8005324:	68fb      	ldr	r3, [r7, #12]
 8005326:	8fdb      	ldrh	r3, [r3, #62]	@ 0x3e
 8005328:	b29b      	uxth	r3, r3
 800532a:	2b00      	cmp	r3, #0
 800532c:	d016      	beq.n	800535c <HAL_SPI_TransmitReceive+0x1d4>
 800532e:	6a7b      	ldr	r3, [r7, #36]	@ 0x24
 8005330:	2b01      	cmp	r3, #1
 8005332:	d113      	bne.n	800535c <HAL_SPI_TransmitReceive+0x1d4>
      {
        hspi->Instance->DR = *((uint16_t *)hspi->pTxBuffPtr);
 8005334:	68fb      	ldr	r3, [r7, #12]
 8005336:	6b9b      	ldr	r3, [r3, #56]	@ 0x38
 8005338:	881a      	ldrh	r2, [r3, #0]
 800533a:	68fb      	ldr	r3, [r7, #12]
 800533c:	681b      	ldr	r3, [r3, #0]
 800533e:	60da      	str	r2, [r3, #12]
        hspi->pTxBuffPtr += sizeof(uint16_t);
 8005340:	68fb      	ldr	r3, [r7, #12]
 8005342:	6b9b      	ldr	r3, [r3, #56]	@ 0x38
 8005344:	1c9a      	adds	r2, r3, #2
 8005346:	68fb      	ldr	r3, [r7, #12]
 8005348:	639a      	str	r2, [r3, #56]	@ 0x38
        hspi->TxXferCount--;
 800534a:	68fb      	ldr	r3, [r7, #12]
 800534c:	8fdb      	ldrh	r3, [r3, #62]	@ 0x3e
 800534e:	b29b      	uxth	r3, r3
 8005350:	3b01      	subs	r3, #1
 8005352:	b29a      	uxth	r2, r3
 8005354:	68fb      	ldr	r3, [r7, #12]
 8005356:	87da      	strh	r2, [r3, #62]	@ 0x3e
        /* Next Data is a reception (Rx). Tx not allowed */
        txallowed = 0U;
 8005358:	2300      	movs	r3, #0
 800535a:	627b      	str	r3, [r7, #36]	@ 0x24
        }
#endif /* USE_SPI_CRC */
      }

      /* Check RXNE flag */
      if ((__HAL_SPI_GET_FLAG(hspi, SPI_FLAG_RXNE)) && (hspi->RxXferCount > 0U))
 800535c:	68fb      	ldr	r3, [r7, #12]
 800535e:	681b      	ldr	r3, [r3, #0]
 8005360:	689b      	ldr	r3, [r3, #8]
 8005362:	2201      	movs	r2, #1
 8005364:	4013      	ands	r3, r2
 8005366:	2b01      	cmp	r3, #1
 8005368:	d11c      	bne.n	80053a4 <HAL_SPI_TransmitReceive+0x21c>
 800536a:	68fb      	ldr	r3, [r7, #12]
 800536c:	2246      	movs	r2, #70	@ 0x46
 800536e:	5a9b      	ldrh	r3, [r3, r2]
 8005370:	b29b      	uxth	r3, r3
 8005372:	2b00      	cmp	r3, #0
 8005374:	d016      	beq.n	80053a4 <HAL_SPI_TransmitReceive+0x21c>
      {
        *((uint16_t *)hspi->pRxBuffPtr) = (uint16_t)hspi->Instance->DR;
 8005376:	68fb      	ldr	r3, [r7, #12]
 8005378:	681b      	ldr	r3, [r3, #0]
 800537a:	68da      	ldr	r2, [r3, #12]
 800537c:	68fb      	ldr	r3, [r7, #12]
 800537e:	6c1b      	ldr	r3, [r3, #64]	@ 0x40
 8005380:	b292      	uxth	r2, r2
 8005382:	801a      	strh	r2, [r3, #0]
        hspi->pRxBuffPtr += sizeof(uint16_t);
 8005384:	68fb      	ldr	r3, [r7, #12]
 8005386:	6c1b      	ldr	r3, [r3, #64]	@ 0x40
 8005388:	1c9a      	adds	r2, r3, #2
 800538a:	68fb      	ldr	r3, [r7, #12]
 800538c:	641a      	str	r2, [r3, #64]	@ 0x40
        hspi->RxXferCount--;
 800538e:	68fb      	ldr	r3, [r7, #12]
 8005390:	2246      	movs	r2, #70	@ 0x46
 8005392:	5a9b      	ldrh	r3, [r3, r2]
 8005394:	b29b      	uxth	r3, r3
 8005396:	3b01      	subs	r3, #1
 8005398:	b299      	uxth	r1, r3
 800539a:	68fb      	ldr	r3, [r7, #12]
 800539c:	2246      	movs	r2, #70	@ 0x46
 800539e:	5299      	strh	r1, [r3, r2]
        /* Next Data is a Transmission (Tx). Tx is allowed */
        txallowed = 1U;
 80053a0:	2301      	movs	r3, #1
 80053a2:	627b      	str	r3, [r7, #36]	@ 0x24
      }
      if (((HAL_GetTick() - tickstart) >=  Timeout) && (Timeout != HAL_MAX_DELAY))
 80053a4:	f7fe fdea 	bl	8003f7c <HAL_GetTick>
 80053a8:	0002      	movs	r2, r0
 80053aa:	69fb      	ldr	r3, [r7, #28]
 80053ac:	1ad3      	subs	r3, r2, r3
 80053ae:	6b3a      	ldr	r2, [r7, #48]	@ 0x30
 80053b0:	429a      	cmp	r2, r3
 80053b2:	d80b      	bhi.n	80053cc <HAL_SPI_TransmitReceive+0x244>
 80053b4:	6b3b      	ldr	r3, [r7, #48]	@ 0x30
 80053b6:	3301      	adds	r3, #1
 80053b8:	d008      	beq.n	80053cc <HAL_SPI_TransmitReceive+0x244>
      {
        errorcode = HAL_TIMEOUT;
 80053ba:	2323      	movs	r3, #35	@ 0x23
 80053bc:	18fb      	adds	r3, r7, r3
 80053be:	2203      	movs	r2, #3
 80053c0:	701a      	strb	r2, [r3, #0]
        hspi->State = HAL_SPI_STATE_READY;
 80053c2:	68fb      	ldr	r3, [r7, #12]
 80053c4:	225d      	movs	r2, #93	@ 0x5d
 80053c6:	2101      	movs	r1, #1
 80053c8:	5499      	strb	r1, [r3, r2]
        goto error;
 80053ca:	e0b1      	b.n	8005530 <HAL_SPI_TransmitReceive+0x3a8>
    while ((hspi->TxXferCount > 0U) || (hspi->RxXferCount > 0U))
 80053cc:	68fb      	ldr	r3, [r7, #12]
 80053ce:	8fdb      	ldrh	r3, [r3, #62]	@ 0x3e
 80053d0:	b29b      	uxth	r3, r3
 80053d2:	2b00      	cmp	r3, #0
 80053d4:	d19f      	bne.n	8005316 <HAL_SPI_TransmitReceive+0x18e>
 80053d6:	68fb      	ldr	r3, [r7, #12]
 80053d8:	2246      	movs	r2, #70	@ 0x46
 80053da:	5a9b      	ldrh	r3, [r3, r2]
 80053dc:	b29b      	uxth	r3, r3
 80053de:	2b00      	cmp	r3, #0
 80053e0:	d199      	bne.n	8005316 <HAL_SPI_TransmitReceive+0x18e>
 80053e2:	e089      	b.n	80054f8 <HAL_SPI_TransmitReceive+0x370>
    }
  }
  /* Transmit and Receive data in 8 Bit mode */
  else
  {
    if ((hspi->Init.Mode == SPI_MODE_SLAVE) || (initial_TxXferCount == 0x01U))
 80053e4:	68fb      	ldr	r3, [r7, #12]
 80053e6:	685b      	ldr	r3, [r3, #4]
 80053e8:	2b00      	cmp	r3, #0
 80053ea:	d005      	beq.n	80053f8 <HAL_SPI_TransmitReceive+0x270>
 80053ec:	2312      	movs	r3, #18
 80053ee:	18fb      	adds	r3, r7, r3
 80053f0:	881b      	ldrh	r3, [r3, #0]
 80053f2:	2b01      	cmp	r3, #1
 80053f4:	d000      	beq.n	80053f8 <HAL_SPI_TransmitReceive+0x270>
 80053f6:	e074      	b.n	80054e2 <HAL_SPI_TransmitReceive+0x35a>
    {
      *((__IO uint8_t *)&hspi->Instance->DR) = (*hspi->pTxBuffPtr);
 80053f8:	68fb      	ldr	r3, [r7, #12]
 80053fa:	6b9a      	ldr	r2, [r3, #56]	@ 0x38
 80053fc:	68fb      	ldr	r3, [r7, #12]
 80053fe:	681b      	ldr	r3, [r3, #0]
 8005400:	330c      	adds	r3, #12
 8005402:	7812      	ldrb	r2, [r2, #0]
 8005404:	701a      	strb	r2, [r3, #0]
      hspi->pTxBuffPtr += sizeof(uint8_t);
 8005406:	68fb      	ldr	r3, [r7, #12]
 8005408:	6b9b      	ldr	r3, [r3, #56]	@ 0x38
 800540a:	1c5a      	adds	r2, r3, #1
 800540c:	68fb      	ldr	r3, [r7, #12]
 800540e:	639a      	str	r2, [r3, #56]	@ 0x38
      hspi->TxXferCount--;
 8005410:	68fb      	ldr	r3, [r7, #12]
 8005412:	8fdb      	ldrh	r3, [r3, #62]	@ 0x3e
 8005414:	b29b      	uxth	r3, r3
 8005416:	3b01      	subs	r3, #1
 8005418:	b29a      	uxth	r2, r3
 800541a:	68fb      	ldr	r3, [r7, #12]
 800541c:	87da      	strh	r2, [r3, #62]	@ 0x3e
        }
        SET_BIT(hspi->Instance->CR1, SPI_CR1_CRCNEXT);
      }
#endif /* USE_SPI_CRC */
    }
    while ((hspi->TxXferCount > 0U) || (hspi->RxXferCount > 0U))
 800541e:	e060      	b.n	80054e2 <HAL_SPI_TransmitReceive+0x35a>
    {
      /* Check TXE flag */
      if ((__HAL_SPI_GET_FLAG(hspi, SPI_FLAG_TXE)) && (hspi->TxXferCount > 0U) && (txallowed == 1U))
 8005420:	68fb      	ldr	r3, [r7, #12]
 8005422:	681b      	ldr	r3, [r3, #0]
 8005424:	689b      	ldr	r3, [r3, #8]
 8005426:	2202      	movs	r2, #2
 8005428:	4013      	ands	r3, r2
 800542a:	2b02      	cmp	r3, #2
 800542c:	d11c      	bne.n	8005468 <HAL_SPI_TransmitReceive+0x2e0>
 800542e:	68fb      	ldr	r3, [r7, #12]
 8005430:	8fdb      	ldrh	r3, [r3, #62]	@ 0x3e
 8005432:	b29b      	uxth	r3, r3
 8005434:	2b00      	cmp	r3, #0
 8005436:	d017      	beq.n	8005468 <HAL_SPI_TransmitReceive+0x2e0>
 8005438:	6a7b      	ldr	r3, [r7, #36]	@ 0x24
 800543a:	2b01      	cmp	r3, #1
 800543c:	d114      	bne.n	8005468 <HAL_SPI_TransmitReceive+0x2e0>
      {
        *(__IO uint8_t *)&hspi->Instance->DR = (*hspi->pTxBuffPtr);
 800543e:	68fb      	ldr	r3, [r7, #12]
 8005440:	6b9a      	ldr	r2, [r3, #56]	@ 0x38
 8005442:	68fb      	ldr	r3, [r7, #12]
 8005444:	681b      	ldr	r3, [r3, #0]
 8005446:	330c      	adds	r3, #12
 8005448:	7812      	ldrb	r2, [r2, #0]
 800544a:	701a      	strb	r2, [r3, #0]
        hspi->pTxBuffPtr++;
 800544c:	68fb      	ldr	r3, [r7, #12]
 800544e:	6b9b      	ldr	r3, [r3, #56]	@ 0x38
 8005450:	1c5a      	adds	r2, r3, #1
 8005452:	68fb      	ldr	r3, [r7, #12]
 8005454:	639a      	str	r2, [r3, #56]	@ 0x38
        hspi->TxXferCount--;
 8005456:	68fb      	ldr	r3, [r7, #12]
 8005458:	8fdb      	ldrh	r3, [r3, #62]	@ 0x3e
 800545a:	b29b      	uxth	r3, r3
 800545c:	3b01      	subs	r3, #1
 800545e:	b29a      	uxth	r2, r3
 8005460:	68fb      	ldr	r3, [r7, #12]
 8005462:	87da      	strh	r2, [r3, #62]	@ 0x3e
        /* Next Data is a reception (Rx). Tx not allowed */
        txallowed = 0U;
 8005464:	2300      	movs	r3, #0
 8005466:	627b      	str	r3, [r7, #36]	@ 0x24
        }
#endif /* USE_SPI_CRC */
      }

      /* Wait until RXNE flag is reset */
      if ((__HAL_SPI_GET_FLAG(hspi, SPI_FLAG_RXNE)) && (hspi->RxXferCount > 0U))
 8005468:	68fb      	ldr	r3, [r7, #12]
 800546a:	681b      	ldr	r3, [r3, #0]
 800546c:	689b      	ldr	r3, [r3, #8]
 800546e:	2201      	movs	r2, #1
 8005470:	4013      	ands	r3, r2
 8005472:	2b01      	cmp	r3, #1
 8005474:	d11e      	bne.n	80054b4 <HAL_SPI_TransmitReceive+0x32c>
 8005476:	68fb      	ldr	r3, [r7, #12]
 8005478:	2246      	movs	r2, #70	@ 0x46
 800547a:	5a9b      	ldrh	r3, [r3, r2]
 800547c:	b29b      	uxth	r3, r3
 800547e:	2b00      	cmp	r3, #0
 8005480:	d018      	beq.n	80054b4 <HAL_SPI_TransmitReceive+0x32c>
      {
        (*(uint8_t *)hspi->pRxBuffPtr) = *(__IO uint8_t *)&hspi->Instance->DR;
 8005482:	68fb      	ldr	r3, [r7, #12]
 8005484:	681b      	ldr	r3, [r3, #0]
 8005486:	330c      	adds	r3, #12
 8005488:	001a      	movs	r2, r3
 800548a:	68fb      	ldr	r3, [r7, #12]
 800548c:	6c1b      	ldr	r3, [r3, #64]	@ 0x40
 800548e:	7812      	ldrb	r2, [r2, #0]
 8005490:	b2d2      	uxtb	r2, r2
 8005492:	701a      	strb	r2, [r3, #0]
        hspi->pRxBuffPtr++;
 8005494:	68fb      	ldr	r3, [r7, #12]
 8005496:	6c1b      	ldr	r3, [r3, #64]	@ 0x40
 8005498:	1c5a      	adds	r2, r3, #1
 800549a:	68fb      	ldr	r3, [r7, #12]
 800549c:	641a      	str	r2, [r3, #64]	@ 0x40
        hspi->RxXferCount--;
 800549e:	68fb      	ldr	r3, [r7, #12]
 80054a0:	2246      	movs	r2, #70	@ 0x46
 80054a2:	5a9b      	ldrh	r3, [r3, r2]
 80054a4:	b29b      	uxth	r3, r3
 80054a6:	3b01      	subs	r3, #1
 80054a8:	b299      	uxth	r1, r3
 80054aa:	68fb      	ldr	r3, [r7, #12]
 80054ac:	2246      	movs	r2, #70	@ 0x46
 80054ae:	5299      	strh	r1, [r3, r2]
        /* Next Data is a Transmission (Tx). Tx is allowed */
        txallowed = 1U;
 80054b0:	2301      	movs	r3, #1
 80054b2:	627b      	str	r3, [r7, #36]	@ 0x24
      }
      if ((((HAL_GetTick() - tickstart) >=  Timeout) && ((Timeout != HAL_MAX_DELAY))) || (Timeout == 0U))
 80054b4:	f7fe fd62 	bl	8003f7c <HAL_GetTick>
 80054b8:	0002      	movs	r2, r0
 80054ba:	69fb      	ldr	r3, [r7, #28]
 80054bc:	1ad3      	subs	r3, r2, r3
 80054be:	6b3a      	ldr	r2, [r7, #48]	@ 0x30
 80054c0:	429a      	cmp	r2, r3
 80054c2:	d802      	bhi.n	80054ca <HAL_SPI_TransmitReceive+0x342>
 80054c4:	6b3b      	ldr	r3, [r7, #48]	@ 0x30
 80054c6:	3301      	adds	r3, #1
 80054c8:	d102      	bne.n	80054d0 <HAL_SPI_TransmitReceive+0x348>
 80054ca:	6b3b      	ldr	r3, [r7, #48]	@ 0x30
 80054cc:	2b00      	cmp	r3, #0
 80054ce:	d108      	bne.n	80054e2 <HAL_SPI_TransmitReceive+0x35a>
      {
        errorcode = HAL_TIMEOUT;
 80054d0:	2323      	movs	r3, #35	@ 0x23
 80054d2:	18fb      	adds	r3, r7, r3
 80054d4:	2203      	movs	r2, #3
 80054d6:	701a      	strb	r2, [r3, #0]
        hspi->State = HAL_SPI_STATE_READY;
 80054d8:	68fb      	ldr	r3, [r7, #12]
 80054da:	225d      	movs	r2, #93	@ 0x5d
 80054dc:	2101      	movs	r1, #1
 80054de:	5499      	strb	r1, [r3, r2]
        goto error;
 80054e0:	e026      	b.n	8005530 <HAL_SPI_TransmitReceive+0x3a8>
    while ((hspi->TxXferCount > 0U) || (hspi->RxXferCount > 0U))
 80054e2:	68fb      	ldr	r3, [r7, #12]
 80054e4:	8fdb      	ldrh	r3, [r3, #62]	@ 0x3e
 80054e6:	b29b      	uxth	r3, r3
 80054e8:	2b00      	cmp	r3, #0
 80054ea:	d199      	bne.n	8005420 <HAL_SPI_TransmitReceive+0x298>
 80054ec:	68fb      	ldr	r3, [r7, #12]
 80054ee:	2246      	movs	r2, #70	@ 0x46
 80054f0:	5a9b      	ldrh	r3, [r3, r2]
 80054f2:	b29b      	uxth	r3, r3
 80054f4:	2b00      	cmp	r3, #0
 80054f6:	d193      	bne.n	8005420 <HAL_SPI_TransmitReceive+0x298>
    errorcode = HAL_ERROR;
  }
#endif /* USE_SPI_CRC */

  /* Check the end of the transaction */
  if (SPI_EndRxTxTransaction(hspi, Timeout, tickstart) != HAL_OK)
 80054f8:	69fa      	ldr	r2, [r7, #28]
 80054fa:	6b39      	ldr	r1, [r7, #48]	@ 0x30
 80054fc:	68fb      	ldr	r3, [r7, #12]
 80054fe:	0018      	movs	r0, r3
 8005500:	f000 f9b2 	bl	8005868 <SPI_EndRxTxTransaction>
 8005504:	1e03      	subs	r3, r0, #0
 8005506:	d006      	beq.n	8005516 <HAL_SPI_TransmitReceive+0x38e>
  {
    errorcode = HAL_ERROR;
 8005508:	2323      	movs	r3, #35	@ 0x23
 800550a:	18fb      	adds	r3, r7, r3
 800550c:	2201      	movs	r2, #1
 800550e:	701a      	strb	r2, [r3, #0]
    hspi->ErrorCode = HAL_SPI_ERROR_FLAG;
 8005510:	68fb      	ldr	r3, [r7, #12]
 8005512:	2220      	movs	r2, #32
 8005514:	661a      	str	r2, [r3, #96]	@ 0x60
  }

  if (hspi->ErrorCode != HAL_SPI_ERROR_NONE)
 8005516:	68fb      	ldr	r3, [r7, #12]
 8005518:	6e1b      	ldr	r3, [r3, #96]	@ 0x60
 800551a:	2b00      	cmp	r3, #0
 800551c:	d004      	beq.n	8005528 <HAL_SPI_TransmitReceive+0x3a0>
  {
    errorcode = HAL_ERROR;
 800551e:	2323      	movs	r3, #35	@ 0x23
 8005520:	18fb      	adds	r3, r7, r3
 8005522:	2201      	movs	r2, #1
 8005524:	701a      	strb	r2, [r3, #0]
 8005526:	e003      	b.n	8005530 <HAL_SPI_TransmitReceive+0x3a8>
  }
  else
  {
    hspi->State = HAL_SPI_STATE_READY;
 8005528:	68fb      	ldr	r3, [r7, #12]
 800552a:	225d      	movs	r2, #93	@ 0x5d
 800552c:	2101      	movs	r1, #1
 800552e:	5499      	strb	r1, [r3, r2]
  }
  
error :
  __HAL_UNLOCK(hspi);
 8005530:	68fb      	ldr	r3, [r7, #12]
 8005532:	225c      	movs	r2, #92	@ 0x5c
 8005534:	2100      	movs	r1, #0
 8005536:	5499      	strb	r1, [r3, r2]
  return errorcode;
 8005538:	2323      	movs	r3, #35	@ 0x23
 800553a:	18fb      	adds	r3, r7, r3
 800553c:	781b      	ldrb	r3, [r3, #0]
}
 800553e:	0018      	movs	r0, r3
 8005540:	46bd      	mov	sp, r7
 8005542:	b00a      	add	sp, #40	@ 0x28
 8005544:	bd80      	pop	{r7, pc}
 8005546:	46c0      	nop			@ (mov r8, r8)
 8005548:	ffffefff 	.word	0xffffefff

0800554c <SPI_WaitFlagStateUntilTimeout>:
  * @param  Tickstart tick start value
  * @retval HAL status
  */
static HAL_StatusTypeDef SPI_WaitFlagStateUntilTimeout(SPI_HandleTypeDef *hspi, uint32_t Flag, FlagStatus State,
                                                       uint32_t Timeout, uint32_t Tickstart)
{
 800554c:	b580      	push	{r7, lr}
 800554e:	b088      	sub	sp, #32
 8005550:	af00      	add	r7, sp, #0
 8005552:	60f8      	str	r0, [r7, #12]
 8005554:	60b9      	str	r1, [r7, #8]
 8005556:	603b      	str	r3, [r7, #0]
 8005558:	1dfb      	adds	r3, r7, #7
 800555a:	701a      	strb	r2, [r3, #0]
  __IO uint32_t count;
  uint32_t tmp_timeout;
  uint32_t tmp_tickstart;

  /* Adjust Timeout value  in case of end of transfer */
  tmp_timeout   = Timeout - (HAL_GetTick() - Tickstart);
 800555c:	f7fe fd0e 	bl	8003f7c <HAL_GetTick>
 8005560:	0002      	movs	r2, r0
 8005562:	6abb      	ldr	r3, [r7, #40]	@ 0x28
 8005564:	1a9b      	subs	r3, r3, r2
 8005566:	683a      	ldr	r2, [r7, #0]
 8005568:	18d3      	adds	r3, r2, r3
 800556a:	61fb      	str	r3, [r7, #28]
  tmp_tickstart = HAL_GetTick();
 800556c:	f7fe fd06 	bl	8003f7c <HAL_GetTick>
 8005570:	0003      	movs	r3, r0
 8005572:	61bb      	str	r3, [r7, #24]

  /* Calculate Timeout based on a software loop to avoid blocking issue if Systick is disabled */
  count = tmp_timeout * ((SystemCoreClock * 32U) >> 20U);
 8005574:	4b3a      	ldr	r3, [pc, #232]	@ (8005660 <SPI_WaitFlagStateUntilTimeout+0x114>)
 8005576:	681b      	ldr	r3, [r3, #0]
 8005578:	015b      	lsls	r3, r3, #5
 800557a:	0d1b      	lsrs	r3, r3, #20
 800557c:	69fa      	ldr	r2, [r7, #28]
 800557e:	4353      	muls	r3, r2
 8005580:	617b      	str	r3, [r7, #20]

  while ((__HAL_SPI_GET_FLAG(hspi, Flag) ? SET : RESET) != State)
 8005582:	e058      	b.n	8005636 <SPI_WaitFlagStateUntilTimeout+0xea>
  {
    if (Timeout != HAL_MAX_DELAY)
 8005584:	683b      	ldr	r3, [r7, #0]
 8005586:	3301      	adds	r3, #1
 8005588:	d055      	beq.n	8005636 <SPI_WaitFlagStateUntilTimeout+0xea>
    {
      if (((HAL_GetTick() - tmp_tickstart) >= tmp_timeout) || (tmp_timeout == 0U))
 800558a:	f7fe fcf7 	bl	8003f7c <HAL_GetTick>
 800558e:	0002      	movs	r2, r0
 8005590:	69bb      	ldr	r3, [r7, #24]
 8005592:	1ad3      	subs	r3, r2, r3
 8005594:	69fa      	ldr	r2, [r7, #28]
 8005596:	429a      	cmp	r2, r3
 8005598:	d902      	bls.n	80055a0 <SPI_WaitFlagStateUntilTimeout+0x54>
 800559a:	69fb      	ldr	r3, [r7, #28]
 800559c:	2b00      	cmp	r3, #0
 800559e:	d142      	bne.n	8005626 <SPI_WaitFlagStateUntilTimeout+0xda>
        /* Disable the SPI and reset the CRC: the CRC value should be cleared
           on both master and slave sides in order to resynchronize the master
           and slave for their respective CRC calculation */

        /* Disable TXE, RXNE and ERR interrupts for the interrupt process */
        __HAL_SPI_DISABLE_IT(hspi, (SPI_IT_TXE | SPI_IT_RXNE | SPI_IT_ERR));
 80055a0:	68fb      	ldr	r3, [r7, #12]
 80055a2:	681b      	ldr	r3, [r3, #0]
 80055a4:	685a      	ldr	r2, [r3, #4]
 80055a6:	68fb      	ldr	r3, [r7, #12]
 80055a8:	681b      	ldr	r3, [r3, #0]
 80055aa:	21e0      	movs	r1, #224	@ 0xe0
 80055ac:	438a      	bics	r2, r1
 80055ae:	605a      	str	r2, [r3, #4]

        if ((hspi->Init.Mode == SPI_MODE_MASTER) && ((hspi->Init.Direction == SPI_DIRECTION_1LINE)
 80055b0:	68fb      	ldr	r3, [r7, #12]
 80055b2:	685a      	ldr	r2, [r3, #4]
 80055b4:	2382      	movs	r3, #130	@ 0x82
 80055b6:	005b      	lsls	r3, r3, #1
 80055b8:	429a      	cmp	r2, r3
 80055ba:	d113      	bne.n	80055e4 <SPI_WaitFlagStateUntilTimeout+0x98>
 80055bc:	68fb      	ldr	r3, [r7, #12]
 80055be:	689a      	ldr	r2, [r3, #8]
 80055c0:	2380      	movs	r3, #128	@ 0x80
 80055c2:	021b      	lsls	r3, r3, #8
 80055c4:	429a      	cmp	r2, r3
 80055c6:	d005      	beq.n	80055d4 <SPI_WaitFlagStateUntilTimeout+0x88>
                                                     || (hspi->Init.Direction == SPI_DIRECTION_2LINES_RXONLY)))
 80055c8:	68fb      	ldr	r3, [r7, #12]
 80055ca:	689a      	ldr	r2, [r3, #8]
 80055cc:	2380      	movs	r3, #128	@ 0x80
 80055ce:	00db      	lsls	r3, r3, #3
 80055d0:	429a      	cmp	r2, r3
 80055d2:	d107      	bne.n	80055e4 <SPI_WaitFlagStateUntilTimeout+0x98>
        {
          /* Disable SPI peripheral */
          __HAL_SPI_DISABLE(hspi);
 80055d4:	68fb      	ldr	r3, [r7, #12]
 80055d6:	681b      	ldr	r3, [r3, #0]
 80055d8:	681a      	ldr	r2, [r3, #0]
 80055da:	68fb      	ldr	r3, [r7, #12]
 80055dc:	681b      	ldr	r3, [r3, #0]
 80055de:	2140      	movs	r1, #64	@ 0x40
 80055e0:	438a      	bics	r2, r1
 80055e2:	601a      	str	r2, [r3, #0]
        }

        /* Reset CRC Calculation */
        if (hspi->Init.CRCCalculation == SPI_CRCCALCULATION_ENABLE)
 80055e4:	68fb      	ldr	r3, [r7, #12]
 80055e6:	6a9a      	ldr	r2, [r3, #40]	@ 0x28
 80055e8:	2380      	movs	r3, #128	@ 0x80
 80055ea:	019b      	lsls	r3, r3, #6
 80055ec:	429a      	cmp	r2, r3
 80055ee:	d110      	bne.n	8005612 <SPI_WaitFlagStateUntilTimeout+0xc6>
        {
          SPI_RESET_CRC(hspi);
 80055f0:	68fb      	ldr	r3, [r7, #12]
 80055f2:	681b      	ldr	r3, [r3, #0]
 80055f4:	681a      	ldr	r2, [r3, #0]
 80055f6:	68fb      	ldr	r3, [r7, #12]
 80055f8:	681b      	ldr	r3, [r3, #0]
 80055fa:	491a      	ldr	r1, [pc, #104]	@ (8005664 <SPI_WaitFlagStateUntilTimeout+0x118>)
 80055fc:	400a      	ands	r2, r1
 80055fe:	601a      	str	r2, [r3, #0]
 8005600:	68fb      	ldr	r3, [r7, #12]
 8005602:	681b      	ldr	r3, [r3, #0]
 8005604:	681a      	ldr	r2, [r3, #0]
 8005606:	68fb      	ldr	r3, [r7, #12]
 8005608:	681b      	ldr	r3, [r3, #0]
 800560a:	2180      	movs	r1, #128	@ 0x80
 800560c:	0189      	lsls	r1, r1, #6
 800560e:	430a      	orrs	r2, r1
 8005610:	601a      	str	r2, [r3, #0]
        }

        hspi->State = HAL_SPI_STATE_READY;
 8005612:	68fb      	ldr	r3, [r7, #12]
 8005614:	225d      	movs	r2, #93	@ 0x5d
 8005616:	2101      	movs	r1, #1
 8005618:	5499      	strb	r1, [r3, r2]

        /* Process Unlocked */
        __HAL_UNLOCK(hspi);
 800561a:	68fb      	ldr	r3, [r7, #12]
 800561c:	225c      	movs	r2, #92	@ 0x5c
 800561e:	2100      	movs	r1, #0
 8005620:	5499      	strb	r1, [r3, r2]

        return HAL_TIMEOUT;
 8005622:	2303      	movs	r3, #3
 8005624:	e017      	b.n	8005656 <SPI_WaitFlagStateUntilTimeout+0x10a>
      }
      /* If Systick is disabled or not incremented, deactivate timeout to go in disable loop procedure */
      if (count == 0U)
 8005626:	697b      	ldr	r3, [r7, #20]
 8005628:	2b00      	cmp	r3, #0
 800562a:	d101      	bne.n	8005630 <SPI_WaitFlagStateUntilTimeout+0xe4>
      {
        tmp_timeout = 0U;
 800562c:	2300      	movs	r3, #0
 800562e:	61fb      	str	r3, [r7, #28]
      }
      count--;
 8005630:	697b      	ldr	r3, [r7, #20]
 8005632:	3b01      	subs	r3, #1
 8005634:	617b      	str	r3, [r7, #20]
  while ((__HAL_SPI_GET_FLAG(hspi, Flag) ? SET : RESET) != State)
 8005636:	68fb      	ldr	r3, [r7, #12]
 8005638:	681b      	ldr	r3, [r3, #0]
 800563a:	689b      	ldr	r3, [r3, #8]
 800563c:	68ba      	ldr	r2, [r7, #8]
 800563e:	4013      	ands	r3, r2
 8005640:	68ba      	ldr	r2, [r7, #8]
 8005642:	1ad3      	subs	r3, r2, r3
 8005644:	425a      	negs	r2, r3
 8005646:	4153      	adcs	r3, r2
 8005648:	b2db      	uxtb	r3, r3
 800564a:	001a      	movs	r2, r3
 800564c:	1dfb      	adds	r3, r7, #7
 800564e:	781b      	ldrb	r3, [r3, #0]
 8005650:	429a      	cmp	r2, r3
 8005652:	d197      	bne.n	8005584 <SPI_WaitFlagStateUntilTimeout+0x38>
    }
  }

  return HAL_OK;
 8005654:	2300      	movs	r3, #0
}
 8005656:	0018      	movs	r0, r3
 8005658:	46bd      	mov	sp, r7
 800565a:	b008      	add	sp, #32
 800565c:	bd80      	pop	{r7, pc}
 800565e:	46c0      	nop			@ (mov r8, r8)
 8005660:	20000004 	.word	0x20000004
 8005664:	ffffdfff 	.word	0xffffdfff

08005668 <SPI_WaitFifoStateUntilTimeout>:
  * @param  Tickstart tick start value
  * @retval HAL status
  */
static HAL_StatusTypeDef SPI_WaitFifoStateUntilTimeout(SPI_HandleTypeDef *hspi, uint32_t Fifo, uint32_t State,
                                                       uint32_t Timeout, uint32_t Tickstart)
{
 8005668:	b580      	push	{r7, lr}
 800566a:	b08a      	sub	sp, #40	@ 0x28
 800566c:	af00      	add	r7, sp, #0
 800566e:	60f8      	str	r0, [r7, #12]
 8005670:	60b9      	str	r1, [r7, #8]
 8005672:	607a      	str	r2, [r7, #4]
 8005674:	603b      	str	r3, [r7, #0]
  __IO uint32_t count;
  uint32_t tmp_timeout;
  uint32_t tmp_tickstart;
  __IO uint8_t  *ptmpreg8;
  __IO uint8_t  tmpreg8 = 0;
 8005676:	2317      	movs	r3, #23
 8005678:	18fb      	adds	r3, r7, r3
 800567a:	2200      	movs	r2, #0
 800567c:	701a      	strb	r2, [r3, #0]

  /* Adjust Timeout value  in case of end of transfer */
  tmp_timeout = Timeout - (HAL_GetTick() - Tickstart);
 800567e:	f7fe fc7d 	bl	8003f7c <HAL_GetTick>
 8005682:	0002      	movs	r2, r0
 8005684:	6b3b      	ldr	r3, [r7, #48]	@ 0x30
 8005686:	1a9b      	subs	r3, r3, r2
 8005688:	683a      	ldr	r2, [r7, #0]
 800568a:	18d3      	adds	r3, r2, r3
 800568c:	627b      	str	r3, [r7, #36]	@ 0x24
  tmp_tickstart = HAL_GetTick();
 800568e:	f7fe fc75 	bl	8003f7c <HAL_GetTick>
 8005692:	0003      	movs	r3, r0
 8005694:	623b      	str	r3, [r7, #32]

  /* Initialize the 8bit temporary pointer */
  ptmpreg8 = (__IO uint8_t *)&hspi->Instance->DR;
 8005696:	68fb      	ldr	r3, [r7, #12]
 8005698:	681b      	ldr	r3, [r3, #0]
 800569a:	330c      	adds	r3, #12
 800569c:	61fb      	str	r3, [r7, #28]

  /* Calculate Timeout based on a software loop to avoid blocking issue if Systick is disabled */
  count = tmp_timeout * ((SystemCoreClock * 35U) >> 20U);
 800569e:	4b41      	ldr	r3, [pc, #260]	@ (80057a4 <SPI_WaitFifoStateUntilTimeout+0x13c>)
 80056a0:	681a      	ldr	r2, [r3, #0]
 80056a2:	0013      	movs	r3, r2
 80056a4:	009b      	lsls	r3, r3, #2
 80056a6:	189b      	adds	r3, r3, r2
 80056a8:	00da      	lsls	r2, r3, #3
 80056aa:	1ad3      	subs	r3, r2, r3
 80056ac:	0d1b      	lsrs	r3, r3, #20
 80056ae:	6a7a      	ldr	r2, [r7, #36]	@ 0x24
 80056b0:	4353      	muls	r3, r2
 80056b2:	61bb      	str	r3, [r7, #24]

  while ((hspi->Instance->SR & Fifo) != State)
 80056b4:	e068      	b.n	8005788 <SPI_WaitFifoStateUntilTimeout+0x120>
  {
    if ((Fifo == SPI_SR_FRLVL) && (State == SPI_FRLVL_EMPTY))
 80056b6:	68ba      	ldr	r2, [r7, #8]
 80056b8:	23c0      	movs	r3, #192	@ 0xc0
 80056ba:	00db      	lsls	r3, r3, #3
 80056bc:	429a      	cmp	r2, r3
 80056be:	d10a      	bne.n	80056d6 <SPI_WaitFifoStateUntilTimeout+0x6e>
 80056c0:	687b      	ldr	r3, [r7, #4]
 80056c2:	2b00      	cmp	r3, #0
 80056c4:	d107      	bne.n	80056d6 <SPI_WaitFifoStateUntilTimeout+0x6e>
    {
      /* Flush Data Register by a blank read */
      tmpreg8 = *ptmpreg8;
 80056c6:	69fb      	ldr	r3, [r7, #28]
 80056c8:	781b      	ldrb	r3, [r3, #0]
 80056ca:	b2da      	uxtb	r2, r3
 80056cc:	2117      	movs	r1, #23
 80056ce:	187b      	adds	r3, r7, r1
 80056d0:	701a      	strb	r2, [r3, #0]
      /* To avoid GCC warning */
      UNUSED(tmpreg8);
 80056d2:	187b      	adds	r3, r7, r1
 80056d4:	781b      	ldrb	r3, [r3, #0]
    }

    if (Timeout != HAL_MAX_DELAY)
 80056d6:	683b      	ldr	r3, [r7, #0]
 80056d8:	3301      	adds	r3, #1
 80056da:	d055      	beq.n	8005788 <SPI_WaitFifoStateUntilTimeout+0x120>
    {
      if (((HAL_GetTick() - tmp_tickstart) >= tmp_timeout) || (tmp_timeout == 0U))
 80056dc:	f7fe fc4e 	bl	8003f7c <HAL_GetTick>
 80056e0:	0002      	movs	r2, r0
 80056e2:	6a3b      	ldr	r3, [r7, #32]
 80056e4:	1ad3      	subs	r3, r2, r3
 80056e6:	6a7a      	ldr	r2, [r7, #36]	@ 0x24
 80056e8:	429a      	cmp	r2, r3
 80056ea:	d902      	bls.n	80056f2 <SPI_WaitFifoStateUntilTimeout+0x8a>
 80056ec:	6a7b      	ldr	r3, [r7, #36]	@ 0x24
 80056ee:	2b00      	cmp	r3, #0
 80056f0:	d142      	bne.n	8005778 <SPI_WaitFifoStateUntilTimeout+0x110>
        /* Disable the SPI and reset the CRC: the CRC value should be cleared
           on both master and slave sides in order to resynchronize the master
           and slave for their respective CRC calculation */

        /* Disable TXE, RXNE and ERR interrupts for the interrupt process */
        __HAL_SPI_DISABLE_IT(hspi, (SPI_IT_TXE | SPI_IT_RXNE | SPI_IT_ERR));
 80056f2:	68fb      	ldr	r3, [r7, #12]
 80056f4:	681b      	ldr	r3, [r3, #0]
 80056f6:	685a      	ldr	r2, [r3, #4]
 80056f8:	68fb      	ldr	r3, [r7, #12]
 80056fa:	681b      	ldr	r3, [r3, #0]
 80056fc:	21e0      	movs	r1, #224	@ 0xe0
 80056fe:	438a      	bics	r2, r1
 8005700:	605a      	str	r2, [r3, #4]

        if ((hspi->Init.Mode == SPI_MODE_MASTER) && ((hspi->Init.Direction == SPI_DIRECTION_1LINE)
 8005702:	68fb      	ldr	r3, [r7, #12]
 8005704:	685a      	ldr	r2, [r3, #4]
 8005706:	2382      	movs	r3, #130	@ 0x82
 8005708:	005b      	lsls	r3, r3, #1
 800570a:	429a      	cmp	r2, r3
 800570c:	d113      	bne.n	8005736 <SPI_WaitFifoStateUntilTimeout+0xce>
 800570e:	68fb      	ldr	r3, [r7, #12]
 8005710:	689a      	ldr	r2, [r3, #8]
 8005712:	2380      	movs	r3, #128	@ 0x80
 8005714:	021b      	lsls	r3, r3, #8
 8005716:	429a      	cmp	r2, r3
 8005718:	d005      	beq.n	8005726 <SPI_WaitFifoStateUntilTimeout+0xbe>
                                                     || (hspi->Init.Direction == SPI_DIRECTION_2LINES_RXONLY)))
 800571a:	68fb      	ldr	r3, [r7, #12]
 800571c:	689a      	ldr	r2, [r3, #8]
 800571e:	2380      	movs	r3, #128	@ 0x80
 8005720:	00db      	lsls	r3, r3, #3
 8005722:	429a      	cmp	r2, r3
 8005724:	d107      	bne.n	8005736 <SPI_WaitFifoStateUntilTimeout+0xce>
        {
          /* Disable SPI peripheral */
          __HAL_SPI_DISABLE(hspi);
 8005726:	68fb      	ldr	r3, [r7, #12]
 8005728:	681b      	ldr	r3, [r3, #0]
 800572a:	681a      	ldr	r2, [r3, #0]
 800572c:	68fb      	ldr	r3, [r7, #12]
 800572e:	681b      	ldr	r3, [r3, #0]
 8005730:	2140      	movs	r1, #64	@ 0x40
 8005732:	438a      	bics	r2, r1
 8005734:	601a      	str	r2, [r3, #0]
        }

        /* Reset CRC Calculation */
        if (hspi->Init.CRCCalculation == SPI_CRCCALCULATION_ENABLE)
 8005736:	68fb      	ldr	r3, [r7, #12]
 8005738:	6a9a      	ldr	r2, [r3, #40]	@ 0x28
 800573a:	2380      	movs	r3, #128	@ 0x80
 800573c:	019b      	lsls	r3, r3, #6
 800573e:	429a      	cmp	r2, r3
 8005740:	d110      	bne.n	8005764 <SPI_WaitFifoStateUntilTimeout+0xfc>
        {
          SPI_RESET_CRC(hspi);
 8005742:	68fb      	ldr	r3, [r7, #12]
 8005744:	681b      	ldr	r3, [r3, #0]
 8005746:	681a      	ldr	r2, [r3, #0]
 8005748:	68fb      	ldr	r3, [r7, #12]
 800574a:	681b      	ldr	r3, [r3, #0]
 800574c:	4916      	ldr	r1, [pc, #88]	@ (80057a8 <SPI_WaitFifoStateUntilTimeout+0x140>)
 800574e:	400a      	ands	r2, r1
 8005750:	601a      	str	r2, [r3, #0]
 8005752:	68fb      	ldr	r3, [r7, #12]
 8005754:	681b      	ldr	r3, [r3, #0]
 8005756:	681a      	ldr	r2, [r3, #0]
 8005758:	68fb      	ldr	r3, [r7, #12]
 800575a:	681b      	ldr	r3, [r3, #0]
 800575c:	2180      	movs	r1, #128	@ 0x80
 800575e:	0189      	lsls	r1, r1, #6
 8005760:	430a      	orrs	r2, r1
 8005762:	601a      	str	r2, [r3, #0]
        }

        hspi->State = HAL_SPI_STATE_READY;
 8005764:	68fb      	ldr	r3, [r7, #12]
 8005766:	225d      	movs	r2, #93	@ 0x5d
 8005768:	2101      	movs	r1, #1
 800576a:	5499      	strb	r1, [r3, r2]

        /* Process Unlocked */
        __HAL_UNLOCK(hspi);
 800576c:	68fb      	ldr	r3, [r7, #12]
 800576e:	225c      	movs	r2, #92	@ 0x5c
 8005770:	2100      	movs	r1, #0
 8005772:	5499      	strb	r1, [r3, r2]

        return HAL_TIMEOUT;
 8005774:	2303      	movs	r3, #3
 8005776:	e010      	b.n	800579a <SPI_WaitFifoStateUntilTimeout+0x132>
      }
      /* If Systick is disabled or not incremented, deactivate timeout to go in disable loop procedure */
      if (count == 0U)
 8005778:	69bb      	ldr	r3, [r7, #24]
 800577a:	2b00      	cmp	r3, #0
 800577c:	d101      	bne.n	8005782 <SPI_WaitFifoStateUntilTimeout+0x11a>
      {
        tmp_timeout = 0U;
 800577e:	2300      	movs	r3, #0
 8005780:	627b      	str	r3, [r7, #36]	@ 0x24
      }
      count--;
 8005782:	69bb      	ldr	r3, [r7, #24]
 8005784:	3b01      	subs	r3, #1
 8005786:	61bb      	str	r3, [r7, #24]
  while ((hspi->Instance->SR & Fifo) != State)
 8005788:	68fb      	ldr	r3, [r7, #12]
 800578a:	681b      	ldr	r3, [r3, #0]
 800578c:	689b      	ldr	r3, [r3, #8]
 800578e:	68ba      	ldr	r2, [r7, #8]
 8005790:	4013      	ands	r3, r2
 8005792:	687a      	ldr	r2, [r7, #4]
 8005794:	429a      	cmp	r2, r3
 8005796:	d18e      	bne.n	80056b6 <SPI_WaitFifoStateUntilTimeout+0x4e>
    }
  }

  return HAL_OK;
 8005798:	2300      	movs	r3, #0
}
 800579a:	0018      	movs	r0, r3
 800579c:	46bd      	mov	sp, r7
 800579e:	b00a      	add	sp, #40	@ 0x28
 80057a0:	bd80      	pop	{r7, pc}
 80057a2:	46c0      	nop			@ (mov r8, r8)
 80057a4:	20000004 	.word	0x20000004
 80057a8:	ffffdfff 	.word	0xffffdfff

080057ac <SPI_EndRxTransaction>:
  * @param  Timeout Timeout duration
  * @param  Tickstart tick start value
  * @retval HAL status
  */
static HAL_StatusTypeDef SPI_EndRxTransaction(SPI_HandleTypeDef *hspi,  uint32_t Timeout, uint32_t Tickstart)
{
 80057ac:	b580      	push	{r7, lr}
 80057ae:	b086      	sub	sp, #24
 80057b0:	af02      	add	r7, sp, #8
 80057b2:	60f8      	str	r0, [r7, #12]
 80057b4:	60b9      	str	r1, [r7, #8]
 80057b6:	607a      	str	r2, [r7, #4]
  if ((hspi->Init.Mode == SPI_MODE_MASTER) && ((hspi->Init.Direction == SPI_DIRECTION_1LINE)
 80057b8:	68fb      	ldr	r3, [r7, #12]
 80057ba:	685a      	ldr	r2, [r3, #4]
 80057bc:	2382      	movs	r3, #130	@ 0x82
 80057be:	005b      	lsls	r3, r3, #1
 80057c0:	429a      	cmp	r2, r3
 80057c2:	d113      	bne.n	80057ec <SPI_EndRxTransaction+0x40>
 80057c4:	68fb      	ldr	r3, [r7, #12]
 80057c6:	689a      	ldr	r2, [r3, #8]
 80057c8:	2380      	movs	r3, #128	@ 0x80
 80057ca:	021b      	lsls	r3, r3, #8
 80057cc:	429a      	cmp	r2, r3
 80057ce:	d005      	beq.n	80057dc <SPI_EndRxTransaction+0x30>
                                               || (hspi->Init.Direction == SPI_DIRECTION_2LINES_RXONLY)))
 80057d0:	68fb      	ldr	r3, [r7, #12]
 80057d2:	689a      	ldr	r2, [r3, #8]
 80057d4:	2380      	movs	r3, #128	@ 0x80
 80057d6:	00db      	lsls	r3, r3, #3
 80057d8:	429a      	cmp	r2, r3
 80057da:	d107      	bne.n	80057ec <SPI_EndRxTransaction+0x40>
  {
    /* Disable SPI peripheral */
    __HAL_SPI_DISABLE(hspi);
 80057dc:	68fb      	ldr	r3, [r7, #12]
 80057de:	681b      	ldr	r3, [r3, #0]
 80057e0:	681a      	ldr	r2, [r3, #0]
 80057e2:	68fb      	ldr	r3, [r7, #12]
 80057e4:	681b      	ldr	r3, [r3, #0]
 80057e6:	2140      	movs	r1, #64	@ 0x40
 80057e8:	438a      	bics	r2, r1
 80057ea:	601a      	str	r2, [r3, #0]
  }

  /* Control the BSY flag */
  if (SPI_WaitFlagStateUntilTimeout(hspi, SPI_FLAG_BSY, RESET, Timeout, Tickstart) != HAL_OK)
 80057ec:	68ba      	ldr	r2, [r7, #8]
 80057ee:	68f8      	ldr	r0, [r7, #12]
 80057f0:	687b      	ldr	r3, [r7, #4]
 80057f2:	9300      	str	r3, [sp, #0]
 80057f4:	0013      	movs	r3, r2
 80057f6:	2200      	movs	r2, #0
 80057f8:	2180      	movs	r1, #128	@ 0x80
 80057fa:	f7ff fea7 	bl	800554c <SPI_WaitFlagStateUntilTimeout>
 80057fe:	1e03      	subs	r3, r0, #0
 8005800:	d007      	beq.n	8005812 <SPI_EndRxTransaction+0x66>
  {
    SET_BIT(hspi->ErrorCode, HAL_SPI_ERROR_FLAG);
 8005802:	68fb      	ldr	r3, [r7, #12]
 8005804:	6e1b      	ldr	r3, [r3, #96]	@ 0x60
 8005806:	2220      	movs	r2, #32
 8005808:	431a      	orrs	r2, r3
 800580a:	68fb      	ldr	r3, [r7, #12]
 800580c:	661a      	str	r2, [r3, #96]	@ 0x60
    return HAL_TIMEOUT;
 800580e:	2303      	movs	r3, #3
 8005810:	e026      	b.n	8005860 <SPI_EndRxTransaction+0xb4>
  }

  if ((hspi->Init.Mode == SPI_MODE_MASTER) && ((hspi->Init.Direction == SPI_DIRECTION_1LINE)
 8005812:	68fb      	ldr	r3, [r7, #12]
 8005814:	685a      	ldr	r2, [r3, #4]
 8005816:	2382      	movs	r3, #130	@ 0x82
 8005818:	005b      	lsls	r3, r3, #1
 800581a:	429a      	cmp	r2, r3
 800581c:	d11f      	bne.n	800585e <SPI_EndRxTransaction+0xb2>
 800581e:	68fb      	ldr	r3, [r7, #12]
 8005820:	689a      	ldr	r2, [r3, #8]
 8005822:	2380      	movs	r3, #128	@ 0x80
 8005824:	021b      	lsls	r3, r3, #8
 8005826:	429a      	cmp	r2, r3
 8005828:	d005      	beq.n	8005836 <SPI_EndRxTransaction+0x8a>
                                               || (hspi->Init.Direction == SPI_DIRECTION_2LINES_RXONLY)))
 800582a:	68fb      	ldr	r3, [r7, #12]
 800582c:	689a      	ldr	r2, [r3, #8]
 800582e:	2380      	movs	r3, #128	@ 0x80
 8005830:	00db      	lsls	r3, r3, #3
 8005832:	429a      	cmp	r2, r3
 8005834:	d113      	bne.n	800585e <SPI_EndRxTransaction+0xb2>
  {
    /* Empty the FRLVL fifo */
    if (SPI_WaitFifoStateUntilTimeout(hspi, SPI_FLAG_FRLVL, SPI_FRLVL_EMPTY, Timeout, Tickstart) != HAL_OK)
 8005836:	68ba      	ldr	r2, [r7, #8]
 8005838:	23c0      	movs	r3, #192	@ 0xc0
 800583a:	00d9      	lsls	r1, r3, #3
 800583c:	68f8      	ldr	r0, [r7, #12]
 800583e:	687b      	ldr	r3, [r7, #4]
 8005840:	9300      	str	r3, [sp, #0]
 8005842:	0013      	movs	r3, r2
 8005844:	2200      	movs	r2, #0
 8005846:	f7ff ff0f 	bl	8005668 <SPI_WaitFifoStateUntilTimeout>
 800584a:	1e03      	subs	r3, r0, #0
 800584c:	d007      	beq.n	800585e <SPI_EndRxTransaction+0xb2>
    {
      SET_BIT(hspi->ErrorCode, HAL_SPI_ERROR_FLAG);
 800584e:	68fb      	ldr	r3, [r7, #12]
 8005850:	6e1b      	ldr	r3, [r3, #96]	@ 0x60
 8005852:	2220      	movs	r2, #32
 8005854:	431a      	orrs	r2, r3
 8005856:	68fb      	ldr	r3, [r7, #12]
 8005858:	661a      	str	r2, [r3, #96]	@ 0x60
      return HAL_TIMEOUT;
 800585a:	2303      	movs	r3, #3
 800585c:	e000      	b.n	8005860 <SPI_EndRxTransaction+0xb4>
    }
  }
  return HAL_OK;
 800585e:	2300      	movs	r3, #0
}
 8005860:	0018      	movs	r0, r3
 8005862:	46bd      	mov	sp, r7
 8005864:	b004      	add	sp, #16
 8005866:	bd80      	pop	{r7, pc}

08005868 <SPI_EndRxTxTransaction>:
  * @param  Timeout Timeout duration
  * @param  Tickstart tick start value
  * @retval HAL status
  */
static HAL_StatusTypeDef SPI_EndRxTxTransaction(SPI_HandleTypeDef *hspi, uint32_t Timeout, uint32_t Tickstart)
{
 8005868:	b580      	push	{r7, lr}
 800586a:	b086      	sub	sp, #24
 800586c:	af02      	add	r7, sp, #8
 800586e:	60f8      	str	r0, [r7, #12]
 8005870:	60b9      	str	r1, [r7, #8]
 8005872:	607a      	str	r2, [r7, #4]
  /* Control if the TX fifo is empty */
  if (SPI_WaitFifoStateUntilTimeout(hspi, SPI_FLAG_FTLVL, SPI_FTLVL_EMPTY, Timeout, Tickstart) != HAL_OK)
 8005874:	68ba      	ldr	r2, [r7, #8]
 8005876:	23c0      	movs	r3, #192	@ 0xc0
 8005878:	0159      	lsls	r1, r3, #5
 800587a:	68f8      	ldr	r0, [r7, #12]
 800587c:	687b      	ldr	r3, [r7, #4]
 800587e:	9300      	str	r3, [sp, #0]
 8005880:	0013      	movs	r3, r2
 8005882:	2200      	movs	r2, #0
 8005884:	f7ff fef0 	bl	8005668 <SPI_WaitFifoStateUntilTimeout>
 8005888:	1e03      	subs	r3, r0, #0
 800588a:	d007      	beq.n	800589c <SPI_EndRxTxTransaction+0x34>
  {
    SET_BIT(hspi->ErrorCode, HAL_SPI_ERROR_FLAG);
 800588c:	68fb      	ldr	r3, [r7, #12]
 800588e:	6e1b      	ldr	r3, [r3, #96]	@ 0x60
 8005890:	2220      	movs	r2, #32
 8005892:	431a      	orrs	r2, r3
 8005894:	68fb      	ldr	r3, [r7, #12]
 8005896:	661a      	str	r2, [r3, #96]	@ 0x60
    return HAL_TIMEOUT;
 8005898:	2303      	movs	r3, #3
 800589a:	e027      	b.n	80058ec <SPI_EndRxTxTransaction+0x84>
  }

  /* Control the BSY flag */
  if (SPI_WaitFlagStateUntilTimeout(hspi, SPI_FLAG_BSY, RESET, Timeout, Tickstart) != HAL_OK)
 800589c:	68ba      	ldr	r2, [r7, #8]
 800589e:	68f8      	ldr	r0, [r7, #12]
 80058a0:	687b      	ldr	r3, [r7, #4]
 80058a2:	9300      	str	r3, [sp, #0]
 80058a4:	0013      	movs	r3, r2
 80058a6:	2200      	movs	r2, #0
 80058a8:	2180      	movs	r1, #128	@ 0x80
 80058aa:	f7ff fe4f 	bl	800554c <SPI_WaitFlagStateUntilTimeout>
 80058ae:	1e03      	subs	r3, r0, #0
 80058b0:	d007      	beq.n	80058c2 <SPI_EndRxTxTransaction+0x5a>
  {
    SET_BIT(hspi->ErrorCode, HAL_SPI_ERROR_FLAG);
 80058b2:	68fb      	ldr	r3, [r7, #12]
 80058b4:	6e1b      	ldr	r3, [r3, #96]	@ 0x60
 80058b6:	2220      	movs	r2, #32
 80058b8:	431a      	orrs	r2, r3
 80058ba:	68fb      	ldr	r3, [r7, #12]
 80058bc:	661a      	str	r2, [r3, #96]	@ 0x60
    return HAL_TIMEOUT;
 80058be:	2303      	movs	r3, #3
 80058c0:	e014      	b.n	80058ec <SPI_EndRxTxTransaction+0x84>
  }

  /* Control if the RX fifo is empty */
  if (SPI_WaitFifoStateUntilTimeout(hspi, SPI_FLAG_FRLVL, SPI_FRLVL_EMPTY, Timeout, Tickstart) != HAL_OK)
 80058c2:	68ba      	ldr	r2, [r7, #8]
 80058c4:	23c0      	movs	r3, #192	@ 0xc0
 80058c6:	00d9      	lsls	r1, r3, #3
 80058c8:	68f8      	ldr	r0, [r7, #12]
 80058ca:	687b      	ldr	r3, [r7, #4]
 80058cc:	9300      	str	r3, [sp, #0]
 80058ce:	0013      	movs	r3, r2
 80058d0:	2200      	movs	r2, #0
 80058d2:	f7ff fec9 	bl	8005668 <SPI_WaitFifoStateUntilTimeout>
 80058d6:	1e03      	subs	r3, r0, #0
 80058d8:	d007      	beq.n	80058ea <SPI_EndRxTxTransaction+0x82>
  {
    SET_BIT(hspi->ErrorCode, HAL_SPI_ERROR_FLAG);
 80058da:	68fb      	ldr	r3, [r7, #12]
 80058dc:	6e1b      	ldr	r3, [r3, #96]	@ 0x60
 80058de:	2220      	movs	r2, #32
 80058e0:	431a      	orrs	r2, r3
 80058e2:	68fb      	ldr	r3, [r7, #12]
 80058e4:	661a      	str	r2, [r3, #96]	@ 0x60
    return HAL_TIMEOUT;
 80058e6:	2303      	movs	r3, #3
 80058e8:	e000      	b.n	80058ec <SPI_EndRxTxTransaction+0x84>
  }

  return HAL_OK;
 80058ea:	2300      	movs	r3, #0
}
 80058ec:	0018      	movs	r0, r3
 80058ee:	46bd      	mov	sp, r7
 80058f0:	b004      	add	sp, #16
 80058f2:	bd80      	pop	{r7, pc}

080058f4 <HAL_UART_Init>:
  *        parameters in the UART_InitTypeDef and initialize the associated handle.
  * @param huart UART handle.
  * @retval HAL status
  */
HAL_StatusTypeDef HAL_UART_Init(UART_HandleTypeDef *huart)
{
 80058f4:	b580      	push	{r7, lr}
 80058f6:	b082      	sub	sp, #8
 80058f8:	af00      	add	r7, sp, #0
 80058fa:	6078      	str	r0, [r7, #4]
  /* Check the UART handle allocation */
  if (huart == NULL)
 80058fc:	687b      	ldr	r3, [r7, #4]
 80058fe:	2b00      	cmp	r3, #0
 8005900:	d101      	bne.n	8005906 <HAL_UART_Init+0x12>
  {
    return HAL_ERROR;
 8005902:	2301      	movs	r3, #1
 8005904:	e046      	b.n	8005994 <HAL_UART_Init+0xa0>
  {
    /* Check the parameters */
    assert_param((IS_UART_INSTANCE(huart->Instance)) || (IS_LPUART_INSTANCE(huart->Instance)));
  }

  if (huart->gState == HAL_UART_STATE_RESET)
 8005906:	687b      	ldr	r3, [r7, #4]
 8005908:	2288      	movs	r2, #136	@ 0x88
 800590a:	589b      	ldr	r3, [r3, r2]
 800590c:	2b00      	cmp	r3, #0
 800590e:	d107      	bne.n	8005920 <HAL_UART_Init+0x2c>
  {
    /* Allocate lock resource and initialize it */
    huart->Lock = HAL_UNLOCKED;
 8005910:	687b      	ldr	r3, [r7, #4]
 8005912:	2284      	movs	r2, #132	@ 0x84
 8005914:	2100      	movs	r1, #0
 8005916:	5499      	strb	r1, [r3, r2]

    /* Init the low level hardware */
    huart->MspInitCallback(huart);
#else
    /* Init the low level hardware : GPIO, CLOCK */
    HAL_UART_MspInit(huart);
 8005918:	687b      	ldr	r3, [r7, #4]
 800591a:	0018      	movs	r0, r3
 800591c:	f7fe f862 	bl	80039e4 <HAL_UART_MspInit>
#endif /* (USE_HAL_UART_REGISTER_CALLBACKS) */
  }

  huart->gState = HAL_UART_STATE_BUSY;
 8005920:	687b      	ldr	r3, [r7, #4]
 8005922:	2288      	movs	r2, #136	@ 0x88
 8005924:	2124      	movs	r1, #36	@ 0x24
 8005926:	5099      	str	r1, [r3, r2]

  __HAL_UART_DISABLE(huart);
 8005928:	687b      	ldr	r3, [r7, #4]
 800592a:	681b      	ldr	r3, [r3, #0]
 800592c:	681a      	ldr	r2, [r3, #0]
 800592e:	687b      	ldr	r3, [r7, #4]
 8005930:	681b      	ldr	r3, [r3, #0]
 8005932:	2101      	movs	r1, #1
 8005934:	438a      	bics	r2, r1
 8005936:	601a      	str	r2, [r3, #0]

  /* Perform advanced settings configuration */
  /* For some items, configuration requires to be done prior TE and RE bits are set */
  if (huart->AdvancedInit.AdvFeatureInit != UART_ADVFEATURE_NO_INIT)
 8005938:	687b      	ldr	r3, [r7, #4]
 800593a:	6a9b      	ldr	r3, [r3, #40]	@ 0x28
 800593c:	2b00      	cmp	r3, #0
 800593e:	d003      	beq.n	8005948 <HAL_UART_Init+0x54>
  {
    UART_AdvFeatureConfig(huart);
 8005940:	687b      	ldr	r3, [r7, #4]
 8005942:	0018      	movs	r0, r3
 8005944:	f000 fe2c 	bl	80065a0 <UART_AdvFeatureConfig>
  }

  /* Set the UART Communication parameters */
  if (UART_SetConfig(huart) == HAL_ERROR)
 8005948:	687b      	ldr	r3, [r7, #4]
 800594a:	0018      	movs	r0, r3
 800594c:	f000 fb6a 	bl	8006024 <UART_SetConfig>
 8005950:	0003      	movs	r3, r0
 8005952:	2b01      	cmp	r3, #1
 8005954:	d101      	bne.n	800595a <HAL_UART_Init+0x66>
  {
    return HAL_ERROR;
 8005956:	2301      	movs	r3, #1
 8005958:	e01c      	b.n	8005994 <HAL_UART_Init+0xa0>
  }

  /* In asynchronous mode, the following bits must be kept cleared:
  - LINEN and CLKEN bits in the USART_CR2 register,
  - SCEN, HDSEL and IREN  bits in the USART_CR3 register.*/
  CLEAR_BIT(huart->Instance->CR2, (USART_CR2_LINEN | USART_CR2_CLKEN));
 800595a:	687b      	ldr	r3, [r7, #4]
 800595c:	681b      	ldr	r3, [r3, #0]
 800595e:	685a      	ldr	r2, [r3, #4]
 8005960:	687b      	ldr	r3, [r7, #4]
 8005962:	681b      	ldr	r3, [r3, #0]
 8005964:	490d      	ldr	r1, [pc, #52]	@ (800599c <HAL_UART_Init+0xa8>)
 8005966:	400a      	ands	r2, r1
 8005968:	605a      	str	r2, [r3, #4]
  CLEAR_BIT(huart->Instance->CR3, (USART_CR3_SCEN | USART_CR3_HDSEL | USART_CR3_IREN));
 800596a:	687b      	ldr	r3, [r7, #4]
 800596c:	681b      	ldr	r3, [r3, #0]
 800596e:	689a      	ldr	r2, [r3, #8]
 8005970:	687b      	ldr	r3, [r7, #4]
 8005972:	681b      	ldr	r3, [r3, #0]
 8005974:	212a      	movs	r1, #42	@ 0x2a
 8005976:	438a      	bics	r2, r1
 8005978:	609a      	str	r2, [r3, #8]

  __HAL_UART_ENABLE(huart);
 800597a:	687b      	ldr	r3, [r7, #4]
 800597c:	681b      	ldr	r3, [r3, #0]
 800597e:	681a      	ldr	r2, [r3, #0]
 8005980:	687b      	ldr	r3, [r7, #4]
 8005982:	681b      	ldr	r3, [r3, #0]
 8005984:	2101      	movs	r1, #1
 8005986:	430a      	orrs	r2, r1
 8005988:	601a      	str	r2, [r3, #0]

  /* TEACK and/or REACK to check before moving huart->gState and huart->RxState to Ready */
  return (UART_CheckIdleState(huart));
 800598a:	687b      	ldr	r3, [r7, #4]
 800598c:	0018      	movs	r0, r3
 800598e:	f000 febb 	bl	8006708 <UART_CheckIdleState>
 8005992:	0003      	movs	r3, r0
}
 8005994:	0018      	movs	r0, r3
 8005996:	46bd      	mov	sp, r7
 8005998:	b002      	add	sp, #8
 800599a:	bd80      	pop	{r7, pc}
 800599c:	ffffb7ff 	.word	0xffffb7ff

080059a0 <HAL_UART_IRQHandler>:
  * @brief Handle UART interrupt request.
  * @param huart UART handle.
  * @retval None
  */
void HAL_UART_IRQHandler(UART_HandleTypeDef *huart)
{
 80059a0:	b5b0      	push	{r4, r5, r7, lr}
 80059a2:	b0aa      	sub	sp, #168	@ 0xa8
 80059a4:	af00      	add	r7, sp, #0
 80059a6:	6078      	str	r0, [r7, #4]
  uint32_t isrflags   = READ_REG(huart->Instance->ISR);
 80059a8:	687b      	ldr	r3, [r7, #4]
 80059aa:	681b      	ldr	r3, [r3, #0]
 80059ac:	69db      	ldr	r3, [r3, #28]
 80059ae:	22a4      	movs	r2, #164	@ 0xa4
 80059b0:	18b9      	adds	r1, r7, r2
 80059b2:	600b      	str	r3, [r1, #0]
  uint32_t cr1its     = READ_REG(huart->Instance->CR1);
 80059b4:	687b      	ldr	r3, [r7, #4]
 80059b6:	681b      	ldr	r3, [r3, #0]
 80059b8:	681b      	ldr	r3, [r3, #0]
 80059ba:	20a0      	movs	r0, #160	@ 0xa0
 80059bc:	1839      	adds	r1, r7, r0
 80059be:	600b      	str	r3, [r1, #0]
  uint32_t cr3its     = READ_REG(huart->Instance->CR3);
 80059c0:	687b      	ldr	r3, [r7, #4]
 80059c2:	681b      	ldr	r3, [r3, #0]
 80059c4:	689b      	ldr	r3, [r3, #8]
 80059c6:	249c      	movs	r4, #156	@ 0x9c
 80059c8:	1939      	adds	r1, r7, r4
 80059ca:	600b      	str	r3, [r1, #0]

  uint32_t errorflags;
  uint32_t errorcode;

  /* If no error occurs */
  errorflags = (isrflags & (uint32_t)(USART_ISR_PE | USART_ISR_FE | USART_ISR_ORE | USART_ISR_NE | USART_ISR_RTOF));
 80059cc:	0011      	movs	r1, r2
 80059ce:	18bb      	adds	r3, r7, r2
 80059d0:	681b      	ldr	r3, [r3, #0]
 80059d2:	4aa2      	ldr	r2, [pc, #648]	@ (8005c5c <HAL_UART_IRQHandler+0x2bc>)
 80059d4:	4013      	ands	r3, r2
 80059d6:	2298      	movs	r2, #152	@ 0x98
 80059d8:	18bd      	adds	r5, r7, r2
 80059da:	602b      	str	r3, [r5, #0]
  if (errorflags == 0U)
 80059dc:	18bb      	adds	r3, r7, r2
 80059de:	681b      	ldr	r3, [r3, #0]
 80059e0:	2b00      	cmp	r3, #0
 80059e2:	d11a      	bne.n	8005a1a <HAL_UART_IRQHandler+0x7a>
  {
    /* UART in mode Receiver ---------------------------------------------------*/
    if (((isrflags & USART_ISR_RXNE_RXFNE) != 0U)
 80059e4:	187b      	adds	r3, r7, r1
 80059e6:	681b      	ldr	r3, [r3, #0]
 80059e8:	2220      	movs	r2, #32
 80059ea:	4013      	ands	r3, r2
 80059ec:	d015      	beq.n	8005a1a <HAL_UART_IRQHandler+0x7a>
        && (((cr1its & USART_CR1_RXNEIE_RXFNEIE) != 0U)
 80059ee:	183b      	adds	r3, r7, r0
 80059f0:	681b      	ldr	r3, [r3, #0]
 80059f2:	2220      	movs	r2, #32
 80059f4:	4013      	ands	r3, r2
 80059f6:	d105      	bne.n	8005a04 <HAL_UART_IRQHandler+0x64>
            || ((cr3its & USART_CR3_RXFTIE) != 0U)))
 80059f8:	193b      	adds	r3, r7, r4
 80059fa:	681a      	ldr	r2, [r3, #0]
 80059fc:	2380      	movs	r3, #128	@ 0x80
 80059fe:	055b      	lsls	r3, r3, #21
 8005a00:	4013      	ands	r3, r2
 8005a02:	d00a      	beq.n	8005a1a <HAL_UART_IRQHandler+0x7a>
    {
      if (huart->RxISR != NULL)
 8005a04:	687b      	ldr	r3, [r7, #4]
 8005a06:	6f5b      	ldr	r3, [r3, #116]	@ 0x74
 8005a08:	2b00      	cmp	r3, #0
 8005a0a:	d100      	bne.n	8005a0e <HAL_UART_IRQHandler+0x6e>
 8005a0c:	e2dc      	b.n	8005fc8 <HAL_UART_IRQHandler+0x628>
      {
        huart->RxISR(huart);
 8005a0e:	687b      	ldr	r3, [r7, #4]
 8005a10:	6f5b      	ldr	r3, [r3, #116]	@ 0x74
 8005a12:	687a      	ldr	r2, [r7, #4]
 8005a14:	0010      	movs	r0, r2
 8005a16:	4798      	blx	r3
      }
      return;
 8005a18:	e2d6      	b.n	8005fc8 <HAL_UART_IRQHandler+0x628>
    }
  }

  /* If some errors occur */
  if ((errorflags != 0U)
 8005a1a:	2398      	movs	r3, #152	@ 0x98
 8005a1c:	18fb      	adds	r3, r7, r3
 8005a1e:	681b      	ldr	r3, [r3, #0]
 8005a20:	2b00      	cmp	r3, #0
 8005a22:	d100      	bne.n	8005a26 <HAL_UART_IRQHandler+0x86>
 8005a24:	e122      	b.n	8005c6c <HAL_UART_IRQHandler+0x2cc>
      && ((((cr3its & (USART_CR3_RXFTIE | USART_CR3_EIE)) != 0U)
 8005a26:	239c      	movs	r3, #156	@ 0x9c
 8005a28:	18fb      	adds	r3, r7, r3
 8005a2a:	681b      	ldr	r3, [r3, #0]
 8005a2c:	4a8c      	ldr	r2, [pc, #560]	@ (8005c60 <HAL_UART_IRQHandler+0x2c0>)
 8005a2e:	4013      	ands	r3, r2
 8005a30:	d106      	bne.n	8005a40 <HAL_UART_IRQHandler+0xa0>
           || ((cr1its & (USART_CR1_RXNEIE_RXFNEIE | USART_CR1_PEIE | USART_CR1_RTOIE)) != 0U))))
 8005a32:	23a0      	movs	r3, #160	@ 0xa0
 8005a34:	18fb      	adds	r3, r7, r3
 8005a36:	681b      	ldr	r3, [r3, #0]
 8005a38:	4a8a      	ldr	r2, [pc, #552]	@ (8005c64 <HAL_UART_IRQHandler+0x2c4>)
 8005a3a:	4013      	ands	r3, r2
 8005a3c:	d100      	bne.n	8005a40 <HAL_UART_IRQHandler+0xa0>
 8005a3e:	e115      	b.n	8005c6c <HAL_UART_IRQHandler+0x2cc>
  {
    /* UART parity error interrupt occurred -------------------------------------*/
    if (((isrflags & USART_ISR_PE) != 0U) && ((cr1its & USART_CR1_PEIE) != 0U))
 8005a40:	23a4      	movs	r3, #164	@ 0xa4
 8005a42:	18fb      	adds	r3, r7, r3
 8005a44:	681b      	ldr	r3, [r3, #0]
 8005a46:	2201      	movs	r2, #1
 8005a48:	4013      	ands	r3, r2
 8005a4a:	d012      	beq.n	8005a72 <HAL_UART_IRQHandler+0xd2>
 8005a4c:	23a0      	movs	r3, #160	@ 0xa0
 8005a4e:	18fb      	adds	r3, r7, r3
 8005a50:	681a      	ldr	r2, [r3, #0]
 8005a52:	2380      	movs	r3, #128	@ 0x80
 8005a54:	005b      	lsls	r3, r3, #1
 8005a56:	4013      	ands	r3, r2
 8005a58:	d00b      	beq.n	8005a72 <HAL_UART_IRQHandler+0xd2>
    {
      __HAL_UART_CLEAR_FLAG(huart, UART_CLEAR_PEF);
 8005a5a:	687b      	ldr	r3, [r7, #4]
 8005a5c:	681b      	ldr	r3, [r3, #0]
 8005a5e:	2201      	movs	r2, #1
 8005a60:	621a      	str	r2, [r3, #32]

      huart->ErrorCode |= HAL_UART_ERROR_PE;
 8005a62:	687b      	ldr	r3, [r7, #4]
 8005a64:	2290      	movs	r2, #144	@ 0x90
 8005a66:	589b      	ldr	r3, [r3, r2]
 8005a68:	2201      	movs	r2, #1
 8005a6a:	431a      	orrs	r2, r3
 8005a6c:	687b      	ldr	r3, [r7, #4]
 8005a6e:	2190      	movs	r1, #144	@ 0x90
 8005a70:	505a      	str	r2, [r3, r1]
    }

    /* UART frame error interrupt occurred --------------------------------------*/
    if (((isrflags & USART_ISR_FE) != 0U) && ((cr3its & USART_CR3_EIE) != 0U))
 8005a72:	23a4      	movs	r3, #164	@ 0xa4
 8005a74:	18fb      	adds	r3, r7, r3
 8005a76:	681b      	ldr	r3, [r3, #0]
 8005a78:	2202      	movs	r2, #2
 8005a7a:	4013      	ands	r3, r2
 8005a7c:	d011      	beq.n	8005aa2 <HAL_UART_IRQHandler+0x102>
 8005a7e:	239c      	movs	r3, #156	@ 0x9c
 8005a80:	18fb      	adds	r3, r7, r3
 8005a82:	681b      	ldr	r3, [r3, #0]
 8005a84:	2201      	movs	r2, #1
 8005a86:	4013      	ands	r3, r2
 8005a88:	d00b      	beq.n	8005aa2 <HAL_UART_IRQHandler+0x102>
    {
      __HAL_UART_CLEAR_FLAG(huart, UART_CLEAR_FEF);
 8005a8a:	687b      	ldr	r3, [r7, #4]
 8005a8c:	681b      	ldr	r3, [r3, #0]
 8005a8e:	2202      	movs	r2, #2
 8005a90:	621a      	str	r2, [r3, #32]

      huart->ErrorCode |= HAL_UART_ERROR_FE;
 8005a92:	687b      	ldr	r3, [r7, #4]
 8005a94:	2290      	movs	r2, #144	@ 0x90
 8005a96:	589b      	ldr	r3, [r3, r2]
 8005a98:	2204      	movs	r2, #4
 8005a9a:	431a      	orrs	r2, r3
 8005a9c:	687b      	ldr	r3, [r7, #4]
 8005a9e:	2190      	movs	r1, #144	@ 0x90
 8005aa0:	505a      	str	r2, [r3, r1]
    }

    /* UART noise error interrupt occurred --------------------------------------*/
    if (((isrflags & USART_ISR_NE) != 0U) && ((cr3its & USART_CR3_EIE) != 0U))
 8005aa2:	23a4      	movs	r3, #164	@ 0xa4
 8005aa4:	18fb      	adds	r3, r7, r3
 8005aa6:	681b      	ldr	r3, [r3, #0]
 8005aa8:	2204      	movs	r2, #4
 8005aaa:	4013      	ands	r3, r2
 8005aac:	d011      	beq.n	8005ad2 <HAL_UART_IRQHandler+0x132>
 8005aae:	239c      	movs	r3, #156	@ 0x9c
 8005ab0:	18fb      	adds	r3, r7, r3
 8005ab2:	681b      	ldr	r3, [r3, #0]
 8005ab4:	2201      	movs	r2, #1
 8005ab6:	4013      	ands	r3, r2
 8005ab8:	d00b      	beq.n	8005ad2 <HAL_UART_IRQHandler+0x132>
    {
      __HAL_UART_CLEAR_FLAG(huart, UART_CLEAR_NEF);
 8005aba:	687b      	ldr	r3, [r7, #4]
 8005abc:	681b      	ldr	r3, [r3, #0]
 8005abe:	2204      	movs	r2, #4
 8005ac0:	621a      	str	r2, [r3, #32]

      huart->ErrorCode |= HAL_UART_ERROR_NE;
 8005ac2:	687b      	ldr	r3, [r7, #4]
 8005ac4:	2290      	movs	r2, #144	@ 0x90
 8005ac6:	589b      	ldr	r3, [r3, r2]
 8005ac8:	2202      	movs	r2, #2
 8005aca:	431a      	orrs	r2, r3
 8005acc:	687b      	ldr	r3, [r7, #4]
 8005ace:	2190      	movs	r1, #144	@ 0x90
 8005ad0:	505a      	str	r2, [r3, r1]
    }

    /* UART Over-Run interrupt occurred -----------------------------------------*/
    if (((isrflags & USART_ISR_ORE) != 0U)
 8005ad2:	23a4      	movs	r3, #164	@ 0xa4
 8005ad4:	18fb      	adds	r3, r7, r3
 8005ad6:	681b      	ldr	r3, [r3, #0]
 8005ad8:	2208      	movs	r2, #8
 8005ada:	4013      	ands	r3, r2
 8005adc:	d017      	beq.n	8005b0e <HAL_UART_IRQHandler+0x16e>
        && (((cr1its & USART_CR1_RXNEIE_RXFNEIE) != 0U) ||
 8005ade:	23a0      	movs	r3, #160	@ 0xa0
 8005ae0:	18fb      	adds	r3, r7, r3
 8005ae2:	681b      	ldr	r3, [r3, #0]
 8005ae4:	2220      	movs	r2, #32
 8005ae6:	4013      	ands	r3, r2
 8005ae8:	d105      	bne.n	8005af6 <HAL_UART_IRQHandler+0x156>
            ((cr3its & (USART_CR3_RXFTIE | USART_CR3_EIE)) != 0U)))
 8005aea:	239c      	movs	r3, #156	@ 0x9c
 8005aec:	18fb      	adds	r3, r7, r3
 8005aee:	681b      	ldr	r3, [r3, #0]
 8005af0:	4a5b      	ldr	r2, [pc, #364]	@ (8005c60 <HAL_UART_IRQHandler+0x2c0>)
 8005af2:	4013      	ands	r3, r2
        && (((cr1its & USART_CR1_RXNEIE_RXFNEIE) != 0U) ||
 8005af4:	d00b      	beq.n	8005b0e <HAL_UART_IRQHandler+0x16e>
    {
      __HAL_UART_CLEAR_FLAG(huart, UART_CLEAR_OREF);
 8005af6:	687b      	ldr	r3, [r7, #4]
 8005af8:	681b      	ldr	r3, [r3, #0]
 8005afa:	2208      	movs	r2, #8
 8005afc:	621a      	str	r2, [r3, #32]

      huart->ErrorCode |= HAL_UART_ERROR_ORE;
 8005afe:	687b      	ldr	r3, [r7, #4]
 8005b00:	2290      	movs	r2, #144	@ 0x90
 8005b02:	589b      	ldr	r3, [r3, r2]
 8005b04:	2208      	movs	r2, #8
 8005b06:	431a      	orrs	r2, r3
 8005b08:	687b      	ldr	r3, [r7, #4]
 8005b0a:	2190      	movs	r1, #144	@ 0x90
 8005b0c:	505a      	str	r2, [r3, r1]
    }

    /* UART Receiver Timeout interrupt occurred ---------------------------------*/
    if (((isrflags & USART_ISR_RTOF) != 0U) && ((cr1its & USART_CR1_RTOIE) != 0U))
 8005b0e:	23a4      	movs	r3, #164	@ 0xa4
 8005b10:	18fb      	adds	r3, r7, r3
 8005b12:	681a      	ldr	r2, [r3, #0]
 8005b14:	2380      	movs	r3, #128	@ 0x80
 8005b16:	011b      	lsls	r3, r3, #4
 8005b18:	4013      	ands	r3, r2
 8005b1a:	d013      	beq.n	8005b44 <HAL_UART_IRQHandler+0x1a4>
 8005b1c:	23a0      	movs	r3, #160	@ 0xa0
 8005b1e:	18fb      	adds	r3, r7, r3
 8005b20:	681a      	ldr	r2, [r3, #0]
 8005b22:	2380      	movs	r3, #128	@ 0x80
 8005b24:	04db      	lsls	r3, r3, #19
 8005b26:	4013      	ands	r3, r2
 8005b28:	d00c      	beq.n	8005b44 <HAL_UART_IRQHandler+0x1a4>
    {
      __HAL_UART_CLEAR_FLAG(huart, UART_CLEAR_RTOF);
 8005b2a:	687b      	ldr	r3, [r7, #4]
 8005b2c:	681b      	ldr	r3, [r3, #0]
 8005b2e:	2280      	movs	r2, #128	@ 0x80
 8005b30:	0112      	lsls	r2, r2, #4
 8005b32:	621a      	str	r2, [r3, #32]

      huart->ErrorCode |= HAL_UART_ERROR_RTO;
 8005b34:	687b      	ldr	r3, [r7, #4]
 8005b36:	2290      	movs	r2, #144	@ 0x90
 8005b38:	589b      	ldr	r3, [r3, r2]
 8005b3a:	2220      	movs	r2, #32
 8005b3c:	431a      	orrs	r2, r3
 8005b3e:	687b      	ldr	r3, [r7, #4]
 8005b40:	2190      	movs	r1, #144	@ 0x90
 8005b42:	505a      	str	r2, [r3, r1]
    }

    /* Call UART Error Call back function if need be ----------------------------*/
    if (huart->ErrorCode != HAL_UART_ERROR_NONE)
 8005b44:	687b      	ldr	r3, [r7, #4]
 8005b46:	2290      	movs	r2, #144	@ 0x90
 8005b48:	589b      	ldr	r3, [r3, r2]
 8005b4a:	2b00      	cmp	r3, #0
 8005b4c:	d100      	bne.n	8005b50 <HAL_UART_IRQHandler+0x1b0>
 8005b4e:	e23d      	b.n	8005fcc <HAL_UART_IRQHandler+0x62c>
    {
      /* UART in mode Receiver --------------------------------------------------*/
      if (((isrflags & USART_ISR_RXNE_RXFNE) != 0U)
 8005b50:	23a4      	movs	r3, #164	@ 0xa4
 8005b52:	18fb      	adds	r3, r7, r3
 8005b54:	681b      	ldr	r3, [r3, #0]
 8005b56:	2220      	movs	r2, #32
 8005b58:	4013      	ands	r3, r2
 8005b5a:	d015      	beq.n	8005b88 <HAL_UART_IRQHandler+0x1e8>
          && (((cr1its & USART_CR1_RXNEIE_RXFNEIE) != 0U)
 8005b5c:	23a0      	movs	r3, #160	@ 0xa0
 8005b5e:	18fb      	adds	r3, r7, r3
 8005b60:	681b      	ldr	r3, [r3, #0]
 8005b62:	2220      	movs	r2, #32
 8005b64:	4013      	ands	r3, r2
 8005b66:	d106      	bne.n	8005b76 <HAL_UART_IRQHandler+0x1d6>
              || ((cr3its & USART_CR3_RXFTIE) != 0U)))
 8005b68:	239c      	movs	r3, #156	@ 0x9c
 8005b6a:	18fb      	adds	r3, r7, r3
 8005b6c:	681a      	ldr	r2, [r3, #0]
 8005b6e:	2380      	movs	r3, #128	@ 0x80
 8005b70:	055b      	lsls	r3, r3, #21
 8005b72:	4013      	ands	r3, r2
 8005b74:	d008      	beq.n	8005b88 <HAL_UART_IRQHandler+0x1e8>
      {
        if (huart->RxISR != NULL)
 8005b76:	687b      	ldr	r3, [r7, #4]
 8005b78:	6f5b      	ldr	r3, [r3, #116]	@ 0x74
 8005b7a:	2b00      	cmp	r3, #0
 8005b7c:	d004      	beq.n	8005b88 <HAL_UART_IRQHandler+0x1e8>
        {
          huart->RxISR(huart);
 8005b7e:	687b      	ldr	r3, [r7, #4]
 8005b80:	6f5b      	ldr	r3, [r3, #116]	@ 0x74
 8005b82:	687a      	ldr	r2, [r7, #4]
 8005b84:	0010      	movs	r0, r2
 8005b86:	4798      	blx	r3
      /* If Error is to be considered as blocking :
          - Receiver Timeout error in Reception
          - Overrun error in Reception
          - any error occurs in DMA mode reception
      */
      errorcode = huart->ErrorCode;
 8005b88:	687b      	ldr	r3, [r7, #4]
 8005b8a:	2290      	movs	r2, #144	@ 0x90
 8005b8c:	589b      	ldr	r3, [r3, r2]
 8005b8e:	2194      	movs	r1, #148	@ 0x94
 8005b90:	187a      	adds	r2, r7, r1
 8005b92:	6013      	str	r3, [r2, #0]
      if ((HAL_IS_BIT_SET(huart->Instance->CR3, USART_CR3_DMAR)) ||
 8005b94:	687b      	ldr	r3, [r7, #4]
 8005b96:	681b      	ldr	r3, [r3, #0]
 8005b98:	689b      	ldr	r3, [r3, #8]
 8005b9a:	2240      	movs	r2, #64	@ 0x40
 8005b9c:	4013      	ands	r3, r2
 8005b9e:	2b40      	cmp	r3, #64	@ 0x40
 8005ba0:	d004      	beq.n	8005bac <HAL_UART_IRQHandler+0x20c>
          ((errorcode & (HAL_UART_ERROR_RTO | HAL_UART_ERROR_ORE)) != 0U))
 8005ba2:	187b      	adds	r3, r7, r1
 8005ba4:	681b      	ldr	r3, [r3, #0]
 8005ba6:	2228      	movs	r2, #40	@ 0x28
 8005ba8:	4013      	ands	r3, r2
      if ((HAL_IS_BIT_SET(huart->Instance->CR3, USART_CR3_DMAR)) ||
 8005baa:	d04c      	beq.n	8005c46 <HAL_UART_IRQHandler+0x2a6>
      {
        /* Blocking error : transfer is aborted
           Set the UART state ready to be able to start again the process,
           Disable Rx Interrupts, and disable Rx DMA request, if ongoing */
        UART_EndRxTransfer(huart);
 8005bac:	687b      	ldr	r3, [r7, #4]
 8005bae:	0018      	movs	r0, r3
 8005bb0:	f000 fec4 	bl	800693c <UART_EndRxTransfer>

        /* Abort the UART DMA Rx channel if enabled */
        if (HAL_IS_BIT_SET(huart->Instance->CR3, USART_CR3_DMAR))
 8005bb4:	687b      	ldr	r3, [r7, #4]
 8005bb6:	681b      	ldr	r3, [r3, #0]
 8005bb8:	689b      	ldr	r3, [r3, #8]
 8005bba:	2240      	movs	r2, #64	@ 0x40
 8005bbc:	4013      	ands	r3, r2
 8005bbe:	2b40      	cmp	r3, #64	@ 0x40
 8005bc0:	d13c      	bne.n	8005c3c <HAL_UART_IRQHandler+0x29c>
 */
__STATIC_FORCEINLINE uint32_t __get_PRIMASK(void)
{
  uint32_t result;

  __ASM volatile ("MRS %0, primask" : "=r" (result) :: "memory");
 8005bc2:	f3ef 8310 	mrs	r3, PRIMASK
 8005bc6:	663b      	str	r3, [r7, #96]	@ 0x60
  return(result);
 8005bc8:	6e3b      	ldr	r3, [r7, #96]	@ 0x60
        {
          /* Disable the UART DMA Rx request if enabled */
          ATOMIC_CLEAR_BIT(huart->Instance->CR3, USART_CR3_DMAR);
 8005bca:	2090      	movs	r0, #144	@ 0x90
 8005bcc:	183a      	adds	r2, r7, r0
 8005bce:	6013      	str	r3, [r2, #0]
 8005bd0:	2301      	movs	r3, #1
 8005bd2:	667b      	str	r3, [r7, #100]	@ 0x64
  \details Assigns the given value to the Priority Mask Register.
  \param [in]    priMask  Priority Mask
 */
__STATIC_FORCEINLINE void __set_PRIMASK(uint32_t priMask)
{
  __ASM volatile ("MSR primask, %0" : : "r" (priMask) : "memory");
 8005bd4:	6e7b      	ldr	r3, [r7, #100]	@ 0x64
 8005bd6:	f383 8810 	msr	PRIMASK, r3
}
 8005bda:	46c0      	nop			@ (mov r8, r8)
 8005bdc:	687b      	ldr	r3, [r7, #4]
 8005bde:	681b      	ldr	r3, [r3, #0]
 8005be0:	689a      	ldr	r2, [r3, #8]
 8005be2:	687b      	ldr	r3, [r7, #4]
 8005be4:	681b      	ldr	r3, [r3, #0]
 8005be6:	2140      	movs	r1, #64	@ 0x40
 8005be8:	438a      	bics	r2, r1
 8005bea:	609a      	str	r2, [r3, #8]
 8005bec:	183b      	adds	r3, r7, r0
 8005bee:	681b      	ldr	r3, [r3, #0]
 8005bf0:	66bb      	str	r3, [r7, #104]	@ 0x68
  __ASM volatile ("MSR primask, %0" : : "r" (priMask) : "memory");
 8005bf2:	6ebb      	ldr	r3, [r7, #104]	@ 0x68
 8005bf4:	f383 8810 	msr	PRIMASK, r3
}
 8005bf8:	46c0      	nop			@ (mov r8, r8)

          /* Abort the UART DMA Rx channel */
          if (huart->hdmarx != NULL)
 8005bfa:	687b      	ldr	r3, [r7, #4]
 8005bfc:	2280      	movs	r2, #128	@ 0x80
 8005bfe:	589b      	ldr	r3, [r3, r2]
 8005c00:	2b00      	cmp	r3, #0
 8005c02:	d016      	beq.n	8005c32 <HAL_UART_IRQHandler+0x292>
          {
            /* Set the UART DMA Abort callback :
               will lead to call HAL_UART_ErrorCallback() at end of DMA abort procedure */
            huart->hdmarx->XferAbortCallback = UART_DMAAbortOnError;
 8005c04:	687b      	ldr	r3, [r7, #4]
 8005c06:	2280      	movs	r2, #128	@ 0x80
 8005c08:	589b      	ldr	r3, [r3, r2]
 8005c0a:	4a17      	ldr	r2, [pc, #92]	@ (8005c68 <HAL_UART_IRQHandler+0x2c8>)
 8005c0c:	639a      	str	r2, [r3, #56]	@ 0x38

            /* Abort DMA RX */
            if (HAL_DMA_Abort_IT(huart->hdmarx) != HAL_OK)
 8005c0e:	687b      	ldr	r3, [r7, #4]
 8005c10:	2280      	movs	r2, #128	@ 0x80
 8005c12:	589b      	ldr	r3, [r3, r2]
 8005c14:	0018      	movs	r0, r3
 8005c16:	f7fe fafb 	bl	8004210 <HAL_DMA_Abort_IT>
 8005c1a:	1e03      	subs	r3, r0, #0
 8005c1c:	d01c      	beq.n	8005c58 <HAL_UART_IRQHandler+0x2b8>
            {
              /* Call Directly huart->hdmarx->XferAbortCallback function in case of error */
              huart->hdmarx->XferAbortCallback(huart->hdmarx);
 8005c1e:	687b      	ldr	r3, [r7, #4]
 8005c20:	2280      	movs	r2, #128	@ 0x80
 8005c22:	589b      	ldr	r3, [r3, r2]
 8005c24:	6b9b      	ldr	r3, [r3, #56]	@ 0x38
 8005c26:	687a      	ldr	r2, [r7, #4]
 8005c28:	2180      	movs	r1, #128	@ 0x80
 8005c2a:	5852      	ldr	r2, [r2, r1]
 8005c2c:	0010      	movs	r0, r2
 8005c2e:	4798      	blx	r3
        if (HAL_IS_BIT_SET(huart->Instance->CR3, USART_CR3_DMAR))
 8005c30:	e012      	b.n	8005c58 <HAL_UART_IRQHandler+0x2b8>
#if (USE_HAL_UART_REGISTER_CALLBACKS == 1)
            /*Call registered error callback*/
            huart->ErrorCallback(huart);
#else
            /*Call legacy weak error callback*/
            HAL_UART_ErrorCallback(huart);
 8005c32:	687b      	ldr	r3, [r7, #4]
 8005c34:	0018      	movs	r0, r3
 8005c36:	f000 f9e1 	bl	8005ffc <HAL_UART_ErrorCallback>
        if (HAL_IS_BIT_SET(huart->Instance->CR3, USART_CR3_DMAR))
 8005c3a:	e00d      	b.n	8005c58 <HAL_UART_IRQHandler+0x2b8>
#if (USE_HAL_UART_REGISTER_CALLBACKS == 1)
          /*Call registered error callback*/
          huart->ErrorCallback(huart);
#else
          /*Call legacy weak error callback*/
          HAL_UART_ErrorCallback(huart);
 8005c3c:	687b      	ldr	r3, [r7, #4]
 8005c3e:	0018      	movs	r0, r3
 8005c40:	f000 f9dc 	bl	8005ffc <HAL_UART_ErrorCallback>
        if (HAL_IS_BIT_SET(huart->Instance->CR3, USART_CR3_DMAR))
 8005c44:	e008      	b.n	8005c58 <HAL_UART_IRQHandler+0x2b8>
#if (USE_HAL_UART_REGISTER_CALLBACKS == 1)
        /*Call registered error callback*/
        huart->ErrorCallback(huart);
#else
        /*Call legacy weak error callback*/
        HAL_UART_ErrorCallback(huart);
 8005c46:	687b      	ldr	r3, [r7, #4]
 8005c48:	0018      	movs	r0, r3
 8005c4a:	f000 f9d7 	bl	8005ffc <HAL_UART_ErrorCallback>
#endif /* USE_HAL_UART_REGISTER_CALLBACKS */
        huart->ErrorCode = HAL_UART_ERROR_NONE;
 8005c4e:	687b      	ldr	r3, [r7, #4]
 8005c50:	2290      	movs	r2, #144	@ 0x90
 8005c52:	2100      	movs	r1, #0
 8005c54:	5099      	str	r1, [r3, r2]
      }
    }
    return;
 8005c56:	e1b9      	b.n	8005fcc <HAL_UART_IRQHandler+0x62c>
        if (HAL_IS_BIT_SET(huart->Instance->CR3, USART_CR3_DMAR))
 8005c58:	46c0      	nop			@ (mov r8, r8)
    return;
 8005c5a:	e1b7      	b.n	8005fcc <HAL_UART_IRQHandler+0x62c>
 8005c5c:	0000080f 	.word	0x0000080f
 8005c60:	10000001 	.word	0x10000001
 8005c64:	04000120 	.word	0x04000120
 8005c68:	08006a09 	.word	0x08006a09

  } /* End if some error occurs */

  /* Check current reception Mode :
     If Reception till IDLE event has been selected : */
  if ((huart->ReceptionType == HAL_UART_RECEPTION_TOIDLE)
 8005c6c:	687b      	ldr	r3, [r7, #4]
 8005c6e:	6edb      	ldr	r3, [r3, #108]	@ 0x6c
 8005c70:	2b01      	cmp	r3, #1
 8005c72:	d000      	beq.n	8005c76 <HAL_UART_IRQHandler+0x2d6>
 8005c74:	e13e      	b.n	8005ef4 <HAL_UART_IRQHandler+0x554>
      && ((isrflags & USART_ISR_IDLE) != 0U)
 8005c76:	23a4      	movs	r3, #164	@ 0xa4
 8005c78:	18fb      	adds	r3, r7, r3
 8005c7a:	681b      	ldr	r3, [r3, #0]
 8005c7c:	2210      	movs	r2, #16
 8005c7e:	4013      	ands	r3, r2
 8005c80:	d100      	bne.n	8005c84 <HAL_UART_IRQHandler+0x2e4>
 8005c82:	e137      	b.n	8005ef4 <HAL_UART_IRQHandler+0x554>
      && ((cr1its & USART_ISR_IDLE) != 0U))
 8005c84:	23a0      	movs	r3, #160	@ 0xa0
 8005c86:	18fb      	adds	r3, r7, r3
 8005c88:	681b      	ldr	r3, [r3, #0]
 8005c8a:	2210      	movs	r2, #16
 8005c8c:	4013      	ands	r3, r2
 8005c8e:	d100      	bne.n	8005c92 <HAL_UART_IRQHandler+0x2f2>
 8005c90:	e130      	b.n	8005ef4 <HAL_UART_IRQHandler+0x554>
  {
    __HAL_UART_CLEAR_FLAG(huart, UART_CLEAR_IDLEF);
 8005c92:	687b      	ldr	r3, [r7, #4]
 8005c94:	681b      	ldr	r3, [r3, #0]
 8005c96:	2210      	movs	r2, #16
 8005c98:	621a      	str	r2, [r3, #32]

    /* Check if DMA mode is enabled in UART */
    if (HAL_IS_BIT_SET(huart->Instance->CR3, USART_CR3_DMAR))
 8005c9a:	687b      	ldr	r3, [r7, #4]
 8005c9c:	681b      	ldr	r3, [r3, #0]
 8005c9e:	689b      	ldr	r3, [r3, #8]
 8005ca0:	2240      	movs	r2, #64	@ 0x40
 8005ca2:	4013      	ands	r3, r2
 8005ca4:	2b40      	cmp	r3, #64	@ 0x40
 8005ca6:	d000      	beq.n	8005caa <HAL_UART_IRQHandler+0x30a>
 8005ca8:	e0a4      	b.n	8005df4 <HAL_UART_IRQHandler+0x454>
    {
      /* DMA mode enabled */
      /* Check received length : If all expected data are received, do nothing,
         (DMA cplt callback will be called).
         Otherwise, if at least one data has already been received, IDLE event is to be notified to user */
      uint16_t nb_remaining_rx_data = (uint16_t) __HAL_DMA_GET_COUNTER(huart->hdmarx);
 8005caa:	687b      	ldr	r3, [r7, #4]
 8005cac:	2280      	movs	r2, #128	@ 0x80
 8005cae:	589b      	ldr	r3, [r3, r2]
 8005cb0:	681b      	ldr	r3, [r3, #0]
 8005cb2:	685a      	ldr	r2, [r3, #4]
 8005cb4:	217e      	movs	r1, #126	@ 0x7e
 8005cb6:	187b      	adds	r3, r7, r1
 8005cb8:	801a      	strh	r2, [r3, #0]
      if ((nb_remaining_rx_data > 0U)
 8005cba:	187b      	adds	r3, r7, r1
 8005cbc:	881b      	ldrh	r3, [r3, #0]
 8005cbe:	2b00      	cmp	r3, #0
 8005cc0:	d100      	bne.n	8005cc4 <HAL_UART_IRQHandler+0x324>
 8005cc2:	e185      	b.n	8005fd0 <HAL_UART_IRQHandler+0x630>
          && (nb_remaining_rx_data < huart->RxXferSize))
 8005cc4:	687b      	ldr	r3, [r7, #4]
 8005cc6:	225c      	movs	r2, #92	@ 0x5c
 8005cc8:	5a9b      	ldrh	r3, [r3, r2]
 8005cca:	187a      	adds	r2, r7, r1
 8005ccc:	8812      	ldrh	r2, [r2, #0]
 8005cce:	429a      	cmp	r2, r3
 8005cd0:	d300      	bcc.n	8005cd4 <HAL_UART_IRQHandler+0x334>
 8005cd2:	e17d      	b.n	8005fd0 <HAL_UART_IRQHandler+0x630>
      {
        /* Reception is not complete */
        huart->RxXferCount = nb_remaining_rx_data;
 8005cd4:	687b      	ldr	r3, [r7, #4]
 8005cd6:	187a      	adds	r2, r7, r1
 8005cd8:	215e      	movs	r1, #94	@ 0x5e
 8005cda:	8812      	ldrh	r2, [r2, #0]
 8005cdc:	525a      	strh	r2, [r3, r1]

        /* In Normal mode, end DMA xfer and HAL UART Rx process*/
        if (HAL_IS_BIT_CLR(huart->hdmarx->Instance->CCR, DMA_CCR_CIRC))
 8005cde:	687b      	ldr	r3, [r7, #4]
 8005ce0:	2280      	movs	r2, #128	@ 0x80
 8005ce2:	589b      	ldr	r3, [r3, r2]
 8005ce4:	681b      	ldr	r3, [r3, #0]
 8005ce6:	681b      	ldr	r3, [r3, #0]
 8005ce8:	2220      	movs	r2, #32
 8005cea:	4013      	ands	r3, r2
 8005cec:	d170      	bne.n	8005dd0 <HAL_UART_IRQHandler+0x430>
  __ASM volatile ("MRS %0, primask" : "=r" (result) :: "memory");
 8005cee:	f3ef 8310 	mrs	r3, PRIMASK
 8005cf2:	633b      	str	r3, [r7, #48]	@ 0x30
  return(result);
 8005cf4:	6b3b      	ldr	r3, [r7, #48]	@ 0x30
        {
          /* Disable PE and ERR (Frame error, noise error, overrun error) interrupts */
          ATOMIC_CLEAR_BIT(huart->Instance->CR1, USART_CR1_PEIE);
 8005cf6:	67bb      	str	r3, [r7, #120]	@ 0x78
 8005cf8:	2301      	movs	r3, #1
 8005cfa:	637b      	str	r3, [r7, #52]	@ 0x34
  __ASM volatile ("MSR primask, %0" : : "r" (priMask) : "memory");
 8005cfc:	6b7b      	ldr	r3, [r7, #52]	@ 0x34
 8005cfe:	f383 8810 	msr	PRIMASK, r3
}
 8005d02:	46c0      	nop			@ (mov r8, r8)
 8005d04:	687b      	ldr	r3, [r7, #4]
 8005d06:	681b      	ldr	r3, [r3, #0]
 8005d08:	681a      	ldr	r2, [r3, #0]
 8005d0a:	687b      	ldr	r3, [r7, #4]
 8005d0c:	681b      	ldr	r3, [r3, #0]
 8005d0e:	49b4      	ldr	r1, [pc, #720]	@ (8005fe0 <HAL_UART_IRQHandler+0x640>)
 8005d10:	400a      	ands	r2, r1
 8005d12:	601a      	str	r2, [r3, #0]
 8005d14:	6fbb      	ldr	r3, [r7, #120]	@ 0x78
 8005d16:	63bb      	str	r3, [r7, #56]	@ 0x38
  __ASM volatile ("MSR primask, %0" : : "r" (priMask) : "memory");
 8005d18:	6bbb      	ldr	r3, [r7, #56]	@ 0x38
 8005d1a:	f383 8810 	msr	PRIMASK, r3
}
 8005d1e:	46c0      	nop			@ (mov r8, r8)
  __ASM volatile ("MRS %0, primask" : "=r" (result) :: "memory");
 8005d20:	f3ef 8310 	mrs	r3, PRIMASK
 8005d24:	63fb      	str	r3, [r7, #60]	@ 0x3c
  return(result);
 8005d26:	6bfb      	ldr	r3, [r7, #60]	@ 0x3c
          ATOMIC_CLEAR_BIT(huart->Instance->CR3, USART_CR3_EIE);
 8005d28:	677b      	str	r3, [r7, #116]	@ 0x74
 8005d2a:	2301      	movs	r3, #1
 8005d2c:	643b      	str	r3, [r7, #64]	@ 0x40
  __ASM volatile ("MSR primask, %0" : : "r" (priMask) : "memory");
 8005d2e:	6c3b      	ldr	r3, [r7, #64]	@ 0x40
 8005d30:	f383 8810 	msr	PRIMASK, r3
}
 8005d34:	46c0      	nop			@ (mov r8, r8)
 8005d36:	687b      	ldr	r3, [r7, #4]
 8005d38:	681b      	ldr	r3, [r3, #0]
 8005d3a:	689a      	ldr	r2, [r3, #8]
 8005d3c:	687b      	ldr	r3, [r7, #4]
 8005d3e:	681b      	ldr	r3, [r3, #0]
 8005d40:	2101      	movs	r1, #1
 8005d42:	438a      	bics	r2, r1
 8005d44:	609a      	str	r2, [r3, #8]
 8005d46:	6f7b      	ldr	r3, [r7, #116]	@ 0x74
 8005d48:	647b      	str	r3, [r7, #68]	@ 0x44
  __ASM volatile ("MSR primask, %0" : : "r" (priMask) : "memory");
 8005d4a:	6c7b      	ldr	r3, [r7, #68]	@ 0x44
 8005d4c:	f383 8810 	msr	PRIMASK, r3
}
 8005d50:	46c0      	nop			@ (mov r8, r8)
  __ASM volatile ("MRS %0, primask" : "=r" (result) :: "memory");
 8005d52:	f3ef 8310 	mrs	r3, PRIMASK
 8005d56:	64bb      	str	r3, [r7, #72]	@ 0x48
  return(result);
 8005d58:	6cbb      	ldr	r3, [r7, #72]	@ 0x48

          /* Disable the DMA transfer for the receiver request by resetting the DMAR bit
             in the UART CR3 register */
          ATOMIC_CLEAR_BIT(huart->Instance->CR3, USART_CR3_DMAR);
 8005d5a:	673b      	str	r3, [r7, #112]	@ 0x70
 8005d5c:	2301      	movs	r3, #1
 8005d5e:	64fb      	str	r3, [r7, #76]	@ 0x4c
  __ASM volatile ("MSR primask, %0" : : "r" (priMask) : "memory");
 8005d60:	6cfb      	ldr	r3, [r7, #76]	@ 0x4c
 8005d62:	f383 8810 	msr	PRIMASK, r3
}
 8005d66:	46c0      	nop			@ (mov r8, r8)
 8005d68:	687b      	ldr	r3, [r7, #4]
 8005d6a:	681b      	ldr	r3, [r3, #0]
 8005d6c:	689a      	ldr	r2, [r3, #8]
 8005d6e:	687b      	ldr	r3, [r7, #4]
 8005d70:	681b      	ldr	r3, [r3, #0]
 8005d72:	2140      	movs	r1, #64	@ 0x40
 8005d74:	438a      	bics	r2, r1
 8005d76:	609a      	str	r2, [r3, #8]
 8005d78:	6f3b      	ldr	r3, [r7, #112]	@ 0x70
 8005d7a:	653b      	str	r3, [r7, #80]	@ 0x50
  __ASM volatile ("MSR primask, %0" : : "r" (priMask) : "memory");
 8005d7c:	6d3b      	ldr	r3, [r7, #80]	@ 0x50
 8005d7e:	f383 8810 	msr	PRIMASK, r3
}
 8005d82:	46c0      	nop			@ (mov r8, r8)

          /* At end of Rx process, restore huart->RxState to Ready */
          huart->RxState = HAL_UART_STATE_READY;
 8005d84:	687b      	ldr	r3, [r7, #4]
 8005d86:	228c      	movs	r2, #140	@ 0x8c
 8005d88:	2120      	movs	r1, #32
 8005d8a:	5099      	str	r1, [r3, r2]
          huart->ReceptionType = HAL_UART_RECEPTION_STANDARD;
 8005d8c:	687b      	ldr	r3, [r7, #4]
 8005d8e:	2200      	movs	r2, #0
 8005d90:	66da      	str	r2, [r3, #108]	@ 0x6c
  __ASM volatile ("MRS %0, primask" : "=r" (result) :: "memory");
 8005d92:	f3ef 8310 	mrs	r3, PRIMASK
 8005d96:	657b      	str	r3, [r7, #84]	@ 0x54
  return(result);
 8005d98:	6d7b      	ldr	r3, [r7, #84]	@ 0x54

          ATOMIC_CLEAR_BIT(huart->Instance->CR1, USART_CR1_IDLEIE);
 8005d9a:	66fb      	str	r3, [r7, #108]	@ 0x6c
 8005d9c:	2301      	movs	r3, #1
 8005d9e:	65bb      	str	r3, [r7, #88]	@ 0x58
  __ASM volatile ("MSR primask, %0" : : "r" (priMask) : "memory");
 8005da0:	6dbb      	ldr	r3, [r7, #88]	@ 0x58
 8005da2:	f383 8810 	msr	PRIMASK, r3
}
 8005da6:	46c0      	nop			@ (mov r8, r8)
 8005da8:	687b      	ldr	r3, [r7, #4]
 8005daa:	681b      	ldr	r3, [r3, #0]
 8005dac:	681a      	ldr	r2, [r3, #0]
 8005dae:	687b      	ldr	r3, [r7, #4]
 8005db0:	681b      	ldr	r3, [r3, #0]
 8005db2:	2110      	movs	r1, #16
 8005db4:	438a      	bics	r2, r1
 8005db6:	601a      	str	r2, [r3, #0]
 8005db8:	6efb      	ldr	r3, [r7, #108]	@ 0x6c
 8005dba:	65fb      	str	r3, [r7, #92]	@ 0x5c
  __ASM volatile ("MSR primask, %0" : : "r" (priMask) : "memory");
 8005dbc:	6dfb      	ldr	r3, [r7, #92]	@ 0x5c
 8005dbe:	f383 8810 	msr	PRIMASK, r3
}
 8005dc2:	46c0      	nop			@ (mov r8, r8)

          /* Last bytes received, so no need as the abort is immediate */
          (void)HAL_DMA_Abort(huart->hdmarx);
 8005dc4:	687b      	ldr	r3, [r7, #4]
 8005dc6:	2280      	movs	r2, #128	@ 0x80
 8005dc8:	589b      	ldr	r3, [r3, r2]
 8005dca:	0018      	movs	r0, r3
 8005dcc:	f7fe f9be 	bl	800414c <HAL_DMA_Abort>
        }

        /* Initialize type of RxEvent that correspond to RxEvent callback execution;
           In this case, Rx Event type is Idle Event */
        huart->RxEventType = HAL_UART_RXEVENT_IDLE;
 8005dd0:	687b      	ldr	r3, [r7, #4]
 8005dd2:	2202      	movs	r2, #2
 8005dd4:	671a      	str	r2, [r3, #112]	@ 0x70
#if (USE_HAL_UART_REGISTER_CALLBACKS == 1)
        /*Call registered Rx Event callback*/
        huart->RxEventCallback(huart, (huart->RxXferSize - huart->RxXferCount));
#else
        /*Call legacy weak Rx Event callback*/
        HAL_UARTEx_RxEventCallback(huart, (huart->RxXferSize - huart->RxXferCount));
 8005dd6:	687b      	ldr	r3, [r7, #4]
 8005dd8:	225c      	movs	r2, #92	@ 0x5c
 8005dda:	5a9a      	ldrh	r2, [r3, r2]
 8005ddc:	687b      	ldr	r3, [r7, #4]
 8005dde:	215e      	movs	r1, #94	@ 0x5e
 8005de0:	5a5b      	ldrh	r3, [r3, r1]
 8005de2:	b29b      	uxth	r3, r3
 8005de4:	1ad3      	subs	r3, r2, r3
 8005de6:	b29a      	uxth	r2, r3
 8005de8:	687b      	ldr	r3, [r7, #4]
 8005dea:	0011      	movs	r1, r2
 8005dec:	0018      	movs	r0, r3
 8005dee:	f000 f90d 	bl	800600c <HAL_UARTEx_RxEventCallback>
#endif /* (USE_HAL_UART_REGISTER_CALLBACKS) */
      }
      return;
 8005df2:	e0ed      	b.n	8005fd0 <HAL_UART_IRQHandler+0x630>
    else
    {
      /* DMA mode not enabled */
      /* Check received length : If all expected data are received, do nothing.
         Otherwise, if at least one data has already been received, IDLE event is to be notified to user */
      uint16_t nb_rx_data = huart->RxXferSize - huart->RxXferCount;
 8005df4:	687b      	ldr	r3, [r7, #4]
 8005df6:	225c      	movs	r2, #92	@ 0x5c
 8005df8:	5a99      	ldrh	r1, [r3, r2]
 8005dfa:	687b      	ldr	r3, [r7, #4]
 8005dfc:	225e      	movs	r2, #94	@ 0x5e
 8005dfe:	5a9b      	ldrh	r3, [r3, r2]
 8005e00:	b29a      	uxth	r2, r3
 8005e02:	208e      	movs	r0, #142	@ 0x8e
 8005e04:	183b      	adds	r3, r7, r0
 8005e06:	1a8a      	subs	r2, r1, r2
 8005e08:	801a      	strh	r2, [r3, #0]
      if ((huart->RxXferCount > 0U)
 8005e0a:	687b      	ldr	r3, [r7, #4]
 8005e0c:	225e      	movs	r2, #94	@ 0x5e
 8005e0e:	5a9b      	ldrh	r3, [r3, r2]
 8005e10:	b29b      	uxth	r3, r3
 8005e12:	2b00      	cmp	r3, #0
 8005e14:	d100      	bne.n	8005e18 <HAL_UART_IRQHandler+0x478>
 8005e16:	e0dd      	b.n	8005fd4 <HAL_UART_IRQHandler+0x634>
          && (nb_rx_data > 0U))
 8005e18:	183b      	adds	r3, r7, r0
 8005e1a:	881b      	ldrh	r3, [r3, #0]
 8005e1c:	2b00      	cmp	r3, #0
 8005e1e:	d100      	bne.n	8005e22 <HAL_UART_IRQHandler+0x482>
 8005e20:	e0d8      	b.n	8005fd4 <HAL_UART_IRQHandler+0x634>
  __ASM volatile ("MRS %0, primask" : "=r" (result) :: "memory");
 8005e22:	f3ef 8310 	mrs	r3, PRIMASK
 8005e26:	60fb      	str	r3, [r7, #12]
  return(result);
 8005e28:	68fb      	ldr	r3, [r7, #12]
      {
        /* Disable the UART Parity Error Interrupt and RXNE interrupts */
        ATOMIC_CLEAR_BIT(huart->Instance->CR1, (USART_CR1_RXNEIE_RXFNEIE | USART_CR1_PEIE));
 8005e2a:	2488      	movs	r4, #136	@ 0x88
 8005e2c:	193a      	adds	r2, r7, r4
 8005e2e:	6013      	str	r3, [r2, #0]
 8005e30:	2301      	movs	r3, #1
 8005e32:	613b      	str	r3, [r7, #16]
  __ASM volatile ("MSR primask, %0" : : "r" (priMask) : "memory");
 8005e34:	693b      	ldr	r3, [r7, #16]
 8005e36:	f383 8810 	msr	PRIMASK, r3
}
 8005e3a:	46c0      	nop			@ (mov r8, r8)
 8005e3c:	687b      	ldr	r3, [r7, #4]
 8005e3e:	681b      	ldr	r3, [r3, #0]
 8005e40:	681a      	ldr	r2, [r3, #0]
 8005e42:	687b      	ldr	r3, [r7, #4]
 8005e44:	681b      	ldr	r3, [r3, #0]
 8005e46:	4967      	ldr	r1, [pc, #412]	@ (8005fe4 <HAL_UART_IRQHandler+0x644>)
 8005e48:	400a      	ands	r2, r1
 8005e4a:	601a      	str	r2, [r3, #0]
 8005e4c:	193b      	adds	r3, r7, r4
 8005e4e:	681b      	ldr	r3, [r3, #0]
 8005e50:	617b      	str	r3, [r7, #20]
  __ASM volatile ("MSR primask, %0" : : "r" (priMask) : "memory");
 8005e52:	697b      	ldr	r3, [r7, #20]
 8005e54:	f383 8810 	msr	PRIMASK, r3
}
 8005e58:	46c0      	nop			@ (mov r8, r8)
  __ASM volatile ("MRS %0, primask" : "=r" (result) :: "memory");
 8005e5a:	f3ef 8310 	mrs	r3, PRIMASK
 8005e5e:	61bb      	str	r3, [r7, #24]
  return(result);
 8005e60:	69bb      	ldr	r3, [r7, #24]

        /* Disable the UART Error Interrupt:(Frame error, noise error, overrun error) and RX FIFO Threshold interrupt */
        ATOMIC_CLEAR_BIT(huart->Instance->CR3, (USART_CR3_EIE | USART_CR3_RXFTIE));
 8005e62:	2484      	movs	r4, #132	@ 0x84
 8005e64:	193a      	adds	r2, r7, r4
 8005e66:	6013      	str	r3, [r2, #0]
 8005e68:	2301      	movs	r3, #1
 8005e6a:	61fb      	str	r3, [r7, #28]
  __ASM volatile ("MSR primask, %0" : : "r" (priMask) : "memory");
 8005e6c:	69fb      	ldr	r3, [r7, #28]
 8005e6e:	f383 8810 	msr	PRIMASK, r3
}
 8005e72:	46c0      	nop			@ (mov r8, r8)
 8005e74:	687b      	ldr	r3, [r7, #4]
 8005e76:	681b      	ldr	r3, [r3, #0]
 8005e78:	689a      	ldr	r2, [r3, #8]
 8005e7a:	687b      	ldr	r3, [r7, #4]
 8005e7c:	681b      	ldr	r3, [r3, #0]
 8005e7e:	495a      	ldr	r1, [pc, #360]	@ (8005fe8 <HAL_UART_IRQHandler+0x648>)
 8005e80:	400a      	ands	r2, r1
 8005e82:	609a      	str	r2, [r3, #8]
 8005e84:	193b      	adds	r3, r7, r4
 8005e86:	681b      	ldr	r3, [r3, #0]
 8005e88:	623b      	str	r3, [r7, #32]
  __ASM volatile ("MSR primask, %0" : : "r" (priMask) : "memory");
 8005e8a:	6a3b      	ldr	r3, [r7, #32]
 8005e8c:	f383 8810 	msr	PRIMASK, r3
}
 8005e90:	46c0      	nop			@ (mov r8, r8)

        /* Rx process is completed, restore huart->RxState to Ready */
        huart->RxState = HAL_UART_STATE_READY;
 8005e92:	687b      	ldr	r3, [r7, #4]
 8005e94:	228c      	movs	r2, #140	@ 0x8c
 8005e96:	2120      	movs	r1, #32
 8005e98:	5099      	str	r1, [r3, r2]
        huart->ReceptionType = HAL_UART_RECEPTION_STANDARD;
 8005e9a:	687b      	ldr	r3, [r7, #4]
 8005e9c:	2200      	movs	r2, #0
 8005e9e:	66da      	str	r2, [r3, #108]	@ 0x6c

        /* Clear RxISR function pointer */
        huart->RxISR = NULL;
 8005ea0:	687b      	ldr	r3, [r7, #4]
 8005ea2:	2200      	movs	r2, #0
 8005ea4:	675a      	str	r2, [r3, #116]	@ 0x74
  __ASM volatile ("MRS %0, primask" : "=r" (result) :: "memory");
 8005ea6:	f3ef 8310 	mrs	r3, PRIMASK
 8005eaa:	627b      	str	r3, [r7, #36]	@ 0x24
  return(result);
 8005eac:	6a7b      	ldr	r3, [r7, #36]	@ 0x24

        ATOMIC_CLEAR_BIT(huart->Instance->CR1, USART_CR1_IDLEIE);
 8005eae:	2480      	movs	r4, #128	@ 0x80
 8005eb0:	193a      	adds	r2, r7, r4
 8005eb2:	6013      	str	r3, [r2, #0]
 8005eb4:	2301      	movs	r3, #1
 8005eb6:	62bb      	str	r3, [r7, #40]	@ 0x28
  __ASM volatile ("MSR primask, %0" : : "r" (priMask) : "memory");
 8005eb8:	6abb      	ldr	r3, [r7, #40]	@ 0x28
 8005eba:	f383 8810 	msr	PRIMASK, r3
}
 8005ebe:	46c0      	nop			@ (mov r8, r8)
 8005ec0:	687b      	ldr	r3, [r7, #4]
 8005ec2:	681b      	ldr	r3, [r3, #0]
 8005ec4:	681a      	ldr	r2, [r3, #0]
 8005ec6:	687b      	ldr	r3, [r7, #4]
 8005ec8:	681b      	ldr	r3, [r3, #0]
 8005eca:	2110      	movs	r1, #16
 8005ecc:	438a      	bics	r2, r1
 8005ece:	601a      	str	r2, [r3, #0]
 8005ed0:	193b      	adds	r3, r7, r4
 8005ed2:	681b      	ldr	r3, [r3, #0]
 8005ed4:	62fb      	str	r3, [r7, #44]	@ 0x2c
  __ASM volatile ("MSR primask, %0" : : "r" (priMask) : "memory");
 8005ed6:	6afb      	ldr	r3, [r7, #44]	@ 0x2c
 8005ed8:	f383 8810 	msr	PRIMASK, r3
}
 8005edc:	46c0      	nop			@ (mov r8, r8)

        /* Initialize type of RxEvent that correspond to RxEvent callback execution;
           In this case, Rx Event type is Idle Event */
        huart->RxEventType = HAL_UART_RXEVENT_IDLE;
 8005ede:	687b      	ldr	r3, [r7, #4]
 8005ee0:	2202      	movs	r2, #2
 8005ee2:	671a      	str	r2, [r3, #112]	@ 0x70
#if (USE_HAL_UART_REGISTER_CALLBACKS == 1)
        /*Call registered Rx complete callback*/
        huart->RxEventCallback(huart, nb_rx_data);
#else
        /*Call legacy weak Rx Event callback*/
        HAL_UARTEx_RxEventCallback(huart, nb_rx_data);
 8005ee4:	183b      	adds	r3, r7, r0
 8005ee6:	881a      	ldrh	r2, [r3, #0]
 8005ee8:	687b      	ldr	r3, [r7, #4]
 8005eea:	0011      	movs	r1, r2
 8005eec:	0018      	movs	r0, r3
 8005eee:	f000 f88d 	bl	800600c <HAL_UARTEx_RxEventCallback>
#endif /* (USE_HAL_UART_REGISTER_CALLBACKS) */
      }
      return;
 8005ef2:	e06f      	b.n	8005fd4 <HAL_UART_IRQHandler+0x634>
    }
  }

  /* UART wakeup from Stop mode interrupt occurred ---------------------------*/
  if (((isrflags & USART_ISR_WUF) != 0U) && ((cr3its & USART_CR3_WUFIE) != 0U))
 8005ef4:	23a4      	movs	r3, #164	@ 0xa4
 8005ef6:	18fb      	adds	r3, r7, r3
 8005ef8:	681a      	ldr	r2, [r3, #0]
 8005efa:	2380      	movs	r3, #128	@ 0x80
 8005efc:	035b      	lsls	r3, r3, #13
 8005efe:	4013      	ands	r3, r2
 8005f00:	d010      	beq.n	8005f24 <HAL_UART_IRQHandler+0x584>
 8005f02:	239c      	movs	r3, #156	@ 0x9c
 8005f04:	18fb      	adds	r3, r7, r3
 8005f06:	681a      	ldr	r2, [r3, #0]
 8005f08:	2380      	movs	r3, #128	@ 0x80
 8005f0a:	03db      	lsls	r3, r3, #15
 8005f0c:	4013      	ands	r3, r2
 8005f0e:	d009      	beq.n	8005f24 <HAL_UART_IRQHandler+0x584>
  {
    __HAL_UART_CLEAR_FLAG(huart, UART_CLEAR_WUF);
 8005f10:	687b      	ldr	r3, [r7, #4]
 8005f12:	681b      	ldr	r3, [r3, #0]
 8005f14:	2280      	movs	r2, #128	@ 0x80
 8005f16:	0352      	lsls	r2, r2, #13
 8005f18:	621a      	str	r2, [r3, #32]
#if (USE_HAL_UART_REGISTER_CALLBACKS == 1)
    /* Call registered Wakeup Callback */
    huart->WakeupCallback(huart);
#else
    /* Call legacy weak Wakeup Callback */
    HAL_UARTEx_WakeupCallback(huart);
 8005f1a:	687b      	ldr	r3, [r7, #4]
 8005f1c:	0018      	movs	r0, r3
 8005f1e:	f000 fdb6 	bl	8006a8e <HAL_UARTEx_WakeupCallback>
#endif /* USE_HAL_UART_REGISTER_CALLBACKS */
    return;
 8005f22:	e05a      	b.n	8005fda <HAL_UART_IRQHandler+0x63a>
  }

  /* UART in mode Transmitter ------------------------------------------------*/
  if (((isrflags & USART_ISR_TXE_TXFNF) != 0U)
 8005f24:	23a4      	movs	r3, #164	@ 0xa4
 8005f26:	18fb      	adds	r3, r7, r3
 8005f28:	681b      	ldr	r3, [r3, #0]
 8005f2a:	2280      	movs	r2, #128	@ 0x80
 8005f2c:	4013      	ands	r3, r2
 8005f2e:	d016      	beq.n	8005f5e <HAL_UART_IRQHandler+0x5be>
      && (((cr1its & USART_CR1_TXEIE_TXFNFIE) != 0U)
 8005f30:	23a0      	movs	r3, #160	@ 0xa0
 8005f32:	18fb      	adds	r3, r7, r3
 8005f34:	681b      	ldr	r3, [r3, #0]
 8005f36:	2280      	movs	r2, #128	@ 0x80
 8005f38:	4013      	ands	r3, r2
 8005f3a:	d106      	bne.n	8005f4a <HAL_UART_IRQHandler+0x5aa>
          || ((cr3its & USART_CR3_TXFTIE) != 0U)))
 8005f3c:	239c      	movs	r3, #156	@ 0x9c
 8005f3e:	18fb      	adds	r3, r7, r3
 8005f40:	681a      	ldr	r2, [r3, #0]
 8005f42:	2380      	movs	r3, #128	@ 0x80
 8005f44:	041b      	lsls	r3, r3, #16
 8005f46:	4013      	ands	r3, r2
 8005f48:	d009      	beq.n	8005f5e <HAL_UART_IRQHandler+0x5be>
  {
    if (huart->TxISR != NULL)
 8005f4a:	687b      	ldr	r3, [r7, #4]
 8005f4c:	6f9b      	ldr	r3, [r3, #120]	@ 0x78
 8005f4e:	2b00      	cmp	r3, #0
 8005f50:	d042      	beq.n	8005fd8 <HAL_UART_IRQHandler+0x638>
    {
      huart->TxISR(huart);
 8005f52:	687b      	ldr	r3, [r7, #4]
 8005f54:	6f9b      	ldr	r3, [r3, #120]	@ 0x78
 8005f56:	687a      	ldr	r2, [r7, #4]
 8005f58:	0010      	movs	r0, r2
 8005f5a:	4798      	blx	r3
    }
    return;
 8005f5c:	e03c      	b.n	8005fd8 <HAL_UART_IRQHandler+0x638>
  }

  /* UART in mode Transmitter (transmission end) -----------------------------*/
  if (((isrflags & USART_ISR_TC) != 0U) && ((cr1its & USART_CR1_TCIE) != 0U))
 8005f5e:	23a4      	movs	r3, #164	@ 0xa4
 8005f60:	18fb      	adds	r3, r7, r3
 8005f62:	681b      	ldr	r3, [r3, #0]
 8005f64:	2240      	movs	r2, #64	@ 0x40
 8005f66:	4013      	ands	r3, r2
 8005f68:	d00a      	beq.n	8005f80 <HAL_UART_IRQHandler+0x5e0>
 8005f6a:	23a0      	movs	r3, #160	@ 0xa0
 8005f6c:	18fb      	adds	r3, r7, r3
 8005f6e:	681b      	ldr	r3, [r3, #0]
 8005f70:	2240      	movs	r2, #64	@ 0x40
 8005f72:	4013      	ands	r3, r2
 8005f74:	d004      	beq.n	8005f80 <HAL_UART_IRQHandler+0x5e0>
  {
    UART_EndTransmit_IT(huart);
 8005f76:	687b      	ldr	r3, [r7, #4]
 8005f78:	0018      	movs	r0, r3
 8005f7a:	f000 fd5c 	bl	8006a36 <UART_EndTransmit_IT>
    return;
 8005f7e:	e02c      	b.n	8005fda <HAL_UART_IRQHandler+0x63a>
  }

  /* UART TX Fifo Empty occurred ----------------------------------------------*/
  if (((isrflags & USART_ISR_TXFE) != 0U) && ((cr1its & USART_CR1_TXFEIE) != 0U))
 8005f80:	23a4      	movs	r3, #164	@ 0xa4
 8005f82:	18fb      	adds	r3, r7, r3
 8005f84:	681a      	ldr	r2, [r3, #0]
 8005f86:	2380      	movs	r3, #128	@ 0x80
 8005f88:	041b      	lsls	r3, r3, #16
 8005f8a:	4013      	ands	r3, r2
 8005f8c:	d00b      	beq.n	8005fa6 <HAL_UART_IRQHandler+0x606>
 8005f8e:	23a0      	movs	r3, #160	@ 0xa0
 8005f90:	18fb      	adds	r3, r7, r3
 8005f92:	681a      	ldr	r2, [r3, #0]
 8005f94:	2380      	movs	r3, #128	@ 0x80
 8005f96:	05db      	lsls	r3, r3, #23
 8005f98:	4013      	ands	r3, r2
 8005f9a:	d004      	beq.n	8005fa6 <HAL_UART_IRQHandler+0x606>
#if (USE_HAL_UART_REGISTER_CALLBACKS == 1)
    /* Call registered Tx Fifo Empty Callback */
    huart->TxFifoEmptyCallback(huart);
#else
    /* Call legacy weak Tx Fifo Empty Callback */
    HAL_UARTEx_TxFifoEmptyCallback(huart);
 8005f9c:	687b      	ldr	r3, [r7, #4]
 8005f9e:	0018      	movs	r0, r3
 8005fa0:	f000 fd85 	bl	8006aae <HAL_UARTEx_TxFifoEmptyCallback>
#endif /* USE_HAL_UART_REGISTER_CALLBACKS */
    return;
 8005fa4:	e019      	b.n	8005fda <HAL_UART_IRQHandler+0x63a>
  }

  /* UART RX Fifo Full occurred ----------------------------------------------*/
  if (((isrflags & USART_ISR_RXFF) != 0U) && ((cr1its & USART_CR1_RXFFIE) != 0U))
 8005fa6:	23a4      	movs	r3, #164	@ 0xa4
 8005fa8:	18fb      	adds	r3, r7, r3
 8005faa:	681a      	ldr	r2, [r3, #0]
 8005fac:	2380      	movs	r3, #128	@ 0x80
 8005fae:	045b      	lsls	r3, r3, #17
 8005fb0:	4013      	ands	r3, r2
 8005fb2:	d012      	beq.n	8005fda <HAL_UART_IRQHandler+0x63a>
 8005fb4:	23a0      	movs	r3, #160	@ 0xa0
 8005fb6:	18fb      	adds	r3, r7, r3
 8005fb8:	681b      	ldr	r3, [r3, #0]
 8005fba:	2b00      	cmp	r3, #0
 8005fbc:	da0d      	bge.n	8005fda <HAL_UART_IRQHandler+0x63a>
#if (USE_HAL_UART_REGISTER_CALLBACKS == 1)
    /* Call registered Rx Fifo Full Callback */
    huart->RxFifoFullCallback(huart);
#else
    /* Call legacy weak Rx Fifo Full Callback */
    HAL_UARTEx_RxFifoFullCallback(huart);
 8005fbe:	687b      	ldr	r3, [r7, #4]
 8005fc0:	0018      	movs	r0, r3
 8005fc2:	f000 fd6c 	bl	8006a9e <HAL_UARTEx_RxFifoFullCallback>
#endif /* USE_HAL_UART_REGISTER_CALLBACKS */
    return;
 8005fc6:	e008      	b.n	8005fda <HAL_UART_IRQHandler+0x63a>
      return;
 8005fc8:	46c0      	nop			@ (mov r8, r8)
 8005fca:	e006      	b.n	8005fda <HAL_UART_IRQHandler+0x63a>
    return;
 8005fcc:	46c0      	nop			@ (mov r8, r8)
 8005fce:	e004      	b.n	8005fda <HAL_UART_IRQHandler+0x63a>
      return;
 8005fd0:	46c0      	nop			@ (mov r8, r8)
 8005fd2:	e002      	b.n	8005fda <HAL_UART_IRQHandler+0x63a>
      return;
 8005fd4:	46c0      	nop			@ (mov r8, r8)
 8005fd6:	e000      	b.n	8005fda <HAL_UART_IRQHandler+0x63a>
    return;
 8005fd8:	46c0      	nop			@ (mov r8, r8)
  }
}
 8005fda:	46bd      	mov	sp, r7
 8005fdc:	b02a      	add	sp, #168	@ 0xa8
 8005fde:	bdb0      	pop	{r4, r5, r7, pc}
 8005fe0:	fffffeff 	.word	0xfffffeff
 8005fe4:	fffffedf 	.word	0xfffffedf
 8005fe8:	effffffe 	.word	0xeffffffe

08005fec <HAL_UART_TxCpltCallback>:
  * @brief Tx Transfer completed callback.
  * @param huart UART handle.
  * @retval None
  */
__weak void HAL_UART_TxCpltCallback(UART_HandleTypeDef *huart)
{
 8005fec:	b580      	push	{r7, lr}
 8005fee:	b082      	sub	sp, #8
 8005ff0:	af00      	add	r7, sp, #0
 8005ff2:	6078      	str	r0, [r7, #4]
  UNUSED(huart);

  /* NOTE : This function should not be modified, when the callback is needed,
            the HAL_UART_TxCpltCallback can be implemented in the user file.
   */
}
 8005ff4:	46c0      	nop			@ (mov r8, r8)
 8005ff6:	46bd      	mov	sp, r7
 8005ff8:	b002      	add	sp, #8
 8005ffa:	bd80      	pop	{r7, pc}

08005ffc <HAL_UART_ErrorCallback>:
  * @brief  UART error callback.
  * @param  huart UART handle.
  * @retval None
  */
__weak void HAL_UART_ErrorCallback(UART_HandleTypeDef *huart)
{
 8005ffc:	b580      	push	{r7, lr}
 8005ffe:	b082      	sub	sp, #8
 8006000:	af00      	add	r7, sp, #0
 8006002:	6078      	str	r0, [r7, #4]
  UNUSED(huart);

  /* NOTE : This function should not be modified, when the callback is needed,
            the HAL_UART_ErrorCallback can be implemented in the user file.
   */
}
 8006004:	46c0      	nop			@ (mov r8, r8)
 8006006:	46bd      	mov	sp, r7
 8006008:	b002      	add	sp, #8
 800600a:	bd80      	pop	{r7, pc}

0800600c <HAL_UARTEx_RxEventCallback>:
  * @param  Size  Number of data available in application reception buffer (indicates a position in
  *               reception buffer until which, data are available)
  * @retval None
  */
__weak void HAL_UARTEx_RxEventCallback(UART_HandleTypeDef *huart, uint16_t Size)
{
 800600c:	b580      	push	{r7, lr}
 800600e:	b082      	sub	sp, #8
 8006010:	af00      	add	r7, sp, #0
 8006012:	6078      	str	r0, [r7, #4]
 8006014:	000a      	movs	r2, r1
 8006016:	1cbb      	adds	r3, r7, #2
 8006018:	801a      	strh	r2, [r3, #0]
  UNUSED(Size);

  /* NOTE : This function should not be modified, when the callback is needed,
            the HAL_UARTEx_RxEventCallback can be implemented in the user file.
   */
}
 800601a:	46c0      	nop			@ (mov r8, r8)
 800601c:	46bd      	mov	sp, r7
 800601e:	b002      	add	sp, #8
 8006020:	bd80      	pop	{r7, pc}
	...

08006024 <UART_SetConfig>:
  * @brief Configure the UART peripheral.
  * @param huart UART handle.
  * @retval HAL status
  */
HAL_StatusTypeDef UART_SetConfig(UART_HandleTypeDef *huart)
{
 8006024:	b5b0      	push	{r4, r5, r7, lr}
 8006026:	b090      	sub	sp, #64	@ 0x40
 8006028:	af00      	add	r7, sp, #0
 800602a:	6278      	str	r0, [r7, #36]	@ 0x24
  uint32_t tmpreg;
  uint16_t brrtemp;
  UART_ClockSourceTypeDef clocksource;
  uint32_t usartdiv;
  HAL_StatusTypeDef ret               = HAL_OK;
 800602c:	231a      	movs	r3, #26
 800602e:	2220      	movs	r2, #32
 8006030:	189b      	adds	r3, r3, r2
 8006032:	19db      	adds	r3, r3, r7
 8006034:	2200      	movs	r2, #0
 8006036:	701a      	strb	r2, [r3, #0]
  *  the UART Word Length, Parity, Mode and oversampling:
  *  set the M bits according to huart->Init.WordLength value
  *  set PCE and PS bits according to huart->Init.Parity value
  *  set TE and RE bits according to huart->Init.Mode value
  *  set OVER8 bit according to huart->Init.OverSampling value */
  tmpreg = (uint32_t)huart->Init.WordLength | huart->Init.Parity | huart->Init.Mode | huart->Init.OverSampling ;
 8006038:	6a7b      	ldr	r3, [r7, #36]	@ 0x24
 800603a:	689a      	ldr	r2, [r3, #8]
 800603c:	6a7b      	ldr	r3, [r7, #36]	@ 0x24
 800603e:	691b      	ldr	r3, [r3, #16]
 8006040:	431a      	orrs	r2, r3
 8006042:	6a7b      	ldr	r3, [r7, #36]	@ 0x24
 8006044:	695b      	ldr	r3, [r3, #20]
 8006046:	431a      	orrs	r2, r3
 8006048:	6a7b      	ldr	r3, [r7, #36]	@ 0x24
 800604a:	69db      	ldr	r3, [r3, #28]
 800604c:	4313      	orrs	r3, r2
 800604e:	63fb      	str	r3, [r7, #60]	@ 0x3c
  MODIFY_REG(huart->Instance->CR1, USART_CR1_FIELDS, tmpreg);
 8006050:	6a7b      	ldr	r3, [r7, #36]	@ 0x24
 8006052:	681b      	ldr	r3, [r3, #0]
 8006054:	681b      	ldr	r3, [r3, #0]
 8006056:	4aaf      	ldr	r2, [pc, #700]	@ (8006314 <UART_SetConfig+0x2f0>)
 8006058:	4013      	ands	r3, r2
 800605a:	0019      	movs	r1, r3
 800605c:	6a7b      	ldr	r3, [r7, #36]	@ 0x24
 800605e:	681a      	ldr	r2, [r3, #0]
 8006060:	6bfb      	ldr	r3, [r7, #60]	@ 0x3c
 8006062:	430b      	orrs	r3, r1
 8006064:	6013      	str	r3, [r2, #0]

  /*-------------------------- USART CR2 Configuration -----------------------*/
  /* Configure the UART Stop Bits: Set STOP[13:12] bits according
  * to huart->Init.StopBits value */
  MODIFY_REG(huart->Instance->CR2, USART_CR2_STOP, huart->Init.StopBits);
 8006066:	6a7b      	ldr	r3, [r7, #36]	@ 0x24
 8006068:	681b      	ldr	r3, [r3, #0]
 800606a:	685b      	ldr	r3, [r3, #4]
 800606c:	4aaa      	ldr	r2, [pc, #680]	@ (8006318 <UART_SetConfig+0x2f4>)
 800606e:	4013      	ands	r3, r2
 8006070:	0018      	movs	r0, r3
 8006072:	6a7b      	ldr	r3, [r7, #36]	@ 0x24
 8006074:	68d9      	ldr	r1, [r3, #12]
 8006076:	6a7b      	ldr	r3, [r7, #36]	@ 0x24
 8006078:	681a      	ldr	r2, [r3, #0]
 800607a:	0003      	movs	r3, r0
 800607c:	430b      	orrs	r3, r1
 800607e:	6053      	str	r3, [r2, #4]
  /* Configure
  * - UART HardWare Flow Control: set CTSE and RTSE bits according
  *   to huart->Init.HwFlowCtl value
  * - one-bit sampling method versus three samples' majority rule according
  *   to huart->Init.OneBitSampling (not applicable to LPUART) */
  tmpreg = (uint32_t)huart->Init.HwFlowCtl;
 8006080:	6a7b      	ldr	r3, [r7, #36]	@ 0x24
 8006082:	699b      	ldr	r3, [r3, #24]
 8006084:	63fb      	str	r3, [r7, #60]	@ 0x3c

  if (!(UART_INSTANCE_LOWPOWER(huart)))
 8006086:	6a7b      	ldr	r3, [r7, #36]	@ 0x24
 8006088:	681b      	ldr	r3, [r3, #0]
 800608a:	4aa4      	ldr	r2, [pc, #656]	@ (800631c <UART_SetConfig+0x2f8>)
 800608c:	4293      	cmp	r3, r2
 800608e:	d004      	beq.n	800609a <UART_SetConfig+0x76>
  {
    tmpreg |= huart->Init.OneBitSampling;
 8006090:	6a7b      	ldr	r3, [r7, #36]	@ 0x24
 8006092:	6a1b      	ldr	r3, [r3, #32]
 8006094:	6bfa      	ldr	r2, [r7, #60]	@ 0x3c
 8006096:	4313      	orrs	r3, r2
 8006098:	63fb      	str	r3, [r7, #60]	@ 0x3c
  }
  MODIFY_REG(huart->Instance->CR3, USART_CR3_FIELDS, tmpreg);
 800609a:	6a7b      	ldr	r3, [r7, #36]	@ 0x24
 800609c:	681b      	ldr	r3, [r3, #0]
 800609e:	689b      	ldr	r3, [r3, #8]
 80060a0:	4a9f      	ldr	r2, [pc, #636]	@ (8006320 <UART_SetConfig+0x2fc>)
 80060a2:	4013      	ands	r3, r2
 80060a4:	0019      	movs	r1, r3
 80060a6:	6a7b      	ldr	r3, [r7, #36]	@ 0x24
 80060a8:	681a      	ldr	r2, [r3, #0]
 80060aa:	6bfb      	ldr	r3, [r7, #60]	@ 0x3c
 80060ac:	430b      	orrs	r3, r1
 80060ae:	6093      	str	r3, [r2, #8]

  /*-------------------------- USART PRESC Configuration -----------------------*/
  /* Configure
  * - UART Clock Prescaler : set PRESCALER according to huart->Init.ClockPrescaler value */
  MODIFY_REG(huart->Instance->PRESC, USART_PRESC_PRESCALER, huart->Init.ClockPrescaler);
 80060b0:	6a7b      	ldr	r3, [r7, #36]	@ 0x24
 80060b2:	681b      	ldr	r3, [r3, #0]
 80060b4:	6adb      	ldr	r3, [r3, #44]	@ 0x2c
 80060b6:	220f      	movs	r2, #15
 80060b8:	4393      	bics	r3, r2
 80060ba:	0018      	movs	r0, r3
 80060bc:	6a7b      	ldr	r3, [r7, #36]	@ 0x24
 80060be:	6a59      	ldr	r1, [r3, #36]	@ 0x24
 80060c0:	6a7b      	ldr	r3, [r7, #36]	@ 0x24
 80060c2:	681a      	ldr	r2, [r3, #0]
 80060c4:	0003      	movs	r3, r0
 80060c6:	430b      	orrs	r3, r1
 80060c8:	62d3      	str	r3, [r2, #44]	@ 0x2c

  /*-------------------------- USART BRR Configuration -----------------------*/
  UART_GETCLOCKSOURCE(huart, clocksource);
 80060ca:	6a7b      	ldr	r3, [r7, #36]	@ 0x24
 80060cc:	681b      	ldr	r3, [r3, #0]
 80060ce:	4a95      	ldr	r2, [pc, #596]	@ (8006324 <UART_SetConfig+0x300>)
 80060d0:	4293      	cmp	r3, r2
 80060d2:	d131      	bne.n	8006138 <UART_SetConfig+0x114>
 80060d4:	4b94      	ldr	r3, [pc, #592]	@ (8006328 <UART_SetConfig+0x304>)
 80060d6:	6d5b      	ldr	r3, [r3, #84]	@ 0x54
 80060d8:	2203      	movs	r2, #3
 80060da:	4013      	ands	r3, r2
 80060dc:	2b03      	cmp	r3, #3
 80060de:	d01d      	beq.n	800611c <UART_SetConfig+0xf8>
 80060e0:	d823      	bhi.n	800612a <UART_SetConfig+0x106>
 80060e2:	2b02      	cmp	r3, #2
 80060e4:	d00c      	beq.n	8006100 <UART_SetConfig+0xdc>
 80060e6:	d820      	bhi.n	800612a <UART_SetConfig+0x106>
 80060e8:	2b00      	cmp	r3, #0
 80060ea:	d002      	beq.n	80060f2 <UART_SetConfig+0xce>
 80060ec:	2b01      	cmp	r3, #1
 80060ee:	d00e      	beq.n	800610e <UART_SetConfig+0xea>
 80060f0:	e01b      	b.n	800612a <UART_SetConfig+0x106>
 80060f2:	231b      	movs	r3, #27
 80060f4:	2220      	movs	r2, #32
 80060f6:	189b      	adds	r3, r3, r2
 80060f8:	19db      	adds	r3, r3, r7
 80060fa:	2200      	movs	r2, #0
 80060fc:	701a      	strb	r2, [r3, #0]
 80060fe:	e0b4      	b.n	800626a <UART_SetConfig+0x246>
 8006100:	231b      	movs	r3, #27
 8006102:	2220      	movs	r2, #32
 8006104:	189b      	adds	r3, r3, r2
 8006106:	19db      	adds	r3, r3, r7
 8006108:	2202      	movs	r2, #2
 800610a:	701a      	strb	r2, [r3, #0]
 800610c:	e0ad      	b.n	800626a <UART_SetConfig+0x246>
 800610e:	231b      	movs	r3, #27
 8006110:	2220      	movs	r2, #32
 8006112:	189b      	adds	r3, r3, r2
 8006114:	19db      	adds	r3, r3, r7
 8006116:	2204      	movs	r2, #4
 8006118:	701a      	strb	r2, [r3, #0]
 800611a:	e0a6      	b.n	800626a <UART_SetConfig+0x246>
 800611c:	231b      	movs	r3, #27
 800611e:	2220      	movs	r2, #32
 8006120:	189b      	adds	r3, r3, r2
 8006122:	19db      	adds	r3, r3, r7
 8006124:	2208      	movs	r2, #8
 8006126:	701a      	strb	r2, [r3, #0]
 8006128:	e09f      	b.n	800626a <UART_SetConfig+0x246>
 800612a:	231b      	movs	r3, #27
 800612c:	2220      	movs	r2, #32
 800612e:	189b      	adds	r3, r3, r2
 8006130:	19db      	adds	r3, r3, r7
 8006132:	2210      	movs	r2, #16
 8006134:	701a      	strb	r2, [r3, #0]
 8006136:	e098      	b.n	800626a <UART_SetConfig+0x246>
 8006138:	6a7b      	ldr	r3, [r7, #36]	@ 0x24
 800613a:	681b      	ldr	r3, [r3, #0]
 800613c:	4a7b      	ldr	r2, [pc, #492]	@ (800632c <UART_SetConfig+0x308>)
 800613e:	4293      	cmp	r3, r2
 8006140:	d131      	bne.n	80061a6 <UART_SetConfig+0x182>
 8006142:	4b79      	ldr	r3, [pc, #484]	@ (8006328 <UART_SetConfig+0x304>)
 8006144:	6d5b      	ldr	r3, [r3, #84]	@ 0x54
 8006146:	220c      	movs	r2, #12
 8006148:	4013      	ands	r3, r2
 800614a:	2b0c      	cmp	r3, #12
 800614c:	d01d      	beq.n	800618a <UART_SetConfig+0x166>
 800614e:	d823      	bhi.n	8006198 <UART_SetConfig+0x174>
 8006150:	2b08      	cmp	r3, #8
 8006152:	d00c      	beq.n	800616e <UART_SetConfig+0x14a>
 8006154:	d820      	bhi.n	8006198 <UART_SetConfig+0x174>
 8006156:	2b00      	cmp	r3, #0
 8006158:	d002      	beq.n	8006160 <UART_SetConfig+0x13c>
 800615a:	2b04      	cmp	r3, #4
 800615c:	d00e      	beq.n	800617c <UART_SetConfig+0x158>
 800615e:	e01b      	b.n	8006198 <UART_SetConfig+0x174>
 8006160:	231b      	movs	r3, #27
 8006162:	2220      	movs	r2, #32
 8006164:	189b      	adds	r3, r3, r2
 8006166:	19db      	adds	r3, r3, r7
 8006168:	2200      	movs	r2, #0
 800616a:	701a      	strb	r2, [r3, #0]
 800616c:	e07d      	b.n	800626a <UART_SetConfig+0x246>
 800616e:	231b      	movs	r3, #27
 8006170:	2220      	movs	r2, #32
 8006172:	189b      	adds	r3, r3, r2
 8006174:	19db      	adds	r3, r3, r7
 8006176:	2202      	movs	r2, #2
 8006178:	701a      	strb	r2, [r3, #0]
 800617a:	e076      	b.n	800626a <UART_SetConfig+0x246>
 800617c:	231b      	movs	r3, #27
 800617e:	2220      	movs	r2, #32
 8006180:	189b      	adds	r3, r3, r2
 8006182:	19db      	adds	r3, r3, r7
 8006184:	2204      	movs	r2, #4
 8006186:	701a      	strb	r2, [r3, #0]
 8006188:	e06f      	b.n	800626a <UART_SetConfig+0x246>
 800618a:	231b      	movs	r3, #27
 800618c:	2220      	movs	r2, #32
 800618e:	189b      	adds	r3, r3, r2
 8006190:	19db      	adds	r3, r3, r7
 8006192:	2208      	movs	r2, #8
 8006194:	701a      	strb	r2, [r3, #0]
 8006196:	e068      	b.n	800626a <UART_SetConfig+0x246>
 8006198:	231b      	movs	r3, #27
 800619a:	2220      	movs	r2, #32
 800619c:	189b      	adds	r3, r3, r2
 800619e:	19db      	adds	r3, r3, r7
 80061a0:	2210      	movs	r2, #16
 80061a2:	701a      	strb	r2, [r3, #0]
 80061a4:	e061      	b.n	800626a <UART_SetConfig+0x246>
 80061a6:	6a7b      	ldr	r3, [r7, #36]	@ 0x24
 80061a8:	681b      	ldr	r3, [r3, #0]
 80061aa:	4a61      	ldr	r2, [pc, #388]	@ (8006330 <UART_SetConfig+0x30c>)
 80061ac:	4293      	cmp	r3, r2
 80061ae:	d106      	bne.n	80061be <UART_SetConfig+0x19a>
 80061b0:	231b      	movs	r3, #27
 80061b2:	2220      	movs	r2, #32
 80061b4:	189b      	adds	r3, r3, r2
 80061b6:	19db      	adds	r3, r3, r7
 80061b8:	2200      	movs	r2, #0
 80061ba:	701a      	strb	r2, [r3, #0]
 80061bc:	e055      	b.n	800626a <UART_SetConfig+0x246>
 80061be:	6a7b      	ldr	r3, [r7, #36]	@ 0x24
 80061c0:	681b      	ldr	r3, [r3, #0]
 80061c2:	4a5c      	ldr	r2, [pc, #368]	@ (8006334 <UART_SetConfig+0x310>)
 80061c4:	4293      	cmp	r3, r2
 80061c6:	d106      	bne.n	80061d6 <UART_SetConfig+0x1b2>
 80061c8:	231b      	movs	r3, #27
 80061ca:	2220      	movs	r2, #32
 80061cc:	189b      	adds	r3, r3, r2
 80061ce:	19db      	adds	r3, r3, r7
 80061d0:	2200      	movs	r2, #0
 80061d2:	701a      	strb	r2, [r3, #0]
 80061d4:	e049      	b.n	800626a <UART_SetConfig+0x246>
 80061d6:	6a7b      	ldr	r3, [r7, #36]	@ 0x24
 80061d8:	681b      	ldr	r3, [r3, #0]
 80061da:	4a50      	ldr	r2, [pc, #320]	@ (800631c <UART_SetConfig+0x2f8>)
 80061dc:	4293      	cmp	r3, r2
 80061de:	d13e      	bne.n	800625e <UART_SetConfig+0x23a>
 80061e0:	4b51      	ldr	r3, [pc, #324]	@ (8006328 <UART_SetConfig+0x304>)
 80061e2:	6d5a      	ldr	r2, [r3, #84]	@ 0x54
 80061e4:	23c0      	movs	r3, #192	@ 0xc0
 80061e6:	011b      	lsls	r3, r3, #4
 80061e8:	4013      	ands	r3, r2
 80061ea:	22c0      	movs	r2, #192	@ 0xc0
 80061ec:	0112      	lsls	r2, r2, #4
 80061ee:	4293      	cmp	r3, r2
 80061f0:	d027      	beq.n	8006242 <UART_SetConfig+0x21e>
 80061f2:	22c0      	movs	r2, #192	@ 0xc0
 80061f4:	0112      	lsls	r2, r2, #4
 80061f6:	4293      	cmp	r3, r2
 80061f8:	d82a      	bhi.n	8006250 <UART_SetConfig+0x22c>
 80061fa:	2280      	movs	r2, #128	@ 0x80
 80061fc:	0112      	lsls	r2, r2, #4
 80061fe:	4293      	cmp	r3, r2
 8006200:	d011      	beq.n	8006226 <UART_SetConfig+0x202>
 8006202:	2280      	movs	r2, #128	@ 0x80
 8006204:	0112      	lsls	r2, r2, #4
 8006206:	4293      	cmp	r3, r2
 8006208:	d822      	bhi.n	8006250 <UART_SetConfig+0x22c>
 800620a:	2b00      	cmp	r3, #0
 800620c:	d004      	beq.n	8006218 <UART_SetConfig+0x1f4>
 800620e:	2280      	movs	r2, #128	@ 0x80
 8006210:	00d2      	lsls	r2, r2, #3
 8006212:	4293      	cmp	r3, r2
 8006214:	d00e      	beq.n	8006234 <UART_SetConfig+0x210>
 8006216:	e01b      	b.n	8006250 <UART_SetConfig+0x22c>
 8006218:	231b      	movs	r3, #27
 800621a:	2220      	movs	r2, #32
 800621c:	189b      	adds	r3, r3, r2
 800621e:	19db      	adds	r3, r3, r7
 8006220:	2200      	movs	r2, #0
 8006222:	701a      	strb	r2, [r3, #0]
 8006224:	e021      	b.n	800626a <UART_SetConfig+0x246>
 8006226:	231b      	movs	r3, #27
 8006228:	2220      	movs	r2, #32
 800622a:	189b      	adds	r3, r3, r2
 800622c:	19db      	adds	r3, r3, r7
 800622e:	2202      	movs	r2, #2
 8006230:	701a      	strb	r2, [r3, #0]
 8006232:	e01a      	b.n	800626a <UART_SetConfig+0x246>
 8006234:	231b      	movs	r3, #27
 8006236:	2220      	movs	r2, #32
 8006238:	189b      	adds	r3, r3, r2
 800623a:	19db      	adds	r3, r3, r7
 800623c:	2204      	movs	r2, #4
 800623e:	701a      	strb	r2, [r3, #0]
 8006240:	e013      	b.n	800626a <UART_SetConfig+0x246>
 8006242:	231b      	movs	r3, #27
 8006244:	2220      	movs	r2, #32
 8006246:	189b      	adds	r3, r3, r2
 8006248:	19db      	adds	r3, r3, r7
 800624a:	2208      	movs	r2, #8
 800624c:	701a      	strb	r2, [r3, #0]
 800624e:	e00c      	b.n	800626a <UART_SetConfig+0x246>
 8006250:	231b      	movs	r3, #27
 8006252:	2220      	movs	r2, #32
 8006254:	189b      	adds	r3, r3, r2
 8006256:	19db      	adds	r3, r3, r7
 8006258:	2210      	movs	r2, #16
 800625a:	701a      	strb	r2, [r3, #0]
 800625c:	e005      	b.n	800626a <UART_SetConfig+0x246>
 800625e:	231b      	movs	r3, #27
 8006260:	2220      	movs	r2, #32
 8006262:	189b      	adds	r3, r3, r2
 8006264:	19db      	adds	r3, r3, r7
 8006266:	2210      	movs	r2, #16
 8006268:	701a      	strb	r2, [r3, #0]

  /* Check LPUART instance */
  if (UART_INSTANCE_LOWPOWER(huart))
 800626a:	6a7b      	ldr	r3, [r7, #36]	@ 0x24
 800626c:	681b      	ldr	r3, [r3, #0]
 800626e:	4a2b      	ldr	r2, [pc, #172]	@ (800631c <UART_SetConfig+0x2f8>)
 8006270:	4293      	cmp	r3, r2
 8006272:	d000      	beq.n	8006276 <UART_SetConfig+0x252>
 8006274:	e0a9      	b.n	80063ca <UART_SetConfig+0x3a6>
  {
    /* Retrieve frequency clock */
    switch (clocksource)
 8006276:	231b      	movs	r3, #27
 8006278:	2220      	movs	r2, #32
 800627a:	189b      	adds	r3, r3, r2
 800627c:	19db      	adds	r3, r3, r7
 800627e:	781b      	ldrb	r3, [r3, #0]
 8006280:	2b08      	cmp	r3, #8
 8006282:	d015      	beq.n	80062b0 <UART_SetConfig+0x28c>
 8006284:	dc18      	bgt.n	80062b8 <UART_SetConfig+0x294>
 8006286:	2b04      	cmp	r3, #4
 8006288:	d00d      	beq.n	80062a6 <UART_SetConfig+0x282>
 800628a:	dc15      	bgt.n	80062b8 <UART_SetConfig+0x294>
 800628c:	2b00      	cmp	r3, #0
 800628e:	d002      	beq.n	8006296 <UART_SetConfig+0x272>
 8006290:	2b02      	cmp	r3, #2
 8006292:	d005      	beq.n	80062a0 <UART_SetConfig+0x27c>
 8006294:	e010      	b.n	80062b8 <UART_SetConfig+0x294>
    {
      case UART_CLOCKSOURCE_PCLK1:
        pclk = HAL_RCC_GetPCLK1Freq();
 8006296:	f7fe fa3f 	bl	8004718 <HAL_RCC_GetPCLK1Freq>
 800629a:	0003      	movs	r3, r0
 800629c:	637b      	str	r3, [r7, #52]	@ 0x34
        break;
 800629e:	e014      	b.n	80062ca <UART_SetConfig+0x2a6>
      case UART_CLOCKSOURCE_HSI:
        pclk = (uint32_t) HSI_VALUE;
 80062a0:	4b25      	ldr	r3, [pc, #148]	@ (8006338 <UART_SetConfig+0x314>)
 80062a2:	637b      	str	r3, [r7, #52]	@ 0x34
        break;
 80062a4:	e011      	b.n	80062ca <UART_SetConfig+0x2a6>
      case UART_CLOCKSOURCE_SYSCLK:
        pclk = HAL_RCC_GetSysClockFreq();
 80062a6:	f7fe f9ab 	bl	8004600 <HAL_RCC_GetSysClockFreq>
 80062aa:	0003      	movs	r3, r0
 80062ac:	637b      	str	r3, [r7, #52]	@ 0x34
        break;
 80062ae:	e00c      	b.n	80062ca <UART_SetConfig+0x2a6>
      case UART_CLOCKSOURCE_LSE:
        pclk = (uint32_t) LSE_VALUE;
 80062b0:	2380      	movs	r3, #128	@ 0x80
 80062b2:	021b      	lsls	r3, r3, #8
 80062b4:	637b      	str	r3, [r7, #52]	@ 0x34
        break;
 80062b6:	e008      	b.n	80062ca <UART_SetConfig+0x2a6>
      default:
        pclk = 0U;
 80062b8:	2300      	movs	r3, #0
 80062ba:	637b      	str	r3, [r7, #52]	@ 0x34
        ret = HAL_ERROR;
 80062bc:	231a      	movs	r3, #26
 80062be:	2220      	movs	r2, #32
 80062c0:	189b      	adds	r3, r3, r2
 80062c2:	19db      	adds	r3, r3, r7
 80062c4:	2201      	movs	r2, #1
 80062c6:	701a      	strb	r2, [r3, #0]
        break;
 80062c8:	46c0      	nop			@ (mov r8, r8)
    }

    /* If proper clock source reported */
    if (pclk != 0U)
 80062ca:	6b7b      	ldr	r3, [r7, #52]	@ 0x34
 80062cc:	2b00      	cmp	r3, #0
 80062ce:	d100      	bne.n	80062d2 <UART_SetConfig+0x2ae>
 80062d0:	e14b      	b.n	800656a <UART_SetConfig+0x546>
    {
      /* Compute clock after Prescaler */
      lpuart_ker_ck_pres = (pclk / UARTPrescTable[huart->Init.ClockPrescaler]);
 80062d2:	6a7b      	ldr	r3, [r7, #36]	@ 0x24
 80062d4:	6a5a      	ldr	r2, [r3, #36]	@ 0x24
 80062d6:	4b19      	ldr	r3, [pc, #100]	@ (800633c <UART_SetConfig+0x318>)
 80062d8:	0052      	lsls	r2, r2, #1
 80062da:	5ad3      	ldrh	r3, [r2, r3]
 80062dc:	0019      	movs	r1, r3
 80062de:	6b78      	ldr	r0, [r7, #52]	@ 0x34
 80062e0:	f7f9 ff36 	bl	8000150 <__udivsi3>
 80062e4:	0003      	movs	r3, r0
 80062e6:	62bb      	str	r3, [r7, #40]	@ 0x28

      /* Ensure that Frequency clock is in the range [3 * baudrate, 4096 * baudrate] */
      if ((lpuart_ker_ck_pres < (3U * huart->Init.BaudRate)) ||
 80062e8:	6a7b      	ldr	r3, [r7, #36]	@ 0x24
 80062ea:	685a      	ldr	r2, [r3, #4]
 80062ec:	0013      	movs	r3, r2
 80062ee:	005b      	lsls	r3, r3, #1
 80062f0:	189b      	adds	r3, r3, r2
 80062f2:	6aba      	ldr	r2, [r7, #40]	@ 0x28
 80062f4:	429a      	cmp	r2, r3
 80062f6:	d305      	bcc.n	8006304 <UART_SetConfig+0x2e0>
          (lpuart_ker_ck_pres > (4096U * huart->Init.BaudRate)))
 80062f8:	6a7b      	ldr	r3, [r7, #36]	@ 0x24
 80062fa:	685b      	ldr	r3, [r3, #4]
 80062fc:	031b      	lsls	r3, r3, #12
      if ((lpuart_ker_ck_pres < (3U * huart->Init.BaudRate)) ||
 80062fe:	6aba      	ldr	r2, [r7, #40]	@ 0x28
 8006300:	429a      	cmp	r2, r3
 8006302:	d91d      	bls.n	8006340 <UART_SetConfig+0x31c>
      {
        ret = HAL_ERROR;
 8006304:	231a      	movs	r3, #26
 8006306:	2220      	movs	r2, #32
 8006308:	189b      	adds	r3, r3, r2
 800630a:	19db      	adds	r3, r3, r7
 800630c:	2201      	movs	r2, #1
 800630e:	701a      	strb	r2, [r3, #0]
 8006310:	e12b      	b.n	800656a <UART_SetConfig+0x546>
 8006312:	46c0      	nop			@ (mov r8, r8)
 8006314:	cfff69f3 	.word	0xcfff69f3
 8006318:	ffffcfff 	.word	0xffffcfff
 800631c:	40008000 	.word	0x40008000
 8006320:	11fff4ff 	.word	0x11fff4ff
 8006324:	40013800 	.word	0x40013800
 8006328:	40021000 	.word	0x40021000
 800632c:	40004400 	.word	0x40004400
 8006330:	40004800 	.word	0x40004800
 8006334:	40004c00 	.word	0x40004c00
 8006338:	00f42400 	.word	0x00f42400
 800633c:	080098c0 	.word	0x080098c0
      }
      else
      {
        /* Check computed UsartDiv value is in allocated range
           (it is forbidden to write values lower than 0x300 in the LPUART_BRR register) */
        usartdiv = (uint32_t)(UART_DIV_LPUART(pclk, huart->Init.BaudRate, huart->Init.ClockPrescaler));
 8006340:	6b7b      	ldr	r3, [r7, #52]	@ 0x34
 8006342:	61bb      	str	r3, [r7, #24]
 8006344:	2300      	movs	r3, #0
 8006346:	61fb      	str	r3, [r7, #28]
 8006348:	6a7b      	ldr	r3, [r7, #36]	@ 0x24
 800634a:	6a5a      	ldr	r2, [r3, #36]	@ 0x24
 800634c:	4b92      	ldr	r3, [pc, #584]	@ (8006598 <UART_SetConfig+0x574>)
 800634e:	0052      	lsls	r2, r2, #1
 8006350:	5ad3      	ldrh	r3, [r2, r3]
 8006352:	613b      	str	r3, [r7, #16]
 8006354:	2300      	movs	r3, #0
 8006356:	617b      	str	r3, [r7, #20]
 8006358:	693a      	ldr	r2, [r7, #16]
 800635a:	697b      	ldr	r3, [r7, #20]
 800635c:	69b8      	ldr	r0, [r7, #24]
 800635e:	69f9      	ldr	r1, [r7, #28]
 8006360:	f7fa f8aa 	bl	80004b8 <__aeabi_uldivmod>
 8006364:	0002      	movs	r2, r0
 8006366:	000b      	movs	r3, r1
 8006368:	0e11      	lsrs	r1, r2, #24
 800636a:	021d      	lsls	r5, r3, #8
 800636c:	430d      	orrs	r5, r1
 800636e:	0214      	lsls	r4, r2, #8
 8006370:	6a7b      	ldr	r3, [r7, #36]	@ 0x24
 8006372:	685b      	ldr	r3, [r3, #4]
 8006374:	085b      	lsrs	r3, r3, #1
 8006376:	60bb      	str	r3, [r7, #8]
 8006378:	2300      	movs	r3, #0
 800637a:	60fb      	str	r3, [r7, #12]
 800637c:	68b8      	ldr	r0, [r7, #8]
 800637e:	68f9      	ldr	r1, [r7, #12]
 8006380:	1900      	adds	r0, r0, r4
 8006382:	4169      	adcs	r1, r5
 8006384:	6a7b      	ldr	r3, [r7, #36]	@ 0x24
 8006386:	685b      	ldr	r3, [r3, #4]
 8006388:	603b      	str	r3, [r7, #0]
 800638a:	2300      	movs	r3, #0
 800638c:	607b      	str	r3, [r7, #4]
 800638e:	683a      	ldr	r2, [r7, #0]
 8006390:	687b      	ldr	r3, [r7, #4]
 8006392:	f7fa f891 	bl	80004b8 <__aeabi_uldivmod>
 8006396:	0002      	movs	r2, r0
 8006398:	000b      	movs	r3, r1
 800639a:	0013      	movs	r3, r2
 800639c:	633b      	str	r3, [r7, #48]	@ 0x30
        if ((usartdiv >= LPUART_BRR_MIN) && (usartdiv <= LPUART_BRR_MAX))
 800639e:	6b3a      	ldr	r2, [r7, #48]	@ 0x30
 80063a0:	23c0      	movs	r3, #192	@ 0xc0
 80063a2:	009b      	lsls	r3, r3, #2
 80063a4:	429a      	cmp	r2, r3
 80063a6:	d309      	bcc.n	80063bc <UART_SetConfig+0x398>
 80063a8:	6b3a      	ldr	r2, [r7, #48]	@ 0x30
 80063aa:	2380      	movs	r3, #128	@ 0x80
 80063ac:	035b      	lsls	r3, r3, #13
 80063ae:	429a      	cmp	r2, r3
 80063b0:	d204      	bcs.n	80063bc <UART_SetConfig+0x398>
        {
          huart->Instance->BRR = usartdiv;
 80063b2:	6a7b      	ldr	r3, [r7, #36]	@ 0x24
 80063b4:	681b      	ldr	r3, [r3, #0]
 80063b6:	6b3a      	ldr	r2, [r7, #48]	@ 0x30
 80063b8:	60da      	str	r2, [r3, #12]
 80063ba:	e0d6      	b.n	800656a <UART_SetConfig+0x546>
        }
        else
        {
          ret = HAL_ERROR;
 80063bc:	231a      	movs	r3, #26
 80063be:	2220      	movs	r2, #32
 80063c0:	189b      	adds	r3, r3, r2
 80063c2:	19db      	adds	r3, r3, r7
 80063c4:	2201      	movs	r2, #1
 80063c6:	701a      	strb	r2, [r3, #0]
 80063c8:	e0cf      	b.n	800656a <UART_SetConfig+0x546>
      } /* if ( (lpuart_ker_ck_pres < (3 * huart->Init.BaudRate) ) ||
                (lpuart_ker_ck_pres > (4096 * huart->Init.BaudRate) )) */
    } /* if (pclk != 0) */
  }
  /* Check UART Over Sampling to set Baud Rate Register */
  else if (huart->Init.OverSampling == UART_OVERSAMPLING_8)
 80063ca:	6a7b      	ldr	r3, [r7, #36]	@ 0x24
 80063cc:	69da      	ldr	r2, [r3, #28]
 80063ce:	2380      	movs	r3, #128	@ 0x80
 80063d0:	021b      	lsls	r3, r3, #8
 80063d2:	429a      	cmp	r2, r3
 80063d4:	d000      	beq.n	80063d8 <UART_SetConfig+0x3b4>
 80063d6:	e070      	b.n	80064ba <UART_SetConfig+0x496>
  {
    switch (clocksource)
 80063d8:	231b      	movs	r3, #27
 80063da:	2220      	movs	r2, #32
 80063dc:	189b      	adds	r3, r3, r2
 80063de:	19db      	adds	r3, r3, r7
 80063e0:	781b      	ldrb	r3, [r3, #0]
 80063e2:	2b08      	cmp	r3, #8
 80063e4:	d015      	beq.n	8006412 <UART_SetConfig+0x3ee>
 80063e6:	dc18      	bgt.n	800641a <UART_SetConfig+0x3f6>
 80063e8:	2b04      	cmp	r3, #4
 80063ea:	d00d      	beq.n	8006408 <UART_SetConfig+0x3e4>
 80063ec:	dc15      	bgt.n	800641a <UART_SetConfig+0x3f6>
 80063ee:	2b00      	cmp	r3, #0
 80063f0:	d002      	beq.n	80063f8 <UART_SetConfig+0x3d4>
 80063f2:	2b02      	cmp	r3, #2
 80063f4:	d005      	beq.n	8006402 <UART_SetConfig+0x3de>
 80063f6:	e010      	b.n	800641a <UART_SetConfig+0x3f6>
    {
      case UART_CLOCKSOURCE_PCLK1:
        pclk = HAL_RCC_GetPCLK1Freq();
 80063f8:	f7fe f98e 	bl	8004718 <HAL_RCC_GetPCLK1Freq>
 80063fc:	0003      	movs	r3, r0
 80063fe:	637b      	str	r3, [r7, #52]	@ 0x34
        break;
 8006400:	e014      	b.n	800642c <UART_SetConfig+0x408>
      case UART_CLOCKSOURCE_HSI:
        pclk = (uint32_t) HSI_VALUE;
 8006402:	4b66      	ldr	r3, [pc, #408]	@ (800659c <UART_SetConfig+0x578>)
 8006404:	637b      	str	r3, [r7, #52]	@ 0x34
        break;
 8006406:	e011      	b.n	800642c <UART_SetConfig+0x408>
      case UART_CLOCKSOURCE_SYSCLK:
        pclk = HAL_RCC_GetSysClockFreq();
 8006408:	f7fe f8fa 	bl	8004600 <HAL_RCC_GetSysClockFreq>
 800640c:	0003      	movs	r3, r0
 800640e:	637b      	str	r3, [r7, #52]	@ 0x34
        break;
 8006410:	e00c      	b.n	800642c <UART_SetConfig+0x408>
      case UART_CLOCKSOURCE_LSE:
        pclk = (uint32_t) LSE_VALUE;
 8006412:	2380      	movs	r3, #128	@ 0x80
 8006414:	021b      	lsls	r3, r3, #8
 8006416:	637b      	str	r3, [r7, #52]	@ 0x34
        break;
 8006418:	e008      	b.n	800642c <UART_SetConfig+0x408>
      default:
        pclk = 0U;
 800641a:	2300      	movs	r3, #0
 800641c:	637b      	str	r3, [r7, #52]	@ 0x34
        ret = HAL_ERROR;
 800641e:	231a      	movs	r3, #26
 8006420:	2220      	movs	r2, #32
 8006422:	189b      	adds	r3, r3, r2
 8006424:	19db      	adds	r3, r3, r7
 8006426:	2201      	movs	r2, #1
 8006428:	701a      	strb	r2, [r3, #0]
        break;
 800642a:	46c0      	nop			@ (mov r8, r8)
    }

    /* USARTDIV must be greater than or equal to 0d16 */
    if (pclk != 0U)
 800642c:	6b7b      	ldr	r3, [r7, #52]	@ 0x34
 800642e:	2b00      	cmp	r3, #0
 8006430:	d100      	bne.n	8006434 <UART_SetConfig+0x410>
 8006432:	e09a      	b.n	800656a <UART_SetConfig+0x546>
    {
      usartdiv = (uint32_t)(UART_DIV_SAMPLING8(pclk, huart->Init.BaudRate, huart->Init.ClockPrescaler));
 8006434:	6a7b      	ldr	r3, [r7, #36]	@ 0x24
 8006436:	6a5a      	ldr	r2, [r3, #36]	@ 0x24
 8006438:	4b57      	ldr	r3, [pc, #348]	@ (8006598 <UART_SetConfig+0x574>)
 800643a:	0052      	lsls	r2, r2, #1
 800643c:	5ad3      	ldrh	r3, [r2, r3]
 800643e:	0019      	movs	r1, r3
 8006440:	6b78      	ldr	r0, [r7, #52]	@ 0x34
 8006442:	f7f9 fe85 	bl	8000150 <__udivsi3>
 8006446:	0003      	movs	r3, r0
 8006448:	005a      	lsls	r2, r3, #1
 800644a:	6a7b      	ldr	r3, [r7, #36]	@ 0x24
 800644c:	685b      	ldr	r3, [r3, #4]
 800644e:	085b      	lsrs	r3, r3, #1
 8006450:	18d2      	adds	r2, r2, r3
 8006452:	6a7b      	ldr	r3, [r7, #36]	@ 0x24
 8006454:	685b      	ldr	r3, [r3, #4]
 8006456:	0019      	movs	r1, r3
 8006458:	0010      	movs	r0, r2
 800645a:	f7f9 fe79 	bl	8000150 <__udivsi3>
 800645e:	0003      	movs	r3, r0
 8006460:	633b      	str	r3, [r7, #48]	@ 0x30
      if ((usartdiv >= UART_BRR_MIN) && (usartdiv <= UART_BRR_MAX))
 8006462:	6b3b      	ldr	r3, [r7, #48]	@ 0x30
 8006464:	2b0f      	cmp	r3, #15
 8006466:	d921      	bls.n	80064ac <UART_SetConfig+0x488>
 8006468:	6b3a      	ldr	r2, [r7, #48]	@ 0x30
 800646a:	2380      	movs	r3, #128	@ 0x80
 800646c:	025b      	lsls	r3, r3, #9
 800646e:	429a      	cmp	r2, r3
 8006470:	d21c      	bcs.n	80064ac <UART_SetConfig+0x488>
      {
        brrtemp = (uint16_t)(usartdiv & 0xFFF0U);
 8006472:	6b3b      	ldr	r3, [r7, #48]	@ 0x30
 8006474:	b29a      	uxth	r2, r3
 8006476:	200e      	movs	r0, #14
 8006478:	2420      	movs	r4, #32
 800647a:	1903      	adds	r3, r0, r4
 800647c:	19db      	adds	r3, r3, r7
 800647e:	210f      	movs	r1, #15
 8006480:	438a      	bics	r2, r1
 8006482:	801a      	strh	r2, [r3, #0]
        brrtemp |= (uint16_t)((usartdiv & (uint16_t)0x000FU) >> 1U);
 8006484:	6b3b      	ldr	r3, [r7, #48]	@ 0x30
 8006486:	085b      	lsrs	r3, r3, #1
 8006488:	b29b      	uxth	r3, r3
 800648a:	2207      	movs	r2, #7
 800648c:	4013      	ands	r3, r2
 800648e:	b299      	uxth	r1, r3
 8006490:	1903      	adds	r3, r0, r4
 8006492:	19db      	adds	r3, r3, r7
 8006494:	1902      	adds	r2, r0, r4
 8006496:	19d2      	adds	r2, r2, r7
 8006498:	8812      	ldrh	r2, [r2, #0]
 800649a:	430a      	orrs	r2, r1
 800649c:	801a      	strh	r2, [r3, #0]
        huart->Instance->BRR = brrtemp;
 800649e:	6a7b      	ldr	r3, [r7, #36]	@ 0x24
 80064a0:	681b      	ldr	r3, [r3, #0]
 80064a2:	1902      	adds	r2, r0, r4
 80064a4:	19d2      	adds	r2, r2, r7
 80064a6:	8812      	ldrh	r2, [r2, #0]
 80064a8:	60da      	str	r2, [r3, #12]
 80064aa:	e05e      	b.n	800656a <UART_SetConfig+0x546>
      }
      else
      {
        ret = HAL_ERROR;
 80064ac:	231a      	movs	r3, #26
 80064ae:	2220      	movs	r2, #32
 80064b0:	189b      	adds	r3, r3, r2
 80064b2:	19db      	adds	r3, r3, r7
 80064b4:	2201      	movs	r2, #1
 80064b6:	701a      	strb	r2, [r3, #0]
 80064b8:	e057      	b.n	800656a <UART_SetConfig+0x546>
      }
    }
  }
  else
  {
    switch (clocksource)
 80064ba:	231b      	movs	r3, #27
 80064bc:	2220      	movs	r2, #32
 80064be:	189b      	adds	r3, r3, r2
 80064c0:	19db      	adds	r3, r3, r7
 80064c2:	781b      	ldrb	r3, [r3, #0]
 80064c4:	2b08      	cmp	r3, #8
 80064c6:	d015      	beq.n	80064f4 <UART_SetConfig+0x4d0>
 80064c8:	dc18      	bgt.n	80064fc <UART_SetConfig+0x4d8>
 80064ca:	2b04      	cmp	r3, #4
 80064cc:	d00d      	beq.n	80064ea <UART_SetConfig+0x4c6>
 80064ce:	dc15      	bgt.n	80064fc <UART_SetConfig+0x4d8>
 80064d0:	2b00      	cmp	r3, #0
 80064d2:	d002      	beq.n	80064da <UART_SetConfig+0x4b6>
 80064d4:	2b02      	cmp	r3, #2
 80064d6:	d005      	beq.n	80064e4 <UART_SetConfig+0x4c0>
 80064d8:	e010      	b.n	80064fc <UART_SetConfig+0x4d8>
    {
      case UART_CLOCKSOURCE_PCLK1:
        pclk = HAL_RCC_GetPCLK1Freq();
 80064da:	f7fe f91d 	bl	8004718 <HAL_RCC_GetPCLK1Freq>
 80064de:	0003      	movs	r3, r0
 80064e0:	637b      	str	r3, [r7, #52]	@ 0x34
        break;
 80064e2:	e014      	b.n	800650e <UART_SetConfig+0x4ea>
      case UART_CLOCKSOURCE_HSI:
        pclk = (uint32_t) HSI_VALUE;
 80064e4:	4b2d      	ldr	r3, [pc, #180]	@ (800659c <UART_SetConfig+0x578>)
 80064e6:	637b      	str	r3, [r7, #52]	@ 0x34
        break;
 80064e8:	e011      	b.n	800650e <UART_SetConfig+0x4ea>
      case UART_CLOCKSOURCE_SYSCLK:
        pclk = HAL_RCC_GetSysClockFreq();
 80064ea:	f7fe f889 	bl	8004600 <HAL_RCC_GetSysClockFreq>
 80064ee:	0003      	movs	r3, r0
 80064f0:	637b      	str	r3, [r7, #52]	@ 0x34
        break;
 80064f2:	e00c      	b.n	800650e <UART_SetConfig+0x4ea>
      case UART_CLOCKSOURCE_LSE:
        pclk = (uint32_t) LSE_VALUE;
 80064f4:	2380      	movs	r3, #128	@ 0x80
 80064f6:	021b      	lsls	r3, r3, #8
 80064f8:	637b      	str	r3, [r7, #52]	@ 0x34
        break;
 80064fa:	e008      	b.n	800650e <UART_SetConfig+0x4ea>
      default:
        pclk = 0U;
 80064fc:	2300      	movs	r3, #0
 80064fe:	637b      	str	r3, [r7, #52]	@ 0x34
        ret = HAL_ERROR;
 8006500:	231a      	movs	r3, #26
 8006502:	2220      	movs	r2, #32
 8006504:	189b      	adds	r3, r3, r2
 8006506:	19db      	adds	r3, r3, r7
 8006508:	2201      	movs	r2, #1
 800650a:	701a      	strb	r2, [r3, #0]
        break;
 800650c:	46c0      	nop			@ (mov r8, r8)
    }

    if (pclk != 0U)
 800650e:	6b7b      	ldr	r3, [r7, #52]	@ 0x34
 8006510:	2b00      	cmp	r3, #0
 8006512:	d02a      	beq.n	800656a <UART_SetConfig+0x546>
    {
      /* USARTDIV must be greater than or equal to 0d16 */
      usartdiv = (uint32_t)(UART_DIV_SAMPLING16(pclk, huart->Init.BaudRate, huart->Init.ClockPrescaler));
 8006514:	6a7b      	ldr	r3, [r7, #36]	@ 0x24
 8006516:	6a5a      	ldr	r2, [r3, #36]	@ 0x24
 8006518:	4b1f      	ldr	r3, [pc, #124]	@ (8006598 <UART_SetConfig+0x574>)
 800651a:	0052      	lsls	r2, r2, #1
 800651c:	5ad3      	ldrh	r3, [r2, r3]
 800651e:	0019      	movs	r1, r3
 8006520:	6b78      	ldr	r0, [r7, #52]	@ 0x34
 8006522:	f7f9 fe15 	bl	8000150 <__udivsi3>
 8006526:	0003      	movs	r3, r0
 8006528:	001a      	movs	r2, r3
 800652a:	6a7b      	ldr	r3, [r7, #36]	@ 0x24
 800652c:	685b      	ldr	r3, [r3, #4]
 800652e:	085b      	lsrs	r3, r3, #1
 8006530:	18d2      	adds	r2, r2, r3
 8006532:	6a7b      	ldr	r3, [r7, #36]	@ 0x24
 8006534:	685b      	ldr	r3, [r3, #4]
 8006536:	0019      	movs	r1, r3
 8006538:	0010      	movs	r0, r2
 800653a:	f7f9 fe09 	bl	8000150 <__udivsi3>
 800653e:	0003      	movs	r3, r0
 8006540:	633b      	str	r3, [r7, #48]	@ 0x30
      if ((usartdiv >= UART_BRR_MIN) && (usartdiv <= UART_BRR_MAX))
 8006542:	6b3b      	ldr	r3, [r7, #48]	@ 0x30
 8006544:	2b0f      	cmp	r3, #15
 8006546:	d90a      	bls.n	800655e <UART_SetConfig+0x53a>
 8006548:	6b3a      	ldr	r2, [r7, #48]	@ 0x30
 800654a:	2380      	movs	r3, #128	@ 0x80
 800654c:	025b      	lsls	r3, r3, #9
 800654e:	429a      	cmp	r2, r3
 8006550:	d205      	bcs.n	800655e <UART_SetConfig+0x53a>
      {
        huart->Instance->BRR = (uint16_t)usartdiv;
 8006552:	6b3b      	ldr	r3, [r7, #48]	@ 0x30
 8006554:	b29a      	uxth	r2, r3
 8006556:	6a7b      	ldr	r3, [r7, #36]	@ 0x24
 8006558:	681b      	ldr	r3, [r3, #0]
 800655a:	60da      	str	r2, [r3, #12]
 800655c:	e005      	b.n	800656a <UART_SetConfig+0x546>
      }
      else
      {
        ret = HAL_ERROR;
 800655e:	231a      	movs	r3, #26
 8006560:	2220      	movs	r2, #32
 8006562:	189b      	adds	r3, r3, r2
 8006564:	19db      	adds	r3, r3, r7
 8006566:	2201      	movs	r2, #1
 8006568:	701a      	strb	r2, [r3, #0]
      }
    }
  }

  /* Initialize the number of data to process during RX/TX ISR execution */
  huart->NbTxDataToProcess = 1;
 800656a:	6a7b      	ldr	r3, [r7, #36]	@ 0x24
 800656c:	226a      	movs	r2, #106	@ 0x6a
 800656e:	2101      	movs	r1, #1
 8006570:	5299      	strh	r1, [r3, r2]
  huart->NbRxDataToProcess = 1;
 8006572:	6a7b      	ldr	r3, [r7, #36]	@ 0x24
 8006574:	2268      	movs	r2, #104	@ 0x68
 8006576:	2101      	movs	r1, #1
 8006578:	5299      	strh	r1, [r3, r2]

  /* Clear ISR function pointers */
  huart->RxISR = NULL;
 800657a:	6a7b      	ldr	r3, [r7, #36]	@ 0x24
 800657c:	2200      	movs	r2, #0
 800657e:	675a      	str	r2, [r3, #116]	@ 0x74
  huart->TxISR = NULL;
 8006580:	6a7b      	ldr	r3, [r7, #36]	@ 0x24
 8006582:	2200      	movs	r2, #0
 8006584:	679a      	str	r2, [r3, #120]	@ 0x78

  return ret;
 8006586:	231a      	movs	r3, #26
 8006588:	2220      	movs	r2, #32
 800658a:	189b      	adds	r3, r3, r2
 800658c:	19db      	adds	r3, r3, r7
 800658e:	781b      	ldrb	r3, [r3, #0]
}
 8006590:	0018      	movs	r0, r3
 8006592:	46bd      	mov	sp, r7
 8006594:	b010      	add	sp, #64	@ 0x40
 8006596:	bdb0      	pop	{r4, r5, r7, pc}
 8006598:	080098c0 	.word	0x080098c0
 800659c:	00f42400 	.word	0x00f42400

080065a0 <UART_AdvFeatureConfig>:
  * @brief Configure the UART peripheral advanced features.
  * @param huart UART handle.
  * @retval None
  */
void UART_AdvFeatureConfig(UART_HandleTypeDef *huart)
{
 80065a0:	b580      	push	{r7, lr}
 80065a2:	b082      	sub	sp, #8
 80065a4:	af00      	add	r7, sp, #0
 80065a6:	6078      	str	r0, [r7, #4]
  /* Check whether the set of advanced features to configure is properly set */
  assert_param(IS_UART_ADVFEATURE_INIT(huart->AdvancedInit.AdvFeatureInit));

  /* if required, configure RX/TX pins swap */
  if (HAL_IS_BIT_SET(huart->AdvancedInit.AdvFeatureInit, UART_ADVFEATURE_SWAP_INIT))
 80065a8:	687b      	ldr	r3, [r7, #4]
 80065aa:	6a9b      	ldr	r3, [r3, #40]	@ 0x28
 80065ac:	2208      	movs	r2, #8
 80065ae:	4013      	ands	r3, r2
 80065b0:	d00b      	beq.n	80065ca <UART_AdvFeatureConfig+0x2a>
  {
    assert_param(IS_UART_ADVFEATURE_SWAP(huart->AdvancedInit.Swap));
    MODIFY_REG(huart->Instance->CR2, USART_CR2_SWAP, huart->AdvancedInit.Swap);
 80065b2:	687b      	ldr	r3, [r7, #4]
 80065b4:	681b      	ldr	r3, [r3, #0]
 80065b6:	685b      	ldr	r3, [r3, #4]
 80065b8:	4a4a      	ldr	r2, [pc, #296]	@ (80066e4 <UART_AdvFeatureConfig+0x144>)
 80065ba:	4013      	ands	r3, r2
 80065bc:	0019      	movs	r1, r3
 80065be:	687b      	ldr	r3, [r7, #4]
 80065c0:	6b9a      	ldr	r2, [r3, #56]	@ 0x38
 80065c2:	687b      	ldr	r3, [r7, #4]
 80065c4:	681b      	ldr	r3, [r3, #0]
 80065c6:	430a      	orrs	r2, r1
 80065c8:	605a      	str	r2, [r3, #4]
  }

  /* if required, configure TX pin active level inversion */
  if (HAL_IS_BIT_SET(huart->AdvancedInit.AdvFeatureInit, UART_ADVFEATURE_TXINVERT_INIT))
 80065ca:	687b      	ldr	r3, [r7, #4]
 80065cc:	6a9b      	ldr	r3, [r3, #40]	@ 0x28
 80065ce:	2201      	movs	r2, #1
 80065d0:	4013      	ands	r3, r2
 80065d2:	d00b      	beq.n	80065ec <UART_AdvFeatureConfig+0x4c>
  {
    assert_param(IS_UART_ADVFEATURE_TXINV(huart->AdvancedInit.TxPinLevelInvert));
    MODIFY_REG(huart->Instance->CR2, USART_CR2_TXINV, huart->AdvancedInit.TxPinLevelInvert);
 80065d4:	687b      	ldr	r3, [r7, #4]
 80065d6:	681b      	ldr	r3, [r3, #0]
 80065d8:	685b      	ldr	r3, [r3, #4]
 80065da:	4a43      	ldr	r2, [pc, #268]	@ (80066e8 <UART_AdvFeatureConfig+0x148>)
 80065dc:	4013      	ands	r3, r2
 80065de:	0019      	movs	r1, r3
 80065e0:	687b      	ldr	r3, [r7, #4]
 80065e2:	6ada      	ldr	r2, [r3, #44]	@ 0x2c
 80065e4:	687b      	ldr	r3, [r7, #4]
 80065e6:	681b      	ldr	r3, [r3, #0]
 80065e8:	430a      	orrs	r2, r1
 80065ea:	605a      	str	r2, [r3, #4]
  }

  /* if required, configure RX pin active level inversion */
  if (HAL_IS_BIT_SET(huart->AdvancedInit.AdvFeatureInit, UART_ADVFEATURE_RXINVERT_INIT))
 80065ec:	687b      	ldr	r3, [r7, #4]
 80065ee:	6a9b      	ldr	r3, [r3, #40]	@ 0x28
 80065f0:	2202      	movs	r2, #2
 80065f2:	4013      	ands	r3, r2
 80065f4:	d00b      	beq.n	800660e <UART_AdvFeatureConfig+0x6e>
  {
    assert_param(IS_UART_ADVFEATURE_RXINV(huart->AdvancedInit.RxPinLevelInvert));
    MODIFY_REG(huart->Instance->CR2, USART_CR2_RXINV, huart->AdvancedInit.RxPinLevelInvert);
 80065f6:	687b      	ldr	r3, [r7, #4]
 80065f8:	681b      	ldr	r3, [r3, #0]
 80065fa:	685b      	ldr	r3, [r3, #4]
 80065fc:	4a3b      	ldr	r2, [pc, #236]	@ (80066ec <UART_AdvFeatureConfig+0x14c>)
 80065fe:	4013      	ands	r3, r2
 8006600:	0019      	movs	r1, r3
 8006602:	687b      	ldr	r3, [r7, #4]
 8006604:	6b1a      	ldr	r2, [r3, #48]	@ 0x30
 8006606:	687b      	ldr	r3, [r7, #4]
 8006608:	681b      	ldr	r3, [r3, #0]
 800660a:	430a      	orrs	r2, r1
 800660c:	605a      	str	r2, [r3, #4]
  }

  /* if required, configure data inversion */
  if (HAL_IS_BIT_SET(huart->AdvancedInit.AdvFeatureInit, UART_ADVFEATURE_DATAINVERT_INIT))
 800660e:	687b      	ldr	r3, [r7, #4]
 8006610:	6a9b      	ldr	r3, [r3, #40]	@ 0x28
 8006612:	2204      	movs	r2, #4
 8006614:	4013      	ands	r3, r2
 8006616:	d00b      	beq.n	8006630 <UART_AdvFeatureConfig+0x90>
  {
    assert_param(IS_UART_ADVFEATURE_DATAINV(huart->AdvancedInit.DataInvert));
    MODIFY_REG(huart->Instance->CR2, USART_CR2_DATAINV, huart->AdvancedInit.DataInvert);
 8006618:	687b      	ldr	r3, [r7, #4]
 800661a:	681b      	ldr	r3, [r3, #0]
 800661c:	685b      	ldr	r3, [r3, #4]
 800661e:	4a34      	ldr	r2, [pc, #208]	@ (80066f0 <UART_AdvFeatureConfig+0x150>)
 8006620:	4013      	ands	r3, r2
 8006622:	0019      	movs	r1, r3
 8006624:	687b      	ldr	r3, [r7, #4]
 8006626:	6b5a      	ldr	r2, [r3, #52]	@ 0x34
 8006628:	687b      	ldr	r3, [r7, #4]
 800662a:	681b      	ldr	r3, [r3, #0]
 800662c:	430a      	orrs	r2, r1
 800662e:	605a      	str	r2, [r3, #4]
  }

  /* if required, configure RX overrun detection disabling */
  if (HAL_IS_BIT_SET(huart->AdvancedInit.AdvFeatureInit, UART_ADVFEATURE_RXOVERRUNDISABLE_INIT))
 8006630:	687b      	ldr	r3, [r7, #4]
 8006632:	6a9b      	ldr	r3, [r3, #40]	@ 0x28
 8006634:	2210      	movs	r2, #16
 8006636:	4013      	ands	r3, r2
 8006638:	d00b      	beq.n	8006652 <UART_AdvFeatureConfig+0xb2>
  {
    assert_param(IS_UART_OVERRUN(huart->AdvancedInit.OverrunDisable));
    MODIFY_REG(huart->Instance->CR3, USART_CR3_OVRDIS, huart->AdvancedInit.OverrunDisable);
 800663a:	687b      	ldr	r3, [r7, #4]
 800663c:	681b      	ldr	r3, [r3, #0]
 800663e:	689b      	ldr	r3, [r3, #8]
 8006640:	4a2c      	ldr	r2, [pc, #176]	@ (80066f4 <UART_AdvFeatureConfig+0x154>)
 8006642:	4013      	ands	r3, r2
 8006644:	0019      	movs	r1, r3
 8006646:	687b      	ldr	r3, [r7, #4]
 8006648:	6bda      	ldr	r2, [r3, #60]	@ 0x3c
 800664a:	687b      	ldr	r3, [r7, #4]
 800664c:	681b      	ldr	r3, [r3, #0]
 800664e:	430a      	orrs	r2, r1
 8006650:	609a      	str	r2, [r3, #8]
  }

  /* if required, configure DMA disabling on reception error */
  if (HAL_IS_BIT_SET(huart->AdvancedInit.AdvFeatureInit, UART_ADVFEATURE_DMADISABLEONERROR_INIT))
 8006652:	687b      	ldr	r3, [r7, #4]
 8006654:	6a9b      	ldr	r3, [r3, #40]	@ 0x28
 8006656:	2220      	movs	r2, #32
 8006658:	4013      	ands	r3, r2
 800665a:	d00b      	beq.n	8006674 <UART_AdvFeatureConfig+0xd4>
  {
    assert_param(IS_UART_ADVFEATURE_DMAONRXERROR(huart->AdvancedInit.DMADisableonRxError));
    MODIFY_REG(huart->Instance->CR3, USART_CR3_DDRE, huart->AdvancedInit.DMADisableonRxError);
 800665c:	687b      	ldr	r3, [r7, #4]
 800665e:	681b      	ldr	r3, [r3, #0]
 8006660:	689b      	ldr	r3, [r3, #8]
 8006662:	4a25      	ldr	r2, [pc, #148]	@ (80066f8 <UART_AdvFeatureConfig+0x158>)
 8006664:	4013      	ands	r3, r2
 8006666:	0019      	movs	r1, r3
 8006668:	687b      	ldr	r3, [r7, #4]
 800666a:	6c1a      	ldr	r2, [r3, #64]	@ 0x40
 800666c:	687b      	ldr	r3, [r7, #4]
 800666e:	681b      	ldr	r3, [r3, #0]
 8006670:	430a      	orrs	r2, r1
 8006672:	609a      	str	r2, [r3, #8]
  }

  /* if required, configure auto Baud rate detection scheme */
  if (HAL_IS_BIT_SET(huart->AdvancedInit.AdvFeatureInit, UART_ADVFEATURE_AUTOBAUDRATE_INIT))
 8006674:	687b      	ldr	r3, [r7, #4]
 8006676:	6a9b      	ldr	r3, [r3, #40]	@ 0x28
 8006678:	2240      	movs	r2, #64	@ 0x40
 800667a:	4013      	ands	r3, r2
 800667c:	d01d      	beq.n	80066ba <UART_AdvFeatureConfig+0x11a>
  {
    assert_param(IS_USART_AUTOBAUDRATE_DETECTION_INSTANCE(huart->Instance));
    assert_param(IS_UART_ADVFEATURE_AUTOBAUDRATE(huart->AdvancedInit.AutoBaudRateEnable));
    MODIFY_REG(huart->Instance->CR2, USART_CR2_ABREN, huart->AdvancedInit.AutoBaudRateEnable);
 800667e:	687b      	ldr	r3, [r7, #4]
 8006680:	681b      	ldr	r3, [r3, #0]
 8006682:	685b      	ldr	r3, [r3, #4]
 8006684:	4a1d      	ldr	r2, [pc, #116]	@ (80066fc <UART_AdvFeatureConfig+0x15c>)
 8006686:	4013      	ands	r3, r2
 8006688:	0019      	movs	r1, r3
 800668a:	687b      	ldr	r3, [r7, #4]
 800668c:	6c5a      	ldr	r2, [r3, #68]	@ 0x44
 800668e:	687b      	ldr	r3, [r7, #4]
 8006690:	681b      	ldr	r3, [r3, #0]
 8006692:	430a      	orrs	r2, r1
 8006694:	605a      	str	r2, [r3, #4]
    /* set auto Baudrate detection parameters if detection is enabled */
    if (huart->AdvancedInit.AutoBaudRateEnable == UART_ADVFEATURE_AUTOBAUDRATE_ENABLE)
 8006696:	687b      	ldr	r3, [r7, #4]
 8006698:	6c5a      	ldr	r2, [r3, #68]	@ 0x44
 800669a:	2380      	movs	r3, #128	@ 0x80
 800669c:	035b      	lsls	r3, r3, #13
 800669e:	429a      	cmp	r2, r3
 80066a0:	d10b      	bne.n	80066ba <UART_AdvFeatureConfig+0x11a>
    {
      assert_param(IS_UART_ADVFEATURE_AUTOBAUDRATEMODE(huart->AdvancedInit.AutoBaudRateMode));
      MODIFY_REG(huart->Instance->CR2, USART_CR2_ABRMODE, huart->AdvancedInit.AutoBaudRateMode);
 80066a2:	687b      	ldr	r3, [r7, #4]
 80066a4:	681b      	ldr	r3, [r3, #0]
 80066a6:	685b      	ldr	r3, [r3, #4]
 80066a8:	4a15      	ldr	r2, [pc, #84]	@ (8006700 <UART_AdvFeatureConfig+0x160>)
 80066aa:	4013      	ands	r3, r2
 80066ac:	0019      	movs	r1, r3
 80066ae:	687b      	ldr	r3, [r7, #4]
 80066b0:	6c9a      	ldr	r2, [r3, #72]	@ 0x48
 80066b2:	687b      	ldr	r3, [r7, #4]
 80066b4:	681b      	ldr	r3, [r3, #0]
 80066b6:	430a      	orrs	r2, r1
 80066b8:	605a      	str	r2, [r3, #4]
    }
  }

  /* if required, configure MSB first on communication line */
  if (HAL_IS_BIT_SET(huart->AdvancedInit.AdvFeatureInit, UART_ADVFEATURE_MSBFIRST_INIT))
 80066ba:	687b      	ldr	r3, [r7, #4]
 80066bc:	6a9b      	ldr	r3, [r3, #40]	@ 0x28
 80066be:	2280      	movs	r2, #128	@ 0x80
 80066c0:	4013      	ands	r3, r2
 80066c2:	d00b      	beq.n	80066dc <UART_AdvFeatureConfig+0x13c>
  {
    assert_param(IS_UART_ADVFEATURE_MSBFIRST(huart->AdvancedInit.MSBFirst));
    MODIFY_REG(huart->Instance->CR2, USART_CR2_MSBFIRST, huart->AdvancedInit.MSBFirst);
 80066c4:	687b      	ldr	r3, [r7, #4]
 80066c6:	681b      	ldr	r3, [r3, #0]
 80066c8:	685b      	ldr	r3, [r3, #4]
 80066ca:	4a0e      	ldr	r2, [pc, #56]	@ (8006704 <UART_AdvFeatureConfig+0x164>)
 80066cc:	4013      	ands	r3, r2
 80066ce:	0019      	movs	r1, r3
 80066d0:	687b      	ldr	r3, [r7, #4]
 80066d2:	6cda      	ldr	r2, [r3, #76]	@ 0x4c
 80066d4:	687b      	ldr	r3, [r7, #4]
 80066d6:	681b      	ldr	r3, [r3, #0]
 80066d8:	430a      	orrs	r2, r1
 80066da:	605a      	str	r2, [r3, #4]
  }
}
 80066dc:	46c0      	nop			@ (mov r8, r8)
 80066de:	46bd      	mov	sp, r7
 80066e0:	b002      	add	sp, #8
 80066e2:	bd80      	pop	{r7, pc}
 80066e4:	ffff7fff 	.word	0xffff7fff
 80066e8:	fffdffff 	.word	0xfffdffff
 80066ec:	fffeffff 	.word	0xfffeffff
 80066f0:	fffbffff 	.word	0xfffbffff
 80066f4:	ffffefff 	.word	0xffffefff
 80066f8:	ffffdfff 	.word	0xffffdfff
 80066fc:	ffefffff 	.word	0xffefffff
 8006700:	ff9fffff 	.word	0xff9fffff
 8006704:	fff7ffff 	.word	0xfff7ffff

08006708 <UART_CheckIdleState>:
  * @brief Check the UART Idle State.
  * @param huart UART handle.
  * @retval HAL status
  */
HAL_StatusTypeDef UART_CheckIdleState(UART_HandleTypeDef *huart)
{
 8006708:	b580      	push	{r7, lr}
 800670a:	b092      	sub	sp, #72	@ 0x48
 800670c:	af02      	add	r7, sp, #8
 800670e:	6078      	str	r0, [r7, #4]
  uint32_t tickstart;

  /* Initialize the UART ErrorCode */
  huart->ErrorCode = HAL_UART_ERROR_NONE;
 8006710:	687b      	ldr	r3, [r7, #4]
 8006712:	2290      	movs	r2, #144	@ 0x90
 8006714:	2100      	movs	r1, #0
 8006716:	5099      	str	r1, [r3, r2]

  /* Init tickstart for timeout management */
  tickstart = HAL_GetTick();
 8006718:	f7fd fc30 	bl	8003f7c <HAL_GetTick>
 800671c:	0003      	movs	r3, r0
 800671e:	63fb      	str	r3, [r7, #60]	@ 0x3c

  /* Check if the Transmitter is enabled */
  if ((huart->Instance->CR1 & USART_CR1_TE) == USART_CR1_TE)
 8006720:	687b      	ldr	r3, [r7, #4]
 8006722:	681b      	ldr	r3, [r3, #0]
 8006724:	681b      	ldr	r3, [r3, #0]
 8006726:	2208      	movs	r2, #8
 8006728:	4013      	ands	r3, r2
 800672a:	2b08      	cmp	r3, #8
 800672c:	d12d      	bne.n	800678a <UART_CheckIdleState+0x82>
  {
    /* Wait until TEACK flag is set */
    if (UART_WaitOnFlagUntilTimeout(huart, USART_ISR_TEACK, RESET, tickstart, HAL_UART_TIMEOUT_VALUE) != HAL_OK)
 800672e:	6bfb      	ldr	r3, [r7, #60]	@ 0x3c
 8006730:	2280      	movs	r2, #128	@ 0x80
 8006732:	0391      	lsls	r1, r2, #14
 8006734:	6878      	ldr	r0, [r7, #4]
 8006736:	4a47      	ldr	r2, [pc, #284]	@ (8006854 <UART_CheckIdleState+0x14c>)
 8006738:	9200      	str	r2, [sp, #0]
 800673a:	2200      	movs	r2, #0
 800673c:	f000 f88e 	bl	800685c <UART_WaitOnFlagUntilTimeout>
 8006740:	1e03      	subs	r3, r0, #0
 8006742:	d022      	beq.n	800678a <UART_CheckIdleState+0x82>
  __ASM volatile ("MRS %0, primask" : "=r" (result) :: "memory");
 8006744:	f3ef 8310 	mrs	r3, PRIMASK
 8006748:	627b      	str	r3, [r7, #36]	@ 0x24
  return(result);
 800674a:	6a7b      	ldr	r3, [r7, #36]	@ 0x24
    {
      /* Disable TXE interrupt for the interrupt process */
      ATOMIC_CLEAR_BIT(huart->Instance->CR1, (USART_CR1_TXEIE_TXFNFIE));
 800674c:	63bb      	str	r3, [r7, #56]	@ 0x38
 800674e:	2301      	movs	r3, #1
 8006750:	62bb      	str	r3, [r7, #40]	@ 0x28
  __ASM volatile ("MSR primask, %0" : : "r" (priMask) : "memory");
 8006752:	6abb      	ldr	r3, [r7, #40]	@ 0x28
 8006754:	f383 8810 	msr	PRIMASK, r3
}
 8006758:	46c0      	nop			@ (mov r8, r8)
 800675a:	687b      	ldr	r3, [r7, #4]
 800675c:	681b      	ldr	r3, [r3, #0]
 800675e:	681a      	ldr	r2, [r3, #0]
 8006760:	687b      	ldr	r3, [r7, #4]
 8006762:	681b      	ldr	r3, [r3, #0]
 8006764:	2180      	movs	r1, #128	@ 0x80
 8006766:	438a      	bics	r2, r1
 8006768:	601a      	str	r2, [r3, #0]
 800676a:	6bbb      	ldr	r3, [r7, #56]	@ 0x38
 800676c:	62fb      	str	r3, [r7, #44]	@ 0x2c
  __ASM volatile ("MSR primask, %0" : : "r" (priMask) : "memory");
 800676e:	6afb      	ldr	r3, [r7, #44]	@ 0x2c
 8006770:	f383 8810 	msr	PRIMASK, r3
}
 8006774:	46c0      	nop			@ (mov r8, r8)

      huart->gState = HAL_UART_STATE_READY;
 8006776:	687b      	ldr	r3, [r7, #4]
 8006778:	2288      	movs	r2, #136	@ 0x88
 800677a:	2120      	movs	r1, #32
 800677c:	5099      	str	r1, [r3, r2]

      __HAL_UNLOCK(huart);
 800677e:	687b      	ldr	r3, [r7, #4]
 8006780:	2284      	movs	r2, #132	@ 0x84
 8006782:	2100      	movs	r1, #0
 8006784:	5499      	strb	r1, [r3, r2]

      /* Timeout occurred */
      return HAL_TIMEOUT;
 8006786:	2303      	movs	r3, #3
 8006788:	e060      	b.n	800684c <UART_CheckIdleState+0x144>
    }
  }

  /* Check if the Receiver is enabled */
  if ((huart->Instance->CR1 & USART_CR1_RE) == USART_CR1_RE)
 800678a:	687b      	ldr	r3, [r7, #4]
 800678c:	681b      	ldr	r3, [r3, #0]
 800678e:	681b      	ldr	r3, [r3, #0]
 8006790:	2204      	movs	r2, #4
 8006792:	4013      	ands	r3, r2
 8006794:	2b04      	cmp	r3, #4
 8006796:	d146      	bne.n	8006826 <UART_CheckIdleState+0x11e>
  {
    /* Wait until REACK flag is set */
    if (UART_WaitOnFlagUntilTimeout(huart, USART_ISR_REACK, RESET, tickstart, HAL_UART_TIMEOUT_VALUE) != HAL_OK)
 8006798:	6bfb      	ldr	r3, [r7, #60]	@ 0x3c
 800679a:	2280      	movs	r2, #128	@ 0x80
 800679c:	03d1      	lsls	r1, r2, #15
 800679e:	6878      	ldr	r0, [r7, #4]
 80067a0:	4a2c      	ldr	r2, [pc, #176]	@ (8006854 <UART_CheckIdleState+0x14c>)
 80067a2:	9200      	str	r2, [sp, #0]
 80067a4:	2200      	movs	r2, #0
 80067a6:	f000 f859 	bl	800685c <UART_WaitOnFlagUntilTimeout>
 80067aa:	1e03      	subs	r3, r0, #0
 80067ac:	d03b      	beq.n	8006826 <UART_CheckIdleState+0x11e>
  __ASM volatile ("MRS %0, primask" : "=r" (result) :: "memory");
 80067ae:	f3ef 8310 	mrs	r3, PRIMASK
 80067b2:	60fb      	str	r3, [r7, #12]
  return(result);
 80067b4:	68fb      	ldr	r3, [r7, #12]
    {
      /* Disable RXNE, PE and ERR (Frame error, noise error, overrun error)
      interrupts for the interrupt process */
      ATOMIC_CLEAR_BIT(huart->Instance->CR1, (USART_CR1_RXNEIE_RXFNEIE | USART_CR1_PEIE));
 80067b6:	637b      	str	r3, [r7, #52]	@ 0x34
 80067b8:	2301      	movs	r3, #1
 80067ba:	613b      	str	r3, [r7, #16]
  __ASM volatile ("MSR primask, %0" : : "r" (priMask) : "memory");
 80067bc:	693b      	ldr	r3, [r7, #16]
 80067be:	f383 8810 	msr	PRIMASK, r3
}
 80067c2:	46c0      	nop			@ (mov r8, r8)
 80067c4:	687b      	ldr	r3, [r7, #4]
 80067c6:	681b      	ldr	r3, [r3, #0]
 80067c8:	681a      	ldr	r2, [r3, #0]
 80067ca:	687b      	ldr	r3, [r7, #4]
 80067cc:	681b      	ldr	r3, [r3, #0]
 80067ce:	4922      	ldr	r1, [pc, #136]	@ (8006858 <UART_CheckIdleState+0x150>)
 80067d0:	400a      	ands	r2, r1
 80067d2:	601a      	str	r2, [r3, #0]
 80067d4:	6b7b      	ldr	r3, [r7, #52]	@ 0x34
 80067d6:	617b      	str	r3, [r7, #20]
  __ASM volatile ("MSR primask, %0" : : "r" (priMask) : "memory");
 80067d8:	697b      	ldr	r3, [r7, #20]
 80067da:	f383 8810 	msr	PRIMASK, r3
}
 80067de:	46c0      	nop			@ (mov r8, r8)
  __ASM volatile ("MRS %0, primask" : "=r" (result) :: "memory");
 80067e0:	f3ef 8310 	mrs	r3, PRIMASK
 80067e4:	61bb      	str	r3, [r7, #24]
  return(result);
 80067e6:	69bb      	ldr	r3, [r7, #24]
      ATOMIC_CLEAR_BIT(huart->Instance->CR3, USART_CR3_EIE);
 80067e8:	633b      	str	r3, [r7, #48]	@ 0x30
 80067ea:	2301      	movs	r3, #1
 80067ec:	61fb      	str	r3, [r7, #28]
  __ASM volatile ("MSR primask, %0" : : "r" (priMask) : "memory");
 80067ee:	69fb      	ldr	r3, [r7, #28]
 80067f0:	f383 8810 	msr	PRIMASK, r3
}
 80067f4:	46c0      	nop			@ (mov r8, r8)
 80067f6:	687b      	ldr	r3, [r7, #4]
 80067f8:	681b      	ldr	r3, [r3, #0]
 80067fa:	689a      	ldr	r2, [r3, #8]
 80067fc:	687b      	ldr	r3, [r7, #4]
 80067fe:	681b      	ldr	r3, [r3, #0]
 8006800:	2101      	movs	r1, #1
 8006802:	438a      	bics	r2, r1
 8006804:	609a      	str	r2, [r3, #8]
 8006806:	6b3b      	ldr	r3, [r7, #48]	@ 0x30
 8006808:	623b      	str	r3, [r7, #32]
  __ASM volatile ("MSR primask, %0" : : "r" (priMask) : "memory");
 800680a:	6a3b      	ldr	r3, [r7, #32]
 800680c:	f383 8810 	msr	PRIMASK, r3
}
 8006810:	46c0      	nop			@ (mov r8, r8)

      huart->RxState = HAL_UART_STATE_READY;
 8006812:	687b      	ldr	r3, [r7, #4]
 8006814:	228c      	movs	r2, #140	@ 0x8c
 8006816:	2120      	movs	r1, #32
 8006818:	5099      	str	r1, [r3, r2]

      __HAL_UNLOCK(huart);
 800681a:	687b      	ldr	r3, [r7, #4]
 800681c:	2284      	movs	r2, #132	@ 0x84
 800681e:	2100      	movs	r1, #0
 8006820:	5499      	strb	r1, [r3, r2]

      /* Timeout occurred */
      return HAL_TIMEOUT;
 8006822:	2303      	movs	r3, #3
 8006824:	e012      	b.n	800684c <UART_CheckIdleState+0x144>
    }
  }

  /* Initialize the UART State */
  huart->gState = HAL_UART_STATE_READY;
 8006826:	687b      	ldr	r3, [r7, #4]
 8006828:	2288      	movs	r2, #136	@ 0x88
 800682a:	2120      	movs	r1, #32
 800682c:	5099      	str	r1, [r3, r2]
  huart->RxState = HAL_UART_STATE_READY;
 800682e:	687b      	ldr	r3, [r7, #4]
 8006830:	228c      	movs	r2, #140	@ 0x8c
 8006832:	2120      	movs	r1, #32
 8006834:	5099      	str	r1, [r3, r2]
  huart->ReceptionType = HAL_UART_RECEPTION_STANDARD;
 8006836:	687b      	ldr	r3, [r7, #4]
 8006838:	2200      	movs	r2, #0
 800683a:	66da      	str	r2, [r3, #108]	@ 0x6c
  huart->RxEventType = HAL_UART_RXEVENT_TC;
 800683c:	687b      	ldr	r3, [r7, #4]
 800683e:	2200      	movs	r2, #0
 8006840:	671a      	str	r2, [r3, #112]	@ 0x70

  __HAL_UNLOCK(huart);
 8006842:	687b      	ldr	r3, [r7, #4]
 8006844:	2284      	movs	r2, #132	@ 0x84
 8006846:	2100      	movs	r1, #0
 8006848:	5499      	strb	r1, [r3, r2]

  return HAL_OK;
 800684a:	2300      	movs	r3, #0
}
 800684c:	0018      	movs	r0, r3
 800684e:	46bd      	mov	sp, r7
 8006850:	b010      	add	sp, #64	@ 0x40
 8006852:	bd80      	pop	{r7, pc}
 8006854:	01ffffff 	.word	0x01ffffff
 8006858:	fffffedf 	.word	0xfffffedf

0800685c <UART_WaitOnFlagUntilTimeout>:
  * @param Timeout   Timeout duration
  * @retval HAL status
  */
HAL_StatusTypeDef UART_WaitOnFlagUntilTimeout(UART_HandleTypeDef *huart, uint32_t Flag, FlagStatus Status,
                                              uint32_t Tickstart, uint32_t Timeout)
{
 800685c:	b580      	push	{r7, lr}
 800685e:	b084      	sub	sp, #16
 8006860:	af00      	add	r7, sp, #0
 8006862:	60f8      	str	r0, [r7, #12]
 8006864:	60b9      	str	r1, [r7, #8]
 8006866:	603b      	str	r3, [r7, #0]
 8006868:	1dfb      	adds	r3, r7, #7
 800686a:	701a      	strb	r2, [r3, #0]
  /* Wait until flag is set */
  while ((__HAL_UART_GET_FLAG(huart, Flag) ? SET : RESET) == Status)
 800686c:	e051      	b.n	8006912 <UART_WaitOnFlagUntilTimeout+0xb6>
  {
    /* Check for the Timeout */
    if (Timeout != HAL_MAX_DELAY)
 800686e:	69bb      	ldr	r3, [r7, #24]
 8006870:	3301      	adds	r3, #1
 8006872:	d04e      	beq.n	8006912 <UART_WaitOnFlagUntilTimeout+0xb6>
    {
      if (((HAL_GetTick() - Tickstart) > Timeout) || (Timeout == 0U))
 8006874:	f7fd fb82 	bl	8003f7c <HAL_GetTick>
 8006878:	0002      	movs	r2, r0
 800687a:	683b      	ldr	r3, [r7, #0]
 800687c:	1ad3      	subs	r3, r2, r3
 800687e:	69ba      	ldr	r2, [r7, #24]
 8006880:	429a      	cmp	r2, r3
 8006882:	d302      	bcc.n	800688a <UART_WaitOnFlagUntilTimeout+0x2e>
 8006884:	69bb      	ldr	r3, [r7, #24]
 8006886:	2b00      	cmp	r3, #0
 8006888:	d101      	bne.n	800688e <UART_WaitOnFlagUntilTimeout+0x32>
      {

        return HAL_TIMEOUT;
 800688a:	2303      	movs	r3, #3
 800688c:	e051      	b.n	8006932 <UART_WaitOnFlagUntilTimeout+0xd6>
      }

      if ((READ_BIT(huart->Instance->CR1, USART_CR1_RE) != 0U) && (Flag != UART_FLAG_TXE) && (Flag != UART_FLAG_TC))
 800688e:	68fb      	ldr	r3, [r7, #12]
 8006890:	681b      	ldr	r3, [r3, #0]
 8006892:	681b      	ldr	r3, [r3, #0]
 8006894:	2204      	movs	r2, #4
 8006896:	4013      	ands	r3, r2
 8006898:	d03b      	beq.n	8006912 <UART_WaitOnFlagUntilTimeout+0xb6>
 800689a:	68bb      	ldr	r3, [r7, #8]
 800689c:	2b80      	cmp	r3, #128	@ 0x80
 800689e:	d038      	beq.n	8006912 <UART_WaitOnFlagUntilTimeout+0xb6>
 80068a0:	68bb      	ldr	r3, [r7, #8]
 80068a2:	2b40      	cmp	r3, #64	@ 0x40
 80068a4:	d035      	beq.n	8006912 <UART_WaitOnFlagUntilTimeout+0xb6>
      {
        if (__HAL_UART_GET_FLAG(huart, UART_FLAG_ORE) == SET)
 80068a6:	68fb      	ldr	r3, [r7, #12]
 80068a8:	681b      	ldr	r3, [r3, #0]
 80068aa:	69db      	ldr	r3, [r3, #28]
 80068ac:	2208      	movs	r2, #8
 80068ae:	4013      	ands	r3, r2
 80068b0:	2b08      	cmp	r3, #8
 80068b2:	d111      	bne.n	80068d8 <UART_WaitOnFlagUntilTimeout+0x7c>
        {
          /* Clear Overrun Error flag*/
          __HAL_UART_CLEAR_FLAG(huart, UART_CLEAR_OREF);
 80068b4:	68fb      	ldr	r3, [r7, #12]
 80068b6:	681b      	ldr	r3, [r3, #0]
 80068b8:	2208      	movs	r2, #8
 80068ba:	621a      	str	r2, [r3, #32]

          /* Blocking error : transfer is aborted
          Set the UART state ready to be able to start again the process,
          Disable Rx Interrupts if ongoing */
          UART_EndRxTransfer(huart);
 80068bc:	68fb      	ldr	r3, [r7, #12]
 80068be:	0018      	movs	r0, r3
 80068c0:	f000 f83c 	bl	800693c <UART_EndRxTransfer>

          huart->ErrorCode = HAL_UART_ERROR_ORE;
 80068c4:	68fb      	ldr	r3, [r7, #12]
 80068c6:	2290      	movs	r2, #144	@ 0x90
 80068c8:	2108      	movs	r1, #8
 80068ca:	5099      	str	r1, [r3, r2]

          /* Process Unlocked */
          __HAL_UNLOCK(huart);
 80068cc:	68fb      	ldr	r3, [r7, #12]
 80068ce:	2284      	movs	r2, #132	@ 0x84
 80068d0:	2100      	movs	r1, #0
 80068d2:	5499      	strb	r1, [r3, r2]

          return HAL_ERROR;
 80068d4:	2301      	movs	r3, #1
 80068d6:	e02c      	b.n	8006932 <UART_WaitOnFlagUntilTimeout+0xd6>
        }
        if (__HAL_UART_GET_FLAG(huart, UART_FLAG_RTOF) == SET)
 80068d8:	68fb      	ldr	r3, [r7, #12]
 80068da:	681b      	ldr	r3, [r3, #0]
 80068dc:	69da      	ldr	r2, [r3, #28]
 80068de:	2380      	movs	r3, #128	@ 0x80
 80068e0:	011b      	lsls	r3, r3, #4
 80068e2:	401a      	ands	r2, r3
 80068e4:	2380      	movs	r3, #128	@ 0x80
 80068e6:	011b      	lsls	r3, r3, #4
 80068e8:	429a      	cmp	r2, r3
 80068ea:	d112      	bne.n	8006912 <UART_WaitOnFlagUntilTimeout+0xb6>
        {
          /* Clear Receiver Timeout flag*/
          __HAL_UART_CLEAR_FLAG(huart, UART_CLEAR_RTOF);
 80068ec:	68fb      	ldr	r3, [r7, #12]
 80068ee:	681b      	ldr	r3, [r3, #0]
 80068f0:	2280      	movs	r2, #128	@ 0x80
 80068f2:	0112      	lsls	r2, r2, #4
 80068f4:	621a      	str	r2, [r3, #32]

          /* Blocking error : transfer is aborted
          Set the UART state ready to be able to start again the process,
          Disable Rx Interrupts if ongoing */
          UART_EndRxTransfer(huart);
 80068f6:	68fb      	ldr	r3, [r7, #12]
 80068f8:	0018      	movs	r0, r3
 80068fa:	f000 f81f 	bl	800693c <UART_EndRxTransfer>

          huart->ErrorCode = HAL_UART_ERROR_RTO;
 80068fe:	68fb      	ldr	r3, [r7, #12]
 8006900:	2290      	movs	r2, #144	@ 0x90
 8006902:	2120      	movs	r1, #32
 8006904:	5099      	str	r1, [r3, r2]

          /* Process Unlocked */
          __HAL_UNLOCK(huart);
 8006906:	68fb      	ldr	r3, [r7, #12]
 8006908:	2284      	movs	r2, #132	@ 0x84
 800690a:	2100      	movs	r1, #0
 800690c:	5499      	strb	r1, [r3, r2]

          return HAL_TIMEOUT;
 800690e:	2303      	movs	r3, #3
 8006910:	e00f      	b.n	8006932 <UART_WaitOnFlagUntilTimeout+0xd6>
  while ((__HAL_UART_GET_FLAG(huart, Flag) ? SET : RESET) == Status)
 8006912:	68fb      	ldr	r3, [r7, #12]
 8006914:	681b      	ldr	r3, [r3, #0]
 8006916:	69db      	ldr	r3, [r3, #28]
 8006918:	68ba      	ldr	r2, [r7, #8]
 800691a:	4013      	ands	r3, r2
 800691c:	68ba      	ldr	r2, [r7, #8]
 800691e:	1ad3      	subs	r3, r2, r3
 8006920:	425a      	negs	r2, r3
 8006922:	4153      	adcs	r3, r2
 8006924:	b2db      	uxtb	r3, r3
 8006926:	001a      	movs	r2, r3
 8006928:	1dfb      	adds	r3, r7, #7
 800692a:	781b      	ldrb	r3, [r3, #0]
 800692c:	429a      	cmp	r2, r3
 800692e:	d09e      	beq.n	800686e <UART_WaitOnFlagUntilTimeout+0x12>
        }
      }
    }
  }
  return HAL_OK;
 8006930:	2300      	movs	r3, #0
}
 8006932:	0018      	movs	r0, r3
 8006934:	46bd      	mov	sp, r7
 8006936:	b004      	add	sp, #16
 8006938:	bd80      	pop	{r7, pc}
	...

0800693c <UART_EndRxTransfer>:
  * @brief  End ongoing Rx transfer on UART peripheral (following error detection or Reception completion).
  * @param  huart UART handle.
  * @retval None
  */
static void UART_EndRxTransfer(UART_HandleTypeDef *huart)
{
 800693c:	b580      	push	{r7, lr}
 800693e:	b08e      	sub	sp, #56	@ 0x38
 8006940:	af00      	add	r7, sp, #0
 8006942:	6078      	str	r0, [r7, #4]
  __ASM volatile ("MRS %0, primask" : "=r" (result) :: "memory");
 8006944:	f3ef 8310 	mrs	r3, PRIMASK
 8006948:	617b      	str	r3, [r7, #20]
  return(result);
 800694a:	697b      	ldr	r3, [r7, #20]
  /* Disable RXNE, PE and ERR (Frame error, noise error, overrun error) interrupts */
  ATOMIC_CLEAR_BIT(huart->Instance->CR1, (USART_CR1_RXNEIE_RXFNEIE | USART_CR1_PEIE));
 800694c:	637b      	str	r3, [r7, #52]	@ 0x34
 800694e:	2301      	movs	r3, #1
 8006950:	61bb      	str	r3, [r7, #24]
  __ASM volatile ("MSR primask, %0" : : "r" (priMask) : "memory");
 8006952:	69bb      	ldr	r3, [r7, #24]
 8006954:	f383 8810 	msr	PRIMASK, r3
}
 8006958:	46c0      	nop			@ (mov r8, r8)
 800695a:	687b      	ldr	r3, [r7, #4]
 800695c:	681b      	ldr	r3, [r3, #0]
 800695e:	681a      	ldr	r2, [r3, #0]
 8006960:	687b      	ldr	r3, [r7, #4]
 8006962:	681b      	ldr	r3, [r3, #0]
 8006964:	4926      	ldr	r1, [pc, #152]	@ (8006a00 <UART_EndRxTransfer+0xc4>)
 8006966:	400a      	ands	r2, r1
 8006968:	601a      	str	r2, [r3, #0]
 800696a:	6b7b      	ldr	r3, [r7, #52]	@ 0x34
 800696c:	61fb      	str	r3, [r7, #28]
  __ASM volatile ("MSR primask, %0" : : "r" (priMask) : "memory");
 800696e:	69fb      	ldr	r3, [r7, #28]
 8006970:	f383 8810 	msr	PRIMASK, r3
}
 8006974:	46c0      	nop			@ (mov r8, r8)
  __ASM volatile ("MRS %0, primask" : "=r" (result) :: "memory");
 8006976:	f3ef 8310 	mrs	r3, PRIMASK
 800697a:	623b      	str	r3, [r7, #32]
  return(result);
 800697c:	6a3b      	ldr	r3, [r7, #32]
  ATOMIC_CLEAR_BIT(huart->Instance->CR3, (USART_CR3_EIE | USART_CR3_RXFTIE));
 800697e:	633b      	str	r3, [r7, #48]	@ 0x30
 8006980:	2301      	movs	r3, #1
 8006982:	627b      	str	r3, [r7, #36]	@ 0x24
  __ASM volatile ("MSR primask, %0" : : "r" (priMask) : "memory");
 8006984:	6a7b      	ldr	r3, [r7, #36]	@ 0x24
 8006986:	f383 8810 	msr	PRIMASK, r3
}
 800698a:	46c0      	nop			@ (mov r8, r8)
 800698c:	687b      	ldr	r3, [r7, #4]
 800698e:	681b      	ldr	r3, [r3, #0]
 8006990:	689a      	ldr	r2, [r3, #8]
 8006992:	687b      	ldr	r3, [r7, #4]
 8006994:	681b      	ldr	r3, [r3, #0]
 8006996:	491b      	ldr	r1, [pc, #108]	@ (8006a04 <UART_EndRxTransfer+0xc8>)
 8006998:	400a      	ands	r2, r1
 800699a:	609a      	str	r2, [r3, #8]
 800699c:	6b3b      	ldr	r3, [r7, #48]	@ 0x30
 800699e:	62bb      	str	r3, [r7, #40]	@ 0x28
  __ASM volatile ("MSR primask, %0" : : "r" (priMask) : "memory");
 80069a0:	6abb      	ldr	r3, [r7, #40]	@ 0x28
 80069a2:	f383 8810 	msr	PRIMASK, r3
}
 80069a6:	46c0      	nop			@ (mov r8, r8)

  /* In case of reception waiting for IDLE event, disable also the IDLE IE interrupt source */
  if (huart->ReceptionType == HAL_UART_RECEPTION_TOIDLE)
 80069a8:	687b      	ldr	r3, [r7, #4]
 80069aa:	6edb      	ldr	r3, [r3, #108]	@ 0x6c
 80069ac:	2b01      	cmp	r3, #1
 80069ae:	d118      	bne.n	80069e2 <UART_EndRxTransfer+0xa6>
  __ASM volatile ("MRS %0, primask" : "=r" (result) :: "memory");
 80069b0:	f3ef 8310 	mrs	r3, PRIMASK
 80069b4:	60bb      	str	r3, [r7, #8]
  return(result);
 80069b6:	68bb      	ldr	r3, [r7, #8]
  {
    ATOMIC_CLEAR_BIT(huart->Instance->CR1, USART_CR1_IDLEIE);
 80069b8:	62fb      	str	r3, [r7, #44]	@ 0x2c
 80069ba:	2301      	movs	r3, #1
 80069bc:	60fb      	str	r3, [r7, #12]
  __ASM volatile ("MSR primask, %0" : : "r" (priMask) : "memory");
 80069be:	68fb      	ldr	r3, [r7, #12]
 80069c0:	f383 8810 	msr	PRIMASK, r3
}
 80069c4:	46c0      	nop			@ (mov r8, r8)
 80069c6:	687b      	ldr	r3, [r7, #4]
 80069c8:	681b      	ldr	r3, [r3, #0]
 80069ca:	681a      	ldr	r2, [r3, #0]
 80069cc:	687b      	ldr	r3, [r7, #4]
 80069ce:	681b      	ldr	r3, [r3, #0]
 80069d0:	2110      	movs	r1, #16
 80069d2:	438a      	bics	r2, r1
 80069d4:	601a      	str	r2, [r3, #0]
 80069d6:	6afb      	ldr	r3, [r7, #44]	@ 0x2c
 80069d8:	613b      	str	r3, [r7, #16]
  __ASM volatile ("MSR primask, %0" : : "r" (priMask) : "memory");
 80069da:	693b      	ldr	r3, [r7, #16]
 80069dc:	f383 8810 	msr	PRIMASK, r3
}
 80069e0:	46c0      	nop			@ (mov r8, r8)
  }

  /* At end of Rx process, restore huart->RxState to Ready */
  huart->RxState = HAL_UART_STATE_READY;
 80069e2:	687b      	ldr	r3, [r7, #4]
 80069e4:	228c      	movs	r2, #140	@ 0x8c
 80069e6:	2120      	movs	r1, #32
 80069e8:	5099      	str	r1, [r3, r2]
  huart->ReceptionType = HAL_UART_RECEPTION_STANDARD;
 80069ea:	687b      	ldr	r3, [r7, #4]
 80069ec:	2200      	movs	r2, #0
 80069ee:	66da      	str	r2, [r3, #108]	@ 0x6c

  /* Reset RxIsr function pointer */
  huart->RxISR = NULL;
 80069f0:	687b      	ldr	r3, [r7, #4]
 80069f2:	2200      	movs	r2, #0
 80069f4:	675a      	str	r2, [r3, #116]	@ 0x74
}
 80069f6:	46c0      	nop			@ (mov r8, r8)
 80069f8:	46bd      	mov	sp, r7
 80069fa:	b00e      	add	sp, #56	@ 0x38
 80069fc:	bd80      	pop	{r7, pc}
 80069fe:	46c0      	nop			@ (mov r8, r8)
 8006a00:	fffffedf 	.word	0xfffffedf
 8006a04:	effffffe 	.word	0xeffffffe

08006a08 <UART_DMAAbortOnError>:
  *         (To be called at end of DMA Abort procedure following error occurrence).
  * @param  hdma DMA handle.
  * @retval None
  */
static void UART_DMAAbortOnError(DMA_HandleTypeDef *hdma)
{
 8006a08:	b580      	push	{r7, lr}
 8006a0a:	b084      	sub	sp, #16
 8006a0c:	af00      	add	r7, sp, #0
 8006a0e:	6078      	str	r0, [r7, #4]
  UART_HandleTypeDef *huart = (UART_HandleTypeDef *)(hdma->Parent);
 8006a10:	687b      	ldr	r3, [r7, #4]
 8006a12:	6a9b      	ldr	r3, [r3, #40]	@ 0x28
 8006a14:	60fb      	str	r3, [r7, #12]
  huart->RxXferCount = 0U;
 8006a16:	68fb      	ldr	r3, [r7, #12]
 8006a18:	225e      	movs	r2, #94	@ 0x5e
 8006a1a:	2100      	movs	r1, #0
 8006a1c:	5299      	strh	r1, [r3, r2]
  huart->TxXferCount = 0U;
 8006a1e:	68fb      	ldr	r3, [r7, #12]
 8006a20:	2256      	movs	r2, #86	@ 0x56
 8006a22:	2100      	movs	r1, #0
 8006a24:	5299      	strh	r1, [r3, r2]
#if (USE_HAL_UART_REGISTER_CALLBACKS == 1)
  /*Call registered error callback*/
  huart->ErrorCallback(huart);
#else
  /*Call legacy weak error callback*/
  HAL_UART_ErrorCallback(huart);
 8006a26:	68fb      	ldr	r3, [r7, #12]
 8006a28:	0018      	movs	r0, r3
 8006a2a:	f7ff fae7 	bl	8005ffc <HAL_UART_ErrorCallback>
#endif /* USE_HAL_UART_REGISTER_CALLBACKS */
}
 8006a2e:	46c0      	nop			@ (mov r8, r8)
 8006a30:	46bd      	mov	sp, r7
 8006a32:	b004      	add	sp, #16
 8006a34:	bd80      	pop	{r7, pc}

08006a36 <UART_EndTransmit_IT>:
  * @param  huart pointer to a UART_HandleTypeDef structure that contains
  *                the configuration information for the specified UART module.
  * @retval None
  */
static void UART_EndTransmit_IT(UART_HandleTypeDef *huart)
{
 8006a36:	b580      	push	{r7, lr}
 8006a38:	b086      	sub	sp, #24
 8006a3a:	af00      	add	r7, sp, #0
 8006a3c:	6078      	str	r0, [r7, #4]
  __ASM volatile ("MRS %0, primask" : "=r" (result) :: "memory");
 8006a3e:	f3ef 8310 	mrs	r3, PRIMASK
 8006a42:	60bb      	str	r3, [r7, #8]
  return(result);
 8006a44:	68bb      	ldr	r3, [r7, #8]
  /* Disable the UART Transmit Complete Interrupt */
  ATOMIC_CLEAR_BIT(huart->Instance->CR1, USART_CR1_TCIE);
 8006a46:	617b      	str	r3, [r7, #20]
 8006a48:	2301      	movs	r3, #1
 8006a4a:	60fb      	str	r3, [r7, #12]
  __ASM volatile ("MSR primask, %0" : : "r" (priMask) : "memory");
 8006a4c:	68fb      	ldr	r3, [r7, #12]
 8006a4e:	f383 8810 	msr	PRIMASK, r3
}
 8006a52:	46c0      	nop			@ (mov r8, r8)
 8006a54:	687b      	ldr	r3, [r7, #4]
 8006a56:	681b      	ldr	r3, [r3, #0]
 8006a58:	681a      	ldr	r2, [r3, #0]
 8006a5a:	687b      	ldr	r3, [r7, #4]
 8006a5c:	681b      	ldr	r3, [r3, #0]
 8006a5e:	2140      	movs	r1, #64	@ 0x40
 8006a60:	438a      	bics	r2, r1
 8006a62:	601a      	str	r2, [r3, #0]
 8006a64:	697b      	ldr	r3, [r7, #20]
 8006a66:	613b      	str	r3, [r7, #16]
  __ASM volatile ("MSR primask, %0" : : "r" (priMask) : "memory");
 8006a68:	693b      	ldr	r3, [r7, #16]
 8006a6a:	f383 8810 	msr	PRIMASK, r3
}
 8006a6e:	46c0      	nop			@ (mov r8, r8)

  /* Tx process is ended, restore huart->gState to Ready */
  huart->gState = HAL_UART_STATE_READY;
 8006a70:	687b      	ldr	r3, [r7, #4]
 8006a72:	2288      	movs	r2, #136	@ 0x88
 8006a74:	2120      	movs	r1, #32
 8006a76:	5099      	str	r1, [r3, r2]

  /* Cleat TxISR function pointer */
  huart->TxISR = NULL;
 8006a78:	687b      	ldr	r3, [r7, #4]
 8006a7a:	2200      	movs	r2, #0
 8006a7c:	679a      	str	r2, [r3, #120]	@ 0x78
#if (USE_HAL_UART_REGISTER_CALLBACKS == 1)
  /*Call registered Tx complete callback*/
  huart->TxCpltCallback(huart);
#else
  /*Call legacy weak Tx complete callback*/
  HAL_UART_TxCpltCallback(huart);
 8006a7e:	687b      	ldr	r3, [r7, #4]
 8006a80:	0018      	movs	r0, r3
 8006a82:	f7ff fab3 	bl	8005fec <HAL_UART_TxCpltCallback>
#endif /* USE_HAL_UART_REGISTER_CALLBACKS */
}
 8006a86:	46c0      	nop			@ (mov r8, r8)
 8006a88:	46bd      	mov	sp, r7
 8006a8a:	b006      	add	sp, #24
 8006a8c:	bd80      	pop	{r7, pc}

08006a8e <HAL_UARTEx_WakeupCallback>:
  * @brief UART wakeup from Stop mode callback.
  * @param huart UART handle.
  * @retval None
  */
__weak void HAL_UARTEx_WakeupCallback(UART_HandleTypeDef *huart)
{
 8006a8e:	b580      	push	{r7, lr}
 8006a90:	b082      	sub	sp, #8
 8006a92:	af00      	add	r7, sp, #0
 8006a94:	6078      	str	r0, [r7, #4]
  UNUSED(huart);

  /* NOTE : This function should not be modified, when the callback is needed,
            the HAL_UARTEx_WakeupCallback can be implemented in the user file.
   */
}
 8006a96:	46c0      	nop			@ (mov r8, r8)
 8006a98:	46bd      	mov	sp, r7
 8006a9a:	b002      	add	sp, #8
 8006a9c:	bd80      	pop	{r7, pc}

08006a9e <HAL_UARTEx_RxFifoFullCallback>:
  * @brief  UART RX Fifo full callback.
  * @param  huart UART handle.
  * @retval None
  */
__weak void HAL_UARTEx_RxFifoFullCallback(UART_HandleTypeDef *huart)
{
 8006a9e:	b580      	push	{r7, lr}
 8006aa0:	b082      	sub	sp, #8
 8006aa2:	af00      	add	r7, sp, #0
 8006aa4:	6078      	str	r0, [r7, #4]
  UNUSED(huart);

  /* NOTE : This function should not be modified, when the callback is needed,
            the HAL_UARTEx_RxFifoFullCallback can be implemented in the user file.
   */
}
 8006aa6:	46c0      	nop			@ (mov r8, r8)
 8006aa8:	46bd      	mov	sp, r7
 8006aaa:	b002      	add	sp, #8
 8006aac:	bd80      	pop	{r7, pc}

08006aae <HAL_UARTEx_TxFifoEmptyCallback>:
  * @brief  UART TX Fifo empty callback.
  * @param  huart UART handle.
  * @retval None
  */
__weak void HAL_UARTEx_TxFifoEmptyCallback(UART_HandleTypeDef *huart)
{
 8006aae:	b580      	push	{r7, lr}
 8006ab0:	b082      	sub	sp, #8
 8006ab2:	af00      	add	r7, sp, #0
 8006ab4:	6078      	str	r0, [r7, #4]
  UNUSED(huart);

  /* NOTE : This function should not be modified, when the callback is needed,
            the HAL_UARTEx_TxFifoEmptyCallback can be implemented in the user file.
   */
}
 8006ab6:	46c0      	nop			@ (mov r8, r8)
 8006ab8:	46bd      	mov	sp, r7
 8006aba:	b002      	add	sp, #8
 8006abc:	bd80      	pop	{r7, pc}

08006abe <__cvt>:
 8006abe:	b5f0      	push	{r4, r5, r6, r7, lr}
 8006ac0:	001f      	movs	r7, r3
 8006ac2:	2300      	movs	r3, #0
 8006ac4:	0016      	movs	r6, r2
 8006ac6:	b08b      	sub	sp, #44	@ 0x2c
 8006ac8:	429f      	cmp	r7, r3
 8006aca:	da04      	bge.n	8006ad6 <__cvt+0x18>
 8006acc:	2180      	movs	r1, #128	@ 0x80
 8006ace:	0609      	lsls	r1, r1, #24
 8006ad0:	187b      	adds	r3, r7, r1
 8006ad2:	001f      	movs	r7, r3
 8006ad4:	232d      	movs	r3, #45	@ 0x2d
 8006ad6:	9a12      	ldr	r2, [sp, #72]	@ 0x48
 8006ad8:	9d14      	ldr	r5, [sp, #80]	@ 0x50
 8006ada:	7013      	strb	r3, [r2, #0]
 8006adc:	2320      	movs	r3, #32
 8006ade:	2203      	movs	r2, #3
 8006ae0:	439d      	bics	r5, r3
 8006ae2:	2d46      	cmp	r5, #70	@ 0x46
 8006ae4:	d007      	beq.n	8006af6 <__cvt+0x38>
 8006ae6:	002b      	movs	r3, r5
 8006ae8:	3b45      	subs	r3, #69	@ 0x45
 8006aea:	4259      	negs	r1, r3
 8006aec:	414b      	adcs	r3, r1
 8006aee:	9910      	ldr	r1, [sp, #64]	@ 0x40
 8006af0:	3a01      	subs	r2, #1
 8006af2:	18cb      	adds	r3, r1, r3
 8006af4:	9310      	str	r3, [sp, #64]	@ 0x40
 8006af6:	ab09      	add	r3, sp, #36	@ 0x24
 8006af8:	9304      	str	r3, [sp, #16]
 8006afa:	ab08      	add	r3, sp, #32
 8006afc:	9303      	str	r3, [sp, #12]
 8006afe:	9b13      	ldr	r3, [sp, #76]	@ 0x4c
 8006b00:	9200      	str	r2, [sp, #0]
 8006b02:	9302      	str	r3, [sp, #8]
 8006b04:	9b10      	ldr	r3, [sp, #64]	@ 0x40
 8006b06:	0032      	movs	r2, r6
 8006b08:	9301      	str	r3, [sp, #4]
 8006b0a:	003b      	movs	r3, r7
 8006b0c:	f000 ff80 	bl	8007a10 <_dtoa_r>
 8006b10:	0004      	movs	r4, r0
 8006b12:	2d47      	cmp	r5, #71	@ 0x47
 8006b14:	d11b      	bne.n	8006b4e <__cvt+0x90>
 8006b16:	9b11      	ldr	r3, [sp, #68]	@ 0x44
 8006b18:	07db      	lsls	r3, r3, #31
 8006b1a:	d511      	bpl.n	8006b40 <__cvt+0x82>
 8006b1c:	9b10      	ldr	r3, [sp, #64]	@ 0x40
 8006b1e:	18c3      	adds	r3, r0, r3
 8006b20:	9307      	str	r3, [sp, #28]
 8006b22:	2200      	movs	r2, #0
 8006b24:	2300      	movs	r3, #0
 8006b26:	0030      	movs	r0, r6
 8006b28:	0039      	movs	r1, r7
 8006b2a:	f7f9 fc97 	bl	800045c <__aeabi_dcmpeq>
 8006b2e:	2800      	cmp	r0, #0
 8006b30:	d001      	beq.n	8006b36 <__cvt+0x78>
 8006b32:	9b07      	ldr	r3, [sp, #28]
 8006b34:	9309      	str	r3, [sp, #36]	@ 0x24
 8006b36:	2230      	movs	r2, #48	@ 0x30
 8006b38:	9b09      	ldr	r3, [sp, #36]	@ 0x24
 8006b3a:	9907      	ldr	r1, [sp, #28]
 8006b3c:	428b      	cmp	r3, r1
 8006b3e:	d320      	bcc.n	8006b82 <__cvt+0xc4>
 8006b40:	0020      	movs	r0, r4
 8006b42:	9b09      	ldr	r3, [sp, #36]	@ 0x24
 8006b44:	9a15      	ldr	r2, [sp, #84]	@ 0x54
 8006b46:	1b1b      	subs	r3, r3, r4
 8006b48:	6013      	str	r3, [r2, #0]
 8006b4a:	b00b      	add	sp, #44	@ 0x2c
 8006b4c:	bdf0      	pop	{r4, r5, r6, r7, pc}
 8006b4e:	9b10      	ldr	r3, [sp, #64]	@ 0x40
 8006b50:	18c3      	adds	r3, r0, r3
 8006b52:	9307      	str	r3, [sp, #28]
 8006b54:	2d46      	cmp	r5, #70	@ 0x46
 8006b56:	d1e4      	bne.n	8006b22 <__cvt+0x64>
 8006b58:	7803      	ldrb	r3, [r0, #0]
 8006b5a:	2b30      	cmp	r3, #48	@ 0x30
 8006b5c:	d10c      	bne.n	8006b78 <__cvt+0xba>
 8006b5e:	2200      	movs	r2, #0
 8006b60:	2300      	movs	r3, #0
 8006b62:	0030      	movs	r0, r6
 8006b64:	0039      	movs	r1, r7
 8006b66:	f7f9 fc79 	bl	800045c <__aeabi_dcmpeq>
 8006b6a:	2800      	cmp	r0, #0
 8006b6c:	d104      	bne.n	8006b78 <__cvt+0xba>
 8006b6e:	2301      	movs	r3, #1
 8006b70:	9a10      	ldr	r2, [sp, #64]	@ 0x40
 8006b72:	1a9b      	subs	r3, r3, r2
 8006b74:	9a13      	ldr	r2, [sp, #76]	@ 0x4c
 8006b76:	6013      	str	r3, [r2, #0]
 8006b78:	9b13      	ldr	r3, [sp, #76]	@ 0x4c
 8006b7a:	9a07      	ldr	r2, [sp, #28]
 8006b7c:	681b      	ldr	r3, [r3, #0]
 8006b7e:	18d3      	adds	r3, r2, r3
 8006b80:	e7ce      	b.n	8006b20 <__cvt+0x62>
 8006b82:	1c59      	adds	r1, r3, #1
 8006b84:	9109      	str	r1, [sp, #36]	@ 0x24
 8006b86:	701a      	strb	r2, [r3, #0]
 8006b88:	e7d6      	b.n	8006b38 <__cvt+0x7a>

08006b8a <__exponent>:
 8006b8a:	b5f0      	push	{r4, r5, r6, r7, lr}
 8006b8c:	232b      	movs	r3, #43	@ 0x2b
 8006b8e:	b085      	sub	sp, #20
 8006b90:	0005      	movs	r5, r0
 8006b92:	1e0c      	subs	r4, r1, #0
 8006b94:	7002      	strb	r2, [r0, #0]
 8006b96:	da01      	bge.n	8006b9c <__exponent+0x12>
 8006b98:	424c      	negs	r4, r1
 8006b9a:	3302      	adds	r3, #2
 8006b9c:	706b      	strb	r3, [r5, #1]
 8006b9e:	2c09      	cmp	r4, #9
 8006ba0:	dd2c      	ble.n	8006bfc <__exponent+0x72>
 8006ba2:	ab02      	add	r3, sp, #8
 8006ba4:	1dde      	adds	r6, r3, #7
 8006ba6:	0020      	movs	r0, r4
 8006ba8:	210a      	movs	r1, #10
 8006baa:	f7f9 fc41 	bl	8000430 <__aeabi_idivmod>
 8006bae:	0037      	movs	r7, r6
 8006bb0:	3130      	adds	r1, #48	@ 0x30
 8006bb2:	3e01      	subs	r6, #1
 8006bb4:	0020      	movs	r0, r4
 8006bb6:	7031      	strb	r1, [r6, #0]
 8006bb8:	210a      	movs	r1, #10
 8006bba:	9401      	str	r4, [sp, #4]
 8006bbc:	f7f9 fb52 	bl	8000264 <__divsi3>
 8006bc0:	9b01      	ldr	r3, [sp, #4]
 8006bc2:	0004      	movs	r4, r0
 8006bc4:	2b63      	cmp	r3, #99	@ 0x63
 8006bc6:	dcee      	bgt.n	8006ba6 <__exponent+0x1c>
 8006bc8:	1eba      	subs	r2, r7, #2
 8006bca:	1ca8      	adds	r0, r5, #2
 8006bcc:	0001      	movs	r1, r0
 8006bce:	0013      	movs	r3, r2
 8006bd0:	3430      	adds	r4, #48	@ 0x30
 8006bd2:	7014      	strb	r4, [r2, #0]
 8006bd4:	ac02      	add	r4, sp, #8
 8006bd6:	3407      	adds	r4, #7
 8006bd8:	429c      	cmp	r4, r3
 8006bda:	d80a      	bhi.n	8006bf2 <__exponent+0x68>
 8006bdc:	2300      	movs	r3, #0
 8006bde:	4294      	cmp	r4, r2
 8006be0:	d303      	bcc.n	8006bea <__exponent+0x60>
 8006be2:	3309      	adds	r3, #9
 8006be4:	aa02      	add	r2, sp, #8
 8006be6:	189b      	adds	r3, r3, r2
 8006be8:	1bdb      	subs	r3, r3, r7
 8006bea:	18c0      	adds	r0, r0, r3
 8006bec:	1b40      	subs	r0, r0, r5
 8006bee:	b005      	add	sp, #20
 8006bf0:	bdf0      	pop	{r4, r5, r6, r7, pc}
 8006bf2:	781c      	ldrb	r4, [r3, #0]
 8006bf4:	3301      	adds	r3, #1
 8006bf6:	700c      	strb	r4, [r1, #0]
 8006bf8:	3101      	adds	r1, #1
 8006bfa:	e7eb      	b.n	8006bd4 <__exponent+0x4a>
 8006bfc:	2330      	movs	r3, #48	@ 0x30
 8006bfe:	18e4      	adds	r4, r4, r3
 8006c00:	70ab      	strb	r3, [r5, #2]
 8006c02:	1d28      	adds	r0, r5, #4
 8006c04:	70ec      	strb	r4, [r5, #3]
 8006c06:	e7f1      	b.n	8006bec <__exponent+0x62>

08006c08 <_printf_float>:
 8006c08:	b5f0      	push	{r4, r5, r6, r7, lr}
 8006c0a:	b097      	sub	sp, #92	@ 0x5c
 8006c0c:	000d      	movs	r5, r1
 8006c0e:	920a      	str	r2, [sp, #40]	@ 0x28
 8006c10:	9c1c      	ldr	r4, [sp, #112]	@ 0x70
 8006c12:	930b      	str	r3, [sp, #44]	@ 0x2c
 8006c14:	9009      	str	r0, [sp, #36]	@ 0x24
 8006c16:	f000 fdeb 	bl	80077f0 <_localeconv_r>
 8006c1a:	6803      	ldr	r3, [r0, #0]
 8006c1c:	0018      	movs	r0, r3
 8006c1e:	930d      	str	r3, [sp, #52]	@ 0x34
 8006c20:	f7f9 fa7a 	bl	8000118 <strlen>
 8006c24:	2300      	movs	r3, #0
 8006c26:	900f      	str	r0, [sp, #60]	@ 0x3c
 8006c28:	9314      	str	r3, [sp, #80]	@ 0x50
 8006c2a:	7e2b      	ldrb	r3, [r5, #24]
 8006c2c:	2207      	movs	r2, #7
 8006c2e:	930c      	str	r3, [sp, #48]	@ 0x30
 8006c30:	682b      	ldr	r3, [r5, #0]
 8006c32:	930e      	str	r3, [sp, #56]	@ 0x38
 8006c34:	990e      	ldr	r1, [sp, #56]	@ 0x38
 8006c36:	6823      	ldr	r3, [r4, #0]
 8006c38:	05c9      	lsls	r1, r1, #23
 8006c3a:	d545      	bpl.n	8006cc8 <_printf_float+0xc0>
 8006c3c:	189b      	adds	r3, r3, r2
 8006c3e:	4393      	bics	r3, r2
 8006c40:	001a      	movs	r2, r3
 8006c42:	3208      	adds	r2, #8
 8006c44:	6022      	str	r2, [r4, #0]
 8006c46:	2201      	movs	r2, #1
 8006c48:	681e      	ldr	r6, [r3, #0]
 8006c4a:	685f      	ldr	r7, [r3, #4]
 8006c4c:	007b      	lsls	r3, r7, #1
 8006c4e:	085b      	lsrs	r3, r3, #1
 8006c50:	9311      	str	r3, [sp, #68]	@ 0x44
 8006c52:	9610      	str	r6, [sp, #64]	@ 0x40
 8006c54:	64ae      	str	r6, [r5, #72]	@ 0x48
 8006c56:	64ef      	str	r7, [r5, #76]	@ 0x4c
 8006c58:	9810      	ldr	r0, [sp, #64]	@ 0x40
 8006c5a:	9911      	ldr	r1, [sp, #68]	@ 0x44
 8006c5c:	4ba7      	ldr	r3, [pc, #668]	@ (8006efc <_printf_float+0x2f4>)
 8006c5e:	4252      	negs	r2, r2
 8006c60:	f7fb fc06 	bl	8002470 <__aeabi_dcmpun>
 8006c64:	2800      	cmp	r0, #0
 8006c66:	d131      	bne.n	8006ccc <_printf_float+0xc4>
 8006c68:	9810      	ldr	r0, [sp, #64]	@ 0x40
 8006c6a:	9911      	ldr	r1, [sp, #68]	@ 0x44
 8006c6c:	2201      	movs	r2, #1
 8006c6e:	4ba3      	ldr	r3, [pc, #652]	@ (8006efc <_printf_float+0x2f4>)
 8006c70:	4252      	negs	r2, r2
 8006c72:	f7f9 fc03 	bl	800047c <__aeabi_dcmple>
 8006c76:	2800      	cmp	r0, #0
 8006c78:	d128      	bne.n	8006ccc <_printf_float+0xc4>
 8006c7a:	2200      	movs	r2, #0
 8006c7c:	2300      	movs	r3, #0
 8006c7e:	0030      	movs	r0, r6
 8006c80:	0039      	movs	r1, r7
 8006c82:	f7f9 fbf1 	bl	8000468 <__aeabi_dcmplt>
 8006c86:	2800      	cmp	r0, #0
 8006c88:	d003      	beq.n	8006c92 <_printf_float+0x8a>
 8006c8a:	002b      	movs	r3, r5
 8006c8c:	222d      	movs	r2, #45	@ 0x2d
 8006c8e:	3343      	adds	r3, #67	@ 0x43
 8006c90:	701a      	strb	r2, [r3, #0]
 8006c92:	9b0c      	ldr	r3, [sp, #48]	@ 0x30
 8006c94:	4f9a      	ldr	r7, [pc, #616]	@ (8006f00 <_printf_float+0x2f8>)
 8006c96:	2b47      	cmp	r3, #71	@ 0x47
 8006c98:	d800      	bhi.n	8006c9c <_printf_float+0x94>
 8006c9a:	4f9a      	ldr	r7, [pc, #616]	@ (8006f04 <_printf_float+0x2fc>)
 8006c9c:	2303      	movs	r3, #3
 8006c9e:	2400      	movs	r4, #0
 8006ca0:	9a0e      	ldr	r2, [sp, #56]	@ 0x38
 8006ca2:	612b      	str	r3, [r5, #16]
 8006ca4:	3301      	adds	r3, #1
 8006ca6:	439a      	bics	r2, r3
 8006ca8:	602a      	str	r2, [r5, #0]
 8006caa:	9b0b      	ldr	r3, [sp, #44]	@ 0x2c
 8006cac:	0029      	movs	r1, r5
 8006cae:	9300      	str	r3, [sp, #0]
 8006cb0:	9809      	ldr	r0, [sp, #36]	@ 0x24
 8006cb2:	9b0a      	ldr	r3, [sp, #40]	@ 0x28
 8006cb4:	aa15      	add	r2, sp, #84	@ 0x54
 8006cb6:	f000 f9e5 	bl	8007084 <_printf_common>
 8006cba:	3001      	adds	r0, #1
 8006cbc:	d000      	beq.n	8006cc0 <_printf_float+0xb8>
 8006cbe:	e09e      	b.n	8006dfe <_printf_float+0x1f6>
 8006cc0:	2001      	movs	r0, #1
 8006cc2:	4240      	negs	r0, r0
 8006cc4:	b017      	add	sp, #92	@ 0x5c
 8006cc6:	bdf0      	pop	{r4, r5, r6, r7, pc}
 8006cc8:	3307      	adds	r3, #7
 8006cca:	e7b8      	b.n	8006c3e <_printf_float+0x36>
 8006ccc:	0032      	movs	r2, r6
 8006cce:	003b      	movs	r3, r7
 8006cd0:	0030      	movs	r0, r6
 8006cd2:	0039      	movs	r1, r7
 8006cd4:	f7fb fbcc 	bl	8002470 <__aeabi_dcmpun>
 8006cd8:	2800      	cmp	r0, #0
 8006cda:	d00b      	beq.n	8006cf4 <_printf_float+0xec>
 8006cdc:	2f00      	cmp	r7, #0
 8006cde:	da03      	bge.n	8006ce8 <_printf_float+0xe0>
 8006ce0:	002b      	movs	r3, r5
 8006ce2:	222d      	movs	r2, #45	@ 0x2d
 8006ce4:	3343      	adds	r3, #67	@ 0x43
 8006ce6:	701a      	strb	r2, [r3, #0]
 8006ce8:	9b0c      	ldr	r3, [sp, #48]	@ 0x30
 8006cea:	4f87      	ldr	r7, [pc, #540]	@ (8006f08 <_printf_float+0x300>)
 8006cec:	2b47      	cmp	r3, #71	@ 0x47
 8006cee:	d8d5      	bhi.n	8006c9c <_printf_float+0x94>
 8006cf0:	4f86      	ldr	r7, [pc, #536]	@ (8006f0c <_printf_float+0x304>)
 8006cf2:	e7d3      	b.n	8006c9c <_printf_float+0x94>
 8006cf4:	2220      	movs	r2, #32
 8006cf6:	9c0c      	ldr	r4, [sp, #48]	@ 0x30
 8006cf8:	686b      	ldr	r3, [r5, #4]
 8006cfa:	4394      	bics	r4, r2
 8006cfc:	1c5a      	adds	r2, r3, #1
 8006cfe:	d146      	bne.n	8006d8e <_printf_float+0x186>
 8006d00:	3307      	adds	r3, #7
 8006d02:	606b      	str	r3, [r5, #4]
 8006d04:	2380      	movs	r3, #128	@ 0x80
 8006d06:	9a0e      	ldr	r2, [sp, #56]	@ 0x38
 8006d08:	00db      	lsls	r3, r3, #3
 8006d0a:	4313      	orrs	r3, r2
 8006d0c:	2200      	movs	r2, #0
 8006d0e:	602b      	str	r3, [r5, #0]
 8006d10:	9206      	str	r2, [sp, #24]
 8006d12:	aa14      	add	r2, sp, #80	@ 0x50
 8006d14:	9205      	str	r2, [sp, #20]
 8006d16:	9a0c      	ldr	r2, [sp, #48]	@ 0x30
 8006d18:	a90a      	add	r1, sp, #40	@ 0x28
 8006d1a:	9204      	str	r2, [sp, #16]
 8006d1c:	aa13      	add	r2, sp, #76	@ 0x4c
 8006d1e:	9203      	str	r2, [sp, #12]
 8006d20:	2223      	movs	r2, #35	@ 0x23
 8006d22:	1852      	adds	r2, r2, r1
 8006d24:	9202      	str	r2, [sp, #8]
 8006d26:	9301      	str	r3, [sp, #4]
 8006d28:	686b      	ldr	r3, [r5, #4]
 8006d2a:	0032      	movs	r2, r6
 8006d2c:	9300      	str	r3, [sp, #0]
 8006d2e:	9809      	ldr	r0, [sp, #36]	@ 0x24
 8006d30:	003b      	movs	r3, r7
 8006d32:	f7ff fec4 	bl	8006abe <__cvt>
 8006d36:	9a13      	ldr	r2, [sp, #76]	@ 0x4c
 8006d38:	0007      	movs	r7, r0
 8006d3a:	2c47      	cmp	r4, #71	@ 0x47
 8006d3c:	d12d      	bne.n	8006d9a <_printf_float+0x192>
 8006d3e:	1cd3      	adds	r3, r2, #3
 8006d40:	db02      	blt.n	8006d48 <_printf_float+0x140>
 8006d42:	686b      	ldr	r3, [r5, #4]
 8006d44:	429a      	cmp	r2, r3
 8006d46:	dd47      	ble.n	8006dd8 <_printf_float+0x1d0>
 8006d48:	9b0c      	ldr	r3, [sp, #48]	@ 0x30
 8006d4a:	3b02      	subs	r3, #2
 8006d4c:	b2db      	uxtb	r3, r3
 8006d4e:	930c      	str	r3, [sp, #48]	@ 0x30
 8006d50:	0028      	movs	r0, r5
 8006d52:	9913      	ldr	r1, [sp, #76]	@ 0x4c
 8006d54:	9a0c      	ldr	r2, [sp, #48]	@ 0x30
 8006d56:	3901      	subs	r1, #1
 8006d58:	3050      	adds	r0, #80	@ 0x50
 8006d5a:	9113      	str	r1, [sp, #76]	@ 0x4c
 8006d5c:	f7ff ff15 	bl	8006b8a <__exponent>
 8006d60:	9a14      	ldr	r2, [sp, #80]	@ 0x50
 8006d62:	0004      	movs	r4, r0
 8006d64:	1813      	adds	r3, r2, r0
 8006d66:	612b      	str	r3, [r5, #16]
 8006d68:	2a01      	cmp	r2, #1
 8006d6a:	dc02      	bgt.n	8006d72 <_printf_float+0x16a>
 8006d6c:	682a      	ldr	r2, [r5, #0]
 8006d6e:	07d2      	lsls	r2, r2, #31
 8006d70:	d501      	bpl.n	8006d76 <_printf_float+0x16e>
 8006d72:	3301      	adds	r3, #1
 8006d74:	612b      	str	r3, [r5, #16]
 8006d76:	2323      	movs	r3, #35	@ 0x23
 8006d78:	aa0a      	add	r2, sp, #40	@ 0x28
 8006d7a:	189b      	adds	r3, r3, r2
 8006d7c:	781b      	ldrb	r3, [r3, #0]
 8006d7e:	2b00      	cmp	r3, #0
 8006d80:	d100      	bne.n	8006d84 <_printf_float+0x17c>
 8006d82:	e792      	b.n	8006caa <_printf_float+0xa2>
 8006d84:	002b      	movs	r3, r5
 8006d86:	222d      	movs	r2, #45	@ 0x2d
 8006d88:	3343      	adds	r3, #67	@ 0x43
 8006d8a:	701a      	strb	r2, [r3, #0]
 8006d8c:	e78d      	b.n	8006caa <_printf_float+0xa2>
 8006d8e:	2c47      	cmp	r4, #71	@ 0x47
 8006d90:	d1b8      	bne.n	8006d04 <_printf_float+0xfc>
 8006d92:	2b00      	cmp	r3, #0
 8006d94:	d1b6      	bne.n	8006d04 <_printf_float+0xfc>
 8006d96:	3301      	adds	r3, #1
 8006d98:	e7b3      	b.n	8006d02 <_printf_float+0xfa>
 8006d9a:	9b0c      	ldr	r3, [sp, #48]	@ 0x30
 8006d9c:	2b65      	cmp	r3, #101	@ 0x65
 8006d9e:	d9d7      	bls.n	8006d50 <_printf_float+0x148>
 8006da0:	9b0c      	ldr	r3, [sp, #48]	@ 0x30
 8006da2:	2b66      	cmp	r3, #102	@ 0x66
 8006da4:	d11a      	bne.n	8006ddc <_printf_float+0x1d4>
 8006da6:	686b      	ldr	r3, [r5, #4]
 8006da8:	2a00      	cmp	r2, #0
 8006daa:	dd09      	ble.n	8006dc0 <_printf_float+0x1b8>
 8006dac:	612a      	str	r2, [r5, #16]
 8006dae:	2b00      	cmp	r3, #0
 8006db0:	d102      	bne.n	8006db8 <_printf_float+0x1b0>
 8006db2:	6829      	ldr	r1, [r5, #0]
 8006db4:	07c9      	lsls	r1, r1, #31
 8006db6:	d50b      	bpl.n	8006dd0 <_printf_float+0x1c8>
 8006db8:	3301      	adds	r3, #1
 8006dba:	189b      	adds	r3, r3, r2
 8006dbc:	612b      	str	r3, [r5, #16]
 8006dbe:	e007      	b.n	8006dd0 <_printf_float+0x1c8>
 8006dc0:	2b00      	cmp	r3, #0
 8006dc2:	d103      	bne.n	8006dcc <_printf_float+0x1c4>
 8006dc4:	2201      	movs	r2, #1
 8006dc6:	6829      	ldr	r1, [r5, #0]
 8006dc8:	4211      	tst	r1, r2
 8006dca:	d000      	beq.n	8006dce <_printf_float+0x1c6>
 8006dcc:	1c9a      	adds	r2, r3, #2
 8006dce:	612a      	str	r2, [r5, #16]
 8006dd0:	9b13      	ldr	r3, [sp, #76]	@ 0x4c
 8006dd2:	2400      	movs	r4, #0
 8006dd4:	65ab      	str	r3, [r5, #88]	@ 0x58
 8006dd6:	e7ce      	b.n	8006d76 <_printf_float+0x16e>
 8006dd8:	2367      	movs	r3, #103	@ 0x67
 8006dda:	930c      	str	r3, [sp, #48]	@ 0x30
 8006ddc:	9913      	ldr	r1, [sp, #76]	@ 0x4c
 8006dde:	9b14      	ldr	r3, [sp, #80]	@ 0x50
 8006de0:	4299      	cmp	r1, r3
 8006de2:	db06      	blt.n	8006df2 <_printf_float+0x1ea>
 8006de4:	682b      	ldr	r3, [r5, #0]
 8006de6:	6129      	str	r1, [r5, #16]
 8006de8:	07db      	lsls	r3, r3, #31
 8006dea:	d5f1      	bpl.n	8006dd0 <_printf_float+0x1c8>
 8006dec:	3101      	adds	r1, #1
 8006dee:	6129      	str	r1, [r5, #16]
 8006df0:	e7ee      	b.n	8006dd0 <_printf_float+0x1c8>
 8006df2:	2201      	movs	r2, #1
 8006df4:	2900      	cmp	r1, #0
 8006df6:	dce0      	bgt.n	8006dba <_printf_float+0x1b2>
 8006df8:	1892      	adds	r2, r2, r2
 8006dfa:	1a52      	subs	r2, r2, r1
 8006dfc:	e7dd      	b.n	8006dba <_printf_float+0x1b2>
 8006dfe:	682a      	ldr	r2, [r5, #0]
 8006e00:	0553      	lsls	r3, r2, #21
 8006e02:	d408      	bmi.n	8006e16 <_printf_float+0x20e>
 8006e04:	692b      	ldr	r3, [r5, #16]
 8006e06:	003a      	movs	r2, r7
 8006e08:	990a      	ldr	r1, [sp, #40]	@ 0x28
 8006e0a:	9809      	ldr	r0, [sp, #36]	@ 0x24
 8006e0c:	9c0b      	ldr	r4, [sp, #44]	@ 0x2c
 8006e0e:	47a0      	blx	r4
 8006e10:	3001      	adds	r0, #1
 8006e12:	d129      	bne.n	8006e68 <_printf_float+0x260>
 8006e14:	e754      	b.n	8006cc0 <_printf_float+0xb8>
 8006e16:	9b0c      	ldr	r3, [sp, #48]	@ 0x30
 8006e18:	2b65      	cmp	r3, #101	@ 0x65
 8006e1a:	d800      	bhi.n	8006e1e <_printf_float+0x216>
 8006e1c:	e0db      	b.n	8006fd6 <_printf_float+0x3ce>
 8006e1e:	6ca8      	ldr	r0, [r5, #72]	@ 0x48
 8006e20:	6ce9      	ldr	r1, [r5, #76]	@ 0x4c
 8006e22:	2200      	movs	r2, #0
 8006e24:	2300      	movs	r3, #0
 8006e26:	f7f9 fb19 	bl	800045c <__aeabi_dcmpeq>
 8006e2a:	2800      	cmp	r0, #0
 8006e2c:	d033      	beq.n	8006e96 <_printf_float+0x28e>
 8006e2e:	2301      	movs	r3, #1
 8006e30:	4a37      	ldr	r2, [pc, #220]	@ (8006f10 <_printf_float+0x308>)
 8006e32:	990a      	ldr	r1, [sp, #40]	@ 0x28
 8006e34:	9809      	ldr	r0, [sp, #36]	@ 0x24
 8006e36:	9c0b      	ldr	r4, [sp, #44]	@ 0x2c
 8006e38:	47a0      	blx	r4
 8006e3a:	3001      	adds	r0, #1
 8006e3c:	d100      	bne.n	8006e40 <_printf_float+0x238>
 8006e3e:	e73f      	b.n	8006cc0 <_printf_float+0xb8>
 8006e40:	9e14      	ldr	r6, [sp, #80]	@ 0x50
 8006e42:	9b13      	ldr	r3, [sp, #76]	@ 0x4c
 8006e44:	42b3      	cmp	r3, r6
 8006e46:	db02      	blt.n	8006e4e <_printf_float+0x246>
 8006e48:	682b      	ldr	r3, [r5, #0]
 8006e4a:	07db      	lsls	r3, r3, #31
 8006e4c:	d50c      	bpl.n	8006e68 <_printf_float+0x260>
 8006e4e:	9c0b      	ldr	r4, [sp, #44]	@ 0x2c
 8006e50:	9b0f      	ldr	r3, [sp, #60]	@ 0x3c
 8006e52:	9a0d      	ldr	r2, [sp, #52]	@ 0x34
 8006e54:	990a      	ldr	r1, [sp, #40]	@ 0x28
 8006e56:	9809      	ldr	r0, [sp, #36]	@ 0x24
 8006e58:	47a0      	blx	r4
 8006e5a:	2400      	movs	r4, #0
 8006e5c:	3001      	adds	r0, #1
 8006e5e:	d100      	bne.n	8006e62 <_printf_float+0x25a>
 8006e60:	e72e      	b.n	8006cc0 <_printf_float+0xb8>
 8006e62:	1e73      	subs	r3, r6, #1
 8006e64:	42a3      	cmp	r3, r4
 8006e66:	dc0a      	bgt.n	8006e7e <_printf_float+0x276>
 8006e68:	682b      	ldr	r3, [r5, #0]
 8006e6a:	079b      	lsls	r3, r3, #30
 8006e6c:	d500      	bpl.n	8006e70 <_printf_float+0x268>
 8006e6e:	e106      	b.n	800707e <_printf_float+0x476>
 8006e70:	9b15      	ldr	r3, [sp, #84]	@ 0x54
 8006e72:	68e8      	ldr	r0, [r5, #12]
 8006e74:	4298      	cmp	r0, r3
 8006e76:	db00      	blt.n	8006e7a <_printf_float+0x272>
 8006e78:	e724      	b.n	8006cc4 <_printf_float+0xbc>
 8006e7a:	0018      	movs	r0, r3
 8006e7c:	e722      	b.n	8006cc4 <_printf_float+0xbc>
 8006e7e:	002a      	movs	r2, r5
 8006e80:	2301      	movs	r3, #1
 8006e82:	990a      	ldr	r1, [sp, #40]	@ 0x28
 8006e84:	9809      	ldr	r0, [sp, #36]	@ 0x24
 8006e86:	9f0b      	ldr	r7, [sp, #44]	@ 0x2c
 8006e88:	321a      	adds	r2, #26
 8006e8a:	47b8      	blx	r7
 8006e8c:	3001      	adds	r0, #1
 8006e8e:	d100      	bne.n	8006e92 <_printf_float+0x28a>
 8006e90:	e716      	b.n	8006cc0 <_printf_float+0xb8>
 8006e92:	3401      	adds	r4, #1
 8006e94:	e7e5      	b.n	8006e62 <_printf_float+0x25a>
 8006e96:	9b13      	ldr	r3, [sp, #76]	@ 0x4c
 8006e98:	2b00      	cmp	r3, #0
 8006e9a:	dc3b      	bgt.n	8006f14 <_printf_float+0x30c>
 8006e9c:	2301      	movs	r3, #1
 8006e9e:	4a1c      	ldr	r2, [pc, #112]	@ (8006f10 <_printf_float+0x308>)
 8006ea0:	990a      	ldr	r1, [sp, #40]	@ 0x28
 8006ea2:	9809      	ldr	r0, [sp, #36]	@ 0x24
 8006ea4:	9c0b      	ldr	r4, [sp, #44]	@ 0x2c
 8006ea6:	47a0      	blx	r4
 8006ea8:	3001      	adds	r0, #1
 8006eaa:	d100      	bne.n	8006eae <_printf_float+0x2a6>
 8006eac:	e708      	b.n	8006cc0 <_printf_float+0xb8>
 8006eae:	9e14      	ldr	r6, [sp, #80]	@ 0x50
 8006eb0:	9b13      	ldr	r3, [sp, #76]	@ 0x4c
 8006eb2:	4333      	orrs	r3, r6
 8006eb4:	d102      	bne.n	8006ebc <_printf_float+0x2b4>
 8006eb6:	682b      	ldr	r3, [r5, #0]
 8006eb8:	07db      	lsls	r3, r3, #31
 8006eba:	d5d5      	bpl.n	8006e68 <_printf_float+0x260>
 8006ebc:	9b0f      	ldr	r3, [sp, #60]	@ 0x3c
 8006ebe:	9a0d      	ldr	r2, [sp, #52]	@ 0x34
 8006ec0:	990a      	ldr	r1, [sp, #40]	@ 0x28
 8006ec2:	9809      	ldr	r0, [sp, #36]	@ 0x24
 8006ec4:	9c0b      	ldr	r4, [sp, #44]	@ 0x2c
 8006ec6:	47a0      	blx	r4
 8006ec8:	2300      	movs	r3, #0
 8006eca:	3001      	adds	r0, #1
 8006ecc:	d100      	bne.n	8006ed0 <_printf_float+0x2c8>
 8006ece:	e6f7      	b.n	8006cc0 <_printf_float+0xb8>
 8006ed0:	930c      	str	r3, [sp, #48]	@ 0x30
 8006ed2:	9b13      	ldr	r3, [sp, #76]	@ 0x4c
 8006ed4:	9a0c      	ldr	r2, [sp, #48]	@ 0x30
 8006ed6:	425b      	negs	r3, r3
 8006ed8:	4293      	cmp	r3, r2
 8006eda:	dc01      	bgt.n	8006ee0 <_printf_float+0x2d8>
 8006edc:	0033      	movs	r3, r6
 8006ede:	e792      	b.n	8006e06 <_printf_float+0x1fe>
 8006ee0:	002a      	movs	r2, r5
 8006ee2:	2301      	movs	r3, #1
 8006ee4:	990a      	ldr	r1, [sp, #40]	@ 0x28
 8006ee6:	9809      	ldr	r0, [sp, #36]	@ 0x24
 8006ee8:	9c0b      	ldr	r4, [sp, #44]	@ 0x2c
 8006eea:	321a      	adds	r2, #26
 8006eec:	47a0      	blx	r4
 8006eee:	3001      	adds	r0, #1
 8006ef0:	d100      	bne.n	8006ef4 <_printf_float+0x2ec>
 8006ef2:	e6e5      	b.n	8006cc0 <_printf_float+0xb8>
 8006ef4:	9b0c      	ldr	r3, [sp, #48]	@ 0x30
 8006ef6:	3301      	adds	r3, #1
 8006ef8:	e7ea      	b.n	8006ed0 <_printf_float+0x2c8>
 8006efa:	46c0      	nop			@ (mov r8, r8)
 8006efc:	7fefffff 	.word	0x7fefffff
 8006f00:	080098dc 	.word	0x080098dc
 8006f04:	080098d8 	.word	0x080098d8
 8006f08:	080098e4 	.word	0x080098e4
 8006f0c:	080098e0 	.word	0x080098e0
 8006f10:	080098e8 	.word	0x080098e8
 8006f14:	9b14      	ldr	r3, [sp, #80]	@ 0x50
 8006f16:	6dae      	ldr	r6, [r5, #88]	@ 0x58
 8006f18:	930c      	str	r3, [sp, #48]	@ 0x30
 8006f1a:	429e      	cmp	r6, r3
 8006f1c:	dd00      	ble.n	8006f20 <_printf_float+0x318>
 8006f1e:	001e      	movs	r6, r3
 8006f20:	2e00      	cmp	r6, #0
 8006f22:	dc31      	bgt.n	8006f88 <_printf_float+0x380>
 8006f24:	43f3      	mvns	r3, r6
 8006f26:	2400      	movs	r4, #0
 8006f28:	17db      	asrs	r3, r3, #31
 8006f2a:	4033      	ands	r3, r6
 8006f2c:	930e      	str	r3, [sp, #56]	@ 0x38
 8006f2e:	6dae      	ldr	r6, [r5, #88]	@ 0x58
 8006f30:	9b0e      	ldr	r3, [sp, #56]	@ 0x38
 8006f32:	1af3      	subs	r3, r6, r3
 8006f34:	42a3      	cmp	r3, r4
 8006f36:	dc30      	bgt.n	8006f9a <_printf_float+0x392>
 8006f38:	9b13      	ldr	r3, [sp, #76]	@ 0x4c
 8006f3a:	9a0c      	ldr	r2, [sp, #48]	@ 0x30
 8006f3c:	429a      	cmp	r2, r3
 8006f3e:	dc38      	bgt.n	8006fb2 <_printf_float+0x3aa>
 8006f40:	682b      	ldr	r3, [r5, #0]
 8006f42:	07db      	lsls	r3, r3, #31
 8006f44:	d435      	bmi.n	8006fb2 <_printf_float+0x3aa>
 8006f46:	9c13      	ldr	r4, [sp, #76]	@ 0x4c
 8006f48:	9b0c      	ldr	r3, [sp, #48]	@ 0x30
 8006f4a:	9a0c      	ldr	r2, [sp, #48]	@ 0x30
 8006f4c:	1b9b      	subs	r3, r3, r6
 8006f4e:	1b14      	subs	r4, r2, r4
 8006f50:	429c      	cmp	r4, r3
 8006f52:	dd00      	ble.n	8006f56 <_printf_float+0x34e>
 8006f54:	001c      	movs	r4, r3
 8006f56:	2c00      	cmp	r4, #0
 8006f58:	dc34      	bgt.n	8006fc4 <_printf_float+0x3bc>
 8006f5a:	43e3      	mvns	r3, r4
 8006f5c:	2600      	movs	r6, #0
 8006f5e:	17db      	asrs	r3, r3, #31
 8006f60:	401c      	ands	r4, r3
 8006f62:	9b13      	ldr	r3, [sp, #76]	@ 0x4c
 8006f64:	9a0c      	ldr	r2, [sp, #48]	@ 0x30
 8006f66:	1ad3      	subs	r3, r2, r3
 8006f68:	1b1b      	subs	r3, r3, r4
 8006f6a:	42b3      	cmp	r3, r6
 8006f6c:	dc00      	bgt.n	8006f70 <_printf_float+0x368>
 8006f6e:	e77b      	b.n	8006e68 <_printf_float+0x260>
 8006f70:	002a      	movs	r2, r5
 8006f72:	2301      	movs	r3, #1
 8006f74:	990a      	ldr	r1, [sp, #40]	@ 0x28
 8006f76:	9809      	ldr	r0, [sp, #36]	@ 0x24
 8006f78:	9f0b      	ldr	r7, [sp, #44]	@ 0x2c
 8006f7a:	321a      	adds	r2, #26
 8006f7c:	47b8      	blx	r7
 8006f7e:	3001      	adds	r0, #1
 8006f80:	d100      	bne.n	8006f84 <_printf_float+0x37c>
 8006f82:	e69d      	b.n	8006cc0 <_printf_float+0xb8>
 8006f84:	3601      	adds	r6, #1
 8006f86:	e7ec      	b.n	8006f62 <_printf_float+0x35a>
 8006f88:	0033      	movs	r3, r6
 8006f8a:	003a      	movs	r2, r7
 8006f8c:	990a      	ldr	r1, [sp, #40]	@ 0x28
 8006f8e:	9809      	ldr	r0, [sp, #36]	@ 0x24
 8006f90:	9c0b      	ldr	r4, [sp, #44]	@ 0x2c
 8006f92:	47a0      	blx	r4
 8006f94:	3001      	adds	r0, #1
 8006f96:	d1c5      	bne.n	8006f24 <_printf_float+0x31c>
 8006f98:	e692      	b.n	8006cc0 <_printf_float+0xb8>
 8006f9a:	002a      	movs	r2, r5
 8006f9c:	2301      	movs	r3, #1
 8006f9e:	990a      	ldr	r1, [sp, #40]	@ 0x28
 8006fa0:	9809      	ldr	r0, [sp, #36]	@ 0x24
 8006fa2:	9e0b      	ldr	r6, [sp, #44]	@ 0x2c
 8006fa4:	321a      	adds	r2, #26
 8006fa6:	47b0      	blx	r6
 8006fa8:	3001      	adds	r0, #1
 8006faa:	d100      	bne.n	8006fae <_printf_float+0x3a6>
 8006fac:	e688      	b.n	8006cc0 <_printf_float+0xb8>
 8006fae:	3401      	adds	r4, #1
 8006fb0:	e7bd      	b.n	8006f2e <_printf_float+0x326>
 8006fb2:	9b0f      	ldr	r3, [sp, #60]	@ 0x3c
 8006fb4:	9a0d      	ldr	r2, [sp, #52]	@ 0x34
 8006fb6:	990a      	ldr	r1, [sp, #40]	@ 0x28
 8006fb8:	9809      	ldr	r0, [sp, #36]	@ 0x24
 8006fba:	9c0b      	ldr	r4, [sp, #44]	@ 0x2c
 8006fbc:	47a0      	blx	r4
 8006fbe:	3001      	adds	r0, #1
 8006fc0:	d1c1      	bne.n	8006f46 <_printf_float+0x33e>
 8006fc2:	e67d      	b.n	8006cc0 <_printf_float+0xb8>
 8006fc4:	19ba      	adds	r2, r7, r6
 8006fc6:	0023      	movs	r3, r4
 8006fc8:	990a      	ldr	r1, [sp, #40]	@ 0x28
 8006fca:	9809      	ldr	r0, [sp, #36]	@ 0x24
 8006fcc:	9e0b      	ldr	r6, [sp, #44]	@ 0x2c
 8006fce:	47b0      	blx	r6
 8006fd0:	3001      	adds	r0, #1
 8006fd2:	d1c2      	bne.n	8006f5a <_printf_float+0x352>
 8006fd4:	e674      	b.n	8006cc0 <_printf_float+0xb8>
 8006fd6:	9b14      	ldr	r3, [sp, #80]	@ 0x50
 8006fd8:	930c      	str	r3, [sp, #48]	@ 0x30
 8006fda:	2b01      	cmp	r3, #1
 8006fdc:	dc02      	bgt.n	8006fe4 <_printf_float+0x3dc>
 8006fde:	2301      	movs	r3, #1
 8006fe0:	421a      	tst	r2, r3
 8006fe2:	d039      	beq.n	8007058 <_printf_float+0x450>
 8006fe4:	2301      	movs	r3, #1
 8006fe6:	003a      	movs	r2, r7
 8006fe8:	990a      	ldr	r1, [sp, #40]	@ 0x28
 8006fea:	9809      	ldr	r0, [sp, #36]	@ 0x24
 8006fec:	9e0b      	ldr	r6, [sp, #44]	@ 0x2c
 8006fee:	47b0      	blx	r6
 8006ff0:	3001      	adds	r0, #1
 8006ff2:	d100      	bne.n	8006ff6 <_printf_float+0x3ee>
 8006ff4:	e664      	b.n	8006cc0 <_printf_float+0xb8>
 8006ff6:	9b0f      	ldr	r3, [sp, #60]	@ 0x3c
 8006ff8:	9a0d      	ldr	r2, [sp, #52]	@ 0x34
 8006ffa:	990a      	ldr	r1, [sp, #40]	@ 0x28
 8006ffc:	9809      	ldr	r0, [sp, #36]	@ 0x24
 8006ffe:	9e0b      	ldr	r6, [sp, #44]	@ 0x2c
 8007000:	47b0      	blx	r6
 8007002:	3001      	adds	r0, #1
 8007004:	d100      	bne.n	8007008 <_printf_float+0x400>
 8007006:	e65b      	b.n	8006cc0 <_printf_float+0xb8>
 8007008:	6ca8      	ldr	r0, [r5, #72]	@ 0x48
 800700a:	6ce9      	ldr	r1, [r5, #76]	@ 0x4c
 800700c:	9b0c      	ldr	r3, [sp, #48]	@ 0x30
 800700e:	2200      	movs	r2, #0
 8007010:	3b01      	subs	r3, #1
 8007012:	930c      	str	r3, [sp, #48]	@ 0x30
 8007014:	2300      	movs	r3, #0
 8007016:	f7f9 fa21 	bl	800045c <__aeabi_dcmpeq>
 800701a:	2800      	cmp	r0, #0
 800701c:	d11a      	bne.n	8007054 <_printf_float+0x44c>
 800701e:	9b0c      	ldr	r3, [sp, #48]	@ 0x30
 8007020:	1c7a      	adds	r2, r7, #1
 8007022:	990a      	ldr	r1, [sp, #40]	@ 0x28
 8007024:	9809      	ldr	r0, [sp, #36]	@ 0x24
 8007026:	9e0b      	ldr	r6, [sp, #44]	@ 0x2c
 8007028:	47b0      	blx	r6
 800702a:	3001      	adds	r0, #1
 800702c:	d10e      	bne.n	800704c <_printf_float+0x444>
 800702e:	e647      	b.n	8006cc0 <_printf_float+0xb8>
 8007030:	002a      	movs	r2, r5
 8007032:	2301      	movs	r3, #1
 8007034:	990a      	ldr	r1, [sp, #40]	@ 0x28
 8007036:	9809      	ldr	r0, [sp, #36]	@ 0x24
 8007038:	9f0b      	ldr	r7, [sp, #44]	@ 0x2c
 800703a:	321a      	adds	r2, #26
 800703c:	47b8      	blx	r7
 800703e:	3001      	adds	r0, #1
 8007040:	d100      	bne.n	8007044 <_printf_float+0x43c>
 8007042:	e63d      	b.n	8006cc0 <_printf_float+0xb8>
 8007044:	3601      	adds	r6, #1
 8007046:	9b0c      	ldr	r3, [sp, #48]	@ 0x30
 8007048:	429e      	cmp	r6, r3
 800704a:	dbf1      	blt.n	8007030 <_printf_float+0x428>
 800704c:	002a      	movs	r2, r5
 800704e:	0023      	movs	r3, r4
 8007050:	3250      	adds	r2, #80	@ 0x50
 8007052:	e6d9      	b.n	8006e08 <_printf_float+0x200>
 8007054:	2600      	movs	r6, #0
 8007056:	e7f6      	b.n	8007046 <_printf_float+0x43e>
 8007058:	003a      	movs	r2, r7
 800705a:	e7e2      	b.n	8007022 <_printf_float+0x41a>
 800705c:	002a      	movs	r2, r5
 800705e:	2301      	movs	r3, #1
 8007060:	990a      	ldr	r1, [sp, #40]	@ 0x28
 8007062:	9809      	ldr	r0, [sp, #36]	@ 0x24
 8007064:	9e0b      	ldr	r6, [sp, #44]	@ 0x2c
 8007066:	3219      	adds	r2, #25
 8007068:	47b0      	blx	r6
 800706a:	3001      	adds	r0, #1
 800706c:	d100      	bne.n	8007070 <_printf_float+0x468>
 800706e:	e627      	b.n	8006cc0 <_printf_float+0xb8>
 8007070:	3401      	adds	r4, #1
 8007072:	68eb      	ldr	r3, [r5, #12]
 8007074:	9a15      	ldr	r2, [sp, #84]	@ 0x54
 8007076:	1a9b      	subs	r3, r3, r2
 8007078:	42a3      	cmp	r3, r4
 800707a:	dcef      	bgt.n	800705c <_printf_float+0x454>
 800707c:	e6f8      	b.n	8006e70 <_printf_float+0x268>
 800707e:	2400      	movs	r4, #0
 8007080:	e7f7      	b.n	8007072 <_printf_float+0x46a>
 8007082:	46c0      	nop			@ (mov r8, r8)

08007084 <_printf_common>:
 8007084:	b5f7      	push	{r0, r1, r2, r4, r5, r6, r7, lr}
 8007086:	0016      	movs	r6, r2
 8007088:	9301      	str	r3, [sp, #4]
 800708a:	688a      	ldr	r2, [r1, #8]
 800708c:	690b      	ldr	r3, [r1, #16]
 800708e:	000c      	movs	r4, r1
 8007090:	9000      	str	r0, [sp, #0]
 8007092:	4293      	cmp	r3, r2
 8007094:	da00      	bge.n	8007098 <_printf_common+0x14>
 8007096:	0013      	movs	r3, r2
 8007098:	0022      	movs	r2, r4
 800709a:	6033      	str	r3, [r6, #0]
 800709c:	3243      	adds	r2, #67	@ 0x43
 800709e:	7812      	ldrb	r2, [r2, #0]
 80070a0:	2a00      	cmp	r2, #0
 80070a2:	d001      	beq.n	80070a8 <_printf_common+0x24>
 80070a4:	3301      	adds	r3, #1
 80070a6:	6033      	str	r3, [r6, #0]
 80070a8:	6823      	ldr	r3, [r4, #0]
 80070aa:	069b      	lsls	r3, r3, #26
 80070ac:	d502      	bpl.n	80070b4 <_printf_common+0x30>
 80070ae:	6833      	ldr	r3, [r6, #0]
 80070b0:	3302      	adds	r3, #2
 80070b2:	6033      	str	r3, [r6, #0]
 80070b4:	6822      	ldr	r2, [r4, #0]
 80070b6:	2306      	movs	r3, #6
 80070b8:	0015      	movs	r5, r2
 80070ba:	401d      	ands	r5, r3
 80070bc:	421a      	tst	r2, r3
 80070be:	d027      	beq.n	8007110 <_printf_common+0x8c>
 80070c0:	0023      	movs	r3, r4
 80070c2:	3343      	adds	r3, #67	@ 0x43
 80070c4:	781b      	ldrb	r3, [r3, #0]
 80070c6:	1e5a      	subs	r2, r3, #1
 80070c8:	4193      	sbcs	r3, r2
 80070ca:	6822      	ldr	r2, [r4, #0]
 80070cc:	0692      	lsls	r2, r2, #26
 80070ce:	d430      	bmi.n	8007132 <_printf_common+0xae>
 80070d0:	0022      	movs	r2, r4
 80070d2:	9901      	ldr	r1, [sp, #4]
 80070d4:	9800      	ldr	r0, [sp, #0]
 80070d6:	9d08      	ldr	r5, [sp, #32]
 80070d8:	3243      	adds	r2, #67	@ 0x43
 80070da:	47a8      	blx	r5
 80070dc:	3001      	adds	r0, #1
 80070de:	d025      	beq.n	800712c <_printf_common+0xa8>
 80070e0:	2206      	movs	r2, #6
 80070e2:	6823      	ldr	r3, [r4, #0]
 80070e4:	2500      	movs	r5, #0
 80070e6:	4013      	ands	r3, r2
 80070e8:	2b04      	cmp	r3, #4
 80070ea:	d105      	bne.n	80070f8 <_printf_common+0x74>
 80070ec:	6833      	ldr	r3, [r6, #0]
 80070ee:	68e5      	ldr	r5, [r4, #12]
 80070f0:	1aed      	subs	r5, r5, r3
 80070f2:	43eb      	mvns	r3, r5
 80070f4:	17db      	asrs	r3, r3, #31
 80070f6:	401d      	ands	r5, r3
 80070f8:	68a3      	ldr	r3, [r4, #8]
 80070fa:	6922      	ldr	r2, [r4, #16]
 80070fc:	4293      	cmp	r3, r2
 80070fe:	dd01      	ble.n	8007104 <_printf_common+0x80>
 8007100:	1a9b      	subs	r3, r3, r2
 8007102:	18ed      	adds	r5, r5, r3
 8007104:	2600      	movs	r6, #0
 8007106:	42b5      	cmp	r5, r6
 8007108:	d120      	bne.n	800714c <_printf_common+0xc8>
 800710a:	2000      	movs	r0, #0
 800710c:	e010      	b.n	8007130 <_printf_common+0xac>
 800710e:	3501      	adds	r5, #1
 8007110:	68e3      	ldr	r3, [r4, #12]
 8007112:	6832      	ldr	r2, [r6, #0]
 8007114:	1a9b      	subs	r3, r3, r2
 8007116:	42ab      	cmp	r3, r5
 8007118:	ddd2      	ble.n	80070c0 <_printf_common+0x3c>
 800711a:	0022      	movs	r2, r4
 800711c:	2301      	movs	r3, #1
 800711e:	9901      	ldr	r1, [sp, #4]
 8007120:	9800      	ldr	r0, [sp, #0]
 8007122:	9f08      	ldr	r7, [sp, #32]
 8007124:	3219      	adds	r2, #25
 8007126:	47b8      	blx	r7
 8007128:	3001      	adds	r0, #1
 800712a:	d1f0      	bne.n	800710e <_printf_common+0x8a>
 800712c:	2001      	movs	r0, #1
 800712e:	4240      	negs	r0, r0
 8007130:	bdfe      	pop	{r1, r2, r3, r4, r5, r6, r7, pc}
 8007132:	2030      	movs	r0, #48	@ 0x30
 8007134:	18e1      	adds	r1, r4, r3
 8007136:	3143      	adds	r1, #67	@ 0x43
 8007138:	7008      	strb	r0, [r1, #0]
 800713a:	0021      	movs	r1, r4
 800713c:	1c5a      	adds	r2, r3, #1
 800713e:	3145      	adds	r1, #69	@ 0x45
 8007140:	7809      	ldrb	r1, [r1, #0]
 8007142:	18a2      	adds	r2, r4, r2
 8007144:	3243      	adds	r2, #67	@ 0x43
 8007146:	3302      	adds	r3, #2
 8007148:	7011      	strb	r1, [r2, #0]
 800714a:	e7c1      	b.n	80070d0 <_printf_common+0x4c>
 800714c:	0022      	movs	r2, r4
 800714e:	2301      	movs	r3, #1
 8007150:	9901      	ldr	r1, [sp, #4]
 8007152:	9800      	ldr	r0, [sp, #0]
 8007154:	9f08      	ldr	r7, [sp, #32]
 8007156:	321a      	adds	r2, #26
 8007158:	47b8      	blx	r7
 800715a:	3001      	adds	r0, #1
 800715c:	d0e6      	beq.n	800712c <_printf_common+0xa8>
 800715e:	3601      	adds	r6, #1
 8007160:	e7d1      	b.n	8007106 <_printf_common+0x82>
	...

08007164 <_printf_i>:
 8007164:	b5f0      	push	{r4, r5, r6, r7, lr}
 8007166:	b08b      	sub	sp, #44	@ 0x2c
 8007168:	9206      	str	r2, [sp, #24]
 800716a:	000a      	movs	r2, r1
 800716c:	3243      	adds	r2, #67	@ 0x43
 800716e:	9307      	str	r3, [sp, #28]
 8007170:	9005      	str	r0, [sp, #20]
 8007172:	9203      	str	r2, [sp, #12]
 8007174:	7e0a      	ldrb	r2, [r1, #24]
 8007176:	000c      	movs	r4, r1
 8007178:	9b10      	ldr	r3, [sp, #64]	@ 0x40
 800717a:	2a78      	cmp	r2, #120	@ 0x78
 800717c:	d809      	bhi.n	8007192 <_printf_i+0x2e>
 800717e:	2a62      	cmp	r2, #98	@ 0x62
 8007180:	d80b      	bhi.n	800719a <_printf_i+0x36>
 8007182:	2a00      	cmp	r2, #0
 8007184:	d100      	bne.n	8007188 <_printf_i+0x24>
 8007186:	e0ba      	b.n	80072fe <_printf_i+0x19a>
 8007188:	497a      	ldr	r1, [pc, #488]	@ (8007374 <_printf_i+0x210>)
 800718a:	9104      	str	r1, [sp, #16]
 800718c:	2a58      	cmp	r2, #88	@ 0x58
 800718e:	d100      	bne.n	8007192 <_printf_i+0x2e>
 8007190:	e08e      	b.n	80072b0 <_printf_i+0x14c>
 8007192:	0025      	movs	r5, r4
 8007194:	3542      	adds	r5, #66	@ 0x42
 8007196:	702a      	strb	r2, [r5, #0]
 8007198:	e022      	b.n	80071e0 <_printf_i+0x7c>
 800719a:	0010      	movs	r0, r2
 800719c:	3863      	subs	r0, #99	@ 0x63
 800719e:	2815      	cmp	r0, #21
 80071a0:	d8f7      	bhi.n	8007192 <_printf_i+0x2e>
 80071a2:	f7f8 ffcb 	bl	800013c <__gnu_thumb1_case_shi>
 80071a6:	0016      	.short	0x0016
 80071a8:	fff6001f 	.word	0xfff6001f
 80071ac:	fff6fff6 	.word	0xfff6fff6
 80071b0:	001ffff6 	.word	0x001ffff6
 80071b4:	fff6fff6 	.word	0xfff6fff6
 80071b8:	fff6fff6 	.word	0xfff6fff6
 80071bc:	0036009f 	.word	0x0036009f
 80071c0:	fff6007e 	.word	0xfff6007e
 80071c4:	00b0fff6 	.word	0x00b0fff6
 80071c8:	0036fff6 	.word	0x0036fff6
 80071cc:	fff6fff6 	.word	0xfff6fff6
 80071d0:	0082      	.short	0x0082
 80071d2:	0025      	movs	r5, r4
 80071d4:	681a      	ldr	r2, [r3, #0]
 80071d6:	3542      	adds	r5, #66	@ 0x42
 80071d8:	1d11      	adds	r1, r2, #4
 80071da:	6019      	str	r1, [r3, #0]
 80071dc:	6813      	ldr	r3, [r2, #0]
 80071de:	702b      	strb	r3, [r5, #0]
 80071e0:	2301      	movs	r3, #1
 80071e2:	e09e      	b.n	8007322 <_printf_i+0x1be>
 80071e4:	6818      	ldr	r0, [r3, #0]
 80071e6:	6809      	ldr	r1, [r1, #0]
 80071e8:	1d02      	adds	r2, r0, #4
 80071ea:	060d      	lsls	r5, r1, #24
 80071ec:	d50b      	bpl.n	8007206 <_printf_i+0xa2>
 80071ee:	6806      	ldr	r6, [r0, #0]
 80071f0:	601a      	str	r2, [r3, #0]
 80071f2:	2e00      	cmp	r6, #0
 80071f4:	da03      	bge.n	80071fe <_printf_i+0x9a>
 80071f6:	232d      	movs	r3, #45	@ 0x2d
 80071f8:	9a03      	ldr	r2, [sp, #12]
 80071fa:	4276      	negs	r6, r6
 80071fc:	7013      	strb	r3, [r2, #0]
 80071fe:	4b5d      	ldr	r3, [pc, #372]	@ (8007374 <_printf_i+0x210>)
 8007200:	270a      	movs	r7, #10
 8007202:	9304      	str	r3, [sp, #16]
 8007204:	e018      	b.n	8007238 <_printf_i+0xd4>
 8007206:	6806      	ldr	r6, [r0, #0]
 8007208:	601a      	str	r2, [r3, #0]
 800720a:	0649      	lsls	r1, r1, #25
 800720c:	d5f1      	bpl.n	80071f2 <_printf_i+0x8e>
 800720e:	b236      	sxth	r6, r6
 8007210:	e7ef      	b.n	80071f2 <_printf_i+0x8e>
 8007212:	6808      	ldr	r0, [r1, #0]
 8007214:	6819      	ldr	r1, [r3, #0]
 8007216:	c940      	ldmia	r1!, {r6}
 8007218:	0605      	lsls	r5, r0, #24
 800721a:	d402      	bmi.n	8007222 <_printf_i+0xbe>
 800721c:	0640      	lsls	r0, r0, #25
 800721e:	d500      	bpl.n	8007222 <_printf_i+0xbe>
 8007220:	b2b6      	uxth	r6, r6
 8007222:	6019      	str	r1, [r3, #0]
 8007224:	4b53      	ldr	r3, [pc, #332]	@ (8007374 <_printf_i+0x210>)
 8007226:	270a      	movs	r7, #10
 8007228:	9304      	str	r3, [sp, #16]
 800722a:	2a6f      	cmp	r2, #111	@ 0x6f
 800722c:	d100      	bne.n	8007230 <_printf_i+0xcc>
 800722e:	3f02      	subs	r7, #2
 8007230:	0023      	movs	r3, r4
 8007232:	2200      	movs	r2, #0
 8007234:	3343      	adds	r3, #67	@ 0x43
 8007236:	701a      	strb	r2, [r3, #0]
 8007238:	6863      	ldr	r3, [r4, #4]
 800723a:	60a3      	str	r3, [r4, #8]
 800723c:	2b00      	cmp	r3, #0
 800723e:	db06      	blt.n	800724e <_printf_i+0xea>
 8007240:	2104      	movs	r1, #4
 8007242:	6822      	ldr	r2, [r4, #0]
 8007244:	9d03      	ldr	r5, [sp, #12]
 8007246:	438a      	bics	r2, r1
 8007248:	6022      	str	r2, [r4, #0]
 800724a:	4333      	orrs	r3, r6
 800724c:	d00c      	beq.n	8007268 <_printf_i+0x104>
 800724e:	9d03      	ldr	r5, [sp, #12]
 8007250:	0030      	movs	r0, r6
 8007252:	0039      	movs	r1, r7
 8007254:	f7f9 f802 	bl	800025c <__aeabi_uidivmod>
 8007258:	9b04      	ldr	r3, [sp, #16]
 800725a:	3d01      	subs	r5, #1
 800725c:	5c5b      	ldrb	r3, [r3, r1]
 800725e:	702b      	strb	r3, [r5, #0]
 8007260:	0033      	movs	r3, r6
 8007262:	0006      	movs	r6, r0
 8007264:	429f      	cmp	r7, r3
 8007266:	d9f3      	bls.n	8007250 <_printf_i+0xec>
 8007268:	2f08      	cmp	r7, #8
 800726a:	d109      	bne.n	8007280 <_printf_i+0x11c>
 800726c:	6823      	ldr	r3, [r4, #0]
 800726e:	07db      	lsls	r3, r3, #31
 8007270:	d506      	bpl.n	8007280 <_printf_i+0x11c>
 8007272:	6862      	ldr	r2, [r4, #4]
 8007274:	6923      	ldr	r3, [r4, #16]
 8007276:	429a      	cmp	r2, r3
 8007278:	dc02      	bgt.n	8007280 <_printf_i+0x11c>
 800727a:	2330      	movs	r3, #48	@ 0x30
 800727c:	3d01      	subs	r5, #1
 800727e:	702b      	strb	r3, [r5, #0]
 8007280:	9b03      	ldr	r3, [sp, #12]
 8007282:	1b5b      	subs	r3, r3, r5
 8007284:	6123      	str	r3, [r4, #16]
 8007286:	9b07      	ldr	r3, [sp, #28]
 8007288:	0021      	movs	r1, r4
 800728a:	9300      	str	r3, [sp, #0]
 800728c:	9805      	ldr	r0, [sp, #20]
 800728e:	9b06      	ldr	r3, [sp, #24]
 8007290:	aa09      	add	r2, sp, #36	@ 0x24
 8007292:	f7ff fef7 	bl	8007084 <_printf_common>
 8007296:	3001      	adds	r0, #1
 8007298:	d148      	bne.n	800732c <_printf_i+0x1c8>
 800729a:	2001      	movs	r0, #1
 800729c:	4240      	negs	r0, r0
 800729e:	b00b      	add	sp, #44	@ 0x2c
 80072a0:	bdf0      	pop	{r4, r5, r6, r7, pc}
 80072a2:	2220      	movs	r2, #32
 80072a4:	6809      	ldr	r1, [r1, #0]
 80072a6:	430a      	orrs	r2, r1
 80072a8:	6022      	str	r2, [r4, #0]
 80072aa:	2278      	movs	r2, #120	@ 0x78
 80072ac:	4932      	ldr	r1, [pc, #200]	@ (8007378 <_printf_i+0x214>)
 80072ae:	9104      	str	r1, [sp, #16]
 80072b0:	0021      	movs	r1, r4
 80072b2:	3145      	adds	r1, #69	@ 0x45
 80072b4:	700a      	strb	r2, [r1, #0]
 80072b6:	6819      	ldr	r1, [r3, #0]
 80072b8:	6822      	ldr	r2, [r4, #0]
 80072ba:	c940      	ldmia	r1!, {r6}
 80072bc:	0610      	lsls	r0, r2, #24
 80072be:	d402      	bmi.n	80072c6 <_printf_i+0x162>
 80072c0:	0650      	lsls	r0, r2, #25
 80072c2:	d500      	bpl.n	80072c6 <_printf_i+0x162>
 80072c4:	b2b6      	uxth	r6, r6
 80072c6:	6019      	str	r1, [r3, #0]
 80072c8:	07d3      	lsls	r3, r2, #31
 80072ca:	d502      	bpl.n	80072d2 <_printf_i+0x16e>
 80072cc:	2320      	movs	r3, #32
 80072ce:	4313      	orrs	r3, r2
 80072d0:	6023      	str	r3, [r4, #0]
 80072d2:	2e00      	cmp	r6, #0
 80072d4:	d001      	beq.n	80072da <_printf_i+0x176>
 80072d6:	2710      	movs	r7, #16
 80072d8:	e7aa      	b.n	8007230 <_printf_i+0xcc>
 80072da:	2220      	movs	r2, #32
 80072dc:	6823      	ldr	r3, [r4, #0]
 80072de:	4393      	bics	r3, r2
 80072e0:	6023      	str	r3, [r4, #0]
 80072e2:	e7f8      	b.n	80072d6 <_printf_i+0x172>
 80072e4:	681a      	ldr	r2, [r3, #0]
 80072e6:	680d      	ldr	r5, [r1, #0]
 80072e8:	1d10      	adds	r0, r2, #4
 80072ea:	6949      	ldr	r1, [r1, #20]
 80072ec:	6018      	str	r0, [r3, #0]
 80072ee:	6813      	ldr	r3, [r2, #0]
 80072f0:	062e      	lsls	r6, r5, #24
 80072f2:	d501      	bpl.n	80072f8 <_printf_i+0x194>
 80072f4:	6019      	str	r1, [r3, #0]
 80072f6:	e002      	b.n	80072fe <_printf_i+0x19a>
 80072f8:	066d      	lsls	r5, r5, #25
 80072fa:	d5fb      	bpl.n	80072f4 <_printf_i+0x190>
 80072fc:	8019      	strh	r1, [r3, #0]
 80072fe:	2300      	movs	r3, #0
 8007300:	9d03      	ldr	r5, [sp, #12]
 8007302:	6123      	str	r3, [r4, #16]
 8007304:	e7bf      	b.n	8007286 <_printf_i+0x122>
 8007306:	681a      	ldr	r2, [r3, #0]
 8007308:	1d11      	adds	r1, r2, #4
 800730a:	6019      	str	r1, [r3, #0]
 800730c:	6815      	ldr	r5, [r2, #0]
 800730e:	2100      	movs	r1, #0
 8007310:	0028      	movs	r0, r5
 8007312:	6862      	ldr	r2, [r4, #4]
 8007314:	f000 faeb 	bl	80078ee <memchr>
 8007318:	2800      	cmp	r0, #0
 800731a:	d001      	beq.n	8007320 <_printf_i+0x1bc>
 800731c:	1b40      	subs	r0, r0, r5
 800731e:	6060      	str	r0, [r4, #4]
 8007320:	6863      	ldr	r3, [r4, #4]
 8007322:	6123      	str	r3, [r4, #16]
 8007324:	2300      	movs	r3, #0
 8007326:	9a03      	ldr	r2, [sp, #12]
 8007328:	7013      	strb	r3, [r2, #0]
 800732a:	e7ac      	b.n	8007286 <_printf_i+0x122>
 800732c:	002a      	movs	r2, r5
 800732e:	6923      	ldr	r3, [r4, #16]
 8007330:	9906      	ldr	r1, [sp, #24]
 8007332:	9805      	ldr	r0, [sp, #20]
 8007334:	9d07      	ldr	r5, [sp, #28]
 8007336:	47a8      	blx	r5
 8007338:	3001      	adds	r0, #1
 800733a:	d0ae      	beq.n	800729a <_printf_i+0x136>
 800733c:	6823      	ldr	r3, [r4, #0]
 800733e:	079b      	lsls	r3, r3, #30
 8007340:	d415      	bmi.n	800736e <_printf_i+0x20a>
 8007342:	9b09      	ldr	r3, [sp, #36]	@ 0x24
 8007344:	68e0      	ldr	r0, [r4, #12]
 8007346:	4298      	cmp	r0, r3
 8007348:	daa9      	bge.n	800729e <_printf_i+0x13a>
 800734a:	0018      	movs	r0, r3
 800734c:	e7a7      	b.n	800729e <_printf_i+0x13a>
 800734e:	0022      	movs	r2, r4
 8007350:	2301      	movs	r3, #1
 8007352:	9906      	ldr	r1, [sp, #24]
 8007354:	9805      	ldr	r0, [sp, #20]
 8007356:	9e07      	ldr	r6, [sp, #28]
 8007358:	3219      	adds	r2, #25
 800735a:	47b0      	blx	r6
 800735c:	3001      	adds	r0, #1
 800735e:	d09c      	beq.n	800729a <_printf_i+0x136>
 8007360:	3501      	adds	r5, #1
 8007362:	68e3      	ldr	r3, [r4, #12]
 8007364:	9a09      	ldr	r2, [sp, #36]	@ 0x24
 8007366:	1a9b      	subs	r3, r3, r2
 8007368:	42ab      	cmp	r3, r5
 800736a:	dcf0      	bgt.n	800734e <_printf_i+0x1ea>
 800736c:	e7e9      	b.n	8007342 <_printf_i+0x1de>
 800736e:	2500      	movs	r5, #0
 8007370:	e7f7      	b.n	8007362 <_printf_i+0x1fe>
 8007372:	46c0      	nop			@ (mov r8, r8)
 8007374:	080098ea 	.word	0x080098ea
 8007378:	080098fb 	.word	0x080098fb

0800737c <std>:
 800737c:	2300      	movs	r3, #0
 800737e:	b510      	push	{r4, lr}
 8007380:	0004      	movs	r4, r0
 8007382:	6003      	str	r3, [r0, #0]
 8007384:	6043      	str	r3, [r0, #4]
 8007386:	6083      	str	r3, [r0, #8]
 8007388:	8181      	strh	r1, [r0, #12]
 800738a:	6643      	str	r3, [r0, #100]	@ 0x64
 800738c:	81c2      	strh	r2, [r0, #14]
 800738e:	6103      	str	r3, [r0, #16]
 8007390:	6143      	str	r3, [r0, #20]
 8007392:	6183      	str	r3, [r0, #24]
 8007394:	0019      	movs	r1, r3
 8007396:	2208      	movs	r2, #8
 8007398:	305c      	adds	r0, #92	@ 0x5c
 800739a:	f000 fa21 	bl	80077e0 <memset>
 800739e:	4b0b      	ldr	r3, [pc, #44]	@ (80073cc <std+0x50>)
 80073a0:	6224      	str	r4, [r4, #32]
 80073a2:	6263      	str	r3, [r4, #36]	@ 0x24
 80073a4:	4b0a      	ldr	r3, [pc, #40]	@ (80073d0 <std+0x54>)
 80073a6:	62a3      	str	r3, [r4, #40]	@ 0x28
 80073a8:	4b0a      	ldr	r3, [pc, #40]	@ (80073d4 <std+0x58>)
 80073aa:	62e3      	str	r3, [r4, #44]	@ 0x2c
 80073ac:	4b0a      	ldr	r3, [pc, #40]	@ (80073d8 <std+0x5c>)
 80073ae:	6323      	str	r3, [r4, #48]	@ 0x30
 80073b0:	4b0a      	ldr	r3, [pc, #40]	@ (80073dc <std+0x60>)
 80073b2:	429c      	cmp	r4, r3
 80073b4:	d005      	beq.n	80073c2 <std+0x46>
 80073b6:	4b0a      	ldr	r3, [pc, #40]	@ (80073e0 <std+0x64>)
 80073b8:	429c      	cmp	r4, r3
 80073ba:	d002      	beq.n	80073c2 <std+0x46>
 80073bc:	4b09      	ldr	r3, [pc, #36]	@ (80073e4 <std+0x68>)
 80073be:	429c      	cmp	r4, r3
 80073c0:	d103      	bne.n	80073ca <std+0x4e>
 80073c2:	0020      	movs	r0, r4
 80073c4:	3058      	adds	r0, #88	@ 0x58
 80073c6:	f000 fa8f 	bl	80078e8 <__retarget_lock_init_recursive>
 80073ca:	bd10      	pop	{r4, pc}
 80073cc:	080075e5 	.word	0x080075e5
 80073d0:	0800760d 	.word	0x0800760d
 80073d4:	08007645 	.word	0x08007645
 80073d8:	08007671 	.word	0x08007671
 80073dc:	20000400 	.word	0x20000400
 80073e0:	20000468 	.word	0x20000468
 80073e4:	200004d0 	.word	0x200004d0

080073e8 <stdio_exit_handler>:
 80073e8:	b510      	push	{r4, lr}
 80073ea:	4a03      	ldr	r2, [pc, #12]	@ (80073f8 <stdio_exit_handler+0x10>)
 80073ec:	4903      	ldr	r1, [pc, #12]	@ (80073fc <stdio_exit_handler+0x14>)
 80073ee:	4804      	ldr	r0, [pc, #16]	@ (8007400 <stdio_exit_handler+0x18>)
 80073f0:	f000 f86c 	bl	80074cc <_fwalk_sglue>
 80073f4:	bd10      	pop	{r4, pc}
 80073f6:	46c0      	nop			@ (mov r8, r8)
 80073f8:	20000010 	.word	0x20000010
 80073fc:	080092c9 	.word	0x080092c9
 8007400:	20000020 	.word	0x20000020

08007404 <cleanup_stdio>:
 8007404:	6841      	ldr	r1, [r0, #4]
 8007406:	4b0b      	ldr	r3, [pc, #44]	@ (8007434 <cleanup_stdio+0x30>)
 8007408:	b510      	push	{r4, lr}
 800740a:	0004      	movs	r4, r0
 800740c:	4299      	cmp	r1, r3
 800740e:	d001      	beq.n	8007414 <cleanup_stdio+0x10>
 8007410:	f001 ff5a 	bl	80092c8 <_fflush_r>
 8007414:	68a1      	ldr	r1, [r4, #8]
 8007416:	4b08      	ldr	r3, [pc, #32]	@ (8007438 <cleanup_stdio+0x34>)
 8007418:	4299      	cmp	r1, r3
 800741a:	d002      	beq.n	8007422 <cleanup_stdio+0x1e>
 800741c:	0020      	movs	r0, r4
 800741e:	f001 ff53 	bl	80092c8 <_fflush_r>
 8007422:	68e1      	ldr	r1, [r4, #12]
 8007424:	4b05      	ldr	r3, [pc, #20]	@ (800743c <cleanup_stdio+0x38>)
 8007426:	4299      	cmp	r1, r3
 8007428:	d002      	beq.n	8007430 <cleanup_stdio+0x2c>
 800742a:	0020      	movs	r0, r4
 800742c:	f001 ff4c 	bl	80092c8 <_fflush_r>
 8007430:	bd10      	pop	{r4, pc}
 8007432:	46c0      	nop			@ (mov r8, r8)
 8007434:	20000400 	.word	0x20000400
 8007438:	20000468 	.word	0x20000468
 800743c:	200004d0 	.word	0x200004d0

08007440 <global_stdio_init.part.0>:
 8007440:	b510      	push	{r4, lr}
 8007442:	4b09      	ldr	r3, [pc, #36]	@ (8007468 <global_stdio_init.part.0+0x28>)
 8007444:	4a09      	ldr	r2, [pc, #36]	@ (800746c <global_stdio_init.part.0+0x2c>)
 8007446:	2104      	movs	r1, #4
 8007448:	601a      	str	r2, [r3, #0]
 800744a:	4809      	ldr	r0, [pc, #36]	@ (8007470 <global_stdio_init.part.0+0x30>)
 800744c:	2200      	movs	r2, #0
 800744e:	f7ff ff95 	bl	800737c <std>
 8007452:	2201      	movs	r2, #1
 8007454:	2109      	movs	r1, #9
 8007456:	4807      	ldr	r0, [pc, #28]	@ (8007474 <global_stdio_init.part.0+0x34>)
 8007458:	f7ff ff90 	bl	800737c <std>
 800745c:	2202      	movs	r2, #2
 800745e:	2112      	movs	r1, #18
 8007460:	4805      	ldr	r0, [pc, #20]	@ (8007478 <global_stdio_init.part.0+0x38>)
 8007462:	f7ff ff8b 	bl	800737c <std>
 8007466:	bd10      	pop	{r4, pc}
 8007468:	20000538 	.word	0x20000538
 800746c:	080073e9 	.word	0x080073e9
 8007470:	20000400 	.word	0x20000400
 8007474:	20000468 	.word	0x20000468
 8007478:	200004d0 	.word	0x200004d0

0800747c <__sfp_lock_acquire>:
 800747c:	b510      	push	{r4, lr}
 800747e:	4802      	ldr	r0, [pc, #8]	@ (8007488 <__sfp_lock_acquire+0xc>)
 8007480:	f000 fa33 	bl	80078ea <__retarget_lock_acquire_recursive>
 8007484:	bd10      	pop	{r4, pc}
 8007486:	46c0      	nop			@ (mov r8, r8)
 8007488:	20000541 	.word	0x20000541

0800748c <__sfp_lock_release>:
 800748c:	b510      	push	{r4, lr}
 800748e:	4802      	ldr	r0, [pc, #8]	@ (8007498 <__sfp_lock_release+0xc>)
 8007490:	f000 fa2c 	bl	80078ec <__retarget_lock_release_recursive>
 8007494:	bd10      	pop	{r4, pc}
 8007496:	46c0      	nop			@ (mov r8, r8)
 8007498:	20000541 	.word	0x20000541

0800749c <__sinit>:
 800749c:	b510      	push	{r4, lr}
 800749e:	0004      	movs	r4, r0
 80074a0:	f7ff ffec 	bl	800747c <__sfp_lock_acquire>
 80074a4:	6a23      	ldr	r3, [r4, #32]
 80074a6:	2b00      	cmp	r3, #0
 80074a8:	d002      	beq.n	80074b0 <__sinit+0x14>
 80074aa:	f7ff ffef 	bl	800748c <__sfp_lock_release>
 80074ae:	bd10      	pop	{r4, pc}
 80074b0:	4b04      	ldr	r3, [pc, #16]	@ (80074c4 <__sinit+0x28>)
 80074b2:	6223      	str	r3, [r4, #32]
 80074b4:	4b04      	ldr	r3, [pc, #16]	@ (80074c8 <__sinit+0x2c>)
 80074b6:	681b      	ldr	r3, [r3, #0]
 80074b8:	2b00      	cmp	r3, #0
 80074ba:	d1f6      	bne.n	80074aa <__sinit+0xe>
 80074bc:	f7ff ffc0 	bl	8007440 <global_stdio_init.part.0>
 80074c0:	e7f3      	b.n	80074aa <__sinit+0xe>
 80074c2:	46c0      	nop			@ (mov r8, r8)
 80074c4:	08007405 	.word	0x08007405
 80074c8:	20000538 	.word	0x20000538

080074cc <_fwalk_sglue>:
 80074cc:	b5f7      	push	{r0, r1, r2, r4, r5, r6, r7, lr}
 80074ce:	0014      	movs	r4, r2
 80074d0:	2600      	movs	r6, #0
 80074d2:	9000      	str	r0, [sp, #0]
 80074d4:	9101      	str	r1, [sp, #4]
 80074d6:	68a5      	ldr	r5, [r4, #8]
 80074d8:	6867      	ldr	r7, [r4, #4]
 80074da:	3f01      	subs	r7, #1
 80074dc:	d504      	bpl.n	80074e8 <_fwalk_sglue+0x1c>
 80074de:	6824      	ldr	r4, [r4, #0]
 80074e0:	2c00      	cmp	r4, #0
 80074e2:	d1f8      	bne.n	80074d6 <_fwalk_sglue+0xa>
 80074e4:	0030      	movs	r0, r6
 80074e6:	bdfe      	pop	{r1, r2, r3, r4, r5, r6, r7, pc}
 80074e8:	89ab      	ldrh	r3, [r5, #12]
 80074ea:	2b01      	cmp	r3, #1
 80074ec:	d908      	bls.n	8007500 <_fwalk_sglue+0x34>
 80074ee:	220e      	movs	r2, #14
 80074f0:	5eab      	ldrsh	r3, [r5, r2]
 80074f2:	3301      	adds	r3, #1
 80074f4:	d004      	beq.n	8007500 <_fwalk_sglue+0x34>
 80074f6:	0029      	movs	r1, r5
 80074f8:	9800      	ldr	r0, [sp, #0]
 80074fa:	9b01      	ldr	r3, [sp, #4]
 80074fc:	4798      	blx	r3
 80074fe:	4306      	orrs	r6, r0
 8007500:	3568      	adds	r5, #104	@ 0x68
 8007502:	e7ea      	b.n	80074da <_fwalk_sglue+0xe>

08007504 <iprintf>:
 8007504:	b40f      	push	{r0, r1, r2, r3}
 8007506:	b507      	push	{r0, r1, r2, lr}
 8007508:	4905      	ldr	r1, [pc, #20]	@ (8007520 <iprintf+0x1c>)
 800750a:	ab04      	add	r3, sp, #16
 800750c:	6808      	ldr	r0, [r1, #0]
 800750e:	cb04      	ldmia	r3!, {r2}
 8007510:	6881      	ldr	r1, [r0, #8]
 8007512:	9301      	str	r3, [sp, #4]
 8007514:	f001 fd36 	bl	8008f84 <_vfiprintf_r>
 8007518:	b003      	add	sp, #12
 800751a:	bc08      	pop	{r3}
 800751c:	b004      	add	sp, #16
 800751e:	4718      	bx	r3
 8007520:	2000001c 	.word	0x2000001c

08007524 <_puts_r>:
 8007524:	6a03      	ldr	r3, [r0, #32]
 8007526:	b570      	push	{r4, r5, r6, lr}
 8007528:	0005      	movs	r5, r0
 800752a:	000e      	movs	r6, r1
 800752c:	6884      	ldr	r4, [r0, #8]
 800752e:	2b00      	cmp	r3, #0
 8007530:	d101      	bne.n	8007536 <_puts_r+0x12>
 8007532:	f7ff ffb3 	bl	800749c <__sinit>
 8007536:	6e63      	ldr	r3, [r4, #100]	@ 0x64
 8007538:	07db      	lsls	r3, r3, #31
 800753a:	d405      	bmi.n	8007548 <_puts_r+0x24>
 800753c:	89a3      	ldrh	r3, [r4, #12]
 800753e:	059b      	lsls	r3, r3, #22
 8007540:	d402      	bmi.n	8007548 <_puts_r+0x24>
 8007542:	6da0      	ldr	r0, [r4, #88]	@ 0x58
 8007544:	f000 f9d1 	bl	80078ea <__retarget_lock_acquire_recursive>
 8007548:	89a3      	ldrh	r3, [r4, #12]
 800754a:	071b      	lsls	r3, r3, #28
 800754c:	d502      	bpl.n	8007554 <_puts_r+0x30>
 800754e:	6923      	ldr	r3, [r4, #16]
 8007550:	2b00      	cmp	r3, #0
 8007552:	d11f      	bne.n	8007594 <_puts_r+0x70>
 8007554:	0021      	movs	r1, r4
 8007556:	0028      	movs	r0, r5
 8007558:	f000 f8d2 	bl	8007700 <__swsetup_r>
 800755c:	2800      	cmp	r0, #0
 800755e:	d019      	beq.n	8007594 <_puts_r+0x70>
 8007560:	2501      	movs	r5, #1
 8007562:	426d      	negs	r5, r5
 8007564:	6e63      	ldr	r3, [r4, #100]	@ 0x64
 8007566:	07db      	lsls	r3, r3, #31
 8007568:	d405      	bmi.n	8007576 <_puts_r+0x52>
 800756a:	89a3      	ldrh	r3, [r4, #12]
 800756c:	059b      	lsls	r3, r3, #22
 800756e:	d402      	bmi.n	8007576 <_puts_r+0x52>
 8007570:	6da0      	ldr	r0, [r4, #88]	@ 0x58
 8007572:	f000 f9bb 	bl	80078ec <__retarget_lock_release_recursive>
 8007576:	0028      	movs	r0, r5
 8007578:	bd70      	pop	{r4, r5, r6, pc}
 800757a:	3601      	adds	r6, #1
 800757c:	60a3      	str	r3, [r4, #8]
 800757e:	2b00      	cmp	r3, #0
 8007580:	da04      	bge.n	800758c <_puts_r+0x68>
 8007582:	69a2      	ldr	r2, [r4, #24]
 8007584:	429a      	cmp	r2, r3
 8007586:	dc16      	bgt.n	80075b6 <_puts_r+0x92>
 8007588:	290a      	cmp	r1, #10
 800758a:	d014      	beq.n	80075b6 <_puts_r+0x92>
 800758c:	6823      	ldr	r3, [r4, #0]
 800758e:	1c5a      	adds	r2, r3, #1
 8007590:	6022      	str	r2, [r4, #0]
 8007592:	7019      	strb	r1, [r3, #0]
 8007594:	68a3      	ldr	r3, [r4, #8]
 8007596:	7831      	ldrb	r1, [r6, #0]
 8007598:	3b01      	subs	r3, #1
 800759a:	2900      	cmp	r1, #0
 800759c:	d1ed      	bne.n	800757a <_puts_r+0x56>
 800759e:	60a3      	str	r3, [r4, #8]
 80075a0:	2b00      	cmp	r3, #0
 80075a2:	da0f      	bge.n	80075c4 <_puts_r+0xa0>
 80075a4:	0022      	movs	r2, r4
 80075a6:	0028      	movs	r0, r5
 80075a8:	310a      	adds	r1, #10
 80075aa:	f000 f867 	bl	800767c <__swbuf_r>
 80075ae:	3001      	adds	r0, #1
 80075b0:	d0d6      	beq.n	8007560 <_puts_r+0x3c>
 80075b2:	250a      	movs	r5, #10
 80075b4:	e7d6      	b.n	8007564 <_puts_r+0x40>
 80075b6:	0022      	movs	r2, r4
 80075b8:	0028      	movs	r0, r5
 80075ba:	f000 f85f 	bl	800767c <__swbuf_r>
 80075be:	3001      	adds	r0, #1
 80075c0:	d1e8      	bne.n	8007594 <_puts_r+0x70>
 80075c2:	e7cd      	b.n	8007560 <_puts_r+0x3c>
 80075c4:	6823      	ldr	r3, [r4, #0]
 80075c6:	1c5a      	adds	r2, r3, #1
 80075c8:	6022      	str	r2, [r4, #0]
 80075ca:	220a      	movs	r2, #10
 80075cc:	701a      	strb	r2, [r3, #0]
 80075ce:	e7f0      	b.n	80075b2 <_puts_r+0x8e>

080075d0 <puts>:
 80075d0:	b510      	push	{r4, lr}
 80075d2:	4b03      	ldr	r3, [pc, #12]	@ (80075e0 <puts+0x10>)
 80075d4:	0001      	movs	r1, r0
 80075d6:	6818      	ldr	r0, [r3, #0]
 80075d8:	f7ff ffa4 	bl	8007524 <_puts_r>
 80075dc:	bd10      	pop	{r4, pc}
 80075de:	46c0      	nop			@ (mov r8, r8)
 80075e0:	2000001c 	.word	0x2000001c

080075e4 <__sread>:
 80075e4:	b570      	push	{r4, r5, r6, lr}
 80075e6:	000c      	movs	r4, r1
 80075e8:	250e      	movs	r5, #14
 80075ea:	5f49      	ldrsh	r1, [r1, r5]
 80075ec:	f000 f92a 	bl	8007844 <_read_r>
 80075f0:	2800      	cmp	r0, #0
 80075f2:	db03      	blt.n	80075fc <__sread+0x18>
 80075f4:	6d63      	ldr	r3, [r4, #84]	@ 0x54
 80075f6:	181b      	adds	r3, r3, r0
 80075f8:	6563      	str	r3, [r4, #84]	@ 0x54
 80075fa:	bd70      	pop	{r4, r5, r6, pc}
 80075fc:	89a3      	ldrh	r3, [r4, #12]
 80075fe:	4a02      	ldr	r2, [pc, #8]	@ (8007608 <__sread+0x24>)
 8007600:	4013      	ands	r3, r2
 8007602:	81a3      	strh	r3, [r4, #12]
 8007604:	e7f9      	b.n	80075fa <__sread+0x16>
 8007606:	46c0      	nop			@ (mov r8, r8)
 8007608:	ffffefff 	.word	0xffffefff

0800760c <__swrite>:
 800760c:	b5f8      	push	{r3, r4, r5, r6, r7, lr}
 800760e:	001f      	movs	r7, r3
 8007610:	898b      	ldrh	r3, [r1, #12]
 8007612:	0005      	movs	r5, r0
 8007614:	000c      	movs	r4, r1
 8007616:	0016      	movs	r6, r2
 8007618:	05db      	lsls	r3, r3, #23
 800761a:	d505      	bpl.n	8007628 <__swrite+0x1c>
 800761c:	230e      	movs	r3, #14
 800761e:	5ec9      	ldrsh	r1, [r1, r3]
 8007620:	2200      	movs	r2, #0
 8007622:	2302      	movs	r3, #2
 8007624:	f000 f8fa 	bl	800781c <_lseek_r>
 8007628:	89a3      	ldrh	r3, [r4, #12]
 800762a:	4a05      	ldr	r2, [pc, #20]	@ (8007640 <__swrite+0x34>)
 800762c:	0028      	movs	r0, r5
 800762e:	4013      	ands	r3, r2
 8007630:	81a3      	strh	r3, [r4, #12]
 8007632:	0032      	movs	r2, r6
 8007634:	230e      	movs	r3, #14
 8007636:	5ee1      	ldrsh	r1, [r4, r3]
 8007638:	003b      	movs	r3, r7
 800763a:	f000 f917 	bl	800786c <_write_r>
 800763e:	bdf8      	pop	{r3, r4, r5, r6, r7, pc}
 8007640:	ffffefff 	.word	0xffffefff

08007644 <__sseek>:
 8007644:	b570      	push	{r4, r5, r6, lr}
 8007646:	000c      	movs	r4, r1
 8007648:	250e      	movs	r5, #14
 800764a:	5f49      	ldrsh	r1, [r1, r5]
 800764c:	f000 f8e6 	bl	800781c <_lseek_r>
 8007650:	89a3      	ldrh	r3, [r4, #12]
 8007652:	1c42      	adds	r2, r0, #1
 8007654:	d103      	bne.n	800765e <__sseek+0x1a>
 8007656:	4a05      	ldr	r2, [pc, #20]	@ (800766c <__sseek+0x28>)
 8007658:	4013      	ands	r3, r2
 800765a:	81a3      	strh	r3, [r4, #12]
 800765c:	bd70      	pop	{r4, r5, r6, pc}
 800765e:	2280      	movs	r2, #128	@ 0x80
 8007660:	0152      	lsls	r2, r2, #5
 8007662:	4313      	orrs	r3, r2
 8007664:	81a3      	strh	r3, [r4, #12]
 8007666:	6560      	str	r0, [r4, #84]	@ 0x54
 8007668:	e7f8      	b.n	800765c <__sseek+0x18>
 800766a:	46c0      	nop			@ (mov r8, r8)
 800766c:	ffffefff 	.word	0xffffefff

08007670 <__sclose>:
 8007670:	b510      	push	{r4, lr}
 8007672:	230e      	movs	r3, #14
 8007674:	5ec9      	ldrsh	r1, [r1, r3]
 8007676:	f000 f8bf 	bl	80077f8 <_close_r>
 800767a:	bd10      	pop	{r4, pc}

0800767c <__swbuf_r>:
 800767c:	b5f8      	push	{r3, r4, r5, r6, r7, lr}
 800767e:	0006      	movs	r6, r0
 8007680:	000d      	movs	r5, r1
 8007682:	0014      	movs	r4, r2
 8007684:	2800      	cmp	r0, #0
 8007686:	d004      	beq.n	8007692 <__swbuf_r+0x16>
 8007688:	6a03      	ldr	r3, [r0, #32]
 800768a:	2b00      	cmp	r3, #0
 800768c:	d101      	bne.n	8007692 <__swbuf_r+0x16>
 800768e:	f7ff ff05 	bl	800749c <__sinit>
 8007692:	69a3      	ldr	r3, [r4, #24]
 8007694:	60a3      	str	r3, [r4, #8]
 8007696:	89a3      	ldrh	r3, [r4, #12]
 8007698:	071b      	lsls	r3, r3, #28
 800769a:	d502      	bpl.n	80076a2 <__swbuf_r+0x26>
 800769c:	6923      	ldr	r3, [r4, #16]
 800769e:	2b00      	cmp	r3, #0
 80076a0:	d109      	bne.n	80076b6 <__swbuf_r+0x3a>
 80076a2:	0021      	movs	r1, r4
 80076a4:	0030      	movs	r0, r6
 80076a6:	f000 f82b 	bl	8007700 <__swsetup_r>
 80076aa:	2800      	cmp	r0, #0
 80076ac:	d003      	beq.n	80076b6 <__swbuf_r+0x3a>
 80076ae:	2501      	movs	r5, #1
 80076b0:	426d      	negs	r5, r5
 80076b2:	0028      	movs	r0, r5
 80076b4:	bdf8      	pop	{r3, r4, r5, r6, r7, pc}
 80076b6:	6923      	ldr	r3, [r4, #16]
 80076b8:	6820      	ldr	r0, [r4, #0]
 80076ba:	b2ef      	uxtb	r7, r5
 80076bc:	1ac0      	subs	r0, r0, r3
 80076be:	6963      	ldr	r3, [r4, #20]
 80076c0:	b2ed      	uxtb	r5, r5
 80076c2:	4283      	cmp	r3, r0
 80076c4:	dc05      	bgt.n	80076d2 <__swbuf_r+0x56>
 80076c6:	0021      	movs	r1, r4
 80076c8:	0030      	movs	r0, r6
 80076ca:	f001 fdfd 	bl	80092c8 <_fflush_r>
 80076ce:	2800      	cmp	r0, #0
 80076d0:	d1ed      	bne.n	80076ae <__swbuf_r+0x32>
 80076d2:	68a3      	ldr	r3, [r4, #8]
 80076d4:	3001      	adds	r0, #1
 80076d6:	3b01      	subs	r3, #1
 80076d8:	60a3      	str	r3, [r4, #8]
 80076da:	6823      	ldr	r3, [r4, #0]
 80076dc:	1c5a      	adds	r2, r3, #1
 80076de:	6022      	str	r2, [r4, #0]
 80076e0:	701f      	strb	r7, [r3, #0]
 80076e2:	6963      	ldr	r3, [r4, #20]
 80076e4:	4283      	cmp	r3, r0
 80076e6:	d004      	beq.n	80076f2 <__swbuf_r+0x76>
 80076e8:	89a3      	ldrh	r3, [r4, #12]
 80076ea:	07db      	lsls	r3, r3, #31
 80076ec:	d5e1      	bpl.n	80076b2 <__swbuf_r+0x36>
 80076ee:	2d0a      	cmp	r5, #10
 80076f0:	d1df      	bne.n	80076b2 <__swbuf_r+0x36>
 80076f2:	0021      	movs	r1, r4
 80076f4:	0030      	movs	r0, r6
 80076f6:	f001 fde7 	bl	80092c8 <_fflush_r>
 80076fa:	2800      	cmp	r0, #0
 80076fc:	d0d9      	beq.n	80076b2 <__swbuf_r+0x36>
 80076fe:	e7d6      	b.n	80076ae <__swbuf_r+0x32>

08007700 <__swsetup_r>:
 8007700:	4b2d      	ldr	r3, [pc, #180]	@ (80077b8 <__swsetup_r+0xb8>)
 8007702:	b570      	push	{r4, r5, r6, lr}
 8007704:	0005      	movs	r5, r0
 8007706:	6818      	ldr	r0, [r3, #0]
 8007708:	000c      	movs	r4, r1
 800770a:	2800      	cmp	r0, #0
 800770c:	d004      	beq.n	8007718 <__swsetup_r+0x18>
 800770e:	6a03      	ldr	r3, [r0, #32]
 8007710:	2b00      	cmp	r3, #0
 8007712:	d101      	bne.n	8007718 <__swsetup_r+0x18>
 8007714:	f7ff fec2 	bl	800749c <__sinit>
 8007718:	220c      	movs	r2, #12
 800771a:	5ea3      	ldrsh	r3, [r4, r2]
 800771c:	071a      	lsls	r2, r3, #28
 800771e:	d423      	bmi.n	8007768 <__swsetup_r+0x68>
 8007720:	06da      	lsls	r2, r3, #27
 8007722:	d407      	bmi.n	8007734 <__swsetup_r+0x34>
 8007724:	2209      	movs	r2, #9
 8007726:	602a      	str	r2, [r5, #0]
 8007728:	2240      	movs	r2, #64	@ 0x40
 800772a:	2001      	movs	r0, #1
 800772c:	4313      	orrs	r3, r2
 800772e:	81a3      	strh	r3, [r4, #12]
 8007730:	4240      	negs	r0, r0
 8007732:	e03a      	b.n	80077aa <__swsetup_r+0xaa>
 8007734:	075b      	lsls	r3, r3, #29
 8007736:	d513      	bpl.n	8007760 <__swsetup_r+0x60>
 8007738:	6b61      	ldr	r1, [r4, #52]	@ 0x34
 800773a:	2900      	cmp	r1, #0
 800773c:	d008      	beq.n	8007750 <__swsetup_r+0x50>
 800773e:	0023      	movs	r3, r4
 8007740:	3344      	adds	r3, #68	@ 0x44
 8007742:	4299      	cmp	r1, r3
 8007744:	d002      	beq.n	800774c <__swsetup_r+0x4c>
 8007746:	0028      	movs	r0, r5
 8007748:	f000 ff52 	bl	80085f0 <_free_r>
 800774c:	2300      	movs	r3, #0
 800774e:	6363      	str	r3, [r4, #52]	@ 0x34
 8007750:	2224      	movs	r2, #36	@ 0x24
 8007752:	89a3      	ldrh	r3, [r4, #12]
 8007754:	4393      	bics	r3, r2
 8007756:	81a3      	strh	r3, [r4, #12]
 8007758:	2300      	movs	r3, #0
 800775a:	6063      	str	r3, [r4, #4]
 800775c:	6923      	ldr	r3, [r4, #16]
 800775e:	6023      	str	r3, [r4, #0]
 8007760:	2308      	movs	r3, #8
 8007762:	89a2      	ldrh	r2, [r4, #12]
 8007764:	4313      	orrs	r3, r2
 8007766:	81a3      	strh	r3, [r4, #12]
 8007768:	6923      	ldr	r3, [r4, #16]
 800776a:	2b00      	cmp	r3, #0
 800776c:	d10b      	bne.n	8007786 <__swsetup_r+0x86>
 800776e:	21a0      	movs	r1, #160	@ 0xa0
 8007770:	2280      	movs	r2, #128	@ 0x80
 8007772:	89a3      	ldrh	r3, [r4, #12]
 8007774:	0089      	lsls	r1, r1, #2
 8007776:	0092      	lsls	r2, r2, #2
 8007778:	400b      	ands	r3, r1
 800777a:	4293      	cmp	r3, r2
 800777c:	d003      	beq.n	8007786 <__swsetup_r+0x86>
 800777e:	0021      	movs	r1, r4
 8007780:	0028      	movs	r0, r5
 8007782:	f001 fdf7 	bl	8009374 <__smakebuf_r>
 8007786:	220c      	movs	r2, #12
 8007788:	5ea3      	ldrsh	r3, [r4, r2]
 800778a:	2101      	movs	r1, #1
 800778c:	001a      	movs	r2, r3
 800778e:	400a      	ands	r2, r1
 8007790:	420b      	tst	r3, r1
 8007792:	d00b      	beq.n	80077ac <__swsetup_r+0xac>
 8007794:	2200      	movs	r2, #0
 8007796:	60a2      	str	r2, [r4, #8]
 8007798:	6962      	ldr	r2, [r4, #20]
 800779a:	4252      	negs	r2, r2
 800779c:	61a2      	str	r2, [r4, #24]
 800779e:	2000      	movs	r0, #0
 80077a0:	6922      	ldr	r2, [r4, #16]
 80077a2:	4282      	cmp	r2, r0
 80077a4:	d101      	bne.n	80077aa <__swsetup_r+0xaa>
 80077a6:	061a      	lsls	r2, r3, #24
 80077a8:	d4be      	bmi.n	8007728 <__swsetup_r+0x28>
 80077aa:	bd70      	pop	{r4, r5, r6, pc}
 80077ac:	0799      	lsls	r1, r3, #30
 80077ae:	d400      	bmi.n	80077b2 <__swsetup_r+0xb2>
 80077b0:	6962      	ldr	r2, [r4, #20]
 80077b2:	60a2      	str	r2, [r4, #8]
 80077b4:	e7f3      	b.n	800779e <__swsetup_r+0x9e>
 80077b6:	46c0      	nop			@ (mov r8, r8)
 80077b8:	2000001c 	.word	0x2000001c

080077bc <memmove>:
 80077bc:	b510      	push	{r4, lr}
 80077be:	4288      	cmp	r0, r1
 80077c0:	d902      	bls.n	80077c8 <memmove+0xc>
 80077c2:	188b      	adds	r3, r1, r2
 80077c4:	4298      	cmp	r0, r3
 80077c6:	d308      	bcc.n	80077da <memmove+0x1e>
 80077c8:	2300      	movs	r3, #0
 80077ca:	429a      	cmp	r2, r3
 80077cc:	d007      	beq.n	80077de <memmove+0x22>
 80077ce:	5ccc      	ldrb	r4, [r1, r3]
 80077d0:	54c4      	strb	r4, [r0, r3]
 80077d2:	3301      	adds	r3, #1
 80077d4:	e7f9      	b.n	80077ca <memmove+0xe>
 80077d6:	5c8b      	ldrb	r3, [r1, r2]
 80077d8:	5483      	strb	r3, [r0, r2]
 80077da:	3a01      	subs	r2, #1
 80077dc:	d2fb      	bcs.n	80077d6 <memmove+0x1a>
 80077de:	bd10      	pop	{r4, pc}

080077e0 <memset>:
 80077e0:	0003      	movs	r3, r0
 80077e2:	1882      	adds	r2, r0, r2
 80077e4:	4293      	cmp	r3, r2
 80077e6:	d100      	bne.n	80077ea <memset+0xa>
 80077e8:	4770      	bx	lr
 80077ea:	7019      	strb	r1, [r3, #0]
 80077ec:	3301      	adds	r3, #1
 80077ee:	e7f9      	b.n	80077e4 <memset+0x4>

080077f0 <_localeconv_r>:
 80077f0:	4800      	ldr	r0, [pc, #0]	@ (80077f4 <_localeconv_r+0x4>)
 80077f2:	4770      	bx	lr
 80077f4:	2000015c 	.word	0x2000015c

080077f8 <_close_r>:
 80077f8:	2300      	movs	r3, #0
 80077fa:	b570      	push	{r4, r5, r6, lr}
 80077fc:	4d06      	ldr	r5, [pc, #24]	@ (8007818 <_close_r+0x20>)
 80077fe:	0004      	movs	r4, r0
 8007800:	0008      	movs	r0, r1
 8007802:	602b      	str	r3, [r5, #0]
 8007804:	f7fc f9c3 	bl	8003b8e <_close>
 8007808:	1c43      	adds	r3, r0, #1
 800780a:	d103      	bne.n	8007814 <_close_r+0x1c>
 800780c:	682b      	ldr	r3, [r5, #0]
 800780e:	2b00      	cmp	r3, #0
 8007810:	d000      	beq.n	8007814 <_close_r+0x1c>
 8007812:	6023      	str	r3, [r4, #0]
 8007814:	bd70      	pop	{r4, r5, r6, pc}
 8007816:	46c0      	nop			@ (mov r8, r8)
 8007818:	2000053c 	.word	0x2000053c

0800781c <_lseek_r>:
 800781c:	b570      	push	{r4, r5, r6, lr}
 800781e:	0004      	movs	r4, r0
 8007820:	0008      	movs	r0, r1
 8007822:	0011      	movs	r1, r2
 8007824:	001a      	movs	r2, r3
 8007826:	2300      	movs	r3, #0
 8007828:	4d05      	ldr	r5, [pc, #20]	@ (8007840 <_lseek_r+0x24>)
 800782a:	602b      	str	r3, [r5, #0]
 800782c:	f7fc f9d0 	bl	8003bd0 <_lseek>
 8007830:	1c43      	adds	r3, r0, #1
 8007832:	d103      	bne.n	800783c <_lseek_r+0x20>
 8007834:	682b      	ldr	r3, [r5, #0]
 8007836:	2b00      	cmp	r3, #0
 8007838:	d000      	beq.n	800783c <_lseek_r+0x20>
 800783a:	6023      	str	r3, [r4, #0]
 800783c:	bd70      	pop	{r4, r5, r6, pc}
 800783e:	46c0      	nop			@ (mov r8, r8)
 8007840:	2000053c 	.word	0x2000053c

08007844 <_read_r>:
 8007844:	b570      	push	{r4, r5, r6, lr}
 8007846:	0004      	movs	r4, r0
 8007848:	0008      	movs	r0, r1
 800784a:	0011      	movs	r1, r2
 800784c:	001a      	movs	r2, r3
 800784e:	2300      	movs	r3, #0
 8007850:	4d05      	ldr	r5, [pc, #20]	@ (8007868 <_read_r+0x24>)
 8007852:	602b      	str	r3, [r5, #0]
 8007854:	f7fc f962 	bl	8003b1c <_read>
 8007858:	1c43      	adds	r3, r0, #1
 800785a:	d103      	bne.n	8007864 <_read_r+0x20>
 800785c:	682b      	ldr	r3, [r5, #0]
 800785e:	2b00      	cmp	r3, #0
 8007860:	d000      	beq.n	8007864 <_read_r+0x20>
 8007862:	6023      	str	r3, [r4, #0]
 8007864:	bd70      	pop	{r4, r5, r6, pc}
 8007866:	46c0      	nop			@ (mov r8, r8)
 8007868:	2000053c 	.word	0x2000053c

0800786c <_write_r>:
 800786c:	b570      	push	{r4, r5, r6, lr}
 800786e:	0004      	movs	r4, r0
 8007870:	0008      	movs	r0, r1
 8007872:	0011      	movs	r1, r2
 8007874:	001a      	movs	r2, r3
 8007876:	2300      	movs	r3, #0
 8007878:	4d05      	ldr	r5, [pc, #20]	@ (8007890 <_write_r+0x24>)
 800787a:	602b      	str	r3, [r5, #0]
 800787c:	f7fc f96b 	bl	8003b56 <_write>
 8007880:	1c43      	adds	r3, r0, #1
 8007882:	d103      	bne.n	800788c <_write_r+0x20>
 8007884:	682b      	ldr	r3, [r5, #0]
 8007886:	2b00      	cmp	r3, #0
 8007888:	d000      	beq.n	800788c <_write_r+0x20>
 800788a:	6023      	str	r3, [r4, #0]
 800788c:	bd70      	pop	{r4, r5, r6, pc}
 800788e:	46c0      	nop			@ (mov r8, r8)
 8007890:	2000053c 	.word	0x2000053c

08007894 <__errno>:
 8007894:	4b01      	ldr	r3, [pc, #4]	@ (800789c <__errno+0x8>)
 8007896:	6818      	ldr	r0, [r3, #0]
 8007898:	4770      	bx	lr
 800789a:	46c0      	nop			@ (mov r8, r8)
 800789c:	2000001c 	.word	0x2000001c

080078a0 <__libc_init_array>:
 80078a0:	b570      	push	{r4, r5, r6, lr}
 80078a2:	2600      	movs	r6, #0
 80078a4:	4c0c      	ldr	r4, [pc, #48]	@ (80078d8 <__libc_init_array+0x38>)
 80078a6:	4d0d      	ldr	r5, [pc, #52]	@ (80078dc <__libc_init_array+0x3c>)
 80078a8:	1b64      	subs	r4, r4, r5
 80078aa:	10a4      	asrs	r4, r4, #2
 80078ac:	42a6      	cmp	r6, r4
 80078ae:	d109      	bne.n	80078c4 <__libc_init_array+0x24>
 80078b0:	2600      	movs	r6, #0
 80078b2:	f001 feab 	bl	800960c <_init>
 80078b6:	4c0a      	ldr	r4, [pc, #40]	@ (80078e0 <__libc_init_array+0x40>)
 80078b8:	4d0a      	ldr	r5, [pc, #40]	@ (80078e4 <__libc_init_array+0x44>)
 80078ba:	1b64      	subs	r4, r4, r5
 80078bc:	10a4      	asrs	r4, r4, #2
 80078be:	42a6      	cmp	r6, r4
 80078c0:	d105      	bne.n	80078ce <__libc_init_array+0x2e>
 80078c2:	bd70      	pop	{r4, r5, r6, pc}
 80078c4:	00b3      	lsls	r3, r6, #2
 80078c6:	58eb      	ldr	r3, [r5, r3]
 80078c8:	4798      	blx	r3
 80078ca:	3601      	adds	r6, #1
 80078cc:	e7ee      	b.n	80078ac <__libc_init_array+0xc>
 80078ce:	00b3      	lsls	r3, r6, #2
 80078d0:	58eb      	ldr	r3, [r5, r3]
 80078d2:	4798      	blx	r3
 80078d4:	3601      	adds	r6, #1
 80078d6:	e7f2      	b.n	80078be <__libc_init_array+0x1e>
 80078d8:	08009c54 	.word	0x08009c54
 80078dc:	08009c54 	.word	0x08009c54
 80078e0:	08009c58 	.word	0x08009c58
 80078e4:	08009c54 	.word	0x08009c54

080078e8 <__retarget_lock_init_recursive>:
 80078e8:	4770      	bx	lr

080078ea <__retarget_lock_acquire_recursive>:
 80078ea:	4770      	bx	lr

080078ec <__retarget_lock_release_recursive>:
 80078ec:	4770      	bx	lr

080078ee <memchr>:
 80078ee:	b2c9      	uxtb	r1, r1
 80078f0:	1882      	adds	r2, r0, r2
 80078f2:	4290      	cmp	r0, r2
 80078f4:	d101      	bne.n	80078fa <memchr+0xc>
 80078f6:	2000      	movs	r0, #0
 80078f8:	4770      	bx	lr
 80078fa:	7803      	ldrb	r3, [r0, #0]
 80078fc:	428b      	cmp	r3, r1
 80078fe:	d0fb      	beq.n	80078f8 <memchr+0xa>
 8007900:	3001      	adds	r0, #1
 8007902:	e7f6      	b.n	80078f2 <memchr+0x4>

08007904 <quorem>:
 8007904:	b5f0      	push	{r4, r5, r6, r7, lr}
 8007906:	6903      	ldr	r3, [r0, #16]
 8007908:	690c      	ldr	r4, [r1, #16]
 800790a:	b089      	sub	sp, #36	@ 0x24
 800790c:	9003      	str	r0, [sp, #12]
 800790e:	9106      	str	r1, [sp, #24]
 8007910:	2000      	movs	r0, #0
 8007912:	42a3      	cmp	r3, r4
 8007914:	db63      	blt.n	80079de <quorem+0xda>
 8007916:	000b      	movs	r3, r1
 8007918:	3c01      	subs	r4, #1
 800791a:	3314      	adds	r3, #20
 800791c:	00a5      	lsls	r5, r4, #2
 800791e:	9304      	str	r3, [sp, #16]
 8007920:	195b      	adds	r3, r3, r5
 8007922:	9305      	str	r3, [sp, #20]
 8007924:	9b03      	ldr	r3, [sp, #12]
 8007926:	3314      	adds	r3, #20
 8007928:	9301      	str	r3, [sp, #4]
 800792a:	195d      	adds	r5, r3, r5
 800792c:	9b05      	ldr	r3, [sp, #20]
 800792e:	682f      	ldr	r7, [r5, #0]
 8007930:	681e      	ldr	r6, [r3, #0]
 8007932:	0038      	movs	r0, r7
 8007934:	3601      	adds	r6, #1
 8007936:	0031      	movs	r1, r6
 8007938:	f7f8 fc0a 	bl	8000150 <__udivsi3>
 800793c:	9002      	str	r0, [sp, #8]
 800793e:	42b7      	cmp	r7, r6
 8007940:	d327      	bcc.n	8007992 <quorem+0x8e>
 8007942:	9b04      	ldr	r3, [sp, #16]
 8007944:	2700      	movs	r7, #0
 8007946:	469c      	mov	ip, r3
 8007948:	9e01      	ldr	r6, [sp, #4]
 800794a:	9707      	str	r7, [sp, #28]
 800794c:	4662      	mov	r2, ip
 800794e:	ca08      	ldmia	r2!, {r3}
 8007950:	6830      	ldr	r0, [r6, #0]
 8007952:	4694      	mov	ip, r2
 8007954:	9a02      	ldr	r2, [sp, #8]
 8007956:	b299      	uxth	r1, r3
 8007958:	4351      	muls	r1, r2
 800795a:	0c1b      	lsrs	r3, r3, #16
 800795c:	4353      	muls	r3, r2
 800795e:	19c9      	adds	r1, r1, r7
 8007960:	0c0a      	lsrs	r2, r1, #16
 8007962:	189b      	adds	r3, r3, r2
 8007964:	b289      	uxth	r1, r1
 8007966:	b282      	uxth	r2, r0
 8007968:	1a52      	subs	r2, r2, r1
 800796a:	9907      	ldr	r1, [sp, #28]
 800796c:	0c1f      	lsrs	r7, r3, #16
 800796e:	1852      	adds	r2, r2, r1
 8007970:	0c00      	lsrs	r0, r0, #16
 8007972:	b29b      	uxth	r3, r3
 8007974:	1411      	asrs	r1, r2, #16
 8007976:	1ac3      	subs	r3, r0, r3
 8007978:	185b      	adds	r3, r3, r1
 800797a:	1419      	asrs	r1, r3, #16
 800797c:	b292      	uxth	r2, r2
 800797e:	041b      	lsls	r3, r3, #16
 8007980:	431a      	orrs	r2, r3
 8007982:	9b05      	ldr	r3, [sp, #20]
 8007984:	9107      	str	r1, [sp, #28]
 8007986:	c604      	stmia	r6!, {r2}
 8007988:	4563      	cmp	r3, ip
 800798a:	d2df      	bcs.n	800794c <quorem+0x48>
 800798c:	682b      	ldr	r3, [r5, #0]
 800798e:	2b00      	cmp	r3, #0
 8007990:	d02b      	beq.n	80079ea <quorem+0xe6>
 8007992:	9906      	ldr	r1, [sp, #24]
 8007994:	9803      	ldr	r0, [sp, #12]
 8007996:	f001 f9b7 	bl	8008d08 <__mcmp>
 800799a:	2800      	cmp	r0, #0
 800799c:	db1e      	blt.n	80079dc <quorem+0xd8>
 800799e:	2600      	movs	r6, #0
 80079a0:	9d01      	ldr	r5, [sp, #4]
 80079a2:	9904      	ldr	r1, [sp, #16]
 80079a4:	c901      	ldmia	r1!, {r0}
 80079a6:	682b      	ldr	r3, [r5, #0]
 80079a8:	b287      	uxth	r7, r0
 80079aa:	b29a      	uxth	r2, r3
 80079ac:	1bd2      	subs	r2, r2, r7
 80079ae:	1992      	adds	r2, r2, r6
 80079b0:	0c00      	lsrs	r0, r0, #16
 80079b2:	0c1b      	lsrs	r3, r3, #16
 80079b4:	1a1b      	subs	r3, r3, r0
 80079b6:	1410      	asrs	r0, r2, #16
 80079b8:	181b      	adds	r3, r3, r0
 80079ba:	141e      	asrs	r6, r3, #16
 80079bc:	b292      	uxth	r2, r2
 80079be:	041b      	lsls	r3, r3, #16
 80079c0:	431a      	orrs	r2, r3
 80079c2:	9b05      	ldr	r3, [sp, #20]
 80079c4:	c504      	stmia	r5!, {r2}
 80079c6:	428b      	cmp	r3, r1
 80079c8:	d2ec      	bcs.n	80079a4 <quorem+0xa0>
 80079ca:	9a01      	ldr	r2, [sp, #4]
 80079cc:	00a3      	lsls	r3, r4, #2
 80079ce:	18d3      	adds	r3, r2, r3
 80079d0:	681a      	ldr	r2, [r3, #0]
 80079d2:	2a00      	cmp	r2, #0
 80079d4:	d014      	beq.n	8007a00 <quorem+0xfc>
 80079d6:	9b02      	ldr	r3, [sp, #8]
 80079d8:	3301      	adds	r3, #1
 80079da:	9302      	str	r3, [sp, #8]
 80079dc:	9802      	ldr	r0, [sp, #8]
 80079de:	b009      	add	sp, #36	@ 0x24
 80079e0:	bdf0      	pop	{r4, r5, r6, r7, pc}
 80079e2:	682b      	ldr	r3, [r5, #0]
 80079e4:	2b00      	cmp	r3, #0
 80079e6:	d104      	bne.n	80079f2 <quorem+0xee>
 80079e8:	3c01      	subs	r4, #1
 80079ea:	9b01      	ldr	r3, [sp, #4]
 80079ec:	3d04      	subs	r5, #4
 80079ee:	42ab      	cmp	r3, r5
 80079f0:	d3f7      	bcc.n	80079e2 <quorem+0xde>
 80079f2:	9b03      	ldr	r3, [sp, #12]
 80079f4:	611c      	str	r4, [r3, #16]
 80079f6:	e7cc      	b.n	8007992 <quorem+0x8e>
 80079f8:	681a      	ldr	r2, [r3, #0]
 80079fa:	2a00      	cmp	r2, #0
 80079fc:	d104      	bne.n	8007a08 <quorem+0x104>
 80079fe:	3c01      	subs	r4, #1
 8007a00:	9a01      	ldr	r2, [sp, #4]
 8007a02:	3b04      	subs	r3, #4
 8007a04:	429a      	cmp	r2, r3
 8007a06:	d3f7      	bcc.n	80079f8 <quorem+0xf4>
 8007a08:	9b03      	ldr	r3, [sp, #12]
 8007a0a:	611c      	str	r4, [r3, #16]
 8007a0c:	e7e3      	b.n	80079d6 <quorem+0xd2>
	...

08007a10 <_dtoa_r>:
 8007a10:	b5f0      	push	{r4, r5, r6, r7, lr}
 8007a12:	0014      	movs	r4, r2
 8007a14:	001d      	movs	r5, r3
 8007a16:	69c6      	ldr	r6, [r0, #28]
 8007a18:	b09d      	sub	sp, #116	@ 0x74
 8007a1a:	940a      	str	r4, [sp, #40]	@ 0x28
 8007a1c:	950b      	str	r5, [sp, #44]	@ 0x2c
 8007a1e:	9f25      	ldr	r7, [sp, #148]	@ 0x94
 8007a20:	9003      	str	r0, [sp, #12]
 8007a22:	2e00      	cmp	r6, #0
 8007a24:	d10f      	bne.n	8007a46 <_dtoa_r+0x36>
 8007a26:	2010      	movs	r0, #16
 8007a28:	f000 fe2c 	bl	8008684 <malloc>
 8007a2c:	9b03      	ldr	r3, [sp, #12]
 8007a2e:	1e02      	subs	r2, r0, #0
 8007a30:	61d8      	str	r0, [r3, #28]
 8007a32:	d104      	bne.n	8007a3e <_dtoa_r+0x2e>
 8007a34:	21ef      	movs	r1, #239	@ 0xef
 8007a36:	4bc7      	ldr	r3, [pc, #796]	@ (8007d54 <_dtoa_r+0x344>)
 8007a38:	48c7      	ldr	r0, [pc, #796]	@ (8007d58 <_dtoa_r+0x348>)
 8007a3a:	f001 fd1d 	bl	8009478 <__assert_func>
 8007a3e:	6046      	str	r6, [r0, #4]
 8007a40:	6086      	str	r6, [r0, #8]
 8007a42:	6006      	str	r6, [r0, #0]
 8007a44:	60c6      	str	r6, [r0, #12]
 8007a46:	9b03      	ldr	r3, [sp, #12]
 8007a48:	69db      	ldr	r3, [r3, #28]
 8007a4a:	6819      	ldr	r1, [r3, #0]
 8007a4c:	2900      	cmp	r1, #0
 8007a4e:	d00b      	beq.n	8007a68 <_dtoa_r+0x58>
 8007a50:	685a      	ldr	r2, [r3, #4]
 8007a52:	2301      	movs	r3, #1
 8007a54:	4093      	lsls	r3, r2
 8007a56:	604a      	str	r2, [r1, #4]
 8007a58:	608b      	str	r3, [r1, #8]
 8007a5a:	9803      	ldr	r0, [sp, #12]
 8007a5c:	f000 ff12 	bl	8008884 <_Bfree>
 8007a60:	2200      	movs	r2, #0
 8007a62:	9b03      	ldr	r3, [sp, #12]
 8007a64:	69db      	ldr	r3, [r3, #28]
 8007a66:	601a      	str	r2, [r3, #0]
 8007a68:	2d00      	cmp	r5, #0
 8007a6a:	da1e      	bge.n	8007aaa <_dtoa_r+0x9a>
 8007a6c:	2301      	movs	r3, #1
 8007a6e:	603b      	str	r3, [r7, #0]
 8007a70:	006b      	lsls	r3, r5, #1
 8007a72:	085b      	lsrs	r3, r3, #1
 8007a74:	930b      	str	r3, [sp, #44]	@ 0x2c
 8007a76:	9f0b      	ldr	r7, [sp, #44]	@ 0x2c
 8007a78:	4bb8      	ldr	r3, [pc, #736]	@ (8007d5c <_dtoa_r+0x34c>)
 8007a7a:	4ab8      	ldr	r2, [pc, #736]	@ (8007d5c <_dtoa_r+0x34c>)
 8007a7c:	403b      	ands	r3, r7
 8007a7e:	4293      	cmp	r3, r2
 8007a80:	d116      	bne.n	8007ab0 <_dtoa_r+0xa0>
 8007a82:	4bb7      	ldr	r3, [pc, #732]	@ (8007d60 <_dtoa_r+0x350>)
 8007a84:	9a24      	ldr	r2, [sp, #144]	@ 0x90
 8007a86:	6013      	str	r3, [r2, #0]
 8007a88:	033b      	lsls	r3, r7, #12
 8007a8a:	0b1b      	lsrs	r3, r3, #12
 8007a8c:	4323      	orrs	r3, r4
 8007a8e:	d101      	bne.n	8007a94 <_dtoa_r+0x84>
 8007a90:	f000 fd80 	bl	8008594 <_dtoa_r+0xb84>
 8007a94:	4bb3      	ldr	r3, [pc, #716]	@ (8007d64 <_dtoa_r+0x354>)
 8007a96:	9a26      	ldr	r2, [sp, #152]	@ 0x98
 8007a98:	9308      	str	r3, [sp, #32]
 8007a9a:	2a00      	cmp	r2, #0
 8007a9c:	d002      	beq.n	8007aa4 <_dtoa_r+0x94>
 8007a9e:	4bb2      	ldr	r3, [pc, #712]	@ (8007d68 <_dtoa_r+0x358>)
 8007aa0:	9a26      	ldr	r2, [sp, #152]	@ 0x98
 8007aa2:	6013      	str	r3, [r2, #0]
 8007aa4:	9808      	ldr	r0, [sp, #32]
 8007aa6:	b01d      	add	sp, #116	@ 0x74
 8007aa8:	bdf0      	pop	{r4, r5, r6, r7, pc}
 8007aaa:	2300      	movs	r3, #0
 8007aac:	603b      	str	r3, [r7, #0]
 8007aae:	e7e2      	b.n	8007a76 <_dtoa_r+0x66>
 8007ab0:	9a0a      	ldr	r2, [sp, #40]	@ 0x28
 8007ab2:	9b0b      	ldr	r3, [sp, #44]	@ 0x2c
 8007ab4:	9212      	str	r2, [sp, #72]	@ 0x48
 8007ab6:	9313      	str	r3, [sp, #76]	@ 0x4c
 8007ab8:	9812      	ldr	r0, [sp, #72]	@ 0x48
 8007aba:	9913      	ldr	r1, [sp, #76]	@ 0x4c
 8007abc:	2200      	movs	r2, #0
 8007abe:	2300      	movs	r3, #0
 8007ac0:	f7f8 fccc 	bl	800045c <__aeabi_dcmpeq>
 8007ac4:	1e06      	subs	r6, r0, #0
 8007ac6:	d00b      	beq.n	8007ae0 <_dtoa_r+0xd0>
 8007ac8:	2301      	movs	r3, #1
 8007aca:	9a24      	ldr	r2, [sp, #144]	@ 0x90
 8007acc:	6013      	str	r3, [r2, #0]
 8007ace:	9b26      	ldr	r3, [sp, #152]	@ 0x98
 8007ad0:	2b00      	cmp	r3, #0
 8007ad2:	d002      	beq.n	8007ada <_dtoa_r+0xca>
 8007ad4:	4ba5      	ldr	r3, [pc, #660]	@ (8007d6c <_dtoa_r+0x35c>)
 8007ad6:	9a26      	ldr	r2, [sp, #152]	@ 0x98
 8007ad8:	6013      	str	r3, [r2, #0]
 8007ada:	4ba5      	ldr	r3, [pc, #660]	@ (8007d70 <_dtoa_r+0x360>)
 8007adc:	9308      	str	r3, [sp, #32]
 8007ade:	e7e1      	b.n	8007aa4 <_dtoa_r+0x94>
 8007ae0:	ab1a      	add	r3, sp, #104	@ 0x68
 8007ae2:	9301      	str	r3, [sp, #4]
 8007ae4:	ab1b      	add	r3, sp, #108	@ 0x6c
 8007ae6:	9300      	str	r3, [sp, #0]
 8007ae8:	9803      	ldr	r0, [sp, #12]
 8007aea:	9a12      	ldr	r2, [sp, #72]	@ 0x48
 8007aec:	9b13      	ldr	r3, [sp, #76]	@ 0x4c
 8007aee:	f001 f9c1 	bl	8008e74 <__d2b>
 8007af2:	007a      	lsls	r2, r7, #1
 8007af4:	9005      	str	r0, [sp, #20]
 8007af6:	0d52      	lsrs	r2, r2, #21
 8007af8:	d100      	bne.n	8007afc <_dtoa_r+0xec>
 8007afa:	e07b      	b.n	8007bf4 <_dtoa_r+0x1e4>
 8007afc:	9b13      	ldr	r3, [sp, #76]	@ 0x4c
 8007afe:	9618      	str	r6, [sp, #96]	@ 0x60
 8007b00:	0319      	lsls	r1, r3, #12
 8007b02:	4b9c      	ldr	r3, [pc, #624]	@ (8007d74 <_dtoa_r+0x364>)
 8007b04:	0b09      	lsrs	r1, r1, #12
 8007b06:	430b      	orrs	r3, r1
 8007b08:	499b      	ldr	r1, [pc, #620]	@ (8007d78 <_dtoa_r+0x368>)
 8007b0a:	1857      	adds	r7, r2, r1
 8007b0c:	9812      	ldr	r0, [sp, #72]	@ 0x48
 8007b0e:	9913      	ldr	r1, [sp, #76]	@ 0x4c
 8007b10:	0019      	movs	r1, r3
 8007b12:	2200      	movs	r2, #0
 8007b14:	4b99      	ldr	r3, [pc, #612]	@ (8007d7c <_dtoa_r+0x36c>)
 8007b16:	f7fa f8a1 	bl	8001c5c <__aeabi_dsub>
 8007b1a:	4a99      	ldr	r2, [pc, #612]	@ (8007d80 <_dtoa_r+0x370>)
 8007b1c:	4b99      	ldr	r3, [pc, #612]	@ (8007d84 <_dtoa_r+0x374>)
 8007b1e:	f7f9 fdb7 	bl	8001690 <__aeabi_dmul>
 8007b22:	4a99      	ldr	r2, [pc, #612]	@ (8007d88 <_dtoa_r+0x378>)
 8007b24:	4b99      	ldr	r3, [pc, #612]	@ (8007d8c <_dtoa_r+0x37c>)
 8007b26:	f7f8 fdb3 	bl	8000690 <__aeabi_dadd>
 8007b2a:	0004      	movs	r4, r0
 8007b2c:	0038      	movs	r0, r7
 8007b2e:	000d      	movs	r5, r1
 8007b30:	f7fa fcfc 	bl	800252c <__aeabi_i2d>
 8007b34:	4a96      	ldr	r2, [pc, #600]	@ (8007d90 <_dtoa_r+0x380>)
 8007b36:	4b97      	ldr	r3, [pc, #604]	@ (8007d94 <_dtoa_r+0x384>)
 8007b38:	f7f9 fdaa 	bl	8001690 <__aeabi_dmul>
 8007b3c:	0002      	movs	r2, r0
 8007b3e:	000b      	movs	r3, r1
 8007b40:	0020      	movs	r0, r4
 8007b42:	0029      	movs	r1, r5
 8007b44:	f7f8 fda4 	bl	8000690 <__aeabi_dadd>
 8007b48:	0004      	movs	r4, r0
 8007b4a:	000d      	movs	r5, r1
 8007b4c:	f7fa fcb2 	bl	80024b4 <__aeabi_d2iz>
 8007b50:	2200      	movs	r2, #0
 8007b52:	9004      	str	r0, [sp, #16]
 8007b54:	2300      	movs	r3, #0
 8007b56:	0020      	movs	r0, r4
 8007b58:	0029      	movs	r1, r5
 8007b5a:	f7f8 fc85 	bl	8000468 <__aeabi_dcmplt>
 8007b5e:	2800      	cmp	r0, #0
 8007b60:	d00b      	beq.n	8007b7a <_dtoa_r+0x16a>
 8007b62:	9804      	ldr	r0, [sp, #16]
 8007b64:	f7fa fce2 	bl	800252c <__aeabi_i2d>
 8007b68:	002b      	movs	r3, r5
 8007b6a:	0022      	movs	r2, r4
 8007b6c:	f7f8 fc76 	bl	800045c <__aeabi_dcmpeq>
 8007b70:	4243      	negs	r3, r0
 8007b72:	4158      	adcs	r0, r3
 8007b74:	9b04      	ldr	r3, [sp, #16]
 8007b76:	1a1b      	subs	r3, r3, r0
 8007b78:	9304      	str	r3, [sp, #16]
 8007b7a:	2301      	movs	r3, #1
 8007b7c:	9315      	str	r3, [sp, #84]	@ 0x54
 8007b7e:	9b04      	ldr	r3, [sp, #16]
 8007b80:	2b16      	cmp	r3, #22
 8007b82:	d810      	bhi.n	8007ba6 <_dtoa_r+0x196>
 8007b84:	9812      	ldr	r0, [sp, #72]	@ 0x48
 8007b86:	9913      	ldr	r1, [sp, #76]	@ 0x4c
 8007b88:	9a04      	ldr	r2, [sp, #16]
 8007b8a:	4b83      	ldr	r3, [pc, #524]	@ (8007d98 <_dtoa_r+0x388>)
 8007b8c:	00d2      	lsls	r2, r2, #3
 8007b8e:	189b      	adds	r3, r3, r2
 8007b90:	681a      	ldr	r2, [r3, #0]
 8007b92:	685b      	ldr	r3, [r3, #4]
 8007b94:	f7f8 fc68 	bl	8000468 <__aeabi_dcmplt>
 8007b98:	2800      	cmp	r0, #0
 8007b9a:	d047      	beq.n	8007c2c <_dtoa_r+0x21c>
 8007b9c:	9b04      	ldr	r3, [sp, #16]
 8007b9e:	3b01      	subs	r3, #1
 8007ba0:	9304      	str	r3, [sp, #16]
 8007ba2:	2300      	movs	r3, #0
 8007ba4:	9315      	str	r3, [sp, #84]	@ 0x54
 8007ba6:	2200      	movs	r2, #0
 8007ba8:	9b1a      	ldr	r3, [sp, #104]	@ 0x68
 8007baa:	9206      	str	r2, [sp, #24]
 8007bac:	1bdb      	subs	r3, r3, r7
 8007bae:	1e5a      	subs	r2, r3, #1
 8007bb0:	d53e      	bpl.n	8007c30 <_dtoa_r+0x220>
 8007bb2:	2201      	movs	r2, #1
 8007bb4:	1ad3      	subs	r3, r2, r3
 8007bb6:	9306      	str	r3, [sp, #24]
 8007bb8:	2300      	movs	r3, #0
 8007bba:	930d      	str	r3, [sp, #52]	@ 0x34
 8007bbc:	9b04      	ldr	r3, [sp, #16]
 8007bbe:	2b00      	cmp	r3, #0
 8007bc0:	db38      	blt.n	8007c34 <_dtoa_r+0x224>
 8007bc2:	9a04      	ldr	r2, [sp, #16]
 8007bc4:	9b0d      	ldr	r3, [sp, #52]	@ 0x34
 8007bc6:	4694      	mov	ip, r2
 8007bc8:	4463      	add	r3, ip
 8007bca:	930d      	str	r3, [sp, #52]	@ 0x34
 8007bcc:	2300      	movs	r3, #0
 8007bce:	9214      	str	r2, [sp, #80]	@ 0x50
 8007bd0:	930f      	str	r3, [sp, #60]	@ 0x3c
 8007bd2:	9b22      	ldr	r3, [sp, #136]	@ 0x88
 8007bd4:	2401      	movs	r4, #1
 8007bd6:	2b09      	cmp	r3, #9
 8007bd8:	d862      	bhi.n	8007ca0 <_dtoa_r+0x290>
 8007bda:	2b05      	cmp	r3, #5
 8007bdc:	dd02      	ble.n	8007be4 <_dtoa_r+0x1d4>
 8007bde:	2400      	movs	r4, #0
 8007be0:	3b04      	subs	r3, #4
 8007be2:	9322      	str	r3, [sp, #136]	@ 0x88
 8007be4:	9b22      	ldr	r3, [sp, #136]	@ 0x88
 8007be6:	1e98      	subs	r0, r3, #2
 8007be8:	2803      	cmp	r0, #3
 8007bea:	d863      	bhi.n	8007cb4 <_dtoa_r+0x2a4>
 8007bec:	f7f8 fa9c 	bl	8000128 <__gnu_thumb1_case_uqi>
 8007bf0:	2b385654 	.word	0x2b385654
 8007bf4:	9b1b      	ldr	r3, [sp, #108]	@ 0x6c
 8007bf6:	9e1a      	ldr	r6, [sp, #104]	@ 0x68
 8007bf8:	18f6      	adds	r6, r6, r3
 8007bfa:	4b68      	ldr	r3, [pc, #416]	@ (8007d9c <_dtoa_r+0x38c>)
 8007bfc:	18f2      	adds	r2, r6, r3
 8007bfe:	2a20      	cmp	r2, #32
 8007c00:	dd0f      	ble.n	8007c22 <_dtoa_r+0x212>
 8007c02:	2340      	movs	r3, #64	@ 0x40
 8007c04:	1a9b      	subs	r3, r3, r2
 8007c06:	409f      	lsls	r7, r3
 8007c08:	4b65      	ldr	r3, [pc, #404]	@ (8007da0 <_dtoa_r+0x390>)
 8007c0a:	0038      	movs	r0, r7
 8007c0c:	18f3      	adds	r3, r6, r3
 8007c0e:	40dc      	lsrs	r4, r3
 8007c10:	4320      	orrs	r0, r4
 8007c12:	f7fa fcb9 	bl	8002588 <__aeabi_ui2d>
 8007c16:	2201      	movs	r2, #1
 8007c18:	4b62      	ldr	r3, [pc, #392]	@ (8007da4 <_dtoa_r+0x394>)
 8007c1a:	1e77      	subs	r7, r6, #1
 8007c1c:	18cb      	adds	r3, r1, r3
 8007c1e:	9218      	str	r2, [sp, #96]	@ 0x60
 8007c20:	e776      	b.n	8007b10 <_dtoa_r+0x100>
 8007c22:	2320      	movs	r3, #32
 8007c24:	0020      	movs	r0, r4
 8007c26:	1a9b      	subs	r3, r3, r2
 8007c28:	4098      	lsls	r0, r3
 8007c2a:	e7f2      	b.n	8007c12 <_dtoa_r+0x202>
 8007c2c:	9015      	str	r0, [sp, #84]	@ 0x54
 8007c2e:	e7ba      	b.n	8007ba6 <_dtoa_r+0x196>
 8007c30:	920d      	str	r2, [sp, #52]	@ 0x34
 8007c32:	e7c3      	b.n	8007bbc <_dtoa_r+0x1ac>
 8007c34:	9b06      	ldr	r3, [sp, #24]
 8007c36:	9a04      	ldr	r2, [sp, #16]
 8007c38:	1a9b      	subs	r3, r3, r2
 8007c3a:	9306      	str	r3, [sp, #24]
 8007c3c:	4253      	negs	r3, r2
 8007c3e:	930f      	str	r3, [sp, #60]	@ 0x3c
 8007c40:	2300      	movs	r3, #0
 8007c42:	9314      	str	r3, [sp, #80]	@ 0x50
 8007c44:	e7c5      	b.n	8007bd2 <_dtoa_r+0x1c2>
 8007c46:	2301      	movs	r3, #1
 8007c48:	9a23      	ldr	r2, [sp, #140]	@ 0x8c
 8007c4a:	9310      	str	r3, [sp, #64]	@ 0x40
 8007c4c:	4694      	mov	ip, r2
 8007c4e:	9b04      	ldr	r3, [sp, #16]
 8007c50:	4463      	add	r3, ip
 8007c52:	930e      	str	r3, [sp, #56]	@ 0x38
 8007c54:	3301      	adds	r3, #1
 8007c56:	9309      	str	r3, [sp, #36]	@ 0x24
 8007c58:	2b00      	cmp	r3, #0
 8007c5a:	dc08      	bgt.n	8007c6e <_dtoa_r+0x25e>
 8007c5c:	2301      	movs	r3, #1
 8007c5e:	e006      	b.n	8007c6e <_dtoa_r+0x25e>
 8007c60:	2301      	movs	r3, #1
 8007c62:	9310      	str	r3, [sp, #64]	@ 0x40
 8007c64:	9b23      	ldr	r3, [sp, #140]	@ 0x8c
 8007c66:	2b00      	cmp	r3, #0
 8007c68:	dd28      	ble.n	8007cbc <_dtoa_r+0x2ac>
 8007c6a:	930e      	str	r3, [sp, #56]	@ 0x38
 8007c6c:	9309      	str	r3, [sp, #36]	@ 0x24
 8007c6e:	9a03      	ldr	r2, [sp, #12]
 8007c70:	2100      	movs	r1, #0
 8007c72:	69d0      	ldr	r0, [r2, #28]
 8007c74:	2204      	movs	r2, #4
 8007c76:	0015      	movs	r5, r2
 8007c78:	3514      	adds	r5, #20
 8007c7a:	429d      	cmp	r5, r3
 8007c7c:	d923      	bls.n	8007cc6 <_dtoa_r+0x2b6>
 8007c7e:	6041      	str	r1, [r0, #4]
 8007c80:	9803      	ldr	r0, [sp, #12]
 8007c82:	f000 fdbb 	bl	80087fc <_Balloc>
 8007c86:	9008      	str	r0, [sp, #32]
 8007c88:	2800      	cmp	r0, #0
 8007c8a:	d11f      	bne.n	8007ccc <_dtoa_r+0x2bc>
 8007c8c:	21b0      	movs	r1, #176	@ 0xb0
 8007c8e:	4b46      	ldr	r3, [pc, #280]	@ (8007da8 <_dtoa_r+0x398>)
 8007c90:	4831      	ldr	r0, [pc, #196]	@ (8007d58 <_dtoa_r+0x348>)
 8007c92:	9a08      	ldr	r2, [sp, #32]
 8007c94:	31ff      	adds	r1, #255	@ 0xff
 8007c96:	e6d0      	b.n	8007a3a <_dtoa_r+0x2a>
 8007c98:	2300      	movs	r3, #0
 8007c9a:	e7e2      	b.n	8007c62 <_dtoa_r+0x252>
 8007c9c:	2300      	movs	r3, #0
 8007c9e:	e7d3      	b.n	8007c48 <_dtoa_r+0x238>
 8007ca0:	2300      	movs	r3, #0
 8007ca2:	9410      	str	r4, [sp, #64]	@ 0x40
 8007ca4:	9322      	str	r3, [sp, #136]	@ 0x88
 8007ca6:	3b01      	subs	r3, #1
 8007ca8:	2200      	movs	r2, #0
 8007caa:	930e      	str	r3, [sp, #56]	@ 0x38
 8007cac:	9309      	str	r3, [sp, #36]	@ 0x24
 8007cae:	3313      	adds	r3, #19
 8007cb0:	9223      	str	r2, [sp, #140]	@ 0x8c
 8007cb2:	e7dc      	b.n	8007c6e <_dtoa_r+0x25e>
 8007cb4:	2301      	movs	r3, #1
 8007cb6:	9310      	str	r3, [sp, #64]	@ 0x40
 8007cb8:	3b02      	subs	r3, #2
 8007cba:	e7f5      	b.n	8007ca8 <_dtoa_r+0x298>
 8007cbc:	2301      	movs	r3, #1
 8007cbe:	001a      	movs	r2, r3
 8007cc0:	930e      	str	r3, [sp, #56]	@ 0x38
 8007cc2:	9309      	str	r3, [sp, #36]	@ 0x24
 8007cc4:	e7f4      	b.n	8007cb0 <_dtoa_r+0x2a0>
 8007cc6:	3101      	adds	r1, #1
 8007cc8:	0052      	lsls	r2, r2, #1
 8007cca:	e7d4      	b.n	8007c76 <_dtoa_r+0x266>
 8007ccc:	9b03      	ldr	r3, [sp, #12]
 8007cce:	9a08      	ldr	r2, [sp, #32]
 8007cd0:	69db      	ldr	r3, [r3, #28]
 8007cd2:	601a      	str	r2, [r3, #0]
 8007cd4:	9b09      	ldr	r3, [sp, #36]	@ 0x24
 8007cd6:	2b0e      	cmp	r3, #14
 8007cd8:	d900      	bls.n	8007cdc <_dtoa_r+0x2cc>
 8007cda:	e0d6      	b.n	8007e8a <_dtoa_r+0x47a>
 8007cdc:	2c00      	cmp	r4, #0
 8007cde:	d100      	bne.n	8007ce2 <_dtoa_r+0x2d2>
 8007ce0:	e0d3      	b.n	8007e8a <_dtoa_r+0x47a>
 8007ce2:	9b04      	ldr	r3, [sp, #16]
 8007ce4:	2b00      	cmp	r3, #0
 8007ce6:	dd63      	ble.n	8007db0 <_dtoa_r+0x3a0>
 8007ce8:	210f      	movs	r1, #15
 8007cea:	9a04      	ldr	r2, [sp, #16]
 8007cec:	4b2a      	ldr	r3, [pc, #168]	@ (8007d98 <_dtoa_r+0x388>)
 8007cee:	400a      	ands	r2, r1
 8007cf0:	00d2      	lsls	r2, r2, #3
 8007cf2:	189b      	adds	r3, r3, r2
 8007cf4:	681e      	ldr	r6, [r3, #0]
 8007cf6:	685f      	ldr	r7, [r3, #4]
 8007cf8:	9b04      	ldr	r3, [sp, #16]
 8007cfa:	2402      	movs	r4, #2
 8007cfc:	111d      	asrs	r5, r3, #4
 8007cfe:	05db      	lsls	r3, r3, #23
 8007d00:	d50a      	bpl.n	8007d18 <_dtoa_r+0x308>
 8007d02:	4b2a      	ldr	r3, [pc, #168]	@ (8007dac <_dtoa_r+0x39c>)
 8007d04:	400d      	ands	r5, r1
 8007d06:	6a1a      	ldr	r2, [r3, #32]
 8007d08:	6a5b      	ldr	r3, [r3, #36]	@ 0x24
 8007d0a:	9812      	ldr	r0, [sp, #72]	@ 0x48
 8007d0c:	9913      	ldr	r1, [sp, #76]	@ 0x4c
 8007d0e:	f7f9 f885 	bl	8000e1c <__aeabi_ddiv>
 8007d12:	900a      	str	r0, [sp, #40]	@ 0x28
 8007d14:	910b      	str	r1, [sp, #44]	@ 0x2c
 8007d16:	3401      	adds	r4, #1
 8007d18:	4b24      	ldr	r3, [pc, #144]	@ (8007dac <_dtoa_r+0x39c>)
 8007d1a:	930c      	str	r3, [sp, #48]	@ 0x30
 8007d1c:	2d00      	cmp	r5, #0
 8007d1e:	d108      	bne.n	8007d32 <_dtoa_r+0x322>
 8007d20:	980a      	ldr	r0, [sp, #40]	@ 0x28
 8007d22:	990b      	ldr	r1, [sp, #44]	@ 0x2c
 8007d24:	0032      	movs	r2, r6
 8007d26:	003b      	movs	r3, r7
 8007d28:	f7f9 f878 	bl	8000e1c <__aeabi_ddiv>
 8007d2c:	900a      	str	r0, [sp, #40]	@ 0x28
 8007d2e:	910b      	str	r1, [sp, #44]	@ 0x2c
 8007d30:	e059      	b.n	8007de6 <_dtoa_r+0x3d6>
 8007d32:	2301      	movs	r3, #1
 8007d34:	421d      	tst	r5, r3
 8007d36:	d009      	beq.n	8007d4c <_dtoa_r+0x33c>
 8007d38:	18e4      	adds	r4, r4, r3
 8007d3a:	9b0c      	ldr	r3, [sp, #48]	@ 0x30
 8007d3c:	0030      	movs	r0, r6
 8007d3e:	681a      	ldr	r2, [r3, #0]
 8007d40:	685b      	ldr	r3, [r3, #4]
 8007d42:	0039      	movs	r1, r7
 8007d44:	f7f9 fca4 	bl	8001690 <__aeabi_dmul>
 8007d48:	0006      	movs	r6, r0
 8007d4a:	000f      	movs	r7, r1
 8007d4c:	9b0c      	ldr	r3, [sp, #48]	@ 0x30
 8007d4e:	106d      	asrs	r5, r5, #1
 8007d50:	3308      	adds	r3, #8
 8007d52:	e7e2      	b.n	8007d1a <_dtoa_r+0x30a>
 8007d54:	08009919 	.word	0x08009919
 8007d58:	08009930 	.word	0x08009930
 8007d5c:	7ff00000 	.word	0x7ff00000
 8007d60:	0000270f 	.word	0x0000270f
 8007d64:	08009915 	.word	0x08009915
 8007d68:	08009918 	.word	0x08009918
 8007d6c:	080098e9 	.word	0x080098e9
 8007d70:	080098e8 	.word	0x080098e8
 8007d74:	3ff00000 	.word	0x3ff00000
 8007d78:	fffffc01 	.word	0xfffffc01
 8007d7c:	3ff80000 	.word	0x3ff80000
 8007d80:	636f4361 	.word	0x636f4361
 8007d84:	3fd287a7 	.word	0x3fd287a7
 8007d88:	8b60c8b3 	.word	0x8b60c8b3
 8007d8c:	3fc68a28 	.word	0x3fc68a28
 8007d90:	509f79fb 	.word	0x509f79fb
 8007d94:	3fd34413 	.word	0x3fd34413
 8007d98:	08009a80 	.word	0x08009a80
 8007d9c:	00000432 	.word	0x00000432
 8007da0:	00000412 	.word	0x00000412
 8007da4:	fe100000 	.word	0xfe100000
 8007da8:	08009988 	.word	0x08009988
 8007dac:	08009a58 	.word	0x08009a58
 8007db0:	9b04      	ldr	r3, [sp, #16]
 8007db2:	2402      	movs	r4, #2
 8007db4:	2b00      	cmp	r3, #0
 8007db6:	d016      	beq.n	8007de6 <_dtoa_r+0x3d6>
 8007db8:	9812      	ldr	r0, [sp, #72]	@ 0x48
 8007dba:	9913      	ldr	r1, [sp, #76]	@ 0x4c
 8007dbc:	220f      	movs	r2, #15
 8007dbe:	425d      	negs	r5, r3
 8007dc0:	402a      	ands	r2, r5
 8007dc2:	4bd5      	ldr	r3, [pc, #852]	@ (8008118 <_dtoa_r+0x708>)
 8007dc4:	00d2      	lsls	r2, r2, #3
 8007dc6:	189b      	adds	r3, r3, r2
 8007dc8:	681a      	ldr	r2, [r3, #0]
 8007dca:	685b      	ldr	r3, [r3, #4]
 8007dcc:	f7f9 fc60 	bl	8001690 <__aeabi_dmul>
 8007dd0:	2701      	movs	r7, #1
 8007dd2:	2300      	movs	r3, #0
 8007dd4:	900a      	str	r0, [sp, #40]	@ 0x28
 8007dd6:	910b      	str	r1, [sp, #44]	@ 0x2c
 8007dd8:	4ed0      	ldr	r6, [pc, #832]	@ (800811c <_dtoa_r+0x70c>)
 8007dda:	112d      	asrs	r5, r5, #4
 8007ddc:	2d00      	cmp	r5, #0
 8007dde:	d000      	beq.n	8007de2 <_dtoa_r+0x3d2>
 8007de0:	e095      	b.n	8007f0e <_dtoa_r+0x4fe>
 8007de2:	2b00      	cmp	r3, #0
 8007de4:	d1a2      	bne.n	8007d2c <_dtoa_r+0x31c>
 8007de6:	9e0a      	ldr	r6, [sp, #40]	@ 0x28
 8007de8:	9f0b      	ldr	r7, [sp, #44]	@ 0x2c
 8007dea:	9b15      	ldr	r3, [sp, #84]	@ 0x54
 8007dec:	2b00      	cmp	r3, #0
 8007dee:	d100      	bne.n	8007df2 <_dtoa_r+0x3e2>
 8007df0:	e098      	b.n	8007f24 <_dtoa_r+0x514>
 8007df2:	2200      	movs	r2, #0
 8007df4:	0030      	movs	r0, r6
 8007df6:	0039      	movs	r1, r7
 8007df8:	4bc9      	ldr	r3, [pc, #804]	@ (8008120 <_dtoa_r+0x710>)
 8007dfa:	f7f8 fb35 	bl	8000468 <__aeabi_dcmplt>
 8007dfe:	2800      	cmp	r0, #0
 8007e00:	d100      	bne.n	8007e04 <_dtoa_r+0x3f4>
 8007e02:	e08f      	b.n	8007f24 <_dtoa_r+0x514>
 8007e04:	9b09      	ldr	r3, [sp, #36]	@ 0x24
 8007e06:	2b00      	cmp	r3, #0
 8007e08:	d100      	bne.n	8007e0c <_dtoa_r+0x3fc>
 8007e0a:	e08b      	b.n	8007f24 <_dtoa_r+0x514>
 8007e0c:	9b0e      	ldr	r3, [sp, #56]	@ 0x38
 8007e0e:	2b00      	cmp	r3, #0
 8007e10:	dd37      	ble.n	8007e82 <_dtoa_r+0x472>
 8007e12:	9b04      	ldr	r3, [sp, #16]
 8007e14:	2200      	movs	r2, #0
 8007e16:	3b01      	subs	r3, #1
 8007e18:	930c      	str	r3, [sp, #48]	@ 0x30
 8007e1a:	0030      	movs	r0, r6
 8007e1c:	4bc1      	ldr	r3, [pc, #772]	@ (8008124 <_dtoa_r+0x714>)
 8007e1e:	0039      	movs	r1, r7
 8007e20:	f7f9 fc36 	bl	8001690 <__aeabi_dmul>
 8007e24:	900a      	str	r0, [sp, #40]	@ 0x28
 8007e26:	910b      	str	r1, [sp, #44]	@ 0x2c
 8007e28:	9b0e      	ldr	r3, [sp, #56]	@ 0x38
 8007e2a:	3401      	adds	r4, #1
 8007e2c:	0020      	movs	r0, r4
 8007e2e:	9311      	str	r3, [sp, #68]	@ 0x44
 8007e30:	f7fa fb7c 	bl	800252c <__aeabi_i2d>
 8007e34:	9a0a      	ldr	r2, [sp, #40]	@ 0x28
 8007e36:	9b0b      	ldr	r3, [sp, #44]	@ 0x2c
 8007e38:	f7f9 fc2a 	bl	8001690 <__aeabi_dmul>
 8007e3c:	4bba      	ldr	r3, [pc, #744]	@ (8008128 <_dtoa_r+0x718>)
 8007e3e:	2200      	movs	r2, #0
 8007e40:	f7f8 fc26 	bl	8000690 <__aeabi_dadd>
 8007e44:	4bb9      	ldr	r3, [pc, #740]	@ (800812c <_dtoa_r+0x71c>)
 8007e46:	0006      	movs	r6, r0
 8007e48:	18cf      	adds	r7, r1, r3
 8007e4a:	9b11      	ldr	r3, [sp, #68]	@ 0x44
 8007e4c:	2b00      	cmp	r3, #0
 8007e4e:	d16d      	bne.n	8007f2c <_dtoa_r+0x51c>
 8007e50:	980a      	ldr	r0, [sp, #40]	@ 0x28
 8007e52:	990b      	ldr	r1, [sp, #44]	@ 0x2c
 8007e54:	2200      	movs	r2, #0
 8007e56:	4bb6      	ldr	r3, [pc, #728]	@ (8008130 <_dtoa_r+0x720>)
 8007e58:	f7f9 ff00 	bl	8001c5c <__aeabi_dsub>
 8007e5c:	0032      	movs	r2, r6
 8007e5e:	003b      	movs	r3, r7
 8007e60:	0004      	movs	r4, r0
 8007e62:	000d      	movs	r5, r1
 8007e64:	f7f8 fb14 	bl	8000490 <__aeabi_dcmpgt>
 8007e68:	2800      	cmp	r0, #0
 8007e6a:	d000      	beq.n	8007e6e <_dtoa_r+0x45e>
 8007e6c:	e2b6      	b.n	80083dc <_dtoa_r+0x9cc>
 8007e6e:	2180      	movs	r1, #128	@ 0x80
 8007e70:	0609      	lsls	r1, r1, #24
 8007e72:	187b      	adds	r3, r7, r1
 8007e74:	0032      	movs	r2, r6
 8007e76:	0020      	movs	r0, r4
 8007e78:	0029      	movs	r1, r5
 8007e7a:	f7f8 faf5 	bl	8000468 <__aeabi_dcmplt>
 8007e7e:	2800      	cmp	r0, #0
 8007e80:	d128      	bne.n	8007ed4 <_dtoa_r+0x4c4>
 8007e82:	9b12      	ldr	r3, [sp, #72]	@ 0x48
 8007e84:	9c13      	ldr	r4, [sp, #76]	@ 0x4c
 8007e86:	930a      	str	r3, [sp, #40]	@ 0x28
 8007e88:	940b      	str	r4, [sp, #44]	@ 0x2c
 8007e8a:	9b1b      	ldr	r3, [sp, #108]	@ 0x6c
 8007e8c:	2b00      	cmp	r3, #0
 8007e8e:	da00      	bge.n	8007e92 <_dtoa_r+0x482>
 8007e90:	e174      	b.n	800817c <_dtoa_r+0x76c>
 8007e92:	9a04      	ldr	r2, [sp, #16]
 8007e94:	2a0e      	cmp	r2, #14
 8007e96:	dd00      	ble.n	8007e9a <_dtoa_r+0x48a>
 8007e98:	e170      	b.n	800817c <_dtoa_r+0x76c>
 8007e9a:	4b9f      	ldr	r3, [pc, #636]	@ (8008118 <_dtoa_r+0x708>)
 8007e9c:	00d2      	lsls	r2, r2, #3
 8007e9e:	189b      	adds	r3, r3, r2
 8007ea0:	685c      	ldr	r4, [r3, #4]
 8007ea2:	681b      	ldr	r3, [r3, #0]
 8007ea4:	9306      	str	r3, [sp, #24]
 8007ea6:	9407      	str	r4, [sp, #28]
 8007ea8:	9b23      	ldr	r3, [sp, #140]	@ 0x8c
 8007eaa:	2b00      	cmp	r3, #0
 8007eac:	db00      	blt.n	8007eb0 <_dtoa_r+0x4a0>
 8007eae:	e0e7      	b.n	8008080 <_dtoa_r+0x670>
 8007eb0:	9b09      	ldr	r3, [sp, #36]	@ 0x24
 8007eb2:	2b00      	cmp	r3, #0
 8007eb4:	dd00      	ble.n	8007eb8 <_dtoa_r+0x4a8>
 8007eb6:	e0e3      	b.n	8008080 <_dtoa_r+0x670>
 8007eb8:	d10c      	bne.n	8007ed4 <_dtoa_r+0x4c4>
 8007eba:	9806      	ldr	r0, [sp, #24]
 8007ebc:	9907      	ldr	r1, [sp, #28]
 8007ebe:	2200      	movs	r2, #0
 8007ec0:	4b9b      	ldr	r3, [pc, #620]	@ (8008130 <_dtoa_r+0x720>)
 8007ec2:	f7f9 fbe5 	bl	8001690 <__aeabi_dmul>
 8007ec6:	9a0a      	ldr	r2, [sp, #40]	@ 0x28
 8007ec8:	9b0b      	ldr	r3, [sp, #44]	@ 0x2c
 8007eca:	f7f8 faeb 	bl	80004a4 <__aeabi_dcmpge>
 8007ece:	2800      	cmp	r0, #0
 8007ed0:	d100      	bne.n	8007ed4 <_dtoa_r+0x4c4>
 8007ed2:	e286      	b.n	80083e2 <_dtoa_r+0x9d2>
 8007ed4:	2600      	movs	r6, #0
 8007ed6:	0037      	movs	r7, r6
 8007ed8:	9b23      	ldr	r3, [sp, #140]	@ 0x8c
 8007eda:	9c08      	ldr	r4, [sp, #32]
 8007edc:	43db      	mvns	r3, r3
 8007ede:	930c      	str	r3, [sp, #48]	@ 0x30
 8007ee0:	9704      	str	r7, [sp, #16]
 8007ee2:	2700      	movs	r7, #0
 8007ee4:	0031      	movs	r1, r6
 8007ee6:	9803      	ldr	r0, [sp, #12]
 8007ee8:	f000 fccc 	bl	8008884 <_Bfree>
 8007eec:	9b04      	ldr	r3, [sp, #16]
 8007eee:	2b00      	cmp	r3, #0
 8007ef0:	d100      	bne.n	8007ef4 <_dtoa_r+0x4e4>
 8007ef2:	e0bb      	b.n	800806c <_dtoa_r+0x65c>
 8007ef4:	2f00      	cmp	r7, #0
 8007ef6:	d005      	beq.n	8007f04 <_dtoa_r+0x4f4>
 8007ef8:	429f      	cmp	r7, r3
 8007efa:	d003      	beq.n	8007f04 <_dtoa_r+0x4f4>
 8007efc:	0039      	movs	r1, r7
 8007efe:	9803      	ldr	r0, [sp, #12]
 8007f00:	f000 fcc0 	bl	8008884 <_Bfree>
 8007f04:	9904      	ldr	r1, [sp, #16]
 8007f06:	9803      	ldr	r0, [sp, #12]
 8007f08:	f000 fcbc 	bl	8008884 <_Bfree>
 8007f0c:	e0ae      	b.n	800806c <_dtoa_r+0x65c>
 8007f0e:	423d      	tst	r5, r7
 8007f10:	d005      	beq.n	8007f1e <_dtoa_r+0x50e>
 8007f12:	6832      	ldr	r2, [r6, #0]
 8007f14:	6873      	ldr	r3, [r6, #4]
 8007f16:	f7f9 fbbb 	bl	8001690 <__aeabi_dmul>
 8007f1a:	003b      	movs	r3, r7
 8007f1c:	3401      	adds	r4, #1
 8007f1e:	106d      	asrs	r5, r5, #1
 8007f20:	3608      	adds	r6, #8
 8007f22:	e75b      	b.n	8007ddc <_dtoa_r+0x3cc>
 8007f24:	9b04      	ldr	r3, [sp, #16]
 8007f26:	930c      	str	r3, [sp, #48]	@ 0x30
 8007f28:	9b09      	ldr	r3, [sp, #36]	@ 0x24
 8007f2a:	e77f      	b.n	8007e2c <_dtoa_r+0x41c>
 8007f2c:	9a11      	ldr	r2, [sp, #68]	@ 0x44
 8007f2e:	4b7a      	ldr	r3, [pc, #488]	@ (8008118 <_dtoa_r+0x708>)
 8007f30:	3a01      	subs	r2, #1
 8007f32:	00d2      	lsls	r2, r2, #3
 8007f34:	9910      	ldr	r1, [sp, #64]	@ 0x40
 8007f36:	189b      	adds	r3, r3, r2
 8007f38:	681a      	ldr	r2, [r3, #0]
 8007f3a:	685b      	ldr	r3, [r3, #4]
 8007f3c:	2900      	cmp	r1, #0
 8007f3e:	d04c      	beq.n	8007fda <_dtoa_r+0x5ca>
 8007f40:	2000      	movs	r0, #0
 8007f42:	497c      	ldr	r1, [pc, #496]	@ (8008134 <_dtoa_r+0x724>)
 8007f44:	f7f8 ff6a 	bl	8000e1c <__aeabi_ddiv>
 8007f48:	0032      	movs	r2, r6
 8007f4a:	003b      	movs	r3, r7
 8007f4c:	f7f9 fe86 	bl	8001c5c <__aeabi_dsub>
 8007f50:	9a08      	ldr	r2, [sp, #32]
 8007f52:	0006      	movs	r6, r0
 8007f54:	4694      	mov	ip, r2
 8007f56:	000f      	movs	r7, r1
 8007f58:	9b08      	ldr	r3, [sp, #32]
 8007f5a:	9316      	str	r3, [sp, #88]	@ 0x58
 8007f5c:	9b11      	ldr	r3, [sp, #68]	@ 0x44
 8007f5e:	4463      	add	r3, ip
 8007f60:	9311      	str	r3, [sp, #68]	@ 0x44
 8007f62:	980a      	ldr	r0, [sp, #40]	@ 0x28
 8007f64:	990b      	ldr	r1, [sp, #44]	@ 0x2c
 8007f66:	f7fa faa5 	bl	80024b4 <__aeabi_d2iz>
 8007f6a:	0005      	movs	r5, r0
 8007f6c:	f7fa fade 	bl	800252c <__aeabi_i2d>
 8007f70:	0002      	movs	r2, r0
 8007f72:	000b      	movs	r3, r1
 8007f74:	980a      	ldr	r0, [sp, #40]	@ 0x28
 8007f76:	990b      	ldr	r1, [sp, #44]	@ 0x2c
 8007f78:	f7f9 fe70 	bl	8001c5c <__aeabi_dsub>
 8007f7c:	9b16      	ldr	r3, [sp, #88]	@ 0x58
 8007f7e:	3530      	adds	r5, #48	@ 0x30
 8007f80:	1c5c      	adds	r4, r3, #1
 8007f82:	701d      	strb	r5, [r3, #0]
 8007f84:	0032      	movs	r2, r6
 8007f86:	003b      	movs	r3, r7
 8007f88:	900a      	str	r0, [sp, #40]	@ 0x28
 8007f8a:	910b      	str	r1, [sp, #44]	@ 0x2c
 8007f8c:	f7f8 fa6c 	bl	8000468 <__aeabi_dcmplt>
 8007f90:	2800      	cmp	r0, #0
 8007f92:	d16b      	bne.n	800806c <_dtoa_r+0x65c>
 8007f94:	9a0a      	ldr	r2, [sp, #40]	@ 0x28
 8007f96:	9b0b      	ldr	r3, [sp, #44]	@ 0x2c
 8007f98:	2000      	movs	r0, #0
 8007f9a:	4961      	ldr	r1, [pc, #388]	@ (8008120 <_dtoa_r+0x710>)
 8007f9c:	f7f9 fe5e 	bl	8001c5c <__aeabi_dsub>
 8007fa0:	0032      	movs	r2, r6
 8007fa2:	003b      	movs	r3, r7
 8007fa4:	f7f8 fa60 	bl	8000468 <__aeabi_dcmplt>
 8007fa8:	2800      	cmp	r0, #0
 8007faa:	d000      	beq.n	8007fae <_dtoa_r+0x59e>
 8007fac:	e0c6      	b.n	800813c <_dtoa_r+0x72c>
 8007fae:	9b11      	ldr	r3, [sp, #68]	@ 0x44
 8007fb0:	42a3      	cmp	r3, r4
 8007fb2:	d100      	bne.n	8007fb6 <_dtoa_r+0x5a6>
 8007fb4:	e765      	b.n	8007e82 <_dtoa_r+0x472>
 8007fb6:	2200      	movs	r2, #0
 8007fb8:	0030      	movs	r0, r6
 8007fba:	0039      	movs	r1, r7
 8007fbc:	4b59      	ldr	r3, [pc, #356]	@ (8008124 <_dtoa_r+0x714>)
 8007fbe:	f7f9 fb67 	bl	8001690 <__aeabi_dmul>
 8007fc2:	2200      	movs	r2, #0
 8007fc4:	0006      	movs	r6, r0
 8007fc6:	000f      	movs	r7, r1
 8007fc8:	980a      	ldr	r0, [sp, #40]	@ 0x28
 8007fca:	990b      	ldr	r1, [sp, #44]	@ 0x2c
 8007fcc:	4b55      	ldr	r3, [pc, #340]	@ (8008124 <_dtoa_r+0x714>)
 8007fce:	f7f9 fb5f 	bl	8001690 <__aeabi_dmul>
 8007fd2:	9416      	str	r4, [sp, #88]	@ 0x58
 8007fd4:	900a      	str	r0, [sp, #40]	@ 0x28
 8007fd6:	910b      	str	r1, [sp, #44]	@ 0x2c
 8007fd8:	e7c3      	b.n	8007f62 <_dtoa_r+0x552>
 8007fda:	0030      	movs	r0, r6
 8007fdc:	0039      	movs	r1, r7
 8007fde:	f7f9 fb57 	bl	8001690 <__aeabi_dmul>
 8007fe2:	9d08      	ldr	r5, [sp, #32]
 8007fe4:	9a11      	ldr	r2, [sp, #68]	@ 0x44
 8007fe6:	002b      	movs	r3, r5
 8007fe8:	4694      	mov	ip, r2
 8007fea:	9016      	str	r0, [sp, #88]	@ 0x58
 8007fec:	9117      	str	r1, [sp, #92]	@ 0x5c
 8007fee:	4463      	add	r3, ip
 8007ff0:	9319      	str	r3, [sp, #100]	@ 0x64
 8007ff2:	980a      	ldr	r0, [sp, #40]	@ 0x28
 8007ff4:	990b      	ldr	r1, [sp, #44]	@ 0x2c
 8007ff6:	f7fa fa5d 	bl	80024b4 <__aeabi_d2iz>
 8007ffa:	0004      	movs	r4, r0
 8007ffc:	f7fa fa96 	bl	800252c <__aeabi_i2d>
 8008000:	000b      	movs	r3, r1
 8008002:	0002      	movs	r2, r0
 8008004:	980a      	ldr	r0, [sp, #40]	@ 0x28
 8008006:	990b      	ldr	r1, [sp, #44]	@ 0x2c
 8008008:	f7f9 fe28 	bl	8001c5c <__aeabi_dsub>
 800800c:	3430      	adds	r4, #48	@ 0x30
 800800e:	9b19      	ldr	r3, [sp, #100]	@ 0x64
 8008010:	702c      	strb	r4, [r5, #0]
 8008012:	3501      	adds	r5, #1
 8008014:	0006      	movs	r6, r0
 8008016:	000f      	movs	r7, r1
 8008018:	42ab      	cmp	r3, r5
 800801a:	d12a      	bne.n	8008072 <_dtoa_r+0x662>
 800801c:	9816      	ldr	r0, [sp, #88]	@ 0x58
 800801e:	9917      	ldr	r1, [sp, #92]	@ 0x5c
 8008020:	9b08      	ldr	r3, [sp, #32]
 8008022:	9c11      	ldr	r4, [sp, #68]	@ 0x44
 8008024:	469c      	mov	ip, r3
 8008026:	2200      	movs	r2, #0
 8008028:	4b42      	ldr	r3, [pc, #264]	@ (8008134 <_dtoa_r+0x724>)
 800802a:	4464      	add	r4, ip
 800802c:	f7f8 fb30 	bl	8000690 <__aeabi_dadd>
 8008030:	0002      	movs	r2, r0
 8008032:	000b      	movs	r3, r1
 8008034:	0030      	movs	r0, r6
 8008036:	0039      	movs	r1, r7
 8008038:	f7f8 fa2a 	bl	8000490 <__aeabi_dcmpgt>
 800803c:	2800      	cmp	r0, #0
 800803e:	d000      	beq.n	8008042 <_dtoa_r+0x632>
 8008040:	e07c      	b.n	800813c <_dtoa_r+0x72c>
 8008042:	9a16      	ldr	r2, [sp, #88]	@ 0x58
 8008044:	9b17      	ldr	r3, [sp, #92]	@ 0x5c
 8008046:	2000      	movs	r0, #0
 8008048:	493a      	ldr	r1, [pc, #232]	@ (8008134 <_dtoa_r+0x724>)
 800804a:	f7f9 fe07 	bl	8001c5c <__aeabi_dsub>
 800804e:	0002      	movs	r2, r0
 8008050:	000b      	movs	r3, r1
 8008052:	0030      	movs	r0, r6
 8008054:	0039      	movs	r1, r7
 8008056:	f7f8 fa07 	bl	8000468 <__aeabi_dcmplt>
 800805a:	2800      	cmp	r0, #0
 800805c:	d100      	bne.n	8008060 <_dtoa_r+0x650>
 800805e:	e710      	b.n	8007e82 <_dtoa_r+0x472>
 8008060:	0023      	movs	r3, r4
 8008062:	3c01      	subs	r4, #1
 8008064:	7822      	ldrb	r2, [r4, #0]
 8008066:	2a30      	cmp	r2, #48	@ 0x30
 8008068:	d0fa      	beq.n	8008060 <_dtoa_r+0x650>
 800806a:	001c      	movs	r4, r3
 800806c:	9b0c      	ldr	r3, [sp, #48]	@ 0x30
 800806e:	9304      	str	r3, [sp, #16]
 8008070:	e042      	b.n	80080f8 <_dtoa_r+0x6e8>
 8008072:	2200      	movs	r2, #0
 8008074:	4b2b      	ldr	r3, [pc, #172]	@ (8008124 <_dtoa_r+0x714>)
 8008076:	f7f9 fb0b 	bl	8001690 <__aeabi_dmul>
 800807a:	900a      	str	r0, [sp, #40]	@ 0x28
 800807c:	910b      	str	r1, [sp, #44]	@ 0x2c
 800807e:	e7b8      	b.n	8007ff2 <_dtoa_r+0x5e2>
 8008080:	9b09      	ldr	r3, [sp, #36]	@ 0x24
 8008082:	9d08      	ldr	r5, [sp, #32]
 8008084:	3b01      	subs	r3, #1
 8008086:	195b      	adds	r3, r3, r5
 8008088:	9e0a      	ldr	r6, [sp, #40]	@ 0x28
 800808a:	9f0b      	ldr	r7, [sp, #44]	@ 0x2c
 800808c:	930a      	str	r3, [sp, #40]	@ 0x28
 800808e:	9a06      	ldr	r2, [sp, #24]
 8008090:	9b07      	ldr	r3, [sp, #28]
 8008092:	0030      	movs	r0, r6
 8008094:	0039      	movs	r1, r7
 8008096:	f7f8 fec1 	bl	8000e1c <__aeabi_ddiv>
 800809a:	f7fa fa0b 	bl	80024b4 <__aeabi_d2iz>
 800809e:	9009      	str	r0, [sp, #36]	@ 0x24
 80080a0:	f7fa fa44 	bl	800252c <__aeabi_i2d>
 80080a4:	9a06      	ldr	r2, [sp, #24]
 80080a6:	9b07      	ldr	r3, [sp, #28]
 80080a8:	f7f9 faf2 	bl	8001690 <__aeabi_dmul>
 80080ac:	0002      	movs	r2, r0
 80080ae:	000b      	movs	r3, r1
 80080b0:	0030      	movs	r0, r6
 80080b2:	0039      	movs	r1, r7
 80080b4:	f7f9 fdd2 	bl	8001c5c <__aeabi_dsub>
 80080b8:	002b      	movs	r3, r5
 80080ba:	9a09      	ldr	r2, [sp, #36]	@ 0x24
 80080bc:	3501      	adds	r5, #1
 80080be:	3230      	adds	r2, #48	@ 0x30
 80080c0:	701a      	strb	r2, [r3, #0]
 80080c2:	9a0a      	ldr	r2, [sp, #40]	@ 0x28
 80080c4:	002c      	movs	r4, r5
 80080c6:	429a      	cmp	r2, r3
 80080c8:	d14b      	bne.n	8008162 <_dtoa_r+0x752>
 80080ca:	0002      	movs	r2, r0
 80080cc:	000b      	movs	r3, r1
 80080ce:	f7f8 fadf 	bl	8000690 <__aeabi_dadd>
 80080d2:	9a06      	ldr	r2, [sp, #24]
 80080d4:	9b07      	ldr	r3, [sp, #28]
 80080d6:	0006      	movs	r6, r0
 80080d8:	000f      	movs	r7, r1
 80080da:	f7f8 f9d9 	bl	8000490 <__aeabi_dcmpgt>
 80080de:	2800      	cmp	r0, #0
 80080e0:	d12a      	bne.n	8008138 <_dtoa_r+0x728>
 80080e2:	9a06      	ldr	r2, [sp, #24]
 80080e4:	9b07      	ldr	r3, [sp, #28]
 80080e6:	0030      	movs	r0, r6
 80080e8:	0039      	movs	r1, r7
 80080ea:	f7f8 f9b7 	bl	800045c <__aeabi_dcmpeq>
 80080ee:	2800      	cmp	r0, #0
 80080f0:	d002      	beq.n	80080f8 <_dtoa_r+0x6e8>
 80080f2:	9b09      	ldr	r3, [sp, #36]	@ 0x24
 80080f4:	07dd      	lsls	r5, r3, #31
 80080f6:	d41f      	bmi.n	8008138 <_dtoa_r+0x728>
 80080f8:	9905      	ldr	r1, [sp, #20]
 80080fa:	9803      	ldr	r0, [sp, #12]
 80080fc:	f000 fbc2 	bl	8008884 <_Bfree>
 8008100:	2300      	movs	r3, #0
 8008102:	7023      	strb	r3, [r4, #0]
 8008104:	9b04      	ldr	r3, [sp, #16]
 8008106:	9a24      	ldr	r2, [sp, #144]	@ 0x90
 8008108:	3301      	adds	r3, #1
 800810a:	6013      	str	r3, [r2, #0]
 800810c:	9b26      	ldr	r3, [sp, #152]	@ 0x98
 800810e:	2b00      	cmp	r3, #0
 8008110:	d100      	bne.n	8008114 <_dtoa_r+0x704>
 8008112:	e4c7      	b.n	8007aa4 <_dtoa_r+0x94>
 8008114:	601c      	str	r4, [r3, #0]
 8008116:	e4c5      	b.n	8007aa4 <_dtoa_r+0x94>
 8008118:	08009a80 	.word	0x08009a80
 800811c:	08009a58 	.word	0x08009a58
 8008120:	3ff00000 	.word	0x3ff00000
 8008124:	40240000 	.word	0x40240000
 8008128:	401c0000 	.word	0x401c0000
 800812c:	fcc00000 	.word	0xfcc00000
 8008130:	40140000 	.word	0x40140000
 8008134:	3fe00000 	.word	0x3fe00000
 8008138:	9b04      	ldr	r3, [sp, #16]
 800813a:	930c      	str	r3, [sp, #48]	@ 0x30
 800813c:	0023      	movs	r3, r4
 800813e:	001c      	movs	r4, r3
 8008140:	3b01      	subs	r3, #1
 8008142:	781a      	ldrb	r2, [r3, #0]
 8008144:	2a39      	cmp	r2, #57	@ 0x39
 8008146:	d108      	bne.n	800815a <_dtoa_r+0x74a>
 8008148:	9a08      	ldr	r2, [sp, #32]
 800814a:	429a      	cmp	r2, r3
 800814c:	d1f7      	bne.n	800813e <_dtoa_r+0x72e>
 800814e:	9a0c      	ldr	r2, [sp, #48]	@ 0x30
 8008150:	9908      	ldr	r1, [sp, #32]
 8008152:	3201      	adds	r2, #1
 8008154:	920c      	str	r2, [sp, #48]	@ 0x30
 8008156:	2230      	movs	r2, #48	@ 0x30
 8008158:	700a      	strb	r2, [r1, #0]
 800815a:	781a      	ldrb	r2, [r3, #0]
 800815c:	3201      	adds	r2, #1
 800815e:	701a      	strb	r2, [r3, #0]
 8008160:	e784      	b.n	800806c <_dtoa_r+0x65c>
 8008162:	2200      	movs	r2, #0
 8008164:	4bc6      	ldr	r3, [pc, #792]	@ (8008480 <_dtoa_r+0xa70>)
 8008166:	f7f9 fa93 	bl	8001690 <__aeabi_dmul>
 800816a:	2200      	movs	r2, #0
 800816c:	2300      	movs	r3, #0
 800816e:	0006      	movs	r6, r0
 8008170:	000f      	movs	r7, r1
 8008172:	f7f8 f973 	bl	800045c <__aeabi_dcmpeq>
 8008176:	2800      	cmp	r0, #0
 8008178:	d089      	beq.n	800808e <_dtoa_r+0x67e>
 800817a:	e7bd      	b.n	80080f8 <_dtoa_r+0x6e8>
 800817c:	9f10      	ldr	r7, [sp, #64]	@ 0x40
 800817e:	9d0f      	ldr	r5, [sp, #60]	@ 0x3c
 8008180:	9c06      	ldr	r4, [sp, #24]
 8008182:	2f00      	cmp	r7, #0
 8008184:	d014      	beq.n	80081b0 <_dtoa_r+0x7a0>
 8008186:	9a22      	ldr	r2, [sp, #136]	@ 0x88
 8008188:	2a01      	cmp	r2, #1
 800818a:	dd00      	ble.n	800818e <_dtoa_r+0x77e>
 800818c:	e0e4      	b.n	8008358 <_dtoa_r+0x948>
 800818e:	9a18      	ldr	r2, [sp, #96]	@ 0x60
 8008190:	2a00      	cmp	r2, #0
 8008192:	d100      	bne.n	8008196 <_dtoa_r+0x786>
 8008194:	e0da      	b.n	800834c <_dtoa_r+0x93c>
 8008196:	4abb      	ldr	r2, [pc, #748]	@ (8008484 <_dtoa_r+0xa74>)
 8008198:	189b      	adds	r3, r3, r2
 800819a:	9a06      	ldr	r2, [sp, #24]
 800819c:	2101      	movs	r1, #1
 800819e:	18d2      	adds	r2, r2, r3
 80081a0:	9206      	str	r2, [sp, #24]
 80081a2:	9a0d      	ldr	r2, [sp, #52]	@ 0x34
 80081a4:	9803      	ldr	r0, [sp, #12]
 80081a6:	18d3      	adds	r3, r2, r3
 80081a8:	930d      	str	r3, [sp, #52]	@ 0x34
 80081aa:	f000 fc23 	bl	80089f4 <__i2b>
 80081ae:	0007      	movs	r7, r0
 80081b0:	2c00      	cmp	r4, #0
 80081b2:	d00e      	beq.n	80081d2 <_dtoa_r+0x7c2>
 80081b4:	9b0d      	ldr	r3, [sp, #52]	@ 0x34
 80081b6:	2b00      	cmp	r3, #0
 80081b8:	dd0b      	ble.n	80081d2 <_dtoa_r+0x7c2>
 80081ba:	9a0d      	ldr	r2, [sp, #52]	@ 0x34
 80081bc:	0023      	movs	r3, r4
 80081be:	4294      	cmp	r4, r2
 80081c0:	dd00      	ble.n	80081c4 <_dtoa_r+0x7b4>
 80081c2:	0013      	movs	r3, r2
 80081c4:	9a06      	ldr	r2, [sp, #24]
 80081c6:	1ae4      	subs	r4, r4, r3
 80081c8:	1ad2      	subs	r2, r2, r3
 80081ca:	9206      	str	r2, [sp, #24]
 80081cc:	9a0d      	ldr	r2, [sp, #52]	@ 0x34
 80081ce:	1ad3      	subs	r3, r2, r3
 80081d0:	930d      	str	r3, [sp, #52]	@ 0x34
 80081d2:	9b0f      	ldr	r3, [sp, #60]	@ 0x3c
 80081d4:	2b00      	cmp	r3, #0
 80081d6:	d021      	beq.n	800821c <_dtoa_r+0x80c>
 80081d8:	9b10      	ldr	r3, [sp, #64]	@ 0x40
 80081da:	2b00      	cmp	r3, #0
 80081dc:	d100      	bne.n	80081e0 <_dtoa_r+0x7d0>
 80081de:	e0d3      	b.n	8008388 <_dtoa_r+0x978>
 80081e0:	9e05      	ldr	r6, [sp, #20]
 80081e2:	2d00      	cmp	r5, #0
 80081e4:	d014      	beq.n	8008210 <_dtoa_r+0x800>
 80081e6:	0039      	movs	r1, r7
 80081e8:	002a      	movs	r2, r5
 80081ea:	9803      	ldr	r0, [sp, #12]
 80081ec:	f000 fcc4 	bl	8008b78 <__pow5mult>
 80081f0:	9a05      	ldr	r2, [sp, #20]
 80081f2:	0001      	movs	r1, r0
 80081f4:	0007      	movs	r7, r0
 80081f6:	9803      	ldr	r0, [sp, #12]
 80081f8:	f000 fc14 	bl	8008a24 <__multiply>
 80081fc:	0006      	movs	r6, r0
 80081fe:	9905      	ldr	r1, [sp, #20]
 8008200:	9803      	ldr	r0, [sp, #12]
 8008202:	f000 fb3f 	bl	8008884 <_Bfree>
 8008206:	9b0f      	ldr	r3, [sp, #60]	@ 0x3c
 8008208:	9605      	str	r6, [sp, #20]
 800820a:	1b5b      	subs	r3, r3, r5
 800820c:	930f      	str	r3, [sp, #60]	@ 0x3c
 800820e:	d005      	beq.n	800821c <_dtoa_r+0x80c>
 8008210:	0031      	movs	r1, r6
 8008212:	9a0f      	ldr	r2, [sp, #60]	@ 0x3c
 8008214:	9803      	ldr	r0, [sp, #12]
 8008216:	f000 fcaf 	bl	8008b78 <__pow5mult>
 800821a:	9005      	str	r0, [sp, #20]
 800821c:	2101      	movs	r1, #1
 800821e:	9803      	ldr	r0, [sp, #12]
 8008220:	f000 fbe8 	bl	80089f4 <__i2b>
 8008224:	9b14      	ldr	r3, [sp, #80]	@ 0x50
 8008226:	0006      	movs	r6, r0
 8008228:	2b00      	cmp	r3, #0
 800822a:	d100      	bne.n	800822e <_dtoa_r+0x81e>
 800822c:	e1bc      	b.n	80085a8 <_dtoa_r+0xb98>
 800822e:	001a      	movs	r2, r3
 8008230:	0001      	movs	r1, r0
 8008232:	9803      	ldr	r0, [sp, #12]
 8008234:	f000 fca0 	bl	8008b78 <__pow5mult>
 8008238:	9b22      	ldr	r3, [sp, #136]	@ 0x88
 800823a:	0006      	movs	r6, r0
 800823c:	2500      	movs	r5, #0
 800823e:	2b01      	cmp	r3, #1
 8008240:	dc16      	bgt.n	8008270 <_dtoa_r+0x860>
 8008242:	2500      	movs	r5, #0
 8008244:	9b0a      	ldr	r3, [sp, #40]	@ 0x28
 8008246:	42ab      	cmp	r3, r5
 8008248:	d10e      	bne.n	8008268 <_dtoa_r+0x858>
 800824a:	9b0b      	ldr	r3, [sp, #44]	@ 0x2c
 800824c:	031b      	lsls	r3, r3, #12
 800824e:	42ab      	cmp	r3, r5
 8008250:	d10a      	bne.n	8008268 <_dtoa_r+0x858>
 8008252:	4b8d      	ldr	r3, [pc, #564]	@ (8008488 <_dtoa_r+0xa78>)
 8008254:	9a0b      	ldr	r2, [sp, #44]	@ 0x2c
 8008256:	4213      	tst	r3, r2
 8008258:	d006      	beq.n	8008268 <_dtoa_r+0x858>
 800825a:	9b06      	ldr	r3, [sp, #24]
 800825c:	3501      	adds	r5, #1
 800825e:	3301      	adds	r3, #1
 8008260:	9306      	str	r3, [sp, #24]
 8008262:	9b0d      	ldr	r3, [sp, #52]	@ 0x34
 8008264:	3301      	adds	r3, #1
 8008266:	930d      	str	r3, [sp, #52]	@ 0x34
 8008268:	9b14      	ldr	r3, [sp, #80]	@ 0x50
 800826a:	2001      	movs	r0, #1
 800826c:	2b00      	cmp	r3, #0
 800826e:	d008      	beq.n	8008282 <_dtoa_r+0x872>
 8008270:	6933      	ldr	r3, [r6, #16]
 8008272:	3303      	adds	r3, #3
 8008274:	009b      	lsls	r3, r3, #2
 8008276:	18f3      	adds	r3, r6, r3
 8008278:	6858      	ldr	r0, [r3, #4]
 800827a:	f000 fb6b 	bl	8008954 <__hi0bits>
 800827e:	2320      	movs	r3, #32
 8008280:	1a18      	subs	r0, r3, r0
 8008282:	9b0d      	ldr	r3, [sp, #52]	@ 0x34
 8008284:	1818      	adds	r0, r3, r0
 8008286:	0002      	movs	r2, r0
 8008288:	231f      	movs	r3, #31
 800828a:	401a      	ands	r2, r3
 800828c:	4218      	tst	r0, r3
 800828e:	d100      	bne.n	8008292 <_dtoa_r+0x882>
 8008290:	e081      	b.n	8008396 <_dtoa_r+0x986>
 8008292:	3301      	adds	r3, #1
 8008294:	1a9b      	subs	r3, r3, r2
 8008296:	2b04      	cmp	r3, #4
 8008298:	dd79      	ble.n	800838e <_dtoa_r+0x97e>
 800829a:	231c      	movs	r3, #28
 800829c:	1a9b      	subs	r3, r3, r2
 800829e:	9a06      	ldr	r2, [sp, #24]
 80082a0:	18e4      	adds	r4, r4, r3
 80082a2:	18d2      	adds	r2, r2, r3
 80082a4:	9206      	str	r2, [sp, #24]
 80082a6:	9a0d      	ldr	r2, [sp, #52]	@ 0x34
 80082a8:	18d3      	adds	r3, r2, r3
 80082aa:	930d      	str	r3, [sp, #52]	@ 0x34
 80082ac:	9b06      	ldr	r3, [sp, #24]
 80082ae:	2b00      	cmp	r3, #0
 80082b0:	dd05      	ble.n	80082be <_dtoa_r+0x8ae>
 80082b2:	001a      	movs	r2, r3
 80082b4:	9905      	ldr	r1, [sp, #20]
 80082b6:	9803      	ldr	r0, [sp, #12]
 80082b8:	f000 fcba 	bl	8008c30 <__lshift>
 80082bc:	9005      	str	r0, [sp, #20]
 80082be:	9b0d      	ldr	r3, [sp, #52]	@ 0x34
 80082c0:	2b00      	cmp	r3, #0
 80082c2:	dd05      	ble.n	80082d0 <_dtoa_r+0x8c0>
 80082c4:	0031      	movs	r1, r6
 80082c6:	001a      	movs	r2, r3
 80082c8:	9803      	ldr	r0, [sp, #12]
 80082ca:	f000 fcb1 	bl	8008c30 <__lshift>
 80082ce:	0006      	movs	r6, r0
 80082d0:	9b15      	ldr	r3, [sp, #84]	@ 0x54
 80082d2:	2b00      	cmp	r3, #0
 80082d4:	d061      	beq.n	800839a <_dtoa_r+0x98a>
 80082d6:	0031      	movs	r1, r6
 80082d8:	9805      	ldr	r0, [sp, #20]
 80082da:	f000 fd15 	bl	8008d08 <__mcmp>
 80082de:	2800      	cmp	r0, #0
 80082e0:	da5b      	bge.n	800839a <_dtoa_r+0x98a>
 80082e2:	9b04      	ldr	r3, [sp, #16]
 80082e4:	220a      	movs	r2, #10
 80082e6:	3b01      	subs	r3, #1
 80082e8:	930c      	str	r3, [sp, #48]	@ 0x30
 80082ea:	9905      	ldr	r1, [sp, #20]
 80082ec:	2300      	movs	r3, #0
 80082ee:	9803      	ldr	r0, [sp, #12]
 80082f0:	f000 faec 	bl	80088cc <__multadd>
 80082f4:	9b10      	ldr	r3, [sp, #64]	@ 0x40
 80082f6:	9005      	str	r0, [sp, #20]
 80082f8:	2b00      	cmp	r3, #0
 80082fa:	d100      	bne.n	80082fe <_dtoa_r+0x8ee>
 80082fc:	e15b      	b.n	80085b6 <_dtoa_r+0xba6>
 80082fe:	2300      	movs	r3, #0
 8008300:	0039      	movs	r1, r7
 8008302:	220a      	movs	r2, #10
 8008304:	9803      	ldr	r0, [sp, #12]
 8008306:	f000 fae1 	bl	80088cc <__multadd>
 800830a:	9b0e      	ldr	r3, [sp, #56]	@ 0x38
 800830c:	0007      	movs	r7, r0
 800830e:	2b00      	cmp	r3, #0
 8008310:	dc4d      	bgt.n	80083ae <_dtoa_r+0x99e>
 8008312:	9b22      	ldr	r3, [sp, #136]	@ 0x88
 8008314:	2b02      	cmp	r3, #2
 8008316:	dd46      	ble.n	80083a6 <_dtoa_r+0x996>
 8008318:	9b0e      	ldr	r3, [sp, #56]	@ 0x38
 800831a:	2b00      	cmp	r3, #0
 800831c:	d000      	beq.n	8008320 <_dtoa_r+0x910>
 800831e:	e5db      	b.n	8007ed8 <_dtoa_r+0x4c8>
 8008320:	0031      	movs	r1, r6
 8008322:	2205      	movs	r2, #5
 8008324:	9803      	ldr	r0, [sp, #12]
 8008326:	f000 fad1 	bl	80088cc <__multadd>
 800832a:	0006      	movs	r6, r0
 800832c:	0001      	movs	r1, r0
 800832e:	9805      	ldr	r0, [sp, #20]
 8008330:	f000 fcea 	bl	8008d08 <__mcmp>
 8008334:	2800      	cmp	r0, #0
 8008336:	dc00      	bgt.n	800833a <_dtoa_r+0x92a>
 8008338:	e5ce      	b.n	8007ed8 <_dtoa_r+0x4c8>
 800833a:	9b08      	ldr	r3, [sp, #32]
 800833c:	9a08      	ldr	r2, [sp, #32]
 800833e:	1c5c      	adds	r4, r3, #1
 8008340:	2331      	movs	r3, #49	@ 0x31
 8008342:	7013      	strb	r3, [r2, #0]
 8008344:	9b0c      	ldr	r3, [sp, #48]	@ 0x30
 8008346:	3301      	adds	r3, #1
 8008348:	930c      	str	r3, [sp, #48]	@ 0x30
 800834a:	e5c9      	b.n	8007ee0 <_dtoa_r+0x4d0>
 800834c:	2336      	movs	r3, #54	@ 0x36
 800834e:	9a1a      	ldr	r2, [sp, #104]	@ 0x68
 8008350:	9d0f      	ldr	r5, [sp, #60]	@ 0x3c
 8008352:	1a9b      	subs	r3, r3, r2
 8008354:	9c06      	ldr	r4, [sp, #24]
 8008356:	e720      	b.n	800819a <_dtoa_r+0x78a>
 8008358:	9b09      	ldr	r3, [sp, #36]	@ 0x24
 800835a:	1e5d      	subs	r5, r3, #1
 800835c:	9b0f      	ldr	r3, [sp, #60]	@ 0x3c
 800835e:	42ab      	cmp	r3, r5
 8008360:	db08      	blt.n	8008374 <_dtoa_r+0x964>
 8008362:	1b5d      	subs	r5, r3, r5
 8008364:	9b09      	ldr	r3, [sp, #36]	@ 0x24
 8008366:	2b00      	cmp	r3, #0
 8008368:	daf4      	bge.n	8008354 <_dtoa_r+0x944>
 800836a:	9b06      	ldr	r3, [sp, #24]
 800836c:	9a09      	ldr	r2, [sp, #36]	@ 0x24
 800836e:	1a9c      	subs	r4, r3, r2
 8008370:	2300      	movs	r3, #0
 8008372:	e712      	b.n	800819a <_dtoa_r+0x78a>
 8008374:	9b0f      	ldr	r3, [sp, #60]	@ 0x3c
 8008376:	9a14      	ldr	r2, [sp, #80]	@ 0x50
 8008378:	1aeb      	subs	r3, r5, r3
 800837a:	18d3      	adds	r3, r2, r3
 800837c:	9314      	str	r3, [sp, #80]	@ 0x50
 800837e:	950f      	str	r5, [sp, #60]	@ 0x3c
 8008380:	9c06      	ldr	r4, [sp, #24]
 8008382:	2500      	movs	r5, #0
 8008384:	9b09      	ldr	r3, [sp, #36]	@ 0x24
 8008386:	e708      	b.n	800819a <_dtoa_r+0x78a>
 8008388:	9a0f      	ldr	r2, [sp, #60]	@ 0x3c
 800838a:	9905      	ldr	r1, [sp, #20]
 800838c:	e742      	b.n	8008214 <_dtoa_r+0x804>
 800838e:	2b04      	cmp	r3, #4
 8008390:	d08c      	beq.n	80082ac <_dtoa_r+0x89c>
 8008392:	331c      	adds	r3, #28
 8008394:	e783      	b.n	800829e <_dtoa_r+0x88e>
 8008396:	0013      	movs	r3, r2
 8008398:	e7fb      	b.n	8008392 <_dtoa_r+0x982>
 800839a:	9b04      	ldr	r3, [sp, #16]
 800839c:	930c      	str	r3, [sp, #48]	@ 0x30
 800839e:	9b09      	ldr	r3, [sp, #36]	@ 0x24
 80083a0:	930e      	str	r3, [sp, #56]	@ 0x38
 80083a2:	2b00      	cmp	r3, #0
 80083a4:	ddb5      	ble.n	8008312 <_dtoa_r+0x902>
 80083a6:	9b10      	ldr	r3, [sp, #64]	@ 0x40
 80083a8:	2b00      	cmp	r3, #0
 80083aa:	d100      	bne.n	80083ae <_dtoa_r+0x99e>
 80083ac:	e107      	b.n	80085be <_dtoa_r+0xbae>
 80083ae:	2c00      	cmp	r4, #0
 80083b0:	dd05      	ble.n	80083be <_dtoa_r+0x9ae>
 80083b2:	0039      	movs	r1, r7
 80083b4:	0022      	movs	r2, r4
 80083b6:	9803      	ldr	r0, [sp, #12]
 80083b8:	f000 fc3a 	bl	8008c30 <__lshift>
 80083bc:	0007      	movs	r7, r0
 80083be:	9704      	str	r7, [sp, #16]
 80083c0:	2d00      	cmp	r5, #0
 80083c2:	d020      	beq.n	8008406 <_dtoa_r+0x9f6>
 80083c4:	6879      	ldr	r1, [r7, #4]
 80083c6:	9803      	ldr	r0, [sp, #12]
 80083c8:	f000 fa18 	bl	80087fc <_Balloc>
 80083cc:	1e04      	subs	r4, r0, #0
 80083ce:	d10c      	bne.n	80083ea <_dtoa_r+0x9da>
 80083d0:	0022      	movs	r2, r4
 80083d2:	4b2e      	ldr	r3, [pc, #184]	@ (800848c <_dtoa_r+0xa7c>)
 80083d4:	482e      	ldr	r0, [pc, #184]	@ (8008490 <_dtoa_r+0xa80>)
 80083d6:	492f      	ldr	r1, [pc, #188]	@ (8008494 <_dtoa_r+0xa84>)
 80083d8:	f7ff fb2f 	bl	8007a3a <_dtoa_r+0x2a>
 80083dc:	9e11      	ldr	r6, [sp, #68]	@ 0x44
 80083de:	0037      	movs	r7, r6
 80083e0:	e7ab      	b.n	800833a <_dtoa_r+0x92a>
 80083e2:	9b04      	ldr	r3, [sp, #16]
 80083e4:	9e09      	ldr	r6, [sp, #36]	@ 0x24
 80083e6:	930c      	str	r3, [sp, #48]	@ 0x30
 80083e8:	e7f9      	b.n	80083de <_dtoa_r+0x9ce>
 80083ea:	0039      	movs	r1, r7
 80083ec:	693a      	ldr	r2, [r7, #16]
 80083ee:	310c      	adds	r1, #12
 80083f0:	3202      	adds	r2, #2
 80083f2:	0092      	lsls	r2, r2, #2
 80083f4:	300c      	adds	r0, #12
 80083f6:	f001 f835 	bl	8009464 <memcpy>
 80083fa:	2201      	movs	r2, #1
 80083fc:	0021      	movs	r1, r4
 80083fe:	9803      	ldr	r0, [sp, #12]
 8008400:	f000 fc16 	bl	8008c30 <__lshift>
 8008404:	9004      	str	r0, [sp, #16]
 8008406:	9b08      	ldr	r3, [sp, #32]
 8008408:	9a0e      	ldr	r2, [sp, #56]	@ 0x38
 800840a:	9306      	str	r3, [sp, #24]
 800840c:	3b01      	subs	r3, #1
 800840e:	189b      	adds	r3, r3, r2
 8008410:	2201      	movs	r2, #1
 8008412:	930f      	str	r3, [sp, #60]	@ 0x3c
 8008414:	9b0a      	ldr	r3, [sp, #40]	@ 0x28
 8008416:	4013      	ands	r3, r2
 8008418:	930e      	str	r3, [sp, #56]	@ 0x38
 800841a:	0031      	movs	r1, r6
 800841c:	9805      	ldr	r0, [sp, #20]
 800841e:	f7ff fa71 	bl	8007904 <quorem>
 8008422:	0039      	movs	r1, r7
 8008424:	0005      	movs	r5, r0
 8008426:	900a      	str	r0, [sp, #40]	@ 0x28
 8008428:	9805      	ldr	r0, [sp, #20]
 800842a:	f000 fc6d 	bl	8008d08 <__mcmp>
 800842e:	9a04      	ldr	r2, [sp, #16]
 8008430:	900d      	str	r0, [sp, #52]	@ 0x34
 8008432:	0031      	movs	r1, r6
 8008434:	9803      	ldr	r0, [sp, #12]
 8008436:	f000 fc83 	bl	8008d40 <__mdiff>
 800843a:	2201      	movs	r2, #1
 800843c:	68c3      	ldr	r3, [r0, #12]
 800843e:	0004      	movs	r4, r0
 8008440:	3530      	adds	r5, #48	@ 0x30
 8008442:	9209      	str	r2, [sp, #36]	@ 0x24
 8008444:	2b00      	cmp	r3, #0
 8008446:	d104      	bne.n	8008452 <_dtoa_r+0xa42>
 8008448:	0001      	movs	r1, r0
 800844a:	9805      	ldr	r0, [sp, #20]
 800844c:	f000 fc5c 	bl	8008d08 <__mcmp>
 8008450:	9009      	str	r0, [sp, #36]	@ 0x24
 8008452:	0021      	movs	r1, r4
 8008454:	9803      	ldr	r0, [sp, #12]
 8008456:	f000 fa15 	bl	8008884 <_Bfree>
 800845a:	9b06      	ldr	r3, [sp, #24]
 800845c:	9a22      	ldr	r2, [sp, #136]	@ 0x88
 800845e:	1c5c      	adds	r4, r3, #1
 8008460:	9b09      	ldr	r3, [sp, #36]	@ 0x24
 8008462:	4313      	orrs	r3, r2
 8008464:	9a0e      	ldr	r2, [sp, #56]	@ 0x38
 8008466:	4313      	orrs	r3, r2
 8008468:	d116      	bne.n	8008498 <_dtoa_r+0xa88>
 800846a:	2d39      	cmp	r5, #57	@ 0x39
 800846c:	d02f      	beq.n	80084ce <_dtoa_r+0xabe>
 800846e:	9b0d      	ldr	r3, [sp, #52]	@ 0x34
 8008470:	2b00      	cmp	r3, #0
 8008472:	dd01      	ble.n	8008478 <_dtoa_r+0xa68>
 8008474:	9d0a      	ldr	r5, [sp, #40]	@ 0x28
 8008476:	3531      	adds	r5, #49	@ 0x31
 8008478:	9b06      	ldr	r3, [sp, #24]
 800847a:	701d      	strb	r5, [r3, #0]
 800847c:	e532      	b.n	8007ee4 <_dtoa_r+0x4d4>
 800847e:	46c0      	nop			@ (mov r8, r8)
 8008480:	40240000 	.word	0x40240000
 8008484:	00000433 	.word	0x00000433
 8008488:	7ff00000 	.word	0x7ff00000
 800848c:	08009988 	.word	0x08009988
 8008490:	08009930 	.word	0x08009930
 8008494:	000002ef 	.word	0x000002ef
 8008498:	9b0d      	ldr	r3, [sp, #52]	@ 0x34
 800849a:	2b00      	cmp	r3, #0
 800849c:	db04      	blt.n	80084a8 <_dtoa_r+0xa98>
 800849e:	9a22      	ldr	r2, [sp, #136]	@ 0x88
 80084a0:	4313      	orrs	r3, r2
 80084a2:	9a0e      	ldr	r2, [sp, #56]	@ 0x38
 80084a4:	4313      	orrs	r3, r2
 80084a6:	d11e      	bne.n	80084e6 <_dtoa_r+0xad6>
 80084a8:	9b09      	ldr	r3, [sp, #36]	@ 0x24
 80084aa:	2b00      	cmp	r3, #0
 80084ac:	dde4      	ble.n	8008478 <_dtoa_r+0xa68>
 80084ae:	9905      	ldr	r1, [sp, #20]
 80084b0:	2201      	movs	r2, #1
 80084b2:	9803      	ldr	r0, [sp, #12]
 80084b4:	f000 fbbc 	bl	8008c30 <__lshift>
 80084b8:	0031      	movs	r1, r6
 80084ba:	9005      	str	r0, [sp, #20]
 80084bc:	f000 fc24 	bl	8008d08 <__mcmp>
 80084c0:	2800      	cmp	r0, #0
 80084c2:	dc02      	bgt.n	80084ca <_dtoa_r+0xaba>
 80084c4:	d1d8      	bne.n	8008478 <_dtoa_r+0xa68>
 80084c6:	07eb      	lsls	r3, r5, #31
 80084c8:	d5d6      	bpl.n	8008478 <_dtoa_r+0xa68>
 80084ca:	2d39      	cmp	r5, #57	@ 0x39
 80084cc:	d1d2      	bne.n	8008474 <_dtoa_r+0xa64>
 80084ce:	2339      	movs	r3, #57	@ 0x39
 80084d0:	9a06      	ldr	r2, [sp, #24]
 80084d2:	7013      	strb	r3, [r2, #0]
 80084d4:	0023      	movs	r3, r4
 80084d6:	001c      	movs	r4, r3
 80084d8:	3b01      	subs	r3, #1
 80084da:	781a      	ldrb	r2, [r3, #0]
 80084dc:	2a39      	cmp	r2, #57	@ 0x39
 80084de:	d050      	beq.n	8008582 <_dtoa_r+0xb72>
 80084e0:	3201      	adds	r2, #1
 80084e2:	701a      	strb	r2, [r3, #0]
 80084e4:	e4fe      	b.n	8007ee4 <_dtoa_r+0x4d4>
 80084e6:	9b09      	ldr	r3, [sp, #36]	@ 0x24
 80084e8:	2b00      	cmp	r3, #0
 80084ea:	dd03      	ble.n	80084f4 <_dtoa_r+0xae4>
 80084ec:	2d39      	cmp	r5, #57	@ 0x39
 80084ee:	d0ee      	beq.n	80084ce <_dtoa_r+0xabe>
 80084f0:	3501      	adds	r5, #1
 80084f2:	e7c1      	b.n	8008478 <_dtoa_r+0xa68>
 80084f4:	9b06      	ldr	r3, [sp, #24]
 80084f6:	9a06      	ldr	r2, [sp, #24]
 80084f8:	701d      	strb	r5, [r3, #0]
 80084fa:	9b0f      	ldr	r3, [sp, #60]	@ 0x3c
 80084fc:	4293      	cmp	r3, r2
 80084fe:	d02b      	beq.n	8008558 <_dtoa_r+0xb48>
 8008500:	2300      	movs	r3, #0
 8008502:	220a      	movs	r2, #10
 8008504:	9905      	ldr	r1, [sp, #20]
 8008506:	9803      	ldr	r0, [sp, #12]
 8008508:	f000 f9e0 	bl	80088cc <__multadd>
 800850c:	9b04      	ldr	r3, [sp, #16]
 800850e:	9005      	str	r0, [sp, #20]
 8008510:	429f      	cmp	r7, r3
 8008512:	d109      	bne.n	8008528 <_dtoa_r+0xb18>
 8008514:	0039      	movs	r1, r7
 8008516:	2300      	movs	r3, #0
 8008518:	220a      	movs	r2, #10
 800851a:	9803      	ldr	r0, [sp, #12]
 800851c:	f000 f9d6 	bl	80088cc <__multadd>
 8008520:	0007      	movs	r7, r0
 8008522:	9004      	str	r0, [sp, #16]
 8008524:	9406      	str	r4, [sp, #24]
 8008526:	e778      	b.n	800841a <_dtoa_r+0xa0a>
 8008528:	0039      	movs	r1, r7
 800852a:	2300      	movs	r3, #0
 800852c:	220a      	movs	r2, #10
 800852e:	9803      	ldr	r0, [sp, #12]
 8008530:	f000 f9cc 	bl	80088cc <__multadd>
 8008534:	2300      	movs	r3, #0
 8008536:	0007      	movs	r7, r0
 8008538:	220a      	movs	r2, #10
 800853a:	9904      	ldr	r1, [sp, #16]
 800853c:	9803      	ldr	r0, [sp, #12]
 800853e:	f000 f9c5 	bl	80088cc <__multadd>
 8008542:	9004      	str	r0, [sp, #16]
 8008544:	e7ee      	b.n	8008524 <_dtoa_r+0xb14>
 8008546:	9b0e      	ldr	r3, [sp, #56]	@ 0x38
 8008548:	2401      	movs	r4, #1
 800854a:	2b00      	cmp	r3, #0
 800854c:	dd00      	ble.n	8008550 <_dtoa_r+0xb40>
 800854e:	001c      	movs	r4, r3
 8008550:	9704      	str	r7, [sp, #16]
 8008552:	2700      	movs	r7, #0
 8008554:	9b08      	ldr	r3, [sp, #32]
 8008556:	191c      	adds	r4, r3, r4
 8008558:	9905      	ldr	r1, [sp, #20]
 800855a:	2201      	movs	r2, #1
 800855c:	9803      	ldr	r0, [sp, #12]
 800855e:	f000 fb67 	bl	8008c30 <__lshift>
 8008562:	0031      	movs	r1, r6
 8008564:	9005      	str	r0, [sp, #20]
 8008566:	f000 fbcf 	bl	8008d08 <__mcmp>
 800856a:	2800      	cmp	r0, #0
 800856c:	dcb2      	bgt.n	80084d4 <_dtoa_r+0xac4>
 800856e:	d101      	bne.n	8008574 <_dtoa_r+0xb64>
 8008570:	07ed      	lsls	r5, r5, #31
 8008572:	d4af      	bmi.n	80084d4 <_dtoa_r+0xac4>
 8008574:	0023      	movs	r3, r4
 8008576:	001c      	movs	r4, r3
 8008578:	3b01      	subs	r3, #1
 800857a:	781a      	ldrb	r2, [r3, #0]
 800857c:	2a30      	cmp	r2, #48	@ 0x30
 800857e:	d0fa      	beq.n	8008576 <_dtoa_r+0xb66>
 8008580:	e4b0      	b.n	8007ee4 <_dtoa_r+0x4d4>
 8008582:	9a08      	ldr	r2, [sp, #32]
 8008584:	429a      	cmp	r2, r3
 8008586:	d1a6      	bne.n	80084d6 <_dtoa_r+0xac6>
 8008588:	9b0c      	ldr	r3, [sp, #48]	@ 0x30
 800858a:	3301      	adds	r3, #1
 800858c:	930c      	str	r3, [sp, #48]	@ 0x30
 800858e:	2331      	movs	r3, #49	@ 0x31
 8008590:	7013      	strb	r3, [r2, #0]
 8008592:	e4a7      	b.n	8007ee4 <_dtoa_r+0x4d4>
 8008594:	4b14      	ldr	r3, [pc, #80]	@ (80085e8 <_dtoa_r+0xbd8>)
 8008596:	9a26      	ldr	r2, [sp, #152]	@ 0x98
 8008598:	9308      	str	r3, [sp, #32]
 800859a:	4b14      	ldr	r3, [pc, #80]	@ (80085ec <_dtoa_r+0xbdc>)
 800859c:	2a00      	cmp	r2, #0
 800859e:	d001      	beq.n	80085a4 <_dtoa_r+0xb94>
 80085a0:	f7ff fa7e 	bl	8007aa0 <_dtoa_r+0x90>
 80085a4:	f7ff fa7e 	bl	8007aa4 <_dtoa_r+0x94>
 80085a8:	9b22      	ldr	r3, [sp, #136]	@ 0x88
 80085aa:	2b01      	cmp	r3, #1
 80085ac:	dc00      	bgt.n	80085b0 <_dtoa_r+0xba0>
 80085ae:	e648      	b.n	8008242 <_dtoa_r+0x832>
 80085b0:	2001      	movs	r0, #1
 80085b2:	9d14      	ldr	r5, [sp, #80]	@ 0x50
 80085b4:	e665      	b.n	8008282 <_dtoa_r+0x872>
 80085b6:	9b0e      	ldr	r3, [sp, #56]	@ 0x38
 80085b8:	2b00      	cmp	r3, #0
 80085ba:	dc00      	bgt.n	80085be <_dtoa_r+0xbae>
 80085bc:	e6a9      	b.n	8008312 <_dtoa_r+0x902>
 80085be:	2400      	movs	r4, #0
 80085c0:	0031      	movs	r1, r6
 80085c2:	9805      	ldr	r0, [sp, #20]
 80085c4:	f7ff f99e 	bl	8007904 <quorem>
 80085c8:	9b08      	ldr	r3, [sp, #32]
 80085ca:	3030      	adds	r0, #48	@ 0x30
 80085cc:	5518      	strb	r0, [r3, r4]
 80085ce:	9b0e      	ldr	r3, [sp, #56]	@ 0x38
 80085d0:	3401      	adds	r4, #1
 80085d2:	0005      	movs	r5, r0
 80085d4:	42a3      	cmp	r3, r4
 80085d6:	ddb6      	ble.n	8008546 <_dtoa_r+0xb36>
 80085d8:	2300      	movs	r3, #0
 80085da:	220a      	movs	r2, #10
 80085dc:	9905      	ldr	r1, [sp, #20]
 80085de:	9803      	ldr	r0, [sp, #12]
 80085e0:	f000 f974 	bl	80088cc <__multadd>
 80085e4:	9005      	str	r0, [sp, #20]
 80085e6:	e7eb      	b.n	80085c0 <_dtoa_r+0xbb0>
 80085e8:	0800990c 	.word	0x0800990c
 80085ec:	08009914 	.word	0x08009914

080085f0 <_free_r>:
 80085f0:	b570      	push	{r4, r5, r6, lr}
 80085f2:	0005      	movs	r5, r0
 80085f4:	1e0c      	subs	r4, r1, #0
 80085f6:	d010      	beq.n	800861a <_free_r+0x2a>
 80085f8:	3c04      	subs	r4, #4
 80085fa:	6823      	ldr	r3, [r4, #0]
 80085fc:	2b00      	cmp	r3, #0
 80085fe:	da00      	bge.n	8008602 <_free_r+0x12>
 8008600:	18e4      	adds	r4, r4, r3
 8008602:	0028      	movs	r0, r5
 8008604:	f000 f8ea 	bl	80087dc <__malloc_lock>
 8008608:	4a1d      	ldr	r2, [pc, #116]	@ (8008680 <_free_r+0x90>)
 800860a:	6813      	ldr	r3, [r2, #0]
 800860c:	2b00      	cmp	r3, #0
 800860e:	d105      	bne.n	800861c <_free_r+0x2c>
 8008610:	6063      	str	r3, [r4, #4]
 8008612:	6014      	str	r4, [r2, #0]
 8008614:	0028      	movs	r0, r5
 8008616:	f000 f8e9 	bl	80087ec <__malloc_unlock>
 800861a:	bd70      	pop	{r4, r5, r6, pc}
 800861c:	42a3      	cmp	r3, r4
 800861e:	d908      	bls.n	8008632 <_free_r+0x42>
 8008620:	6820      	ldr	r0, [r4, #0]
 8008622:	1821      	adds	r1, r4, r0
 8008624:	428b      	cmp	r3, r1
 8008626:	d1f3      	bne.n	8008610 <_free_r+0x20>
 8008628:	6819      	ldr	r1, [r3, #0]
 800862a:	685b      	ldr	r3, [r3, #4]
 800862c:	1809      	adds	r1, r1, r0
 800862e:	6021      	str	r1, [r4, #0]
 8008630:	e7ee      	b.n	8008610 <_free_r+0x20>
 8008632:	001a      	movs	r2, r3
 8008634:	685b      	ldr	r3, [r3, #4]
 8008636:	2b00      	cmp	r3, #0
 8008638:	d001      	beq.n	800863e <_free_r+0x4e>
 800863a:	42a3      	cmp	r3, r4
 800863c:	d9f9      	bls.n	8008632 <_free_r+0x42>
 800863e:	6811      	ldr	r1, [r2, #0]
 8008640:	1850      	adds	r0, r2, r1
 8008642:	42a0      	cmp	r0, r4
 8008644:	d10b      	bne.n	800865e <_free_r+0x6e>
 8008646:	6820      	ldr	r0, [r4, #0]
 8008648:	1809      	adds	r1, r1, r0
 800864a:	1850      	adds	r0, r2, r1
 800864c:	6011      	str	r1, [r2, #0]
 800864e:	4283      	cmp	r3, r0
 8008650:	d1e0      	bne.n	8008614 <_free_r+0x24>
 8008652:	6818      	ldr	r0, [r3, #0]
 8008654:	685b      	ldr	r3, [r3, #4]
 8008656:	1841      	adds	r1, r0, r1
 8008658:	6011      	str	r1, [r2, #0]
 800865a:	6053      	str	r3, [r2, #4]
 800865c:	e7da      	b.n	8008614 <_free_r+0x24>
 800865e:	42a0      	cmp	r0, r4
 8008660:	d902      	bls.n	8008668 <_free_r+0x78>
 8008662:	230c      	movs	r3, #12
 8008664:	602b      	str	r3, [r5, #0]
 8008666:	e7d5      	b.n	8008614 <_free_r+0x24>
 8008668:	6820      	ldr	r0, [r4, #0]
 800866a:	1821      	adds	r1, r4, r0
 800866c:	428b      	cmp	r3, r1
 800866e:	d103      	bne.n	8008678 <_free_r+0x88>
 8008670:	6819      	ldr	r1, [r3, #0]
 8008672:	685b      	ldr	r3, [r3, #4]
 8008674:	1809      	adds	r1, r1, r0
 8008676:	6021      	str	r1, [r4, #0]
 8008678:	6063      	str	r3, [r4, #4]
 800867a:	6054      	str	r4, [r2, #4]
 800867c:	e7ca      	b.n	8008614 <_free_r+0x24>
 800867e:	46c0      	nop			@ (mov r8, r8)
 8008680:	20000548 	.word	0x20000548

08008684 <malloc>:
 8008684:	b510      	push	{r4, lr}
 8008686:	4b03      	ldr	r3, [pc, #12]	@ (8008694 <malloc+0x10>)
 8008688:	0001      	movs	r1, r0
 800868a:	6818      	ldr	r0, [r3, #0]
 800868c:	f000 f826 	bl	80086dc <_malloc_r>
 8008690:	bd10      	pop	{r4, pc}
 8008692:	46c0      	nop			@ (mov r8, r8)
 8008694:	2000001c 	.word	0x2000001c

08008698 <sbrk_aligned>:
 8008698:	b570      	push	{r4, r5, r6, lr}
 800869a:	4e0f      	ldr	r6, [pc, #60]	@ (80086d8 <sbrk_aligned+0x40>)
 800869c:	000d      	movs	r5, r1
 800869e:	6831      	ldr	r1, [r6, #0]
 80086a0:	0004      	movs	r4, r0
 80086a2:	2900      	cmp	r1, #0
 80086a4:	d102      	bne.n	80086ac <sbrk_aligned+0x14>
 80086a6:	f000 fecb 	bl	8009440 <_sbrk_r>
 80086aa:	6030      	str	r0, [r6, #0]
 80086ac:	0029      	movs	r1, r5
 80086ae:	0020      	movs	r0, r4
 80086b0:	f000 fec6 	bl	8009440 <_sbrk_r>
 80086b4:	1c43      	adds	r3, r0, #1
 80086b6:	d103      	bne.n	80086c0 <sbrk_aligned+0x28>
 80086b8:	2501      	movs	r5, #1
 80086ba:	426d      	negs	r5, r5
 80086bc:	0028      	movs	r0, r5
 80086be:	bd70      	pop	{r4, r5, r6, pc}
 80086c0:	2303      	movs	r3, #3
 80086c2:	1cc5      	adds	r5, r0, #3
 80086c4:	439d      	bics	r5, r3
 80086c6:	42a8      	cmp	r0, r5
 80086c8:	d0f8      	beq.n	80086bc <sbrk_aligned+0x24>
 80086ca:	1a29      	subs	r1, r5, r0
 80086cc:	0020      	movs	r0, r4
 80086ce:	f000 feb7 	bl	8009440 <_sbrk_r>
 80086d2:	3001      	adds	r0, #1
 80086d4:	d1f2      	bne.n	80086bc <sbrk_aligned+0x24>
 80086d6:	e7ef      	b.n	80086b8 <sbrk_aligned+0x20>
 80086d8:	20000544 	.word	0x20000544

080086dc <_malloc_r>:
 80086dc:	b5f7      	push	{r0, r1, r2, r4, r5, r6, r7, lr}
 80086de:	2203      	movs	r2, #3
 80086e0:	1ccb      	adds	r3, r1, #3
 80086e2:	4393      	bics	r3, r2
 80086e4:	3308      	adds	r3, #8
 80086e6:	0005      	movs	r5, r0
 80086e8:	001f      	movs	r7, r3
 80086ea:	2b0c      	cmp	r3, #12
 80086ec:	d234      	bcs.n	8008758 <_malloc_r+0x7c>
 80086ee:	270c      	movs	r7, #12
 80086f0:	42b9      	cmp	r1, r7
 80086f2:	d833      	bhi.n	800875c <_malloc_r+0x80>
 80086f4:	0028      	movs	r0, r5
 80086f6:	f000 f871 	bl	80087dc <__malloc_lock>
 80086fa:	4e37      	ldr	r6, [pc, #220]	@ (80087d8 <_malloc_r+0xfc>)
 80086fc:	6833      	ldr	r3, [r6, #0]
 80086fe:	001c      	movs	r4, r3
 8008700:	2c00      	cmp	r4, #0
 8008702:	d12f      	bne.n	8008764 <_malloc_r+0x88>
 8008704:	0039      	movs	r1, r7
 8008706:	0028      	movs	r0, r5
 8008708:	f7ff ffc6 	bl	8008698 <sbrk_aligned>
 800870c:	0004      	movs	r4, r0
 800870e:	1c43      	adds	r3, r0, #1
 8008710:	d15f      	bne.n	80087d2 <_malloc_r+0xf6>
 8008712:	6834      	ldr	r4, [r6, #0]
 8008714:	9400      	str	r4, [sp, #0]
 8008716:	9b00      	ldr	r3, [sp, #0]
 8008718:	2b00      	cmp	r3, #0
 800871a:	d14a      	bne.n	80087b2 <_malloc_r+0xd6>
 800871c:	2c00      	cmp	r4, #0
 800871e:	d052      	beq.n	80087c6 <_malloc_r+0xea>
 8008720:	6823      	ldr	r3, [r4, #0]
 8008722:	0028      	movs	r0, r5
 8008724:	18e3      	adds	r3, r4, r3
 8008726:	9900      	ldr	r1, [sp, #0]
 8008728:	9301      	str	r3, [sp, #4]
 800872a:	f000 fe89 	bl	8009440 <_sbrk_r>
 800872e:	9b01      	ldr	r3, [sp, #4]
 8008730:	4283      	cmp	r3, r0
 8008732:	d148      	bne.n	80087c6 <_malloc_r+0xea>
 8008734:	6823      	ldr	r3, [r4, #0]
 8008736:	0028      	movs	r0, r5
 8008738:	1aff      	subs	r7, r7, r3
 800873a:	0039      	movs	r1, r7
 800873c:	f7ff ffac 	bl	8008698 <sbrk_aligned>
 8008740:	3001      	adds	r0, #1
 8008742:	d040      	beq.n	80087c6 <_malloc_r+0xea>
 8008744:	6823      	ldr	r3, [r4, #0]
 8008746:	19db      	adds	r3, r3, r7
 8008748:	6023      	str	r3, [r4, #0]
 800874a:	6833      	ldr	r3, [r6, #0]
 800874c:	685a      	ldr	r2, [r3, #4]
 800874e:	2a00      	cmp	r2, #0
 8008750:	d133      	bne.n	80087ba <_malloc_r+0xde>
 8008752:	9b00      	ldr	r3, [sp, #0]
 8008754:	6033      	str	r3, [r6, #0]
 8008756:	e019      	b.n	800878c <_malloc_r+0xb0>
 8008758:	2b00      	cmp	r3, #0
 800875a:	dac9      	bge.n	80086f0 <_malloc_r+0x14>
 800875c:	230c      	movs	r3, #12
 800875e:	602b      	str	r3, [r5, #0]
 8008760:	2000      	movs	r0, #0
 8008762:	bdfe      	pop	{r1, r2, r3, r4, r5, r6, r7, pc}
 8008764:	6821      	ldr	r1, [r4, #0]
 8008766:	1bc9      	subs	r1, r1, r7
 8008768:	d420      	bmi.n	80087ac <_malloc_r+0xd0>
 800876a:	290b      	cmp	r1, #11
 800876c:	d90a      	bls.n	8008784 <_malloc_r+0xa8>
 800876e:	19e2      	adds	r2, r4, r7
 8008770:	6027      	str	r7, [r4, #0]
 8008772:	42a3      	cmp	r3, r4
 8008774:	d104      	bne.n	8008780 <_malloc_r+0xa4>
 8008776:	6032      	str	r2, [r6, #0]
 8008778:	6863      	ldr	r3, [r4, #4]
 800877a:	6011      	str	r1, [r2, #0]
 800877c:	6053      	str	r3, [r2, #4]
 800877e:	e005      	b.n	800878c <_malloc_r+0xb0>
 8008780:	605a      	str	r2, [r3, #4]
 8008782:	e7f9      	b.n	8008778 <_malloc_r+0x9c>
 8008784:	6862      	ldr	r2, [r4, #4]
 8008786:	42a3      	cmp	r3, r4
 8008788:	d10e      	bne.n	80087a8 <_malloc_r+0xcc>
 800878a:	6032      	str	r2, [r6, #0]
 800878c:	0028      	movs	r0, r5
 800878e:	f000 f82d 	bl	80087ec <__malloc_unlock>
 8008792:	0020      	movs	r0, r4
 8008794:	2207      	movs	r2, #7
 8008796:	300b      	adds	r0, #11
 8008798:	1d23      	adds	r3, r4, #4
 800879a:	4390      	bics	r0, r2
 800879c:	1ac2      	subs	r2, r0, r3
 800879e:	4298      	cmp	r0, r3
 80087a0:	d0df      	beq.n	8008762 <_malloc_r+0x86>
 80087a2:	1a1b      	subs	r3, r3, r0
 80087a4:	50a3      	str	r3, [r4, r2]
 80087a6:	e7dc      	b.n	8008762 <_malloc_r+0x86>
 80087a8:	605a      	str	r2, [r3, #4]
 80087aa:	e7ef      	b.n	800878c <_malloc_r+0xb0>
 80087ac:	0023      	movs	r3, r4
 80087ae:	6864      	ldr	r4, [r4, #4]
 80087b0:	e7a6      	b.n	8008700 <_malloc_r+0x24>
 80087b2:	9c00      	ldr	r4, [sp, #0]
 80087b4:	6863      	ldr	r3, [r4, #4]
 80087b6:	9300      	str	r3, [sp, #0]
 80087b8:	e7ad      	b.n	8008716 <_malloc_r+0x3a>
 80087ba:	001a      	movs	r2, r3
 80087bc:	685b      	ldr	r3, [r3, #4]
 80087be:	42a3      	cmp	r3, r4
 80087c0:	d1fb      	bne.n	80087ba <_malloc_r+0xde>
 80087c2:	2300      	movs	r3, #0
 80087c4:	e7da      	b.n	800877c <_malloc_r+0xa0>
 80087c6:	230c      	movs	r3, #12
 80087c8:	0028      	movs	r0, r5
 80087ca:	602b      	str	r3, [r5, #0]
 80087cc:	f000 f80e 	bl	80087ec <__malloc_unlock>
 80087d0:	e7c6      	b.n	8008760 <_malloc_r+0x84>
 80087d2:	6007      	str	r7, [r0, #0]
 80087d4:	e7da      	b.n	800878c <_malloc_r+0xb0>
 80087d6:	46c0      	nop			@ (mov r8, r8)
 80087d8:	20000548 	.word	0x20000548

080087dc <__malloc_lock>:
 80087dc:	b510      	push	{r4, lr}
 80087de:	4802      	ldr	r0, [pc, #8]	@ (80087e8 <__malloc_lock+0xc>)
 80087e0:	f7ff f883 	bl	80078ea <__retarget_lock_acquire_recursive>
 80087e4:	bd10      	pop	{r4, pc}
 80087e6:	46c0      	nop			@ (mov r8, r8)
 80087e8:	20000540 	.word	0x20000540

080087ec <__malloc_unlock>:
 80087ec:	b510      	push	{r4, lr}
 80087ee:	4802      	ldr	r0, [pc, #8]	@ (80087f8 <__malloc_unlock+0xc>)
 80087f0:	f7ff f87c 	bl	80078ec <__retarget_lock_release_recursive>
 80087f4:	bd10      	pop	{r4, pc}
 80087f6:	46c0      	nop			@ (mov r8, r8)
 80087f8:	20000540 	.word	0x20000540

080087fc <_Balloc>:
 80087fc:	b570      	push	{r4, r5, r6, lr}
 80087fe:	69c5      	ldr	r5, [r0, #28]
 8008800:	0006      	movs	r6, r0
 8008802:	000c      	movs	r4, r1
 8008804:	2d00      	cmp	r5, #0
 8008806:	d10e      	bne.n	8008826 <_Balloc+0x2a>
 8008808:	2010      	movs	r0, #16
 800880a:	f7ff ff3b 	bl	8008684 <malloc>
 800880e:	1e02      	subs	r2, r0, #0
 8008810:	61f0      	str	r0, [r6, #28]
 8008812:	d104      	bne.n	800881e <_Balloc+0x22>
 8008814:	216b      	movs	r1, #107	@ 0x6b
 8008816:	4b19      	ldr	r3, [pc, #100]	@ (800887c <_Balloc+0x80>)
 8008818:	4819      	ldr	r0, [pc, #100]	@ (8008880 <_Balloc+0x84>)
 800881a:	f000 fe2d 	bl	8009478 <__assert_func>
 800881e:	6045      	str	r5, [r0, #4]
 8008820:	6085      	str	r5, [r0, #8]
 8008822:	6005      	str	r5, [r0, #0]
 8008824:	60c5      	str	r5, [r0, #12]
 8008826:	69f5      	ldr	r5, [r6, #28]
 8008828:	68eb      	ldr	r3, [r5, #12]
 800882a:	2b00      	cmp	r3, #0
 800882c:	d013      	beq.n	8008856 <_Balloc+0x5a>
 800882e:	69f3      	ldr	r3, [r6, #28]
 8008830:	00a2      	lsls	r2, r4, #2
 8008832:	68db      	ldr	r3, [r3, #12]
 8008834:	189b      	adds	r3, r3, r2
 8008836:	6818      	ldr	r0, [r3, #0]
 8008838:	2800      	cmp	r0, #0
 800883a:	d118      	bne.n	800886e <_Balloc+0x72>
 800883c:	2101      	movs	r1, #1
 800883e:	000d      	movs	r5, r1
 8008840:	40a5      	lsls	r5, r4
 8008842:	1d6a      	adds	r2, r5, #5
 8008844:	0030      	movs	r0, r6
 8008846:	0092      	lsls	r2, r2, #2
 8008848:	f000 fe34 	bl	80094b4 <_calloc_r>
 800884c:	2800      	cmp	r0, #0
 800884e:	d00c      	beq.n	800886a <_Balloc+0x6e>
 8008850:	6044      	str	r4, [r0, #4]
 8008852:	6085      	str	r5, [r0, #8]
 8008854:	e00d      	b.n	8008872 <_Balloc+0x76>
 8008856:	2221      	movs	r2, #33	@ 0x21
 8008858:	2104      	movs	r1, #4
 800885a:	0030      	movs	r0, r6
 800885c:	f000 fe2a 	bl	80094b4 <_calloc_r>
 8008860:	69f3      	ldr	r3, [r6, #28]
 8008862:	60e8      	str	r0, [r5, #12]
 8008864:	68db      	ldr	r3, [r3, #12]
 8008866:	2b00      	cmp	r3, #0
 8008868:	d1e1      	bne.n	800882e <_Balloc+0x32>
 800886a:	2000      	movs	r0, #0
 800886c:	bd70      	pop	{r4, r5, r6, pc}
 800886e:	6802      	ldr	r2, [r0, #0]
 8008870:	601a      	str	r2, [r3, #0]
 8008872:	2300      	movs	r3, #0
 8008874:	6103      	str	r3, [r0, #16]
 8008876:	60c3      	str	r3, [r0, #12]
 8008878:	e7f8      	b.n	800886c <_Balloc+0x70>
 800887a:	46c0      	nop			@ (mov r8, r8)
 800887c:	08009919 	.word	0x08009919
 8008880:	08009999 	.word	0x08009999

08008884 <_Bfree>:
 8008884:	b570      	push	{r4, r5, r6, lr}
 8008886:	69c6      	ldr	r6, [r0, #28]
 8008888:	0005      	movs	r5, r0
 800888a:	000c      	movs	r4, r1
 800888c:	2e00      	cmp	r6, #0
 800888e:	d10e      	bne.n	80088ae <_Bfree+0x2a>
 8008890:	2010      	movs	r0, #16
 8008892:	f7ff fef7 	bl	8008684 <malloc>
 8008896:	1e02      	subs	r2, r0, #0
 8008898:	61e8      	str	r0, [r5, #28]
 800889a:	d104      	bne.n	80088a6 <_Bfree+0x22>
 800889c:	218f      	movs	r1, #143	@ 0x8f
 800889e:	4b09      	ldr	r3, [pc, #36]	@ (80088c4 <_Bfree+0x40>)
 80088a0:	4809      	ldr	r0, [pc, #36]	@ (80088c8 <_Bfree+0x44>)
 80088a2:	f000 fde9 	bl	8009478 <__assert_func>
 80088a6:	6046      	str	r6, [r0, #4]
 80088a8:	6086      	str	r6, [r0, #8]
 80088aa:	6006      	str	r6, [r0, #0]
 80088ac:	60c6      	str	r6, [r0, #12]
 80088ae:	2c00      	cmp	r4, #0
 80088b0:	d007      	beq.n	80088c2 <_Bfree+0x3e>
 80088b2:	69eb      	ldr	r3, [r5, #28]
 80088b4:	6862      	ldr	r2, [r4, #4]
 80088b6:	68db      	ldr	r3, [r3, #12]
 80088b8:	0092      	lsls	r2, r2, #2
 80088ba:	189b      	adds	r3, r3, r2
 80088bc:	681a      	ldr	r2, [r3, #0]
 80088be:	6022      	str	r2, [r4, #0]
 80088c0:	601c      	str	r4, [r3, #0]
 80088c2:	bd70      	pop	{r4, r5, r6, pc}
 80088c4:	08009919 	.word	0x08009919
 80088c8:	08009999 	.word	0x08009999

080088cc <__multadd>:
 80088cc:	b5f7      	push	{r0, r1, r2, r4, r5, r6, r7, lr}
 80088ce:	000f      	movs	r7, r1
 80088d0:	9001      	str	r0, [sp, #4]
 80088d2:	000c      	movs	r4, r1
 80088d4:	001e      	movs	r6, r3
 80088d6:	2000      	movs	r0, #0
 80088d8:	690d      	ldr	r5, [r1, #16]
 80088da:	3714      	adds	r7, #20
 80088dc:	683b      	ldr	r3, [r7, #0]
 80088de:	3001      	adds	r0, #1
 80088e0:	b299      	uxth	r1, r3
 80088e2:	4351      	muls	r1, r2
 80088e4:	0c1b      	lsrs	r3, r3, #16
 80088e6:	4353      	muls	r3, r2
 80088e8:	1989      	adds	r1, r1, r6
 80088ea:	0c0e      	lsrs	r6, r1, #16
 80088ec:	199b      	adds	r3, r3, r6
 80088ee:	0c1e      	lsrs	r6, r3, #16
 80088f0:	b289      	uxth	r1, r1
 80088f2:	041b      	lsls	r3, r3, #16
 80088f4:	185b      	adds	r3, r3, r1
 80088f6:	c708      	stmia	r7!, {r3}
 80088f8:	4285      	cmp	r5, r0
 80088fa:	dcef      	bgt.n	80088dc <__multadd+0x10>
 80088fc:	2e00      	cmp	r6, #0
 80088fe:	d022      	beq.n	8008946 <__multadd+0x7a>
 8008900:	68a3      	ldr	r3, [r4, #8]
 8008902:	42ab      	cmp	r3, r5
 8008904:	dc19      	bgt.n	800893a <__multadd+0x6e>
 8008906:	6861      	ldr	r1, [r4, #4]
 8008908:	9801      	ldr	r0, [sp, #4]
 800890a:	3101      	adds	r1, #1
 800890c:	f7ff ff76 	bl	80087fc <_Balloc>
 8008910:	1e07      	subs	r7, r0, #0
 8008912:	d105      	bne.n	8008920 <__multadd+0x54>
 8008914:	003a      	movs	r2, r7
 8008916:	21ba      	movs	r1, #186	@ 0xba
 8008918:	4b0c      	ldr	r3, [pc, #48]	@ (800894c <__multadd+0x80>)
 800891a:	480d      	ldr	r0, [pc, #52]	@ (8008950 <__multadd+0x84>)
 800891c:	f000 fdac 	bl	8009478 <__assert_func>
 8008920:	0021      	movs	r1, r4
 8008922:	6922      	ldr	r2, [r4, #16]
 8008924:	310c      	adds	r1, #12
 8008926:	3202      	adds	r2, #2
 8008928:	0092      	lsls	r2, r2, #2
 800892a:	300c      	adds	r0, #12
 800892c:	f000 fd9a 	bl	8009464 <memcpy>
 8008930:	0021      	movs	r1, r4
 8008932:	9801      	ldr	r0, [sp, #4]
 8008934:	f7ff ffa6 	bl	8008884 <_Bfree>
 8008938:	003c      	movs	r4, r7
 800893a:	1d2b      	adds	r3, r5, #4
 800893c:	009b      	lsls	r3, r3, #2
 800893e:	18e3      	adds	r3, r4, r3
 8008940:	3501      	adds	r5, #1
 8008942:	605e      	str	r6, [r3, #4]
 8008944:	6125      	str	r5, [r4, #16]
 8008946:	0020      	movs	r0, r4
 8008948:	bdfe      	pop	{r1, r2, r3, r4, r5, r6, r7, pc}
 800894a:	46c0      	nop			@ (mov r8, r8)
 800894c:	08009988 	.word	0x08009988
 8008950:	08009999 	.word	0x08009999

08008954 <__hi0bits>:
 8008954:	2280      	movs	r2, #128	@ 0x80
 8008956:	0003      	movs	r3, r0
 8008958:	0252      	lsls	r2, r2, #9
 800895a:	2000      	movs	r0, #0
 800895c:	4293      	cmp	r3, r2
 800895e:	d201      	bcs.n	8008964 <__hi0bits+0x10>
 8008960:	041b      	lsls	r3, r3, #16
 8008962:	3010      	adds	r0, #16
 8008964:	2280      	movs	r2, #128	@ 0x80
 8008966:	0452      	lsls	r2, r2, #17
 8008968:	4293      	cmp	r3, r2
 800896a:	d201      	bcs.n	8008970 <__hi0bits+0x1c>
 800896c:	3008      	adds	r0, #8
 800896e:	021b      	lsls	r3, r3, #8
 8008970:	2280      	movs	r2, #128	@ 0x80
 8008972:	0552      	lsls	r2, r2, #21
 8008974:	4293      	cmp	r3, r2
 8008976:	d201      	bcs.n	800897c <__hi0bits+0x28>
 8008978:	3004      	adds	r0, #4
 800897a:	011b      	lsls	r3, r3, #4
 800897c:	2280      	movs	r2, #128	@ 0x80
 800897e:	05d2      	lsls	r2, r2, #23
 8008980:	4293      	cmp	r3, r2
 8008982:	d201      	bcs.n	8008988 <__hi0bits+0x34>
 8008984:	3002      	adds	r0, #2
 8008986:	009b      	lsls	r3, r3, #2
 8008988:	2b00      	cmp	r3, #0
 800898a:	db03      	blt.n	8008994 <__hi0bits+0x40>
 800898c:	3001      	adds	r0, #1
 800898e:	4213      	tst	r3, r2
 8008990:	d100      	bne.n	8008994 <__hi0bits+0x40>
 8008992:	2020      	movs	r0, #32
 8008994:	4770      	bx	lr

08008996 <__lo0bits>:
 8008996:	6803      	ldr	r3, [r0, #0]
 8008998:	0001      	movs	r1, r0
 800899a:	2207      	movs	r2, #7
 800899c:	0018      	movs	r0, r3
 800899e:	4010      	ands	r0, r2
 80089a0:	4213      	tst	r3, r2
 80089a2:	d00d      	beq.n	80089c0 <__lo0bits+0x2a>
 80089a4:	3a06      	subs	r2, #6
 80089a6:	2000      	movs	r0, #0
 80089a8:	4213      	tst	r3, r2
 80089aa:	d105      	bne.n	80089b8 <__lo0bits+0x22>
 80089ac:	3002      	adds	r0, #2
 80089ae:	4203      	tst	r3, r0
 80089b0:	d003      	beq.n	80089ba <__lo0bits+0x24>
 80089b2:	40d3      	lsrs	r3, r2
 80089b4:	0010      	movs	r0, r2
 80089b6:	600b      	str	r3, [r1, #0]
 80089b8:	4770      	bx	lr
 80089ba:	089b      	lsrs	r3, r3, #2
 80089bc:	600b      	str	r3, [r1, #0]
 80089be:	e7fb      	b.n	80089b8 <__lo0bits+0x22>
 80089c0:	b29a      	uxth	r2, r3
 80089c2:	2a00      	cmp	r2, #0
 80089c4:	d101      	bne.n	80089ca <__lo0bits+0x34>
 80089c6:	2010      	movs	r0, #16
 80089c8:	0c1b      	lsrs	r3, r3, #16
 80089ca:	b2da      	uxtb	r2, r3
 80089cc:	2a00      	cmp	r2, #0
 80089ce:	d101      	bne.n	80089d4 <__lo0bits+0x3e>
 80089d0:	3008      	adds	r0, #8
 80089d2:	0a1b      	lsrs	r3, r3, #8
 80089d4:	071a      	lsls	r2, r3, #28
 80089d6:	d101      	bne.n	80089dc <__lo0bits+0x46>
 80089d8:	3004      	adds	r0, #4
 80089da:	091b      	lsrs	r3, r3, #4
 80089dc:	079a      	lsls	r2, r3, #30
 80089de:	d101      	bne.n	80089e4 <__lo0bits+0x4e>
 80089e0:	3002      	adds	r0, #2
 80089e2:	089b      	lsrs	r3, r3, #2
 80089e4:	07da      	lsls	r2, r3, #31
 80089e6:	d4e9      	bmi.n	80089bc <__lo0bits+0x26>
 80089e8:	3001      	adds	r0, #1
 80089ea:	085b      	lsrs	r3, r3, #1
 80089ec:	d1e6      	bne.n	80089bc <__lo0bits+0x26>
 80089ee:	2020      	movs	r0, #32
 80089f0:	e7e2      	b.n	80089b8 <__lo0bits+0x22>
	...

080089f4 <__i2b>:
 80089f4:	b510      	push	{r4, lr}
 80089f6:	000c      	movs	r4, r1
 80089f8:	2101      	movs	r1, #1
 80089fa:	f7ff feff 	bl	80087fc <_Balloc>
 80089fe:	2800      	cmp	r0, #0
 8008a00:	d107      	bne.n	8008a12 <__i2b+0x1e>
 8008a02:	2146      	movs	r1, #70	@ 0x46
 8008a04:	4c05      	ldr	r4, [pc, #20]	@ (8008a1c <__i2b+0x28>)
 8008a06:	0002      	movs	r2, r0
 8008a08:	4b05      	ldr	r3, [pc, #20]	@ (8008a20 <__i2b+0x2c>)
 8008a0a:	0020      	movs	r0, r4
 8008a0c:	31ff      	adds	r1, #255	@ 0xff
 8008a0e:	f000 fd33 	bl	8009478 <__assert_func>
 8008a12:	2301      	movs	r3, #1
 8008a14:	6144      	str	r4, [r0, #20]
 8008a16:	6103      	str	r3, [r0, #16]
 8008a18:	bd10      	pop	{r4, pc}
 8008a1a:	46c0      	nop			@ (mov r8, r8)
 8008a1c:	08009999 	.word	0x08009999
 8008a20:	08009988 	.word	0x08009988

08008a24 <__multiply>:
 8008a24:	b5f0      	push	{r4, r5, r6, r7, lr}
 8008a26:	0014      	movs	r4, r2
 8008a28:	690a      	ldr	r2, [r1, #16]
 8008a2a:	6923      	ldr	r3, [r4, #16]
 8008a2c:	000d      	movs	r5, r1
 8008a2e:	b089      	sub	sp, #36	@ 0x24
 8008a30:	429a      	cmp	r2, r3
 8008a32:	db02      	blt.n	8008a3a <__multiply+0x16>
 8008a34:	0023      	movs	r3, r4
 8008a36:	000c      	movs	r4, r1
 8008a38:	001d      	movs	r5, r3
 8008a3a:	6927      	ldr	r7, [r4, #16]
 8008a3c:	692e      	ldr	r6, [r5, #16]
 8008a3e:	6861      	ldr	r1, [r4, #4]
 8008a40:	19bb      	adds	r3, r7, r6
 8008a42:	9300      	str	r3, [sp, #0]
 8008a44:	68a3      	ldr	r3, [r4, #8]
 8008a46:	19ba      	adds	r2, r7, r6
 8008a48:	4293      	cmp	r3, r2
 8008a4a:	da00      	bge.n	8008a4e <__multiply+0x2a>
 8008a4c:	3101      	adds	r1, #1
 8008a4e:	f7ff fed5 	bl	80087fc <_Balloc>
 8008a52:	4684      	mov	ip, r0
 8008a54:	2800      	cmp	r0, #0
 8008a56:	d106      	bne.n	8008a66 <__multiply+0x42>
 8008a58:	21b1      	movs	r1, #177	@ 0xb1
 8008a5a:	4662      	mov	r2, ip
 8008a5c:	4b44      	ldr	r3, [pc, #272]	@ (8008b70 <__multiply+0x14c>)
 8008a5e:	4845      	ldr	r0, [pc, #276]	@ (8008b74 <__multiply+0x150>)
 8008a60:	0049      	lsls	r1, r1, #1
 8008a62:	f000 fd09 	bl	8009478 <__assert_func>
 8008a66:	0002      	movs	r2, r0
 8008a68:	19bb      	adds	r3, r7, r6
 8008a6a:	3214      	adds	r2, #20
 8008a6c:	009b      	lsls	r3, r3, #2
 8008a6e:	18d3      	adds	r3, r2, r3
 8008a70:	9301      	str	r3, [sp, #4]
 8008a72:	2100      	movs	r1, #0
 8008a74:	0013      	movs	r3, r2
 8008a76:	9801      	ldr	r0, [sp, #4]
 8008a78:	4283      	cmp	r3, r0
 8008a7a:	d328      	bcc.n	8008ace <__multiply+0xaa>
 8008a7c:	0023      	movs	r3, r4
 8008a7e:	00bf      	lsls	r7, r7, #2
 8008a80:	3314      	adds	r3, #20
 8008a82:	9304      	str	r3, [sp, #16]
 8008a84:	3514      	adds	r5, #20
 8008a86:	19db      	adds	r3, r3, r7
 8008a88:	00b6      	lsls	r6, r6, #2
 8008a8a:	9302      	str	r3, [sp, #8]
 8008a8c:	19ab      	adds	r3, r5, r6
 8008a8e:	9307      	str	r3, [sp, #28]
 8008a90:	2304      	movs	r3, #4
 8008a92:	9305      	str	r3, [sp, #20]
 8008a94:	0023      	movs	r3, r4
 8008a96:	9902      	ldr	r1, [sp, #8]
 8008a98:	3315      	adds	r3, #21
 8008a9a:	4299      	cmp	r1, r3
 8008a9c:	d305      	bcc.n	8008aaa <__multiply+0x86>
 8008a9e:	1b0c      	subs	r4, r1, r4
 8008aa0:	3c15      	subs	r4, #21
 8008aa2:	08a4      	lsrs	r4, r4, #2
 8008aa4:	3401      	adds	r4, #1
 8008aa6:	00a3      	lsls	r3, r4, #2
 8008aa8:	9305      	str	r3, [sp, #20]
 8008aaa:	9b07      	ldr	r3, [sp, #28]
 8008aac:	429d      	cmp	r5, r3
 8008aae:	d310      	bcc.n	8008ad2 <__multiply+0xae>
 8008ab0:	9b00      	ldr	r3, [sp, #0]
 8008ab2:	2b00      	cmp	r3, #0
 8008ab4:	dd05      	ble.n	8008ac2 <__multiply+0x9e>
 8008ab6:	9b01      	ldr	r3, [sp, #4]
 8008ab8:	3b04      	subs	r3, #4
 8008aba:	9301      	str	r3, [sp, #4]
 8008abc:	681b      	ldr	r3, [r3, #0]
 8008abe:	2b00      	cmp	r3, #0
 8008ac0:	d052      	beq.n	8008b68 <__multiply+0x144>
 8008ac2:	4663      	mov	r3, ip
 8008ac4:	4660      	mov	r0, ip
 8008ac6:	9a00      	ldr	r2, [sp, #0]
 8008ac8:	611a      	str	r2, [r3, #16]
 8008aca:	b009      	add	sp, #36	@ 0x24
 8008acc:	bdf0      	pop	{r4, r5, r6, r7, pc}
 8008ace:	c302      	stmia	r3!, {r1}
 8008ad0:	e7d1      	b.n	8008a76 <__multiply+0x52>
 8008ad2:	682c      	ldr	r4, [r5, #0]
 8008ad4:	b2a4      	uxth	r4, r4
 8008ad6:	2c00      	cmp	r4, #0
 8008ad8:	d01f      	beq.n	8008b1a <__multiply+0xf6>
 8008ada:	2300      	movs	r3, #0
 8008adc:	0017      	movs	r7, r2
 8008ade:	9e04      	ldr	r6, [sp, #16]
 8008ae0:	9303      	str	r3, [sp, #12]
 8008ae2:	ce08      	ldmia	r6!, {r3}
 8008ae4:	6839      	ldr	r1, [r7, #0]
 8008ae6:	9306      	str	r3, [sp, #24]
 8008ae8:	466b      	mov	r3, sp
 8008aea:	8b1b      	ldrh	r3, [r3, #24]
 8008aec:	b288      	uxth	r0, r1
 8008aee:	4363      	muls	r3, r4
 8008af0:	181b      	adds	r3, r3, r0
 8008af2:	9803      	ldr	r0, [sp, #12]
 8008af4:	0c09      	lsrs	r1, r1, #16
 8008af6:	181b      	adds	r3, r3, r0
 8008af8:	9806      	ldr	r0, [sp, #24]
 8008afa:	0c00      	lsrs	r0, r0, #16
 8008afc:	4360      	muls	r0, r4
 8008afe:	1840      	adds	r0, r0, r1
 8008b00:	0c19      	lsrs	r1, r3, #16
 8008b02:	1841      	adds	r1, r0, r1
 8008b04:	0c08      	lsrs	r0, r1, #16
 8008b06:	b29b      	uxth	r3, r3
 8008b08:	0409      	lsls	r1, r1, #16
 8008b0a:	4319      	orrs	r1, r3
 8008b0c:	9b02      	ldr	r3, [sp, #8]
 8008b0e:	9003      	str	r0, [sp, #12]
 8008b10:	c702      	stmia	r7!, {r1}
 8008b12:	42b3      	cmp	r3, r6
 8008b14:	d8e5      	bhi.n	8008ae2 <__multiply+0xbe>
 8008b16:	9b05      	ldr	r3, [sp, #20]
 8008b18:	50d0      	str	r0, [r2, r3]
 8008b1a:	682c      	ldr	r4, [r5, #0]
 8008b1c:	0c24      	lsrs	r4, r4, #16
 8008b1e:	d020      	beq.n	8008b62 <__multiply+0x13e>
 8008b20:	2100      	movs	r1, #0
 8008b22:	0010      	movs	r0, r2
 8008b24:	6813      	ldr	r3, [r2, #0]
 8008b26:	9e04      	ldr	r6, [sp, #16]
 8008b28:	9103      	str	r1, [sp, #12]
 8008b2a:	6831      	ldr	r1, [r6, #0]
 8008b2c:	6807      	ldr	r7, [r0, #0]
 8008b2e:	b289      	uxth	r1, r1
 8008b30:	4361      	muls	r1, r4
 8008b32:	0c3f      	lsrs	r7, r7, #16
 8008b34:	19c9      	adds	r1, r1, r7
 8008b36:	9f03      	ldr	r7, [sp, #12]
 8008b38:	b29b      	uxth	r3, r3
 8008b3a:	19c9      	adds	r1, r1, r7
 8008b3c:	040f      	lsls	r7, r1, #16
 8008b3e:	431f      	orrs	r7, r3
 8008b40:	6007      	str	r7, [r0, #0]
 8008b42:	ce80      	ldmia	r6!, {r7}
 8008b44:	6843      	ldr	r3, [r0, #4]
 8008b46:	0c3f      	lsrs	r7, r7, #16
 8008b48:	4367      	muls	r7, r4
 8008b4a:	b29b      	uxth	r3, r3
 8008b4c:	0c09      	lsrs	r1, r1, #16
 8008b4e:	18fb      	adds	r3, r7, r3
 8008b50:	185b      	adds	r3, r3, r1
 8008b52:	0c19      	lsrs	r1, r3, #16
 8008b54:	9103      	str	r1, [sp, #12]
 8008b56:	9902      	ldr	r1, [sp, #8]
 8008b58:	3004      	adds	r0, #4
 8008b5a:	42b1      	cmp	r1, r6
 8008b5c:	d8e5      	bhi.n	8008b2a <__multiply+0x106>
 8008b5e:	9905      	ldr	r1, [sp, #20]
 8008b60:	5053      	str	r3, [r2, r1]
 8008b62:	3504      	adds	r5, #4
 8008b64:	3204      	adds	r2, #4
 8008b66:	e7a0      	b.n	8008aaa <__multiply+0x86>
 8008b68:	9b00      	ldr	r3, [sp, #0]
 8008b6a:	3b01      	subs	r3, #1
 8008b6c:	9300      	str	r3, [sp, #0]
 8008b6e:	e79f      	b.n	8008ab0 <__multiply+0x8c>
 8008b70:	08009988 	.word	0x08009988
 8008b74:	08009999 	.word	0x08009999

08008b78 <__pow5mult>:
 8008b78:	b5f7      	push	{r0, r1, r2, r4, r5, r6, r7, lr}
 8008b7a:	2303      	movs	r3, #3
 8008b7c:	0015      	movs	r5, r2
 8008b7e:	0007      	movs	r7, r0
 8008b80:	000e      	movs	r6, r1
 8008b82:	401a      	ands	r2, r3
 8008b84:	421d      	tst	r5, r3
 8008b86:	d008      	beq.n	8008b9a <__pow5mult+0x22>
 8008b88:	4925      	ldr	r1, [pc, #148]	@ (8008c20 <__pow5mult+0xa8>)
 8008b8a:	3a01      	subs	r2, #1
 8008b8c:	0092      	lsls	r2, r2, #2
 8008b8e:	5852      	ldr	r2, [r2, r1]
 8008b90:	2300      	movs	r3, #0
 8008b92:	0031      	movs	r1, r6
 8008b94:	f7ff fe9a 	bl	80088cc <__multadd>
 8008b98:	0006      	movs	r6, r0
 8008b9a:	10ad      	asrs	r5, r5, #2
 8008b9c:	d03d      	beq.n	8008c1a <__pow5mult+0xa2>
 8008b9e:	69fc      	ldr	r4, [r7, #28]
 8008ba0:	2c00      	cmp	r4, #0
 8008ba2:	d10f      	bne.n	8008bc4 <__pow5mult+0x4c>
 8008ba4:	2010      	movs	r0, #16
 8008ba6:	f7ff fd6d 	bl	8008684 <malloc>
 8008baa:	1e02      	subs	r2, r0, #0
 8008bac:	61f8      	str	r0, [r7, #28]
 8008bae:	d105      	bne.n	8008bbc <__pow5mult+0x44>
 8008bb0:	21b4      	movs	r1, #180	@ 0xb4
 8008bb2:	4b1c      	ldr	r3, [pc, #112]	@ (8008c24 <__pow5mult+0xac>)
 8008bb4:	481c      	ldr	r0, [pc, #112]	@ (8008c28 <__pow5mult+0xb0>)
 8008bb6:	31ff      	adds	r1, #255	@ 0xff
 8008bb8:	f000 fc5e 	bl	8009478 <__assert_func>
 8008bbc:	6044      	str	r4, [r0, #4]
 8008bbe:	6084      	str	r4, [r0, #8]
 8008bc0:	6004      	str	r4, [r0, #0]
 8008bc2:	60c4      	str	r4, [r0, #12]
 8008bc4:	69fb      	ldr	r3, [r7, #28]
 8008bc6:	689c      	ldr	r4, [r3, #8]
 8008bc8:	9301      	str	r3, [sp, #4]
 8008bca:	2c00      	cmp	r4, #0
 8008bcc:	d108      	bne.n	8008be0 <__pow5mult+0x68>
 8008bce:	0038      	movs	r0, r7
 8008bd0:	4916      	ldr	r1, [pc, #88]	@ (8008c2c <__pow5mult+0xb4>)
 8008bd2:	f7ff ff0f 	bl	80089f4 <__i2b>
 8008bd6:	9b01      	ldr	r3, [sp, #4]
 8008bd8:	0004      	movs	r4, r0
 8008bda:	6098      	str	r0, [r3, #8]
 8008bdc:	2300      	movs	r3, #0
 8008bde:	6003      	str	r3, [r0, #0]
 8008be0:	2301      	movs	r3, #1
 8008be2:	421d      	tst	r5, r3
 8008be4:	d00a      	beq.n	8008bfc <__pow5mult+0x84>
 8008be6:	0031      	movs	r1, r6
 8008be8:	0022      	movs	r2, r4
 8008bea:	0038      	movs	r0, r7
 8008bec:	f7ff ff1a 	bl	8008a24 <__multiply>
 8008bf0:	0031      	movs	r1, r6
 8008bf2:	9001      	str	r0, [sp, #4]
 8008bf4:	0038      	movs	r0, r7
 8008bf6:	f7ff fe45 	bl	8008884 <_Bfree>
 8008bfa:	9e01      	ldr	r6, [sp, #4]
 8008bfc:	106d      	asrs	r5, r5, #1
 8008bfe:	d00c      	beq.n	8008c1a <__pow5mult+0xa2>
 8008c00:	6820      	ldr	r0, [r4, #0]
 8008c02:	2800      	cmp	r0, #0
 8008c04:	d107      	bne.n	8008c16 <__pow5mult+0x9e>
 8008c06:	0022      	movs	r2, r4
 8008c08:	0021      	movs	r1, r4
 8008c0a:	0038      	movs	r0, r7
 8008c0c:	f7ff ff0a 	bl	8008a24 <__multiply>
 8008c10:	2300      	movs	r3, #0
 8008c12:	6020      	str	r0, [r4, #0]
 8008c14:	6003      	str	r3, [r0, #0]
 8008c16:	0004      	movs	r4, r0
 8008c18:	e7e2      	b.n	8008be0 <__pow5mult+0x68>
 8008c1a:	0030      	movs	r0, r6
 8008c1c:	bdfe      	pop	{r1, r2, r3, r4, r5, r6, r7, pc}
 8008c1e:	46c0      	nop			@ (mov r8, r8)
 8008c20:	08009a4c 	.word	0x08009a4c
 8008c24:	08009919 	.word	0x08009919
 8008c28:	08009999 	.word	0x08009999
 8008c2c:	00000271 	.word	0x00000271

08008c30 <__lshift>:
 8008c30:	b5f0      	push	{r4, r5, r6, r7, lr}
 8008c32:	000c      	movs	r4, r1
 8008c34:	0016      	movs	r6, r2
 8008c36:	6923      	ldr	r3, [r4, #16]
 8008c38:	1157      	asrs	r7, r2, #5
 8008c3a:	b085      	sub	sp, #20
 8008c3c:	18fb      	adds	r3, r7, r3
 8008c3e:	9301      	str	r3, [sp, #4]
 8008c40:	3301      	adds	r3, #1
 8008c42:	9300      	str	r3, [sp, #0]
 8008c44:	6849      	ldr	r1, [r1, #4]
 8008c46:	68a3      	ldr	r3, [r4, #8]
 8008c48:	9002      	str	r0, [sp, #8]
 8008c4a:	9a00      	ldr	r2, [sp, #0]
 8008c4c:	4293      	cmp	r3, r2
 8008c4e:	db10      	blt.n	8008c72 <__lshift+0x42>
 8008c50:	9802      	ldr	r0, [sp, #8]
 8008c52:	f7ff fdd3 	bl	80087fc <_Balloc>
 8008c56:	2300      	movs	r3, #0
 8008c58:	0001      	movs	r1, r0
 8008c5a:	0005      	movs	r5, r0
 8008c5c:	001a      	movs	r2, r3
 8008c5e:	3114      	adds	r1, #20
 8008c60:	4298      	cmp	r0, r3
 8008c62:	d10c      	bne.n	8008c7e <__lshift+0x4e>
 8008c64:	21ef      	movs	r1, #239	@ 0xef
 8008c66:	002a      	movs	r2, r5
 8008c68:	4b25      	ldr	r3, [pc, #148]	@ (8008d00 <__lshift+0xd0>)
 8008c6a:	4826      	ldr	r0, [pc, #152]	@ (8008d04 <__lshift+0xd4>)
 8008c6c:	0049      	lsls	r1, r1, #1
 8008c6e:	f000 fc03 	bl	8009478 <__assert_func>
 8008c72:	3101      	adds	r1, #1
 8008c74:	005b      	lsls	r3, r3, #1
 8008c76:	e7e8      	b.n	8008c4a <__lshift+0x1a>
 8008c78:	0098      	lsls	r0, r3, #2
 8008c7a:	500a      	str	r2, [r1, r0]
 8008c7c:	3301      	adds	r3, #1
 8008c7e:	42bb      	cmp	r3, r7
 8008c80:	dbfa      	blt.n	8008c78 <__lshift+0x48>
 8008c82:	43fb      	mvns	r3, r7
 8008c84:	17db      	asrs	r3, r3, #31
 8008c86:	401f      	ands	r7, r3
 8008c88:	00bf      	lsls	r7, r7, #2
 8008c8a:	0023      	movs	r3, r4
 8008c8c:	201f      	movs	r0, #31
 8008c8e:	19c9      	adds	r1, r1, r7
 8008c90:	0037      	movs	r7, r6
 8008c92:	6922      	ldr	r2, [r4, #16]
 8008c94:	3314      	adds	r3, #20
 8008c96:	0092      	lsls	r2, r2, #2
 8008c98:	189a      	adds	r2, r3, r2
 8008c9a:	4007      	ands	r7, r0
 8008c9c:	4206      	tst	r6, r0
 8008c9e:	d029      	beq.n	8008cf4 <__lshift+0xc4>
 8008ca0:	3001      	adds	r0, #1
 8008ca2:	1bc0      	subs	r0, r0, r7
 8008ca4:	9003      	str	r0, [sp, #12]
 8008ca6:	468c      	mov	ip, r1
 8008ca8:	2000      	movs	r0, #0
 8008caa:	681e      	ldr	r6, [r3, #0]
 8008cac:	40be      	lsls	r6, r7
 8008cae:	4306      	orrs	r6, r0
 8008cb0:	4660      	mov	r0, ip
 8008cb2:	c040      	stmia	r0!, {r6}
 8008cb4:	4684      	mov	ip, r0
 8008cb6:	9e03      	ldr	r6, [sp, #12]
 8008cb8:	cb01      	ldmia	r3!, {r0}
 8008cba:	40f0      	lsrs	r0, r6
 8008cbc:	429a      	cmp	r2, r3
 8008cbe:	d8f4      	bhi.n	8008caa <__lshift+0x7a>
 8008cc0:	0026      	movs	r6, r4
 8008cc2:	3615      	adds	r6, #21
 8008cc4:	2304      	movs	r3, #4
 8008cc6:	42b2      	cmp	r2, r6
 8008cc8:	d304      	bcc.n	8008cd4 <__lshift+0xa4>
 8008cca:	1b13      	subs	r3, r2, r4
 8008ccc:	3b15      	subs	r3, #21
 8008cce:	089b      	lsrs	r3, r3, #2
 8008cd0:	3301      	adds	r3, #1
 8008cd2:	009b      	lsls	r3, r3, #2
 8008cd4:	50c8      	str	r0, [r1, r3]
 8008cd6:	2800      	cmp	r0, #0
 8008cd8:	d002      	beq.n	8008ce0 <__lshift+0xb0>
 8008cda:	9b01      	ldr	r3, [sp, #4]
 8008cdc:	3302      	adds	r3, #2
 8008cde:	9300      	str	r3, [sp, #0]
 8008ce0:	9b00      	ldr	r3, [sp, #0]
 8008ce2:	9802      	ldr	r0, [sp, #8]
 8008ce4:	3b01      	subs	r3, #1
 8008ce6:	0021      	movs	r1, r4
 8008ce8:	612b      	str	r3, [r5, #16]
 8008cea:	f7ff fdcb 	bl	8008884 <_Bfree>
 8008cee:	0028      	movs	r0, r5
 8008cf0:	b005      	add	sp, #20
 8008cf2:	bdf0      	pop	{r4, r5, r6, r7, pc}
 8008cf4:	cb01      	ldmia	r3!, {r0}
 8008cf6:	c101      	stmia	r1!, {r0}
 8008cf8:	429a      	cmp	r2, r3
 8008cfa:	d8fb      	bhi.n	8008cf4 <__lshift+0xc4>
 8008cfc:	e7f0      	b.n	8008ce0 <__lshift+0xb0>
 8008cfe:	46c0      	nop			@ (mov r8, r8)
 8008d00:	08009988 	.word	0x08009988
 8008d04:	08009999 	.word	0x08009999

08008d08 <__mcmp>:
 8008d08:	b530      	push	{r4, r5, lr}
 8008d0a:	690b      	ldr	r3, [r1, #16]
 8008d0c:	6904      	ldr	r4, [r0, #16]
 8008d0e:	0002      	movs	r2, r0
 8008d10:	1ae0      	subs	r0, r4, r3
 8008d12:	429c      	cmp	r4, r3
 8008d14:	d10f      	bne.n	8008d36 <__mcmp+0x2e>
 8008d16:	3214      	adds	r2, #20
 8008d18:	009b      	lsls	r3, r3, #2
 8008d1a:	3114      	adds	r1, #20
 8008d1c:	0014      	movs	r4, r2
 8008d1e:	18c9      	adds	r1, r1, r3
 8008d20:	18d2      	adds	r2, r2, r3
 8008d22:	3a04      	subs	r2, #4
 8008d24:	3904      	subs	r1, #4
 8008d26:	6815      	ldr	r5, [r2, #0]
 8008d28:	680b      	ldr	r3, [r1, #0]
 8008d2a:	429d      	cmp	r5, r3
 8008d2c:	d004      	beq.n	8008d38 <__mcmp+0x30>
 8008d2e:	2001      	movs	r0, #1
 8008d30:	429d      	cmp	r5, r3
 8008d32:	d200      	bcs.n	8008d36 <__mcmp+0x2e>
 8008d34:	3802      	subs	r0, #2
 8008d36:	bd30      	pop	{r4, r5, pc}
 8008d38:	4294      	cmp	r4, r2
 8008d3a:	d3f2      	bcc.n	8008d22 <__mcmp+0x1a>
 8008d3c:	e7fb      	b.n	8008d36 <__mcmp+0x2e>
	...

08008d40 <__mdiff>:
 8008d40:	b5f0      	push	{r4, r5, r6, r7, lr}
 8008d42:	000c      	movs	r4, r1
 8008d44:	b087      	sub	sp, #28
 8008d46:	9000      	str	r0, [sp, #0]
 8008d48:	0011      	movs	r1, r2
 8008d4a:	0020      	movs	r0, r4
 8008d4c:	0017      	movs	r7, r2
 8008d4e:	f7ff ffdb 	bl	8008d08 <__mcmp>
 8008d52:	1e05      	subs	r5, r0, #0
 8008d54:	d110      	bne.n	8008d78 <__mdiff+0x38>
 8008d56:	0001      	movs	r1, r0
 8008d58:	9800      	ldr	r0, [sp, #0]
 8008d5a:	f7ff fd4f 	bl	80087fc <_Balloc>
 8008d5e:	1e02      	subs	r2, r0, #0
 8008d60:	d104      	bne.n	8008d6c <__mdiff+0x2c>
 8008d62:	4b40      	ldr	r3, [pc, #256]	@ (8008e64 <__mdiff+0x124>)
 8008d64:	4840      	ldr	r0, [pc, #256]	@ (8008e68 <__mdiff+0x128>)
 8008d66:	4941      	ldr	r1, [pc, #260]	@ (8008e6c <__mdiff+0x12c>)
 8008d68:	f000 fb86 	bl	8009478 <__assert_func>
 8008d6c:	2301      	movs	r3, #1
 8008d6e:	6145      	str	r5, [r0, #20]
 8008d70:	6103      	str	r3, [r0, #16]
 8008d72:	0010      	movs	r0, r2
 8008d74:	b007      	add	sp, #28
 8008d76:	bdf0      	pop	{r4, r5, r6, r7, pc}
 8008d78:	2600      	movs	r6, #0
 8008d7a:	42b0      	cmp	r0, r6
 8008d7c:	da03      	bge.n	8008d86 <__mdiff+0x46>
 8008d7e:	0023      	movs	r3, r4
 8008d80:	003c      	movs	r4, r7
 8008d82:	001f      	movs	r7, r3
 8008d84:	3601      	adds	r6, #1
 8008d86:	6861      	ldr	r1, [r4, #4]
 8008d88:	9800      	ldr	r0, [sp, #0]
 8008d8a:	f7ff fd37 	bl	80087fc <_Balloc>
 8008d8e:	1e02      	subs	r2, r0, #0
 8008d90:	d103      	bne.n	8008d9a <__mdiff+0x5a>
 8008d92:	4b34      	ldr	r3, [pc, #208]	@ (8008e64 <__mdiff+0x124>)
 8008d94:	4834      	ldr	r0, [pc, #208]	@ (8008e68 <__mdiff+0x128>)
 8008d96:	4936      	ldr	r1, [pc, #216]	@ (8008e70 <__mdiff+0x130>)
 8008d98:	e7e6      	b.n	8008d68 <__mdiff+0x28>
 8008d9a:	6923      	ldr	r3, [r4, #16]
 8008d9c:	3414      	adds	r4, #20
 8008d9e:	9300      	str	r3, [sp, #0]
 8008da0:	009b      	lsls	r3, r3, #2
 8008da2:	18e3      	adds	r3, r4, r3
 8008da4:	0021      	movs	r1, r4
 8008da6:	9401      	str	r4, [sp, #4]
 8008da8:	003c      	movs	r4, r7
 8008daa:	9302      	str	r3, [sp, #8]
 8008dac:	693b      	ldr	r3, [r7, #16]
 8008dae:	3414      	adds	r4, #20
 8008db0:	009b      	lsls	r3, r3, #2
 8008db2:	18e3      	adds	r3, r4, r3
 8008db4:	9303      	str	r3, [sp, #12]
 8008db6:	0003      	movs	r3, r0
 8008db8:	60c6      	str	r6, [r0, #12]
 8008dba:	468c      	mov	ip, r1
 8008dbc:	2000      	movs	r0, #0
 8008dbe:	3314      	adds	r3, #20
 8008dc0:	9304      	str	r3, [sp, #16]
 8008dc2:	9305      	str	r3, [sp, #20]
 8008dc4:	4663      	mov	r3, ip
 8008dc6:	cb20      	ldmia	r3!, {r5}
 8008dc8:	b2a9      	uxth	r1, r5
 8008dca:	000e      	movs	r6, r1
 8008dcc:	469c      	mov	ip, r3
 8008dce:	cc08      	ldmia	r4!, {r3}
 8008dd0:	0c2d      	lsrs	r5, r5, #16
 8008dd2:	b299      	uxth	r1, r3
 8008dd4:	1a71      	subs	r1, r6, r1
 8008dd6:	1809      	adds	r1, r1, r0
 8008dd8:	0c1b      	lsrs	r3, r3, #16
 8008dda:	1408      	asrs	r0, r1, #16
 8008ddc:	1aeb      	subs	r3, r5, r3
 8008dde:	181b      	adds	r3, r3, r0
 8008de0:	1418      	asrs	r0, r3, #16
 8008de2:	b289      	uxth	r1, r1
 8008de4:	041b      	lsls	r3, r3, #16
 8008de6:	4319      	orrs	r1, r3
 8008de8:	9b05      	ldr	r3, [sp, #20]
 8008dea:	c302      	stmia	r3!, {r1}
 8008dec:	9305      	str	r3, [sp, #20]
 8008dee:	9b03      	ldr	r3, [sp, #12]
 8008df0:	42a3      	cmp	r3, r4
 8008df2:	d8e7      	bhi.n	8008dc4 <__mdiff+0x84>
 8008df4:	0039      	movs	r1, r7
 8008df6:	9c03      	ldr	r4, [sp, #12]
 8008df8:	3115      	adds	r1, #21
 8008dfa:	2304      	movs	r3, #4
 8008dfc:	428c      	cmp	r4, r1
 8008dfe:	d304      	bcc.n	8008e0a <__mdiff+0xca>
 8008e00:	1be3      	subs	r3, r4, r7
 8008e02:	3b15      	subs	r3, #21
 8008e04:	089b      	lsrs	r3, r3, #2
 8008e06:	3301      	adds	r3, #1
 8008e08:	009b      	lsls	r3, r3, #2
 8008e0a:	9901      	ldr	r1, [sp, #4]
 8008e0c:	18cd      	adds	r5, r1, r3
 8008e0e:	9904      	ldr	r1, [sp, #16]
 8008e10:	002e      	movs	r6, r5
 8008e12:	18cb      	adds	r3, r1, r3
 8008e14:	001f      	movs	r7, r3
 8008e16:	9902      	ldr	r1, [sp, #8]
 8008e18:	428e      	cmp	r6, r1
 8008e1a:	d311      	bcc.n	8008e40 <__mdiff+0x100>
 8008e1c:	9c02      	ldr	r4, [sp, #8]
 8008e1e:	1ee9      	subs	r1, r5, #3
 8008e20:	2000      	movs	r0, #0
 8008e22:	428c      	cmp	r4, r1
 8008e24:	d304      	bcc.n	8008e30 <__mdiff+0xf0>
 8008e26:	0021      	movs	r1, r4
 8008e28:	3103      	adds	r1, #3
 8008e2a:	1b49      	subs	r1, r1, r5
 8008e2c:	0889      	lsrs	r1, r1, #2
 8008e2e:	0088      	lsls	r0, r1, #2
 8008e30:	181b      	adds	r3, r3, r0
 8008e32:	3b04      	subs	r3, #4
 8008e34:	6819      	ldr	r1, [r3, #0]
 8008e36:	2900      	cmp	r1, #0
 8008e38:	d010      	beq.n	8008e5c <__mdiff+0x11c>
 8008e3a:	9b00      	ldr	r3, [sp, #0]
 8008e3c:	6113      	str	r3, [r2, #16]
 8008e3e:	e798      	b.n	8008d72 <__mdiff+0x32>
 8008e40:	4684      	mov	ip, r0
 8008e42:	ce02      	ldmia	r6!, {r1}
 8008e44:	b288      	uxth	r0, r1
 8008e46:	4460      	add	r0, ip
 8008e48:	1400      	asrs	r0, r0, #16
 8008e4a:	0c0c      	lsrs	r4, r1, #16
 8008e4c:	1904      	adds	r4, r0, r4
 8008e4e:	4461      	add	r1, ip
 8008e50:	1420      	asrs	r0, r4, #16
 8008e52:	b289      	uxth	r1, r1
 8008e54:	0424      	lsls	r4, r4, #16
 8008e56:	4321      	orrs	r1, r4
 8008e58:	c702      	stmia	r7!, {r1}
 8008e5a:	e7dc      	b.n	8008e16 <__mdiff+0xd6>
 8008e5c:	9900      	ldr	r1, [sp, #0]
 8008e5e:	3901      	subs	r1, #1
 8008e60:	9100      	str	r1, [sp, #0]
 8008e62:	e7e6      	b.n	8008e32 <__mdiff+0xf2>
 8008e64:	08009988 	.word	0x08009988
 8008e68:	08009999 	.word	0x08009999
 8008e6c:	00000237 	.word	0x00000237
 8008e70:	00000245 	.word	0x00000245

08008e74 <__d2b>:
 8008e74:	b5f7      	push	{r0, r1, r2, r4, r5, r6, r7, lr}
 8008e76:	2101      	movs	r1, #1
 8008e78:	0016      	movs	r6, r2
 8008e7a:	001f      	movs	r7, r3
 8008e7c:	f7ff fcbe 	bl	80087fc <_Balloc>
 8008e80:	1e04      	subs	r4, r0, #0
 8008e82:	d105      	bne.n	8008e90 <__d2b+0x1c>
 8008e84:	0022      	movs	r2, r4
 8008e86:	4b25      	ldr	r3, [pc, #148]	@ (8008f1c <__d2b+0xa8>)
 8008e88:	4825      	ldr	r0, [pc, #148]	@ (8008f20 <__d2b+0xac>)
 8008e8a:	4926      	ldr	r1, [pc, #152]	@ (8008f24 <__d2b+0xb0>)
 8008e8c:	f000 faf4 	bl	8009478 <__assert_func>
 8008e90:	033b      	lsls	r3, r7, #12
 8008e92:	007d      	lsls	r5, r7, #1
 8008e94:	0b1b      	lsrs	r3, r3, #12
 8008e96:	0d6d      	lsrs	r5, r5, #21
 8008e98:	d002      	beq.n	8008ea0 <__d2b+0x2c>
 8008e9a:	2280      	movs	r2, #128	@ 0x80
 8008e9c:	0352      	lsls	r2, r2, #13
 8008e9e:	4313      	orrs	r3, r2
 8008ea0:	9301      	str	r3, [sp, #4]
 8008ea2:	2e00      	cmp	r6, #0
 8008ea4:	d025      	beq.n	8008ef2 <__d2b+0x7e>
 8008ea6:	4668      	mov	r0, sp
 8008ea8:	9600      	str	r6, [sp, #0]
 8008eaa:	f7ff fd74 	bl	8008996 <__lo0bits>
 8008eae:	9b01      	ldr	r3, [sp, #4]
 8008eb0:	9900      	ldr	r1, [sp, #0]
 8008eb2:	2800      	cmp	r0, #0
 8008eb4:	d01b      	beq.n	8008eee <__d2b+0x7a>
 8008eb6:	2220      	movs	r2, #32
 8008eb8:	001e      	movs	r6, r3
 8008eba:	1a12      	subs	r2, r2, r0
 8008ebc:	4096      	lsls	r6, r2
 8008ebe:	0032      	movs	r2, r6
 8008ec0:	40c3      	lsrs	r3, r0
 8008ec2:	430a      	orrs	r2, r1
 8008ec4:	6162      	str	r2, [r4, #20]
 8008ec6:	9301      	str	r3, [sp, #4]
 8008ec8:	9e01      	ldr	r6, [sp, #4]
 8008eca:	61a6      	str	r6, [r4, #24]
 8008ecc:	1e73      	subs	r3, r6, #1
 8008ece:	419e      	sbcs	r6, r3
 8008ed0:	3601      	adds	r6, #1
 8008ed2:	6126      	str	r6, [r4, #16]
 8008ed4:	2d00      	cmp	r5, #0
 8008ed6:	d014      	beq.n	8008f02 <__d2b+0x8e>
 8008ed8:	2635      	movs	r6, #53	@ 0x35
 8008eda:	4b13      	ldr	r3, [pc, #76]	@ (8008f28 <__d2b+0xb4>)
 8008edc:	18ed      	adds	r5, r5, r3
 8008ede:	9b08      	ldr	r3, [sp, #32]
 8008ee0:	182d      	adds	r5, r5, r0
 8008ee2:	601d      	str	r5, [r3, #0]
 8008ee4:	9b09      	ldr	r3, [sp, #36]	@ 0x24
 8008ee6:	1a36      	subs	r6, r6, r0
 8008ee8:	601e      	str	r6, [r3, #0]
 8008eea:	0020      	movs	r0, r4
 8008eec:	bdfe      	pop	{r1, r2, r3, r4, r5, r6, r7, pc}
 8008eee:	6161      	str	r1, [r4, #20]
 8008ef0:	e7ea      	b.n	8008ec8 <__d2b+0x54>
 8008ef2:	a801      	add	r0, sp, #4
 8008ef4:	f7ff fd4f 	bl	8008996 <__lo0bits>
 8008ef8:	9b01      	ldr	r3, [sp, #4]
 8008efa:	2601      	movs	r6, #1
 8008efc:	6163      	str	r3, [r4, #20]
 8008efe:	3020      	adds	r0, #32
 8008f00:	e7e7      	b.n	8008ed2 <__d2b+0x5e>
 8008f02:	4b0a      	ldr	r3, [pc, #40]	@ (8008f2c <__d2b+0xb8>)
 8008f04:	18c0      	adds	r0, r0, r3
 8008f06:	9b08      	ldr	r3, [sp, #32]
 8008f08:	6018      	str	r0, [r3, #0]
 8008f0a:	4b09      	ldr	r3, [pc, #36]	@ (8008f30 <__d2b+0xbc>)
 8008f0c:	18f3      	adds	r3, r6, r3
 8008f0e:	009b      	lsls	r3, r3, #2
 8008f10:	18e3      	adds	r3, r4, r3
 8008f12:	6958      	ldr	r0, [r3, #20]
 8008f14:	f7ff fd1e 	bl	8008954 <__hi0bits>
 8008f18:	0176      	lsls	r6, r6, #5
 8008f1a:	e7e3      	b.n	8008ee4 <__d2b+0x70>
 8008f1c:	08009988 	.word	0x08009988
 8008f20:	08009999 	.word	0x08009999
 8008f24:	0000030f 	.word	0x0000030f
 8008f28:	fffffbcd 	.word	0xfffffbcd
 8008f2c:	fffffbce 	.word	0xfffffbce
 8008f30:	3fffffff 	.word	0x3fffffff

08008f34 <__sfputc_r>:
 8008f34:	6893      	ldr	r3, [r2, #8]
 8008f36:	b510      	push	{r4, lr}
 8008f38:	3b01      	subs	r3, #1
 8008f3a:	6093      	str	r3, [r2, #8]
 8008f3c:	2b00      	cmp	r3, #0
 8008f3e:	da04      	bge.n	8008f4a <__sfputc_r+0x16>
 8008f40:	6994      	ldr	r4, [r2, #24]
 8008f42:	42a3      	cmp	r3, r4
 8008f44:	db07      	blt.n	8008f56 <__sfputc_r+0x22>
 8008f46:	290a      	cmp	r1, #10
 8008f48:	d005      	beq.n	8008f56 <__sfputc_r+0x22>
 8008f4a:	6813      	ldr	r3, [r2, #0]
 8008f4c:	1c58      	adds	r0, r3, #1
 8008f4e:	6010      	str	r0, [r2, #0]
 8008f50:	7019      	strb	r1, [r3, #0]
 8008f52:	0008      	movs	r0, r1
 8008f54:	bd10      	pop	{r4, pc}
 8008f56:	f7fe fb91 	bl	800767c <__swbuf_r>
 8008f5a:	0001      	movs	r1, r0
 8008f5c:	e7f9      	b.n	8008f52 <__sfputc_r+0x1e>

08008f5e <__sfputs_r>:
 8008f5e:	b5f8      	push	{r3, r4, r5, r6, r7, lr}
 8008f60:	0006      	movs	r6, r0
 8008f62:	000f      	movs	r7, r1
 8008f64:	0014      	movs	r4, r2
 8008f66:	18d5      	adds	r5, r2, r3
 8008f68:	42ac      	cmp	r4, r5
 8008f6a:	d101      	bne.n	8008f70 <__sfputs_r+0x12>
 8008f6c:	2000      	movs	r0, #0
 8008f6e:	e007      	b.n	8008f80 <__sfputs_r+0x22>
 8008f70:	7821      	ldrb	r1, [r4, #0]
 8008f72:	003a      	movs	r2, r7
 8008f74:	0030      	movs	r0, r6
 8008f76:	f7ff ffdd 	bl	8008f34 <__sfputc_r>
 8008f7a:	3401      	adds	r4, #1
 8008f7c:	1c43      	adds	r3, r0, #1
 8008f7e:	d1f3      	bne.n	8008f68 <__sfputs_r+0xa>
 8008f80:	bdf8      	pop	{r3, r4, r5, r6, r7, pc}
	...

08008f84 <_vfiprintf_r>:
 8008f84:	b5f0      	push	{r4, r5, r6, r7, lr}
 8008f86:	b0a1      	sub	sp, #132	@ 0x84
 8008f88:	000f      	movs	r7, r1
 8008f8a:	0015      	movs	r5, r2
 8008f8c:	001e      	movs	r6, r3
 8008f8e:	9003      	str	r0, [sp, #12]
 8008f90:	2800      	cmp	r0, #0
 8008f92:	d004      	beq.n	8008f9e <_vfiprintf_r+0x1a>
 8008f94:	6a03      	ldr	r3, [r0, #32]
 8008f96:	2b00      	cmp	r3, #0
 8008f98:	d101      	bne.n	8008f9e <_vfiprintf_r+0x1a>
 8008f9a:	f7fe fa7f 	bl	800749c <__sinit>
 8008f9e:	6e7b      	ldr	r3, [r7, #100]	@ 0x64
 8008fa0:	07db      	lsls	r3, r3, #31
 8008fa2:	d405      	bmi.n	8008fb0 <_vfiprintf_r+0x2c>
 8008fa4:	89bb      	ldrh	r3, [r7, #12]
 8008fa6:	059b      	lsls	r3, r3, #22
 8008fa8:	d402      	bmi.n	8008fb0 <_vfiprintf_r+0x2c>
 8008faa:	6db8      	ldr	r0, [r7, #88]	@ 0x58
 8008fac:	f7fe fc9d 	bl	80078ea <__retarget_lock_acquire_recursive>
 8008fb0:	89bb      	ldrh	r3, [r7, #12]
 8008fb2:	071b      	lsls	r3, r3, #28
 8008fb4:	d502      	bpl.n	8008fbc <_vfiprintf_r+0x38>
 8008fb6:	693b      	ldr	r3, [r7, #16]
 8008fb8:	2b00      	cmp	r3, #0
 8008fba:	d113      	bne.n	8008fe4 <_vfiprintf_r+0x60>
 8008fbc:	0039      	movs	r1, r7
 8008fbe:	9803      	ldr	r0, [sp, #12]
 8008fc0:	f7fe fb9e 	bl	8007700 <__swsetup_r>
 8008fc4:	2800      	cmp	r0, #0
 8008fc6:	d00d      	beq.n	8008fe4 <_vfiprintf_r+0x60>
 8008fc8:	6e7b      	ldr	r3, [r7, #100]	@ 0x64
 8008fca:	07db      	lsls	r3, r3, #31
 8008fcc:	d503      	bpl.n	8008fd6 <_vfiprintf_r+0x52>
 8008fce:	2001      	movs	r0, #1
 8008fd0:	4240      	negs	r0, r0
 8008fd2:	b021      	add	sp, #132	@ 0x84
 8008fd4:	bdf0      	pop	{r4, r5, r6, r7, pc}
 8008fd6:	89bb      	ldrh	r3, [r7, #12]
 8008fd8:	059b      	lsls	r3, r3, #22
 8008fda:	d4f8      	bmi.n	8008fce <_vfiprintf_r+0x4a>
 8008fdc:	6db8      	ldr	r0, [r7, #88]	@ 0x58
 8008fde:	f7fe fc85 	bl	80078ec <__retarget_lock_release_recursive>
 8008fe2:	e7f4      	b.n	8008fce <_vfiprintf_r+0x4a>
 8008fe4:	2300      	movs	r3, #0
 8008fe6:	ac08      	add	r4, sp, #32
 8008fe8:	6163      	str	r3, [r4, #20]
 8008fea:	3320      	adds	r3, #32
 8008fec:	7663      	strb	r3, [r4, #25]
 8008fee:	3310      	adds	r3, #16
 8008ff0:	76a3      	strb	r3, [r4, #26]
 8008ff2:	9607      	str	r6, [sp, #28]
 8008ff4:	002e      	movs	r6, r5
 8008ff6:	7833      	ldrb	r3, [r6, #0]
 8008ff8:	2b00      	cmp	r3, #0
 8008ffa:	d001      	beq.n	8009000 <_vfiprintf_r+0x7c>
 8008ffc:	2b25      	cmp	r3, #37	@ 0x25
 8008ffe:	d148      	bne.n	8009092 <_vfiprintf_r+0x10e>
 8009000:	1b73      	subs	r3, r6, r5
 8009002:	9305      	str	r3, [sp, #20]
 8009004:	42ae      	cmp	r6, r5
 8009006:	d00b      	beq.n	8009020 <_vfiprintf_r+0x9c>
 8009008:	002a      	movs	r2, r5
 800900a:	0039      	movs	r1, r7
 800900c:	9803      	ldr	r0, [sp, #12]
 800900e:	f7ff ffa6 	bl	8008f5e <__sfputs_r>
 8009012:	3001      	adds	r0, #1
 8009014:	d100      	bne.n	8009018 <_vfiprintf_r+0x94>
 8009016:	e0ae      	b.n	8009176 <_vfiprintf_r+0x1f2>
 8009018:	6963      	ldr	r3, [r4, #20]
 800901a:	9a05      	ldr	r2, [sp, #20]
 800901c:	189b      	adds	r3, r3, r2
 800901e:	6163      	str	r3, [r4, #20]
 8009020:	7833      	ldrb	r3, [r6, #0]
 8009022:	2b00      	cmp	r3, #0
 8009024:	d100      	bne.n	8009028 <_vfiprintf_r+0xa4>
 8009026:	e0a6      	b.n	8009176 <_vfiprintf_r+0x1f2>
 8009028:	2201      	movs	r2, #1
 800902a:	2300      	movs	r3, #0
 800902c:	4252      	negs	r2, r2
 800902e:	6062      	str	r2, [r4, #4]
 8009030:	a904      	add	r1, sp, #16
 8009032:	3254      	adds	r2, #84	@ 0x54
 8009034:	1852      	adds	r2, r2, r1
 8009036:	1c75      	adds	r5, r6, #1
 8009038:	6023      	str	r3, [r4, #0]
 800903a:	60e3      	str	r3, [r4, #12]
 800903c:	60a3      	str	r3, [r4, #8]
 800903e:	7013      	strb	r3, [r2, #0]
 8009040:	65a3      	str	r3, [r4, #88]	@ 0x58
 8009042:	4b59      	ldr	r3, [pc, #356]	@ (80091a8 <_vfiprintf_r+0x224>)
 8009044:	2205      	movs	r2, #5
 8009046:	0018      	movs	r0, r3
 8009048:	7829      	ldrb	r1, [r5, #0]
 800904a:	9305      	str	r3, [sp, #20]
 800904c:	f7fe fc4f 	bl	80078ee <memchr>
 8009050:	1c6e      	adds	r6, r5, #1
 8009052:	2800      	cmp	r0, #0
 8009054:	d11f      	bne.n	8009096 <_vfiprintf_r+0x112>
 8009056:	6822      	ldr	r2, [r4, #0]
 8009058:	06d3      	lsls	r3, r2, #27
 800905a:	d504      	bpl.n	8009066 <_vfiprintf_r+0xe2>
 800905c:	2353      	movs	r3, #83	@ 0x53
 800905e:	a904      	add	r1, sp, #16
 8009060:	185b      	adds	r3, r3, r1
 8009062:	2120      	movs	r1, #32
 8009064:	7019      	strb	r1, [r3, #0]
 8009066:	0713      	lsls	r3, r2, #28
 8009068:	d504      	bpl.n	8009074 <_vfiprintf_r+0xf0>
 800906a:	2353      	movs	r3, #83	@ 0x53
 800906c:	a904      	add	r1, sp, #16
 800906e:	185b      	adds	r3, r3, r1
 8009070:	212b      	movs	r1, #43	@ 0x2b
 8009072:	7019      	strb	r1, [r3, #0]
 8009074:	782b      	ldrb	r3, [r5, #0]
 8009076:	2b2a      	cmp	r3, #42	@ 0x2a
 8009078:	d016      	beq.n	80090a8 <_vfiprintf_r+0x124>
 800907a:	002e      	movs	r6, r5
 800907c:	2100      	movs	r1, #0
 800907e:	200a      	movs	r0, #10
 8009080:	68e3      	ldr	r3, [r4, #12]
 8009082:	7832      	ldrb	r2, [r6, #0]
 8009084:	1c75      	adds	r5, r6, #1
 8009086:	3a30      	subs	r2, #48	@ 0x30
 8009088:	2a09      	cmp	r2, #9
 800908a:	d950      	bls.n	800912e <_vfiprintf_r+0x1aa>
 800908c:	2900      	cmp	r1, #0
 800908e:	d111      	bne.n	80090b4 <_vfiprintf_r+0x130>
 8009090:	e017      	b.n	80090c2 <_vfiprintf_r+0x13e>
 8009092:	3601      	adds	r6, #1
 8009094:	e7af      	b.n	8008ff6 <_vfiprintf_r+0x72>
 8009096:	9b05      	ldr	r3, [sp, #20]
 8009098:	6822      	ldr	r2, [r4, #0]
 800909a:	1ac0      	subs	r0, r0, r3
 800909c:	2301      	movs	r3, #1
 800909e:	4083      	lsls	r3, r0
 80090a0:	4313      	orrs	r3, r2
 80090a2:	0035      	movs	r5, r6
 80090a4:	6023      	str	r3, [r4, #0]
 80090a6:	e7cc      	b.n	8009042 <_vfiprintf_r+0xbe>
 80090a8:	9b07      	ldr	r3, [sp, #28]
 80090aa:	1d19      	adds	r1, r3, #4
 80090ac:	681b      	ldr	r3, [r3, #0]
 80090ae:	9107      	str	r1, [sp, #28]
 80090b0:	2b00      	cmp	r3, #0
 80090b2:	db01      	blt.n	80090b8 <_vfiprintf_r+0x134>
 80090b4:	930b      	str	r3, [sp, #44]	@ 0x2c
 80090b6:	e004      	b.n	80090c2 <_vfiprintf_r+0x13e>
 80090b8:	425b      	negs	r3, r3
 80090ba:	60e3      	str	r3, [r4, #12]
 80090bc:	2302      	movs	r3, #2
 80090be:	4313      	orrs	r3, r2
 80090c0:	6023      	str	r3, [r4, #0]
 80090c2:	7833      	ldrb	r3, [r6, #0]
 80090c4:	2b2e      	cmp	r3, #46	@ 0x2e
 80090c6:	d10c      	bne.n	80090e2 <_vfiprintf_r+0x15e>
 80090c8:	7873      	ldrb	r3, [r6, #1]
 80090ca:	2b2a      	cmp	r3, #42	@ 0x2a
 80090cc:	d134      	bne.n	8009138 <_vfiprintf_r+0x1b4>
 80090ce:	9b07      	ldr	r3, [sp, #28]
 80090d0:	3602      	adds	r6, #2
 80090d2:	1d1a      	adds	r2, r3, #4
 80090d4:	681b      	ldr	r3, [r3, #0]
 80090d6:	9207      	str	r2, [sp, #28]
 80090d8:	2b00      	cmp	r3, #0
 80090da:	da01      	bge.n	80090e0 <_vfiprintf_r+0x15c>
 80090dc:	2301      	movs	r3, #1
 80090de:	425b      	negs	r3, r3
 80090e0:	9309      	str	r3, [sp, #36]	@ 0x24
 80090e2:	4d32      	ldr	r5, [pc, #200]	@ (80091ac <_vfiprintf_r+0x228>)
 80090e4:	2203      	movs	r2, #3
 80090e6:	0028      	movs	r0, r5
 80090e8:	7831      	ldrb	r1, [r6, #0]
 80090ea:	f7fe fc00 	bl	80078ee <memchr>
 80090ee:	2800      	cmp	r0, #0
 80090f0:	d006      	beq.n	8009100 <_vfiprintf_r+0x17c>
 80090f2:	2340      	movs	r3, #64	@ 0x40
 80090f4:	1b40      	subs	r0, r0, r5
 80090f6:	4083      	lsls	r3, r0
 80090f8:	6822      	ldr	r2, [r4, #0]
 80090fa:	3601      	adds	r6, #1
 80090fc:	4313      	orrs	r3, r2
 80090fe:	6023      	str	r3, [r4, #0]
 8009100:	7831      	ldrb	r1, [r6, #0]
 8009102:	2206      	movs	r2, #6
 8009104:	482a      	ldr	r0, [pc, #168]	@ (80091b0 <_vfiprintf_r+0x22c>)
 8009106:	1c75      	adds	r5, r6, #1
 8009108:	7621      	strb	r1, [r4, #24]
 800910a:	f7fe fbf0 	bl	80078ee <memchr>
 800910e:	2800      	cmp	r0, #0
 8009110:	d040      	beq.n	8009194 <_vfiprintf_r+0x210>
 8009112:	4b28      	ldr	r3, [pc, #160]	@ (80091b4 <_vfiprintf_r+0x230>)
 8009114:	2b00      	cmp	r3, #0
 8009116:	d122      	bne.n	800915e <_vfiprintf_r+0x1da>
 8009118:	2207      	movs	r2, #7
 800911a:	9b07      	ldr	r3, [sp, #28]
 800911c:	3307      	adds	r3, #7
 800911e:	4393      	bics	r3, r2
 8009120:	3308      	adds	r3, #8
 8009122:	9307      	str	r3, [sp, #28]
 8009124:	6963      	ldr	r3, [r4, #20]
 8009126:	9a04      	ldr	r2, [sp, #16]
 8009128:	189b      	adds	r3, r3, r2
 800912a:	6163      	str	r3, [r4, #20]
 800912c:	e762      	b.n	8008ff4 <_vfiprintf_r+0x70>
 800912e:	4343      	muls	r3, r0
 8009130:	002e      	movs	r6, r5
 8009132:	2101      	movs	r1, #1
 8009134:	189b      	adds	r3, r3, r2
 8009136:	e7a4      	b.n	8009082 <_vfiprintf_r+0xfe>
 8009138:	2300      	movs	r3, #0
 800913a:	200a      	movs	r0, #10
 800913c:	0019      	movs	r1, r3
 800913e:	3601      	adds	r6, #1
 8009140:	6063      	str	r3, [r4, #4]
 8009142:	7832      	ldrb	r2, [r6, #0]
 8009144:	1c75      	adds	r5, r6, #1
 8009146:	3a30      	subs	r2, #48	@ 0x30
 8009148:	2a09      	cmp	r2, #9
 800914a:	d903      	bls.n	8009154 <_vfiprintf_r+0x1d0>
 800914c:	2b00      	cmp	r3, #0
 800914e:	d0c8      	beq.n	80090e2 <_vfiprintf_r+0x15e>
 8009150:	9109      	str	r1, [sp, #36]	@ 0x24
 8009152:	e7c6      	b.n	80090e2 <_vfiprintf_r+0x15e>
 8009154:	4341      	muls	r1, r0
 8009156:	002e      	movs	r6, r5
 8009158:	2301      	movs	r3, #1
 800915a:	1889      	adds	r1, r1, r2
 800915c:	e7f1      	b.n	8009142 <_vfiprintf_r+0x1be>
 800915e:	aa07      	add	r2, sp, #28
 8009160:	9200      	str	r2, [sp, #0]
 8009162:	0021      	movs	r1, r4
 8009164:	003a      	movs	r2, r7
 8009166:	4b14      	ldr	r3, [pc, #80]	@ (80091b8 <_vfiprintf_r+0x234>)
 8009168:	9803      	ldr	r0, [sp, #12]
 800916a:	f7fd fd4d 	bl	8006c08 <_printf_float>
 800916e:	9004      	str	r0, [sp, #16]
 8009170:	9b04      	ldr	r3, [sp, #16]
 8009172:	3301      	adds	r3, #1
 8009174:	d1d6      	bne.n	8009124 <_vfiprintf_r+0x1a0>
 8009176:	6e7b      	ldr	r3, [r7, #100]	@ 0x64
 8009178:	07db      	lsls	r3, r3, #31
 800917a:	d405      	bmi.n	8009188 <_vfiprintf_r+0x204>
 800917c:	89bb      	ldrh	r3, [r7, #12]
 800917e:	059b      	lsls	r3, r3, #22
 8009180:	d402      	bmi.n	8009188 <_vfiprintf_r+0x204>
 8009182:	6db8      	ldr	r0, [r7, #88]	@ 0x58
 8009184:	f7fe fbb2 	bl	80078ec <__retarget_lock_release_recursive>
 8009188:	89bb      	ldrh	r3, [r7, #12]
 800918a:	065b      	lsls	r3, r3, #25
 800918c:	d500      	bpl.n	8009190 <_vfiprintf_r+0x20c>
 800918e:	e71e      	b.n	8008fce <_vfiprintf_r+0x4a>
 8009190:	980d      	ldr	r0, [sp, #52]	@ 0x34
 8009192:	e71e      	b.n	8008fd2 <_vfiprintf_r+0x4e>
 8009194:	aa07      	add	r2, sp, #28
 8009196:	9200      	str	r2, [sp, #0]
 8009198:	0021      	movs	r1, r4
 800919a:	003a      	movs	r2, r7
 800919c:	4b06      	ldr	r3, [pc, #24]	@ (80091b8 <_vfiprintf_r+0x234>)
 800919e:	9803      	ldr	r0, [sp, #12]
 80091a0:	f7fd ffe0 	bl	8007164 <_printf_i>
 80091a4:	e7e3      	b.n	800916e <_vfiprintf_r+0x1ea>
 80091a6:	46c0      	nop			@ (mov r8, r8)
 80091a8:	080099f2 	.word	0x080099f2
 80091ac:	080099f8 	.word	0x080099f8
 80091b0:	080099fc 	.word	0x080099fc
 80091b4:	08006c09 	.word	0x08006c09
 80091b8:	08008f5f 	.word	0x08008f5f

080091bc <__sflush_r>:
 80091bc:	b5f7      	push	{r0, r1, r2, r4, r5, r6, r7, lr}
 80091be:	220c      	movs	r2, #12
 80091c0:	5e8b      	ldrsh	r3, [r1, r2]
 80091c2:	0005      	movs	r5, r0
 80091c4:	000c      	movs	r4, r1
 80091c6:	071a      	lsls	r2, r3, #28
 80091c8:	d456      	bmi.n	8009278 <__sflush_r+0xbc>
 80091ca:	684a      	ldr	r2, [r1, #4]
 80091cc:	2a00      	cmp	r2, #0
 80091ce:	dc02      	bgt.n	80091d6 <__sflush_r+0x1a>
 80091d0:	6c0a      	ldr	r2, [r1, #64]	@ 0x40
 80091d2:	2a00      	cmp	r2, #0
 80091d4:	dd4e      	ble.n	8009274 <__sflush_r+0xb8>
 80091d6:	6ae7      	ldr	r7, [r4, #44]	@ 0x2c
 80091d8:	2f00      	cmp	r7, #0
 80091da:	d04b      	beq.n	8009274 <__sflush_r+0xb8>
 80091dc:	2200      	movs	r2, #0
 80091de:	2080      	movs	r0, #128	@ 0x80
 80091e0:	682e      	ldr	r6, [r5, #0]
 80091e2:	602a      	str	r2, [r5, #0]
 80091e4:	001a      	movs	r2, r3
 80091e6:	0140      	lsls	r0, r0, #5
 80091e8:	6a21      	ldr	r1, [r4, #32]
 80091ea:	4002      	ands	r2, r0
 80091ec:	4203      	tst	r3, r0
 80091ee:	d033      	beq.n	8009258 <__sflush_r+0x9c>
 80091f0:	6d62      	ldr	r2, [r4, #84]	@ 0x54
 80091f2:	89a3      	ldrh	r3, [r4, #12]
 80091f4:	075b      	lsls	r3, r3, #29
 80091f6:	d506      	bpl.n	8009206 <__sflush_r+0x4a>
 80091f8:	6863      	ldr	r3, [r4, #4]
 80091fa:	1ad2      	subs	r2, r2, r3
 80091fc:	6b63      	ldr	r3, [r4, #52]	@ 0x34
 80091fe:	2b00      	cmp	r3, #0
 8009200:	d001      	beq.n	8009206 <__sflush_r+0x4a>
 8009202:	6c23      	ldr	r3, [r4, #64]	@ 0x40
 8009204:	1ad2      	subs	r2, r2, r3
 8009206:	2300      	movs	r3, #0
 8009208:	0028      	movs	r0, r5
 800920a:	6ae7      	ldr	r7, [r4, #44]	@ 0x2c
 800920c:	6a21      	ldr	r1, [r4, #32]
 800920e:	47b8      	blx	r7
 8009210:	89a2      	ldrh	r2, [r4, #12]
 8009212:	1c43      	adds	r3, r0, #1
 8009214:	d106      	bne.n	8009224 <__sflush_r+0x68>
 8009216:	6829      	ldr	r1, [r5, #0]
 8009218:	291d      	cmp	r1, #29
 800921a:	d846      	bhi.n	80092aa <__sflush_r+0xee>
 800921c:	4b29      	ldr	r3, [pc, #164]	@ (80092c4 <__sflush_r+0x108>)
 800921e:	40cb      	lsrs	r3, r1
 8009220:	07db      	lsls	r3, r3, #31
 8009222:	d542      	bpl.n	80092aa <__sflush_r+0xee>
 8009224:	2300      	movs	r3, #0
 8009226:	6063      	str	r3, [r4, #4]
 8009228:	6923      	ldr	r3, [r4, #16]
 800922a:	6023      	str	r3, [r4, #0]
 800922c:	04d2      	lsls	r2, r2, #19
 800922e:	d505      	bpl.n	800923c <__sflush_r+0x80>
 8009230:	1c43      	adds	r3, r0, #1
 8009232:	d102      	bne.n	800923a <__sflush_r+0x7e>
 8009234:	682b      	ldr	r3, [r5, #0]
 8009236:	2b00      	cmp	r3, #0
 8009238:	d100      	bne.n	800923c <__sflush_r+0x80>
 800923a:	6560      	str	r0, [r4, #84]	@ 0x54
 800923c:	6b61      	ldr	r1, [r4, #52]	@ 0x34
 800923e:	602e      	str	r6, [r5, #0]
 8009240:	2900      	cmp	r1, #0
 8009242:	d017      	beq.n	8009274 <__sflush_r+0xb8>
 8009244:	0023      	movs	r3, r4
 8009246:	3344      	adds	r3, #68	@ 0x44
 8009248:	4299      	cmp	r1, r3
 800924a:	d002      	beq.n	8009252 <__sflush_r+0x96>
 800924c:	0028      	movs	r0, r5
 800924e:	f7ff f9cf 	bl	80085f0 <_free_r>
 8009252:	2300      	movs	r3, #0
 8009254:	6363      	str	r3, [r4, #52]	@ 0x34
 8009256:	e00d      	b.n	8009274 <__sflush_r+0xb8>
 8009258:	2301      	movs	r3, #1
 800925a:	0028      	movs	r0, r5
 800925c:	47b8      	blx	r7
 800925e:	0002      	movs	r2, r0
 8009260:	1c43      	adds	r3, r0, #1
 8009262:	d1c6      	bne.n	80091f2 <__sflush_r+0x36>
 8009264:	682b      	ldr	r3, [r5, #0]
 8009266:	2b00      	cmp	r3, #0
 8009268:	d0c3      	beq.n	80091f2 <__sflush_r+0x36>
 800926a:	2b1d      	cmp	r3, #29
 800926c:	d001      	beq.n	8009272 <__sflush_r+0xb6>
 800926e:	2b16      	cmp	r3, #22
 8009270:	d11a      	bne.n	80092a8 <__sflush_r+0xec>
 8009272:	602e      	str	r6, [r5, #0]
 8009274:	2000      	movs	r0, #0
 8009276:	e01e      	b.n	80092b6 <__sflush_r+0xfa>
 8009278:	690e      	ldr	r6, [r1, #16]
 800927a:	2e00      	cmp	r6, #0
 800927c:	d0fa      	beq.n	8009274 <__sflush_r+0xb8>
 800927e:	680f      	ldr	r7, [r1, #0]
 8009280:	600e      	str	r6, [r1, #0]
 8009282:	1bba      	subs	r2, r7, r6
 8009284:	9201      	str	r2, [sp, #4]
 8009286:	2200      	movs	r2, #0
 8009288:	079b      	lsls	r3, r3, #30
 800928a:	d100      	bne.n	800928e <__sflush_r+0xd2>
 800928c:	694a      	ldr	r2, [r1, #20]
 800928e:	60a2      	str	r2, [r4, #8]
 8009290:	9b01      	ldr	r3, [sp, #4]
 8009292:	2b00      	cmp	r3, #0
 8009294:	ddee      	ble.n	8009274 <__sflush_r+0xb8>
 8009296:	6aa3      	ldr	r3, [r4, #40]	@ 0x28
 8009298:	0032      	movs	r2, r6
 800929a:	001f      	movs	r7, r3
 800929c:	0028      	movs	r0, r5
 800929e:	9b01      	ldr	r3, [sp, #4]
 80092a0:	6a21      	ldr	r1, [r4, #32]
 80092a2:	47b8      	blx	r7
 80092a4:	2800      	cmp	r0, #0
 80092a6:	dc07      	bgt.n	80092b8 <__sflush_r+0xfc>
 80092a8:	89a2      	ldrh	r2, [r4, #12]
 80092aa:	2340      	movs	r3, #64	@ 0x40
 80092ac:	2001      	movs	r0, #1
 80092ae:	4313      	orrs	r3, r2
 80092b0:	b21b      	sxth	r3, r3
 80092b2:	81a3      	strh	r3, [r4, #12]
 80092b4:	4240      	negs	r0, r0
 80092b6:	bdfe      	pop	{r1, r2, r3, r4, r5, r6, r7, pc}
 80092b8:	9b01      	ldr	r3, [sp, #4]
 80092ba:	1836      	adds	r6, r6, r0
 80092bc:	1a1b      	subs	r3, r3, r0
 80092be:	9301      	str	r3, [sp, #4]
 80092c0:	e7e6      	b.n	8009290 <__sflush_r+0xd4>
 80092c2:	46c0      	nop			@ (mov r8, r8)
 80092c4:	20400001 	.word	0x20400001

080092c8 <_fflush_r>:
 80092c8:	690b      	ldr	r3, [r1, #16]
 80092ca:	b570      	push	{r4, r5, r6, lr}
 80092cc:	0005      	movs	r5, r0
 80092ce:	000c      	movs	r4, r1
 80092d0:	2b00      	cmp	r3, #0
 80092d2:	d102      	bne.n	80092da <_fflush_r+0x12>
 80092d4:	2500      	movs	r5, #0
 80092d6:	0028      	movs	r0, r5
 80092d8:	bd70      	pop	{r4, r5, r6, pc}
 80092da:	2800      	cmp	r0, #0
 80092dc:	d004      	beq.n	80092e8 <_fflush_r+0x20>
 80092de:	6a03      	ldr	r3, [r0, #32]
 80092e0:	2b00      	cmp	r3, #0
 80092e2:	d101      	bne.n	80092e8 <_fflush_r+0x20>
 80092e4:	f7fe f8da 	bl	800749c <__sinit>
 80092e8:	220c      	movs	r2, #12
 80092ea:	5ea3      	ldrsh	r3, [r4, r2]
 80092ec:	2b00      	cmp	r3, #0
 80092ee:	d0f1      	beq.n	80092d4 <_fflush_r+0xc>
 80092f0:	6e62      	ldr	r2, [r4, #100]	@ 0x64
 80092f2:	07d2      	lsls	r2, r2, #31
 80092f4:	d404      	bmi.n	8009300 <_fflush_r+0x38>
 80092f6:	059b      	lsls	r3, r3, #22
 80092f8:	d402      	bmi.n	8009300 <_fflush_r+0x38>
 80092fa:	6da0      	ldr	r0, [r4, #88]	@ 0x58
 80092fc:	f7fe faf5 	bl	80078ea <__retarget_lock_acquire_recursive>
 8009300:	0028      	movs	r0, r5
 8009302:	0021      	movs	r1, r4
 8009304:	f7ff ff5a 	bl	80091bc <__sflush_r>
 8009308:	6e63      	ldr	r3, [r4, #100]	@ 0x64
 800930a:	0005      	movs	r5, r0
 800930c:	07db      	lsls	r3, r3, #31
 800930e:	d4e2      	bmi.n	80092d6 <_fflush_r+0xe>
 8009310:	89a3      	ldrh	r3, [r4, #12]
 8009312:	059b      	lsls	r3, r3, #22
 8009314:	d4df      	bmi.n	80092d6 <_fflush_r+0xe>
 8009316:	6da0      	ldr	r0, [r4, #88]	@ 0x58
 8009318:	f7fe fae8 	bl	80078ec <__retarget_lock_release_recursive>
 800931c:	e7db      	b.n	80092d6 <_fflush_r+0xe>
	...

08009320 <__swhatbuf_r>:
 8009320:	b570      	push	{r4, r5, r6, lr}
 8009322:	000e      	movs	r6, r1
 8009324:	001d      	movs	r5, r3
 8009326:	230e      	movs	r3, #14
 8009328:	5ec9      	ldrsh	r1, [r1, r3]
 800932a:	0014      	movs	r4, r2
 800932c:	b096      	sub	sp, #88	@ 0x58
 800932e:	2900      	cmp	r1, #0
 8009330:	da0c      	bge.n	800934c <__swhatbuf_r+0x2c>
 8009332:	89b2      	ldrh	r2, [r6, #12]
 8009334:	2380      	movs	r3, #128	@ 0x80
 8009336:	0011      	movs	r1, r2
 8009338:	4019      	ands	r1, r3
 800933a:	421a      	tst	r2, r3
 800933c:	d114      	bne.n	8009368 <__swhatbuf_r+0x48>
 800933e:	2380      	movs	r3, #128	@ 0x80
 8009340:	00db      	lsls	r3, r3, #3
 8009342:	2000      	movs	r0, #0
 8009344:	6029      	str	r1, [r5, #0]
 8009346:	6023      	str	r3, [r4, #0]
 8009348:	b016      	add	sp, #88	@ 0x58
 800934a:	bd70      	pop	{r4, r5, r6, pc}
 800934c:	466a      	mov	r2, sp
 800934e:	f000 f853 	bl	80093f8 <_fstat_r>
 8009352:	2800      	cmp	r0, #0
 8009354:	dbed      	blt.n	8009332 <__swhatbuf_r+0x12>
 8009356:	23f0      	movs	r3, #240	@ 0xf0
 8009358:	9901      	ldr	r1, [sp, #4]
 800935a:	021b      	lsls	r3, r3, #8
 800935c:	4019      	ands	r1, r3
 800935e:	4b04      	ldr	r3, [pc, #16]	@ (8009370 <__swhatbuf_r+0x50>)
 8009360:	18c9      	adds	r1, r1, r3
 8009362:	424b      	negs	r3, r1
 8009364:	4159      	adcs	r1, r3
 8009366:	e7ea      	b.n	800933e <__swhatbuf_r+0x1e>
 8009368:	2100      	movs	r1, #0
 800936a:	2340      	movs	r3, #64	@ 0x40
 800936c:	e7e9      	b.n	8009342 <__swhatbuf_r+0x22>
 800936e:	46c0      	nop			@ (mov r8, r8)
 8009370:	ffffe000 	.word	0xffffe000

08009374 <__smakebuf_r>:
 8009374:	b5f0      	push	{r4, r5, r6, r7, lr}
 8009376:	2602      	movs	r6, #2
 8009378:	898b      	ldrh	r3, [r1, #12]
 800937a:	0005      	movs	r5, r0
 800937c:	000c      	movs	r4, r1
 800937e:	b085      	sub	sp, #20
 8009380:	4233      	tst	r3, r6
 8009382:	d007      	beq.n	8009394 <__smakebuf_r+0x20>
 8009384:	0023      	movs	r3, r4
 8009386:	3347      	adds	r3, #71	@ 0x47
 8009388:	6023      	str	r3, [r4, #0]
 800938a:	6123      	str	r3, [r4, #16]
 800938c:	2301      	movs	r3, #1
 800938e:	6163      	str	r3, [r4, #20]
 8009390:	b005      	add	sp, #20
 8009392:	bdf0      	pop	{r4, r5, r6, r7, pc}
 8009394:	ab03      	add	r3, sp, #12
 8009396:	aa02      	add	r2, sp, #8
 8009398:	f7ff ffc2 	bl	8009320 <__swhatbuf_r>
 800939c:	9f02      	ldr	r7, [sp, #8]
 800939e:	9001      	str	r0, [sp, #4]
 80093a0:	0039      	movs	r1, r7
 80093a2:	0028      	movs	r0, r5
 80093a4:	f7ff f99a 	bl	80086dc <_malloc_r>
 80093a8:	2800      	cmp	r0, #0
 80093aa:	d108      	bne.n	80093be <__smakebuf_r+0x4a>
 80093ac:	220c      	movs	r2, #12
 80093ae:	5ea3      	ldrsh	r3, [r4, r2]
 80093b0:	059a      	lsls	r2, r3, #22
 80093b2:	d4ed      	bmi.n	8009390 <__smakebuf_r+0x1c>
 80093b4:	2203      	movs	r2, #3
 80093b6:	4393      	bics	r3, r2
 80093b8:	431e      	orrs	r6, r3
 80093ba:	81a6      	strh	r6, [r4, #12]
 80093bc:	e7e2      	b.n	8009384 <__smakebuf_r+0x10>
 80093be:	2380      	movs	r3, #128	@ 0x80
 80093c0:	89a2      	ldrh	r2, [r4, #12]
 80093c2:	6020      	str	r0, [r4, #0]
 80093c4:	4313      	orrs	r3, r2
 80093c6:	81a3      	strh	r3, [r4, #12]
 80093c8:	9b03      	ldr	r3, [sp, #12]
 80093ca:	6120      	str	r0, [r4, #16]
 80093cc:	6167      	str	r7, [r4, #20]
 80093ce:	2b00      	cmp	r3, #0
 80093d0:	d00c      	beq.n	80093ec <__smakebuf_r+0x78>
 80093d2:	0028      	movs	r0, r5
 80093d4:	230e      	movs	r3, #14
 80093d6:	5ee1      	ldrsh	r1, [r4, r3]
 80093d8:	f000 f820 	bl	800941c <_isatty_r>
 80093dc:	2800      	cmp	r0, #0
 80093de:	d005      	beq.n	80093ec <__smakebuf_r+0x78>
 80093e0:	2303      	movs	r3, #3
 80093e2:	89a2      	ldrh	r2, [r4, #12]
 80093e4:	439a      	bics	r2, r3
 80093e6:	3b02      	subs	r3, #2
 80093e8:	4313      	orrs	r3, r2
 80093ea:	81a3      	strh	r3, [r4, #12]
 80093ec:	89a3      	ldrh	r3, [r4, #12]
 80093ee:	9a01      	ldr	r2, [sp, #4]
 80093f0:	4313      	orrs	r3, r2
 80093f2:	81a3      	strh	r3, [r4, #12]
 80093f4:	e7cc      	b.n	8009390 <__smakebuf_r+0x1c>
	...

080093f8 <_fstat_r>:
 80093f8:	2300      	movs	r3, #0
 80093fa:	b570      	push	{r4, r5, r6, lr}
 80093fc:	4d06      	ldr	r5, [pc, #24]	@ (8009418 <_fstat_r+0x20>)
 80093fe:	0004      	movs	r4, r0
 8009400:	0008      	movs	r0, r1
 8009402:	0011      	movs	r1, r2
 8009404:	602b      	str	r3, [r5, #0]
 8009406:	f7fa fbcc 	bl	8003ba2 <_fstat>
 800940a:	1c43      	adds	r3, r0, #1
 800940c:	d103      	bne.n	8009416 <_fstat_r+0x1e>
 800940e:	682b      	ldr	r3, [r5, #0]
 8009410:	2b00      	cmp	r3, #0
 8009412:	d000      	beq.n	8009416 <_fstat_r+0x1e>
 8009414:	6023      	str	r3, [r4, #0]
 8009416:	bd70      	pop	{r4, r5, r6, pc}
 8009418:	2000053c 	.word	0x2000053c

0800941c <_isatty_r>:
 800941c:	2300      	movs	r3, #0
 800941e:	b570      	push	{r4, r5, r6, lr}
 8009420:	4d06      	ldr	r5, [pc, #24]	@ (800943c <_isatty_r+0x20>)
 8009422:	0004      	movs	r4, r0
 8009424:	0008      	movs	r0, r1
 8009426:	602b      	str	r3, [r5, #0]
 8009428:	f7fa fbc9 	bl	8003bbe <_isatty>
 800942c:	1c43      	adds	r3, r0, #1
 800942e:	d103      	bne.n	8009438 <_isatty_r+0x1c>
 8009430:	682b      	ldr	r3, [r5, #0]
 8009432:	2b00      	cmp	r3, #0
 8009434:	d000      	beq.n	8009438 <_isatty_r+0x1c>
 8009436:	6023      	str	r3, [r4, #0]
 8009438:	bd70      	pop	{r4, r5, r6, pc}
 800943a:	46c0      	nop			@ (mov r8, r8)
 800943c:	2000053c 	.word	0x2000053c

08009440 <_sbrk_r>:
 8009440:	2300      	movs	r3, #0
 8009442:	b570      	push	{r4, r5, r6, lr}
 8009444:	4d06      	ldr	r5, [pc, #24]	@ (8009460 <_sbrk_r+0x20>)
 8009446:	0004      	movs	r4, r0
 8009448:	0008      	movs	r0, r1
 800944a:	602b      	str	r3, [r5, #0]
 800944c:	f7fa fbcc 	bl	8003be8 <_sbrk>
 8009450:	1c43      	adds	r3, r0, #1
 8009452:	d103      	bne.n	800945c <_sbrk_r+0x1c>
 8009454:	682b      	ldr	r3, [r5, #0]
 8009456:	2b00      	cmp	r3, #0
 8009458:	d000      	beq.n	800945c <_sbrk_r+0x1c>
 800945a:	6023      	str	r3, [r4, #0]
 800945c:	bd70      	pop	{r4, r5, r6, pc}
 800945e:	46c0      	nop			@ (mov r8, r8)
 8009460:	2000053c 	.word	0x2000053c

08009464 <memcpy>:
 8009464:	2300      	movs	r3, #0
 8009466:	b510      	push	{r4, lr}
 8009468:	429a      	cmp	r2, r3
 800946a:	d100      	bne.n	800946e <memcpy+0xa>
 800946c:	bd10      	pop	{r4, pc}
 800946e:	5ccc      	ldrb	r4, [r1, r3]
 8009470:	54c4      	strb	r4, [r0, r3]
 8009472:	3301      	adds	r3, #1
 8009474:	e7f8      	b.n	8009468 <memcpy+0x4>
	...

08009478 <__assert_func>:
 8009478:	b57f      	push	{r0, r1, r2, r3, r4, r5, r6, lr}
 800947a:	0014      	movs	r4, r2
 800947c:	001a      	movs	r2, r3
 800947e:	4b09      	ldr	r3, [pc, #36]	@ (80094a4 <__assert_func+0x2c>)
 8009480:	0005      	movs	r5, r0
 8009482:	681b      	ldr	r3, [r3, #0]
 8009484:	000e      	movs	r6, r1
 8009486:	68d8      	ldr	r0, [r3, #12]
 8009488:	4b07      	ldr	r3, [pc, #28]	@ (80094a8 <__assert_func+0x30>)
 800948a:	2c00      	cmp	r4, #0
 800948c:	d101      	bne.n	8009492 <__assert_func+0x1a>
 800948e:	4b07      	ldr	r3, [pc, #28]	@ (80094ac <__assert_func+0x34>)
 8009490:	001c      	movs	r4, r3
 8009492:	4907      	ldr	r1, [pc, #28]	@ (80094b0 <__assert_func+0x38>)
 8009494:	9301      	str	r3, [sp, #4]
 8009496:	9402      	str	r4, [sp, #8]
 8009498:	002b      	movs	r3, r5
 800949a:	9600      	str	r6, [sp, #0]
 800949c:	f000 f856 	bl	800954c <fiprintf>
 80094a0:	f000 f864 	bl	800956c <abort>
 80094a4:	2000001c 	.word	0x2000001c
 80094a8:	08009a0d 	.word	0x08009a0d
 80094ac:	08009a48 	.word	0x08009a48
 80094b0:	08009a1a 	.word	0x08009a1a

080094b4 <_calloc_r>:
 80094b4:	b570      	push	{r4, r5, r6, lr}
 80094b6:	0c0b      	lsrs	r3, r1, #16
 80094b8:	0c15      	lsrs	r5, r2, #16
 80094ba:	2b00      	cmp	r3, #0
 80094bc:	d11e      	bne.n	80094fc <_calloc_r+0x48>
 80094be:	2d00      	cmp	r5, #0
 80094c0:	d10c      	bne.n	80094dc <_calloc_r+0x28>
 80094c2:	b289      	uxth	r1, r1
 80094c4:	b294      	uxth	r4, r2
 80094c6:	434c      	muls	r4, r1
 80094c8:	0021      	movs	r1, r4
 80094ca:	f7ff f907 	bl	80086dc <_malloc_r>
 80094ce:	1e05      	subs	r5, r0, #0
 80094d0:	d01b      	beq.n	800950a <_calloc_r+0x56>
 80094d2:	0022      	movs	r2, r4
 80094d4:	2100      	movs	r1, #0
 80094d6:	f7fe f983 	bl	80077e0 <memset>
 80094da:	e016      	b.n	800950a <_calloc_r+0x56>
 80094dc:	1c2b      	adds	r3, r5, #0
 80094de:	1c0c      	adds	r4, r1, #0
 80094e0:	b289      	uxth	r1, r1
 80094e2:	b292      	uxth	r2, r2
 80094e4:	434a      	muls	r2, r1
 80094e6:	b29b      	uxth	r3, r3
 80094e8:	b2a1      	uxth	r1, r4
 80094ea:	4359      	muls	r1, r3
 80094ec:	0c14      	lsrs	r4, r2, #16
 80094ee:	190c      	adds	r4, r1, r4
 80094f0:	0c23      	lsrs	r3, r4, #16
 80094f2:	d107      	bne.n	8009504 <_calloc_r+0x50>
 80094f4:	0424      	lsls	r4, r4, #16
 80094f6:	b292      	uxth	r2, r2
 80094f8:	4314      	orrs	r4, r2
 80094fa:	e7e5      	b.n	80094c8 <_calloc_r+0x14>
 80094fc:	2d00      	cmp	r5, #0
 80094fe:	d101      	bne.n	8009504 <_calloc_r+0x50>
 8009500:	1c14      	adds	r4, r2, #0
 8009502:	e7ed      	b.n	80094e0 <_calloc_r+0x2c>
 8009504:	230c      	movs	r3, #12
 8009506:	2500      	movs	r5, #0
 8009508:	6003      	str	r3, [r0, #0]
 800950a:	0028      	movs	r0, r5
 800950c:	bd70      	pop	{r4, r5, r6, pc}

0800950e <__ascii_mbtowc>:
 800950e:	b082      	sub	sp, #8
 8009510:	2900      	cmp	r1, #0
 8009512:	d100      	bne.n	8009516 <__ascii_mbtowc+0x8>
 8009514:	a901      	add	r1, sp, #4
 8009516:	1e10      	subs	r0, r2, #0
 8009518:	d006      	beq.n	8009528 <__ascii_mbtowc+0x1a>
 800951a:	2b00      	cmp	r3, #0
 800951c:	d006      	beq.n	800952c <__ascii_mbtowc+0x1e>
 800951e:	7813      	ldrb	r3, [r2, #0]
 8009520:	600b      	str	r3, [r1, #0]
 8009522:	7810      	ldrb	r0, [r2, #0]
 8009524:	1e43      	subs	r3, r0, #1
 8009526:	4198      	sbcs	r0, r3
 8009528:	b002      	add	sp, #8
 800952a:	4770      	bx	lr
 800952c:	2002      	movs	r0, #2
 800952e:	4240      	negs	r0, r0
 8009530:	e7fa      	b.n	8009528 <__ascii_mbtowc+0x1a>

08009532 <__ascii_wctomb>:
 8009532:	0003      	movs	r3, r0
 8009534:	1e08      	subs	r0, r1, #0
 8009536:	d005      	beq.n	8009544 <__ascii_wctomb+0x12>
 8009538:	2aff      	cmp	r2, #255	@ 0xff
 800953a:	d904      	bls.n	8009546 <__ascii_wctomb+0x14>
 800953c:	228a      	movs	r2, #138	@ 0x8a
 800953e:	2001      	movs	r0, #1
 8009540:	601a      	str	r2, [r3, #0]
 8009542:	4240      	negs	r0, r0
 8009544:	4770      	bx	lr
 8009546:	2001      	movs	r0, #1
 8009548:	700a      	strb	r2, [r1, #0]
 800954a:	e7fb      	b.n	8009544 <__ascii_wctomb+0x12>

0800954c <fiprintf>:
 800954c:	b40e      	push	{r1, r2, r3}
 800954e:	b517      	push	{r0, r1, r2, r4, lr}
 8009550:	4c05      	ldr	r4, [pc, #20]	@ (8009568 <fiprintf+0x1c>)
 8009552:	ab05      	add	r3, sp, #20
 8009554:	cb04      	ldmia	r3!, {r2}
 8009556:	0001      	movs	r1, r0
 8009558:	6820      	ldr	r0, [r4, #0]
 800955a:	9301      	str	r3, [sp, #4]
 800955c:	f7ff fd12 	bl	8008f84 <_vfiprintf_r>
 8009560:	bc1e      	pop	{r1, r2, r3, r4}
 8009562:	bc08      	pop	{r3}
 8009564:	b003      	add	sp, #12
 8009566:	4718      	bx	r3
 8009568:	2000001c 	.word	0x2000001c

0800956c <abort>:
 800956c:	2006      	movs	r0, #6
 800956e:	b510      	push	{r4, lr}
 8009570:	f000 f82c 	bl	80095cc <raise>
 8009574:	2001      	movs	r0, #1
 8009576:	f7fa fac4 	bl	8003b02 <_exit>

0800957a <_raise_r>:
 800957a:	b570      	push	{r4, r5, r6, lr}
 800957c:	0004      	movs	r4, r0
 800957e:	000d      	movs	r5, r1
 8009580:	291f      	cmp	r1, #31
 8009582:	d904      	bls.n	800958e <_raise_r+0x14>
 8009584:	2316      	movs	r3, #22
 8009586:	6003      	str	r3, [r0, #0]
 8009588:	2001      	movs	r0, #1
 800958a:	4240      	negs	r0, r0
 800958c:	bd70      	pop	{r4, r5, r6, pc}
 800958e:	6bc3      	ldr	r3, [r0, #60]	@ 0x3c
 8009590:	2b00      	cmp	r3, #0
 8009592:	d004      	beq.n	800959e <_raise_r+0x24>
 8009594:	008a      	lsls	r2, r1, #2
 8009596:	189b      	adds	r3, r3, r2
 8009598:	681a      	ldr	r2, [r3, #0]
 800959a:	2a00      	cmp	r2, #0
 800959c:	d108      	bne.n	80095b0 <_raise_r+0x36>
 800959e:	0020      	movs	r0, r4
 80095a0:	f000 f830 	bl	8009604 <_getpid_r>
 80095a4:	002a      	movs	r2, r5
 80095a6:	0001      	movs	r1, r0
 80095a8:	0020      	movs	r0, r4
 80095aa:	f000 f819 	bl	80095e0 <_kill_r>
 80095ae:	e7ed      	b.n	800958c <_raise_r+0x12>
 80095b0:	2a01      	cmp	r2, #1
 80095b2:	d009      	beq.n	80095c8 <_raise_r+0x4e>
 80095b4:	1c51      	adds	r1, r2, #1
 80095b6:	d103      	bne.n	80095c0 <_raise_r+0x46>
 80095b8:	2316      	movs	r3, #22
 80095ba:	6003      	str	r3, [r0, #0]
 80095bc:	2001      	movs	r0, #1
 80095be:	e7e5      	b.n	800958c <_raise_r+0x12>
 80095c0:	2100      	movs	r1, #0
 80095c2:	0028      	movs	r0, r5
 80095c4:	6019      	str	r1, [r3, #0]
 80095c6:	4790      	blx	r2
 80095c8:	2000      	movs	r0, #0
 80095ca:	e7df      	b.n	800958c <_raise_r+0x12>

080095cc <raise>:
 80095cc:	b510      	push	{r4, lr}
 80095ce:	4b03      	ldr	r3, [pc, #12]	@ (80095dc <raise+0x10>)
 80095d0:	0001      	movs	r1, r0
 80095d2:	6818      	ldr	r0, [r3, #0]
 80095d4:	f7ff ffd1 	bl	800957a <_raise_r>
 80095d8:	bd10      	pop	{r4, pc}
 80095da:	46c0      	nop			@ (mov r8, r8)
 80095dc:	2000001c 	.word	0x2000001c

080095e0 <_kill_r>:
 80095e0:	2300      	movs	r3, #0
 80095e2:	b570      	push	{r4, r5, r6, lr}
 80095e4:	4d06      	ldr	r5, [pc, #24]	@ (8009600 <_kill_r+0x20>)
 80095e6:	0004      	movs	r4, r0
 80095e8:	0008      	movs	r0, r1
 80095ea:	0011      	movs	r1, r2
 80095ec:	602b      	str	r3, [r5, #0]
 80095ee:	f7fa fa78 	bl	8003ae2 <_kill>
 80095f2:	1c43      	adds	r3, r0, #1
 80095f4:	d103      	bne.n	80095fe <_kill_r+0x1e>
 80095f6:	682b      	ldr	r3, [r5, #0]
 80095f8:	2b00      	cmp	r3, #0
 80095fa:	d000      	beq.n	80095fe <_kill_r+0x1e>
 80095fc:	6023      	str	r3, [r4, #0]
 80095fe:	bd70      	pop	{r4, r5, r6, pc}
 8009600:	2000053c 	.word	0x2000053c

08009604 <_getpid_r>:
 8009604:	b510      	push	{r4, lr}
 8009606:	f7fa fa66 	bl	8003ad6 <_getpid>
 800960a:	bd10      	pop	{r4, pc}

0800960c <_init>:
 800960c:	b5f8      	push	{r3, r4, r5, r6, r7, lr}
 800960e:	46c0      	nop			@ (mov r8, r8)
 8009610:	bcf8      	pop	{r3, r4, r5, r6, r7}
 8009612:	bc08      	pop	{r3}
 8009614:	469e      	mov	lr, r3
 8009616:	4770      	bx	lr

08009618 <_fini>:
 8009618:	b5f8      	push	{r3, r4, r5, r6, r7, lr}
 800961a:	46c0      	nop			@ (mov r8, r8)
 800961c:	bcf8      	pop	{r3, r4, r5, r6, r7}
 800961e:	bc08      	pop	{r3}
 8009620:	469e      	mov	lr, r3
 8009622:	4770      	bx	lr
