
ECE500_2025_Fall_Jordan_Thacker.elf:     file format elf32-littlearm

Sections:
Idx Name          Size      VMA       LMA       File off  Algn
  0 .isr_vector   000000bc  08000000  08000000  00001000  2**0
                  CONTENTS, ALLOC, LOAD, READONLY, DATA
  1 .text         000098ac  080000bc  080000bc  000010bc  2**2
                  CONTENTS, ALLOC, LOAD, READONLY, CODE
  2 .rodata       00000654  08009968  08009968  0000a968  2**3
                  CONTENTS, ALLOC, LOAD, READONLY, DATA
  3 .ARM.extab    00000000  08009fbc  08009fbc  0000b1d8  2**0
                  CONTENTS, READONLY
  4 .ARM          00000008  08009fbc  08009fbc  0000afbc  2**2
                  CONTENTS, ALLOC, LOAD, READONLY, DATA
  5 .preinit_array 00000000  08009fc4  08009fc4  0000b1d8  2**0
                  CONTENTS, ALLOC, LOAD, DATA
  6 .init_array   00000004  08009fc4  08009fc4  0000afc4  2**2
                  CONTENTS, ALLOC, LOAD, READONLY, DATA
  7 .fini_array   00000004  08009fc8  08009fc8  0000afc8  2**2
                  CONTENTS, ALLOC, LOAD, READONLY, DATA
  8 .data         000001d8  20000000  08009fcc  0000b000  2**2
                  CONTENTS, ALLOC, LOAD, DATA
  9 .bss          00000378  200001d8  0800a1a4  0000b1d8  2**2
                  ALLOC
 10 ._user_heap_stack 00000600  20000550  0800a1a4  0000b550  2**0
                  ALLOC
 11 .ARM.attributes 00000028  00000000  00000000  0000b1d8  2**0
                  CONTENTS, READONLY
 12 .debug_info   0000f451  00000000  00000000  0000b200  2**0
                  CONTENTS, READONLY, DEBUGGING, OCTETS
 13 .debug_abbrev 00002954  00000000  00000000  0001a651  2**0
                  CONTENTS, READONLY, DEBUGGING, OCTETS
 14 .debug_aranges 00000cd0  00000000  00000000  0001cfa8  2**3
                  CONTENTS, READONLY, DEBUGGING, OCTETS
 15 .debug_rnglists 000009e4  00000000  00000000  0001dc78  2**0
                  CONTENTS, READONLY, DEBUGGING, OCTETS
 16 .debug_macro  00019a26  00000000  00000000  0001e65c  2**0
                  CONTENTS, READONLY, DEBUGGING, OCTETS
 17 .debug_line   000117b9  00000000  00000000  00038082  2**0
                  CONTENTS, READONLY, DEBUGGING, OCTETS
 18 .debug_str    0009afbf  00000000  00000000  0004983b  2**0
                  CONTENTS, READONLY, DEBUGGING, OCTETS
 19 .comment      00000043  00000000  00000000  000e47fa  2**0
                  CONTENTS, READONLY
 20 .debug_frame  00003d8c  00000000  00000000  000e4840  2**2
                  CONTENTS, READONLY, DEBUGGING, OCTETS
 21 .debug_line_str 0000007b  00000000  00000000  000e85cc  2**0
                  CONTENTS, READONLY, DEBUGGING, OCTETS

Disassembly of section .text:

080000bc <__do_global_dtors_aux>:
 80000bc:	b510      	push	{r4, lr}
 80000be:	4c06      	ldr	r4, [pc, #24]	@ (80000d8 <__do_global_dtors_aux+0x1c>)
 80000c0:	7823      	ldrb	r3, [r4, #0]
 80000c2:	2b00      	cmp	r3, #0
 80000c4:	d107      	bne.n	80000d6 <__do_global_dtors_aux+0x1a>
 80000c6:	4b05      	ldr	r3, [pc, #20]	@ (80000dc <__do_global_dtors_aux+0x20>)
 80000c8:	2b00      	cmp	r3, #0
 80000ca:	d002      	beq.n	80000d2 <__do_global_dtors_aux+0x16>
 80000cc:	4804      	ldr	r0, [pc, #16]	@ (80000e0 <__do_global_dtors_aux+0x24>)
 80000ce:	e000      	b.n	80000d2 <__do_global_dtors_aux+0x16>
 80000d0:	bf00      	nop
 80000d2:	2301      	movs	r3, #1
 80000d4:	7023      	strb	r3, [r4, #0]
 80000d6:	bd10      	pop	{r4, pc}
 80000d8:	200001d8 	.word	0x200001d8
 80000dc:	00000000 	.word	0x00000000
 80000e0:	08009950 	.word	0x08009950

080000e4 <frame_dummy>:
 80000e4:	4b04      	ldr	r3, [pc, #16]	@ (80000f8 <frame_dummy+0x14>)
 80000e6:	b510      	push	{r4, lr}
 80000e8:	2b00      	cmp	r3, #0
 80000ea:	d003      	beq.n	80000f4 <frame_dummy+0x10>
 80000ec:	4903      	ldr	r1, [pc, #12]	@ (80000fc <frame_dummy+0x18>)
 80000ee:	4804      	ldr	r0, [pc, #16]	@ (8000100 <frame_dummy+0x1c>)
 80000f0:	e000      	b.n	80000f4 <frame_dummy+0x10>
 80000f2:	bf00      	nop
 80000f4:	bd10      	pop	{r4, pc}
 80000f6:	46c0      	nop			@ (mov r8, r8)
 80000f8:	00000000 	.word	0x00000000
 80000fc:	200001dc 	.word	0x200001dc
 8000100:	08009950 	.word	0x08009950

08000104 <strcmp>:
 8000104:	7802      	ldrb	r2, [r0, #0]
 8000106:	780b      	ldrb	r3, [r1, #0]
 8000108:	2a00      	cmp	r2, #0
 800010a:	d003      	beq.n	8000114 <strcmp+0x10>
 800010c:	3001      	adds	r0, #1
 800010e:	3101      	adds	r1, #1
 8000110:	429a      	cmp	r2, r3
 8000112:	d0f7      	beq.n	8000104 <strcmp>
 8000114:	1ad0      	subs	r0, r2, r3
 8000116:	4770      	bx	lr

08000118 <strlen>:
 8000118:	2300      	movs	r3, #0
 800011a:	5cc2      	ldrb	r2, [r0, r3]
 800011c:	3301      	adds	r3, #1
 800011e:	2a00      	cmp	r2, #0
 8000120:	d1fb      	bne.n	800011a <strlen+0x2>
 8000122:	1e58      	subs	r0, r3, #1
 8000124:	4770      	bx	lr
	...

08000128 <__gnu_thumb1_case_uqi>:
 8000128:	b402      	push	{r1}
 800012a:	4671      	mov	r1, lr
 800012c:	0849      	lsrs	r1, r1, #1
 800012e:	0049      	lsls	r1, r1, #1
 8000130:	5c09      	ldrb	r1, [r1, r0]
 8000132:	0049      	lsls	r1, r1, #1
 8000134:	448e      	add	lr, r1
 8000136:	bc02      	pop	{r1}
 8000138:	4770      	bx	lr
 800013a:	46c0      	nop			@ (mov r8, r8)

0800013c <__gnu_thumb1_case_shi>:
 800013c:	b403      	push	{r0, r1}
 800013e:	4671      	mov	r1, lr
 8000140:	0849      	lsrs	r1, r1, #1
 8000142:	0040      	lsls	r0, r0, #1
 8000144:	0049      	lsls	r1, r1, #1
 8000146:	5e09      	ldrsh	r1, [r1, r0]
 8000148:	0049      	lsls	r1, r1, #1
 800014a:	448e      	add	lr, r1
 800014c:	bc03      	pop	{r0, r1}
 800014e:	4770      	bx	lr

08000150 <__udivsi3>:
 8000150:	2200      	movs	r2, #0
 8000152:	0843      	lsrs	r3, r0, #1
 8000154:	428b      	cmp	r3, r1
 8000156:	d374      	bcc.n	8000242 <__udivsi3+0xf2>
 8000158:	0903      	lsrs	r3, r0, #4
 800015a:	428b      	cmp	r3, r1
 800015c:	d35f      	bcc.n	800021e <__udivsi3+0xce>
 800015e:	0a03      	lsrs	r3, r0, #8
 8000160:	428b      	cmp	r3, r1
 8000162:	d344      	bcc.n	80001ee <__udivsi3+0x9e>
 8000164:	0b03      	lsrs	r3, r0, #12
 8000166:	428b      	cmp	r3, r1
 8000168:	d328      	bcc.n	80001bc <__udivsi3+0x6c>
 800016a:	0c03      	lsrs	r3, r0, #16
 800016c:	428b      	cmp	r3, r1
 800016e:	d30d      	bcc.n	800018c <__udivsi3+0x3c>
 8000170:	22ff      	movs	r2, #255	@ 0xff
 8000172:	0209      	lsls	r1, r1, #8
 8000174:	ba12      	rev	r2, r2
 8000176:	0c03      	lsrs	r3, r0, #16
 8000178:	428b      	cmp	r3, r1
 800017a:	d302      	bcc.n	8000182 <__udivsi3+0x32>
 800017c:	1212      	asrs	r2, r2, #8
 800017e:	0209      	lsls	r1, r1, #8
 8000180:	d065      	beq.n	800024e <__udivsi3+0xfe>
 8000182:	0b03      	lsrs	r3, r0, #12
 8000184:	428b      	cmp	r3, r1
 8000186:	d319      	bcc.n	80001bc <__udivsi3+0x6c>
 8000188:	e000      	b.n	800018c <__udivsi3+0x3c>
 800018a:	0a09      	lsrs	r1, r1, #8
 800018c:	0bc3      	lsrs	r3, r0, #15
 800018e:	428b      	cmp	r3, r1
 8000190:	d301      	bcc.n	8000196 <__udivsi3+0x46>
 8000192:	03cb      	lsls	r3, r1, #15
 8000194:	1ac0      	subs	r0, r0, r3
 8000196:	4152      	adcs	r2, r2
 8000198:	0b83      	lsrs	r3, r0, #14
 800019a:	428b      	cmp	r3, r1
 800019c:	d301      	bcc.n	80001a2 <__udivsi3+0x52>
 800019e:	038b      	lsls	r3, r1, #14
 80001a0:	1ac0      	subs	r0, r0, r3
 80001a2:	4152      	adcs	r2, r2
 80001a4:	0b43      	lsrs	r3, r0, #13
 80001a6:	428b      	cmp	r3, r1
 80001a8:	d301      	bcc.n	80001ae <__udivsi3+0x5e>
 80001aa:	034b      	lsls	r3, r1, #13
 80001ac:	1ac0      	subs	r0, r0, r3
 80001ae:	4152      	adcs	r2, r2
 80001b0:	0b03      	lsrs	r3, r0, #12
 80001b2:	428b      	cmp	r3, r1
 80001b4:	d301      	bcc.n	80001ba <__udivsi3+0x6a>
 80001b6:	030b      	lsls	r3, r1, #12
 80001b8:	1ac0      	subs	r0, r0, r3
 80001ba:	4152      	adcs	r2, r2
 80001bc:	0ac3      	lsrs	r3, r0, #11
 80001be:	428b      	cmp	r3, r1
 80001c0:	d301      	bcc.n	80001c6 <__udivsi3+0x76>
 80001c2:	02cb      	lsls	r3, r1, #11
 80001c4:	1ac0      	subs	r0, r0, r3
 80001c6:	4152      	adcs	r2, r2
 80001c8:	0a83      	lsrs	r3, r0, #10
 80001ca:	428b      	cmp	r3, r1
 80001cc:	d301      	bcc.n	80001d2 <__udivsi3+0x82>
 80001ce:	028b      	lsls	r3, r1, #10
 80001d0:	1ac0      	subs	r0, r0, r3
 80001d2:	4152      	adcs	r2, r2
 80001d4:	0a43      	lsrs	r3, r0, #9
 80001d6:	428b      	cmp	r3, r1
 80001d8:	d301      	bcc.n	80001de <__udivsi3+0x8e>
 80001da:	024b      	lsls	r3, r1, #9
 80001dc:	1ac0      	subs	r0, r0, r3
 80001de:	4152      	adcs	r2, r2
 80001e0:	0a03      	lsrs	r3, r0, #8
 80001e2:	428b      	cmp	r3, r1
 80001e4:	d301      	bcc.n	80001ea <__udivsi3+0x9a>
 80001e6:	020b      	lsls	r3, r1, #8
 80001e8:	1ac0      	subs	r0, r0, r3
 80001ea:	4152      	adcs	r2, r2
 80001ec:	d2cd      	bcs.n	800018a <__udivsi3+0x3a>
 80001ee:	09c3      	lsrs	r3, r0, #7
 80001f0:	428b      	cmp	r3, r1
 80001f2:	d301      	bcc.n	80001f8 <__udivsi3+0xa8>
 80001f4:	01cb      	lsls	r3, r1, #7
 80001f6:	1ac0      	subs	r0, r0, r3
 80001f8:	4152      	adcs	r2, r2
 80001fa:	0983      	lsrs	r3, r0, #6
 80001fc:	428b      	cmp	r3, r1
 80001fe:	d301      	bcc.n	8000204 <__udivsi3+0xb4>
 8000200:	018b      	lsls	r3, r1, #6
 8000202:	1ac0      	subs	r0, r0, r3
 8000204:	4152      	adcs	r2, r2
 8000206:	0943      	lsrs	r3, r0, #5
 8000208:	428b      	cmp	r3, r1
 800020a:	d301      	bcc.n	8000210 <__udivsi3+0xc0>
 800020c:	014b      	lsls	r3, r1, #5
 800020e:	1ac0      	subs	r0, r0, r3
 8000210:	4152      	adcs	r2, r2
 8000212:	0903      	lsrs	r3, r0, #4
 8000214:	428b      	cmp	r3, r1
 8000216:	d301      	bcc.n	800021c <__udivsi3+0xcc>
 8000218:	010b      	lsls	r3, r1, #4
 800021a:	1ac0      	subs	r0, r0, r3
 800021c:	4152      	adcs	r2, r2
 800021e:	08c3      	lsrs	r3, r0, #3
 8000220:	428b      	cmp	r3, r1
 8000222:	d301      	bcc.n	8000228 <__udivsi3+0xd8>
 8000224:	00cb      	lsls	r3, r1, #3
 8000226:	1ac0      	subs	r0, r0, r3
 8000228:	4152      	adcs	r2, r2
 800022a:	0883      	lsrs	r3, r0, #2
 800022c:	428b      	cmp	r3, r1
 800022e:	d301      	bcc.n	8000234 <__udivsi3+0xe4>
 8000230:	008b      	lsls	r3, r1, #2
 8000232:	1ac0      	subs	r0, r0, r3
 8000234:	4152      	adcs	r2, r2
 8000236:	0843      	lsrs	r3, r0, #1
 8000238:	428b      	cmp	r3, r1
 800023a:	d301      	bcc.n	8000240 <__udivsi3+0xf0>
 800023c:	004b      	lsls	r3, r1, #1
 800023e:	1ac0      	subs	r0, r0, r3
 8000240:	4152      	adcs	r2, r2
 8000242:	1a41      	subs	r1, r0, r1
 8000244:	d200      	bcs.n	8000248 <__udivsi3+0xf8>
 8000246:	4601      	mov	r1, r0
 8000248:	4152      	adcs	r2, r2
 800024a:	4610      	mov	r0, r2
 800024c:	4770      	bx	lr
 800024e:	e7ff      	b.n	8000250 <__udivsi3+0x100>
 8000250:	b501      	push	{r0, lr}
 8000252:	2000      	movs	r0, #0
 8000254:	f000 f8f0 	bl	8000438 <__aeabi_idiv0>
 8000258:	bd02      	pop	{r1, pc}
 800025a:	46c0      	nop			@ (mov r8, r8)

0800025c <__aeabi_uidivmod>:
 800025c:	2900      	cmp	r1, #0
 800025e:	d0f7      	beq.n	8000250 <__udivsi3+0x100>
 8000260:	e776      	b.n	8000150 <__udivsi3>
 8000262:	4770      	bx	lr

08000264 <__divsi3>:
 8000264:	4603      	mov	r3, r0
 8000266:	430b      	orrs	r3, r1
 8000268:	d47f      	bmi.n	800036a <__divsi3+0x106>
 800026a:	2200      	movs	r2, #0
 800026c:	0843      	lsrs	r3, r0, #1
 800026e:	428b      	cmp	r3, r1
 8000270:	d374      	bcc.n	800035c <__divsi3+0xf8>
 8000272:	0903      	lsrs	r3, r0, #4
 8000274:	428b      	cmp	r3, r1
 8000276:	d35f      	bcc.n	8000338 <__divsi3+0xd4>
 8000278:	0a03      	lsrs	r3, r0, #8
 800027a:	428b      	cmp	r3, r1
 800027c:	d344      	bcc.n	8000308 <__divsi3+0xa4>
 800027e:	0b03      	lsrs	r3, r0, #12
 8000280:	428b      	cmp	r3, r1
 8000282:	d328      	bcc.n	80002d6 <__divsi3+0x72>
 8000284:	0c03      	lsrs	r3, r0, #16
 8000286:	428b      	cmp	r3, r1
 8000288:	d30d      	bcc.n	80002a6 <__divsi3+0x42>
 800028a:	22ff      	movs	r2, #255	@ 0xff
 800028c:	0209      	lsls	r1, r1, #8
 800028e:	ba12      	rev	r2, r2
 8000290:	0c03      	lsrs	r3, r0, #16
 8000292:	428b      	cmp	r3, r1
 8000294:	d302      	bcc.n	800029c <__divsi3+0x38>
 8000296:	1212      	asrs	r2, r2, #8
 8000298:	0209      	lsls	r1, r1, #8
 800029a:	d065      	beq.n	8000368 <__divsi3+0x104>
 800029c:	0b03      	lsrs	r3, r0, #12
 800029e:	428b      	cmp	r3, r1
 80002a0:	d319      	bcc.n	80002d6 <__divsi3+0x72>
 80002a2:	e000      	b.n	80002a6 <__divsi3+0x42>
 80002a4:	0a09      	lsrs	r1, r1, #8
 80002a6:	0bc3      	lsrs	r3, r0, #15
 80002a8:	428b      	cmp	r3, r1
 80002aa:	d301      	bcc.n	80002b0 <__divsi3+0x4c>
 80002ac:	03cb      	lsls	r3, r1, #15
 80002ae:	1ac0      	subs	r0, r0, r3
 80002b0:	4152      	adcs	r2, r2
 80002b2:	0b83      	lsrs	r3, r0, #14
 80002b4:	428b      	cmp	r3, r1
 80002b6:	d301      	bcc.n	80002bc <__divsi3+0x58>
 80002b8:	038b      	lsls	r3, r1, #14
 80002ba:	1ac0      	subs	r0, r0, r3
 80002bc:	4152      	adcs	r2, r2
 80002be:	0b43      	lsrs	r3, r0, #13
 80002c0:	428b      	cmp	r3, r1
 80002c2:	d301      	bcc.n	80002c8 <__divsi3+0x64>
 80002c4:	034b      	lsls	r3, r1, #13
 80002c6:	1ac0      	subs	r0, r0, r3
 80002c8:	4152      	adcs	r2, r2
 80002ca:	0b03      	lsrs	r3, r0, #12
 80002cc:	428b      	cmp	r3, r1
 80002ce:	d301      	bcc.n	80002d4 <__divsi3+0x70>
 80002d0:	030b      	lsls	r3, r1, #12
 80002d2:	1ac0      	subs	r0, r0, r3
 80002d4:	4152      	adcs	r2, r2
 80002d6:	0ac3      	lsrs	r3, r0, #11
 80002d8:	428b      	cmp	r3, r1
 80002da:	d301      	bcc.n	80002e0 <__divsi3+0x7c>
 80002dc:	02cb      	lsls	r3, r1, #11
 80002de:	1ac0      	subs	r0, r0, r3
 80002e0:	4152      	adcs	r2, r2
 80002e2:	0a83      	lsrs	r3, r0, #10
 80002e4:	428b      	cmp	r3, r1
 80002e6:	d301      	bcc.n	80002ec <__divsi3+0x88>
 80002e8:	028b      	lsls	r3, r1, #10
 80002ea:	1ac0      	subs	r0, r0, r3
 80002ec:	4152      	adcs	r2, r2
 80002ee:	0a43      	lsrs	r3, r0, #9
 80002f0:	428b      	cmp	r3, r1
 80002f2:	d301      	bcc.n	80002f8 <__divsi3+0x94>
 80002f4:	024b      	lsls	r3, r1, #9
 80002f6:	1ac0      	subs	r0, r0, r3
 80002f8:	4152      	adcs	r2, r2
 80002fa:	0a03      	lsrs	r3, r0, #8
 80002fc:	428b      	cmp	r3, r1
 80002fe:	d301      	bcc.n	8000304 <__divsi3+0xa0>
 8000300:	020b      	lsls	r3, r1, #8
 8000302:	1ac0      	subs	r0, r0, r3
 8000304:	4152      	adcs	r2, r2
 8000306:	d2cd      	bcs.n	80002a4 <__divsi3+0x40>
 8000308:	09c3      	lsrs	r3, r0, #7
 800030a:	428b      	cmp	r3, r1
 800030c:	d301      	bcc.n	8000312 <__divsi3+0xae>
 800030e:	01cb      	lsls	r3, r1, #7
 8000310:	1ac0      	subs	r0, r0, r3
 8000312:	4152      	adcs	r2, r2
 8000314:	0983      	lsrs	r3, r0, #6
 8000316:	428b      	cmp	r3, r1
 8000318:	d301      	bcc.n	800031e <__divsi3+0xba>
 800031a:	018b      	lsls	r3, r1, #6
 800031c:	1ac0      	subs	r0, r0, r3
 800031e:	4152      	adcs	r2, r2
 8000320:	0943      	lsrs	r3, r0, #5
 8000322:	428b      	cmp	r3, r1
 8000324:	d301      	bcc.n	800032a <__divsi3+0xc6>
 8000326:	014b      	lsls	r3, r1, #5
 8000328:	1ac0      	subs	r0, r0, r3
 800032a:	4152      	adcs	r2, r2
 800032c:	0903      	lsrs	r3, r0, #4
 800032e:	428b      	cmp	r3, r1
 8000330:	d301      	bcc.n	8000336 <__divsi3+0xd2>
 8000332:	010b      	lsls	r3, r1, #4
 8000334:	1ac0      	subs	r0, r0, r3
 8000336:	4152      	adcs	r2, r2
 8000338:	08c3      	lsrs	r3, r0, #3
 800033a:	428b      	cmp	r3, r1
 800033c:	d301      	bcc.n	8000342 <__divsi3+0xde>
 800033e:	00cb      	lsls	r3, r1, #3
 8000340:	1ac0      	subs	r0, r0, r3
 8000342:	4152      	adcs	r2, r2
 8000344:	0883      	lsrs	r3, r0, #2
 8000346:	428b      	cmp	r3, r1
 8000348:	d301      	bcc.n	800034e <__divsi3+0xea>
 800034a:	008b      	lsls	r3, r1, #2
 800034c:	1ac0      	subs	r0, r0, r3
 800034e:	4152      	adcs	r2, r2
 8000350:	0843      	lsrs	r3, r0, #1
 8000352:	428b      	cmp	r3, r1
 8000354:	d301      	bcc.n	800035a <__divsi3+0xf6>
 8000356:	004b      	lsls	r3, r1, #1
 8000358:	1ac0      	subs	r0, r0, r3
 800035a:	4152      	adcs	r2, r2
 800035c:	1a41      	subs	r1, r0, r1
 800035e:	d200      	bcs.n	8000362 <__divsi3+0xfe>
 8000360:	4601      	mov	r1, r0
 8000362:	4152      	adcs	r2, r2
 8000364:	4610      	mov	r0, r2
 8000366:	4770      	bx	lr
 8000368:	e05d      	b.n	8000426 <__divsi3+0x1c2>
 800036a:	0fca      	lsrs	r2, r1, #31
 800036c:	d000      	beq.n	8000370 <__divsi3+0x10c>
 800036e:	4249      	negs	r1, r1
 8000370:	1003      	asrs	r3, r0, #32
 8000372:	d300      	bcc.n	8000376 <__divsi3+0x112>
 8000374:	4240      	negs	r0, r0
 8000376:	4053      	eors	r3, r2
 8000378:	2200      	movs	r2, #0
 800037a:	469c      	mov	ip, r3
 800037c:	0903      	lsrs	r3, r0, #4
 800037e:	428b      	cmp	r3, r1
 8000380:	d32d      	bcc.n	80003de <__divsi3+0x17a>
 8000382:	0a03      	lsrs	r3, r0, #8
 8000384:	428b      	cmp	r3, r1
 8000386:	d312      	bcc.n	80003ae <__divsi3+0x14a>
 8000388:	22fc      	movs	r2, #252	@ 0xfc
 800038a:	0189      	lsls	r1, r1, #6
 800038c:	ba12      	rev	r2, r2
 800038e:	0a03      	lsrs	r3, r0, #8
 8000390:	428b      	cmp	r3, r1
 8000392:	d30c      	bcc.n	80003ae <__divsi3+0x14a>
 8000394:	0189      	lsls	r1, r1, #6
 8000396:	1192      	asrs	r2, r2, #6
 8000398:	428b      	cmp	r3, r1
 800039a:	d308      	bcc.n	80003ae <__divsi3+0x14a>
 800039c:	0189      	lsls	r1, r1, #6
 800039e:	1192      	asrs	r2, r2, #6
 80003a0:	428b      	cmp	r3, r1
 80003a2:	d304      	bcc.n	80003ae <__divsi3+0x14a>
 80003a4:	0189      	lsls	r1, r1, #6
 80003a6:	d03a      	beq.n	800041e <__divsi3+0x1ba>
 80003a8:	1192      	asrs	r2, r2, #6
 80003aa:	e000      	b.n	80003ae <__divsi3+0x14a>
 80003ac:	0989      	lsrs	r1, r1, #6
 80003ae:	09c3      	lsrs	r3, r0, #7
 80003b0:	428b      	cmp	r3, r1
 80003b2:	d301      	bcc.n	80003b8 <__divsi3+0x154>
 80003b4:	01cb      	lsls	r3, r1, #7
 80003b6:	1ac0      	subs	r0, r0, r3
 80003b8:	4152      	adcs	r2, r2
 80003ba:	0983      	lsrs	r3, r0, #6
 80003bc:	428b      	cmp	r3, r1
 80003be:	d301      	bcc.n	80003c4 <__divsi3+0x160>
 80003c0:	018b      	lsls	r3, r1, #6
 80003c2:	1ac0      	subs	r0, r0, r3
 80003c4:	4152      	adcs	r2, r2
 80003c6:	0943      	lsrs	r3, r0, #5
 80003c8:	428b      	cmp	r3, r1
 80003ca:	d301      	bcc.n	80003d0 <__divsi3+0x16c>
 80003cc:	014b      	lsls	r3, r1, #5
 80003ce:	1ac0      	subs	r0, r0, r3
 80003d0:	4152      	adcs	r2, r2
 80003d2:	0903      	lsrs	r3, r0, #4
 80003d4:	428b      	cmp	r3, r1
 80003d6:	d301      	bcc.n	80003dc <__divsi3+0x178>
 80003d8:	010b      	lsls	r3, r1, #4
 80003da:	1ac0      	subs	r0, r0, r3
 80003dc:	4152      	adcs	r2, r2
 80003de:	08c3      	lsrs	r3, r0, #3
 80003e0:	428b      	cmp	r3, r1
 80003e2:	d301      	bcc.n	80003e8 <__divsi3+0x184>
 80003e4:	00cb      	lsls	r3, r1, #3
 80003e6:	1ac0      	subs	r0, r0, r3
 80003e8:	4152      	adcs	r2, r2
 80003ea:	0883      	lsrs	r3, r0, #2
 80003ec:	428b      	cmp	r3, r1
 80003ee:	d301      	bcc.n	80003f4 <__divsi3+0x190>
 80003f0:	008b      	lsls	r3, r1, #2
 80003f2:	1ac0      	subs	r0, r0, r3
 80003f4:	4152      	adcs	r2, r2
 80003f6:	d2d9      	bcs.n	80003ac <__divsi3+0x148>
 80003f8:	0843      	lsrs	r3, r0, #1
 80003fa:	428b      	cmp	r3, r1
 80003fc:	d301      	bcc.n	8000402 <__divsi3+0x19e>
 80003fe:	004b      	lsls	r3, r1, #1
 8000400:	1ac0      	subs	r0, r0, r3
 8000402:	4152      	adcs	r2, r2
 8000404:	1a41      	subs	r1, r0, r1
 8000406:	d200      	bcs.n	800040a <__divsi3+0x1a6>
 8000408:	4601      	mov	r1, r0
 800040a:	4663      	mov	r3, ip
 800040c:	4152      	adcs	r2, r2
 800040e:	105b      	asrs	r3, r3, #1
 8000410:	4610      	mov	r0, r2
 8000412:	d301      	bcc.n	8000418 <__divsi3+0x1b4>
 8000414:	4240      	negs	r0, r0
 8000416:	2b00      	cmp	r3, #0
 8000418:	d500      	bpl.n	800041c <__divsi3+0x1b8>
 800041a:	4249      	negs	r1, r1
 800041c:	4770      	bx	lr
 800041e:	4663      	mov	r3, ip
 8000420:	105b      	asrs	r3, r3, #1
 8000422:	d300      	bcc.n	8000426 <__divsi3+0x1c2>
 8000424:	4240      	negs	r0, r0
 8000426:	b501      	push	{r0, lr}
 8000428:	2000      	movs	r0, #0
 800042a:	f000 f805 	bl	8000438 <__aeabi_idiv0>
 800042e:	bd02      	pop	{r1, pc}

08000430 <__aeabi_idivmod>:
 8000430:	2900      	cmp	r1, #0
 8000432:	d0f8      	beq.n	8000426 <__divsi3+0x1c2>
 8000434:	e716      	b.n	8000264 <__divsi3>
 8000436:	4770      	bx	lr

08000438 <__aeabi_idiv0>:
 8000438:	4770      	bx	lr
 800043a:	46c0      	nop			@ (mov r8, r8)

0800043c <__aeabi_cdrcmple>:
 800043c:	4684      	mov	ip, r0
 800043e:	0010      	movs	r0, r2
 8000440:	4662      	mov	r2, ip
 8000442:	468c      	mov	ip, r1
 8000444:	0019      	movs	r1, r3
 8000446:	4663      	mov	r3, ip
 8000448:	e000      	b.n	800044c <__aeabi_cdcmpeq>
 800044a:	46c0      	nop			@ (mov r8, r8)

0800044c <__aeabi_cdcmpeq>:
 800044c:	b51f      	push	{r0, r1, r2, r3, r4, lr}
 800044e:	f001 f8b1 	bl	80015b4 <__ledf2>
 8000452:	2800      	cmp	r0, #0
 8000454:	d401      	bmi.n	800045a <__aeabi_cdcmpeq+0xe>
 8000456:	2100      	movs	r1, #0
 8000458:	42c8      	cmn	r0, r1
 800045a:	bd1f      	pop	{r0, r1, r2, r3, r4, pc}

0800045c <__aeabi_dcmpeq>:
 800045c:	b510      	push	{r4, lr}
 800045e:	f000 fff5 	bl	800144c <__eqdf2>
 8000462:	4240      	negs	r0, r0
 8000464:	3001      	adds	r0, #1
 8000466:	bd10      	pop	{r4, pc}

08000468 <__aeabi_dcmplt>:
 8000468:	b510      	push	{r4, lr}
 800046a:	f001 f8a3 	bl	80015b4 <__ledf2>
 800046e:	2800      	cmp	r0, #0
 8000470:	db01      	blt.n	8000476 <__aeabi_dcmplt+0xe>
 8000472:	2000      	movs	r0, #0
 8000474:	bd10      	pop	{r4, pc}
 8000476:	2001      	movs	r0, #1
 8000478:	bd10      	pop	{r4, pc}
 800047a:	46c0      	nop			@ (mov r8, r8)

0800047c <__aeabi_dcmple>:
 800047c:	b510      	push	{r4, lr}
 800047e:	f001 f899 	bl	80015b4 <__ledf2>
 8000482:	2800      	cmp	r0, #0
 8000484:	dd01      	ble.n	800048a <__aeabi_dcmple+0xe>
 8000486:	2000      	movs	r0, #0
 8000488:	bd10      	pop	{r4, pc}
 800048a:	2001      	movs	r0, #1
 800048c:	bd10      	pop	{r4, pc}
 800048e:	46c0      	nop			@ (mov r8, r8)

08000490 <__aeabi_dcmpgt>:
 8000490:	b510      	push	{r4, lr}
 8000492:	f001 f81f 	bl	80014d4 <__gedf2>
 8000496:	2800      	cmp	r0, #0
 8000498:	dc01      	bgt.n	800049e <__aeabi_dcmpgt+0xe>
 800049a:	2000      	movs	r0, #0
 800049c:	bd10      	pop	{r4, pc}
 800049e:	2001      	movs	r0, #1
 80004a0:	bd10      	pop	{r4, pc}
 80004a2:	46c0      	nop			@ (mov r8, r8)

080004a4 <__aeabi_dcmpge>:
 80004a4:	b510      	push	{r4, lr}
 80004a6:	f001 f815 	bl	80014d4 <__gedf2>
 80004aa:	2800      	cmp	r0, #0
 80004ac:	da01      	bge.n	80004b2 <__aeabi_dcmpge+0xe>
 80004ae:	2000      	movs	r0, #0
 80004b0:	bd10      	pop	{r4, pc}
 80004b2:	2001      	movs	r0, #1
 80004b4:	bd10      	pop	{r4, pc}
 80004b6:	46c0      	nop			@ (mov r8, r8)

080004b8 <__aeabi_uldivmod>:
 80004b8:	2b00      	cmp	r3, #0
 80004ba:	d111      	bne.n	80004e0 <__aeabi_uldivmod+0x28>
 80004bc:	2a00      	cmp	r2, #0
 80004be:	d10f      	bne.n	80004e0 <__aeabi_uldivmod+0x28>
 80004c0:	2900      	cmp	r1, #0
 80004c2:	d100      	bne.n	80004c6 <__aeabi_uldivmod+0xe>
 80004c4:	2800      	cmp	r0, #0
 80004c6:	d002      	beq.n	80004ce <__aeabi_uldivmod+0x16>
 80004c8:	2100      	movs	r1, #0
 80004ca:	43c9      	mvns	r1, r1
 80004cc:	0008      	movs	r0, r1
 80004ce:	b407      	push	{r0, r1, r2}
 80004d0:	4802      	ldr	r0, [pc, #8]	@ (80004dc <__aeabi_uldivmod+0x24>)
 80004d2:	a102      	add	r1, pc, #8	@ (adr r1, 80004dc <__aeabi_uldivmod+0x24>)
 80004d4:	1840      	adds	r0, r0, r1
 80004d6:	9002      	str	r0, [sp, #8]
 80004d8:	bd03      	pop	{r0, r1, pc}
 80004da:	46c0      	nop			@ (mov r8, r8)
 80004dc:	ffffff5d 	.word	0xffffff5d
 80004e0:	b403      	push	{r0, r1}
 80004e2:	4668      	mov	r0, sp
 80004e4:	b501      	push	{r0, lr}
 80004e6:	9802      	ldr	r0, [sp, #8]
 80004e8:	f000 f806 	bl	80004f8 <__udivmoddi4>
 80004ec:	9b01      	ldr	r3, [sp, #4]
 80004ee:	469e      	mov	lr, r3
 80004f0:	b002      	add	sp, #8
 80004f2:	bc0c      	pop	{r2, r3}
 80004f4:	4770      	bx	lr
 80004f6:	46c0      	nop			@ (mov r8, r8)

080004f8 <__udivmoddi4>:
 80004f8:	b5f0      	push	{r4, r5, r6, r7, lr}
 80004fa:	4657      	mov	r7, sl
 80004fc:	464e      	mov	r6, r9
 80004fe:	4645      	mov	r5, r8
 8000500:	46de      	mov	lr, fp
 8000502:	b5e0      	push	{r5, r6, r7, lr}
 8000504:	0004      	movs	r4, r0
 8000506:	000d      	movs	r5, r1
 8000508:	4692      	mov	sl, r2
 800050a:	4699      	mov	r9, r3
 800050c:	b083      	sub	sp, #12
 800050e:	428b      	cmp	r3, r1
 8000510:	d830      	bhi.n	8000574 <__udivmoddi4+0x7c>
 8000512:	d02d      	beq.n	8000570 <__udivmoddi4+0x78>
 8000514:	4649      	mov	r1, r9
 8000516:	4650      	mov	r0, sl
 8000518:	f002 f878 	bl	800260c <__clzdi2>
 800051c:	0029      	movs	r1, r5
 800051e:	0006      	movs	r6, r0
 8000520:	0020      	movs	r0, r4
 8000522:	f002 f873 	bl	800260c <__clzdi2>
 8000526:	1a33      	subs	r3, r6, r0
 8000528:	4698      	mov	r8, r3
 800052a:	3b20      	subs	r3, #32
 800052c:	d434      	bmi.n	8000598 <__udivmoddi4+0xa0>
 800052e:	469b      	mov	fp, r3
 8000530:	4653      	mov	r3, sl
 8000532:	465a      	mov	r2, fp
 8000534:	4093      	lsls	r3, r2
 8000536:	4642      	mov	r2, r8
 8000538:	001f      	movs	r7, r3
 800053a:	4653      	mov	r3, sl
 800053c:	4093      	lsls	r3, r2
 800053e:	001e      	movs	r6, r3
 8000540:	42af      	cmp	r7, r5
 8000542:	d83b      	bhi.n	80005bc <__udivmoddi4+0xc4>
 8000544:	42af      	cmp	r7, r5
 8000546:	d100      	bne.n	800054a <__udivmoddi4+0x52>
 8000548:	e079      	b.n	800063e <__udivmoddi4+0x146>
 800054a:	465b      	mov	r3, fp
 800054c:	1ba4      	subs	r4, r4, r6
 800054e:	41bd      	sbcs	r5, r7
 8000550:	2b00      	cmp	r3, #0
 8000552:	da00      	bge.n	8000556 <__udivmoddi4+0x5e>
 8000554:	e076      	b.n	8000644 <__udivmoddi4+0x14c>
 8000556:	2200      	movs	r2, #0
 8000558:	2300      	movs	r3, #0
 800055a:	9200      	str	r2, [sp, #0]
 800055c:	9301      	str	r3, [sp, #4]
 800055e:	2301      	movs	r3, #1
 8000560:	465a      	mov	r2, fp
 8000562:	4093      	lsls	r3, r2
 8000564:	9301      	str	r3, [sp, #4]
 8000566:	2301      	movs	r3, #1
 8000568:	4642      	mov	r2, r8
 800056a:	4093      	lsls	r3, r2
 800056c:	9300      	str	r3, [sp, #0]
 800056e:	e029      	b.n	80005c4 <__udivmoddi4+0xcc>
 8000570:	4282      	cmp	r2, r0
 8000572:	d9cf      	bls.n	8000514 <__udivmoddi4+0x1c>
 8000574:	2200      	movs	r2, #0
 8000576:	2300      	movs	r3, #0
 8000578:	9200      	str	r2, [sp, #0]
 800057a:	9301      	str	r3, [sp, #4]
 800057c:	9b0c      	ldr	r3, [sp, #48]	@ 0x30
 800057e:	2b00      	cmp	r3, #0
 8000580:	d001      	beq.n	8000586 <__udivmoddi4+0x8e>
 8000582:	601c      	str	r4, [r3, #0]
 8000584:	605d      	str	r5, [r3, #4]
 8000586:	9800      	ldr	r0, [sp, #0]
 8000588:	9901      	ldr	r1, [sp, #4]
 800058a:	b003      	add	sp, #12
 800058c:	bcf0      	pop	{r4, r5, r6, r7}
 800058e:	46bb      	mov	fp, r7
 8000590:	46b2      	mov	sl, r6
 8000592:	46a9      	mov	r9, r5
 8000594:	46a0      	mov	r8, r4
 8000596:	bdf0      	pop	{r4, r5, r6, r7, pc}
 8000598:	4642      	mov	r2, r8
 800059a:	469b      	mov	fp, r3
 800059c:	2320      	movs	r3, #32
 800059e:	1a9b      	subs	r3, r3, r2
 80005a0:	4652      	mov	r2, sl
 80005a2:	40da      	lsrs	r2, r3
 80005a4:	4641      	mov	r1, r8
 80005a6:	0013      	movs	r3, r2
 80005a8:	464a      	mov	r2, r9
 80005aa:	408a      	lsls	r2, r1
 80005ac:	0017      	movs	r7, r2
 80005ae:	4642      	mov	r2, r8
 80005b0:	431f      	orrs	r7, r3
 80005b2:	4653      	mov	r3, sl
 80005b4:	4093      	lsls	r3, r2
 80005b6:	001e      	movs	r6, r3
 80005b8:	42af      	cmp	r7, r5
 80005ba:	d9c3      	bls.n	8000544 <__udivmoddi4+0x4c>
 80005bc:	2200      	movs	r2, #0
 80005be:	2300      	movs	r3, #0
 80005c0:	9200      	str	r2, [sp, #0]
 80005c2:	9301      	str	r3, [sp, #4]
 80005c4:	4643      	mov	r3, r8
 80005c6:	2b00      	cmp	r3, #0
 80005c8:	d0d8      	beq.n	800057c <__udivmoddi4+0x84>
 80005ca:	07fb      	lsls	r3, r7, #31
 80005cc:	0872      	lsrs	r2, r6, #1
 80005ce:	431a      	orrs	r2, r3
 80005d0:	4646      	mov	r6, r8
 80005d2:	087b      	lsrs	r3, r7, #1
 80005d4:	e00e      	b.n	80005f4 <__udivmoddi4+0xfc>
 80005d6:	42ab      	cmp	r3, r5
 80005d8:	d101      	bne.n	80005de <__udivmoddi4+0xe6>
 80005da:	42a2      	cmp	r2, r4
 80005dc:	d80c      	bhi.n	80005f8 <__udivmoddi4+0x100>
 80005de:	1aa4      	subs	r4, r4, r2
 80005e0:	419d      	sbcs	r5, r3
 80005e2:	2001      	movs	r0, #1
 80005e4:	1924      	adds	r4, r4, r4
 80005e6:	416d      	adcs	r5, r5
 80005e8:	2100      	movs	r1, #0
 80005ea:	3e01      	subs	r6, #1
 80005ec:	1824      	adds	r4, r4, r0
 80005ee:	414d      	adcs	r5, r1
 80005f0:	2e00      	cmp	r6, #0
 80005f2:	d006      	beq.n	8000602 <__udivmoddi4+0x10a>
 80005f4:	42ab      	cmp	r3, r5
 80005f6:	d9ee      	bls.n	80005d6 <__udivmoddi4+0xde>
 80005f8:	3e01      	subs	r6, #1
 80005fa:	1924      	adds	r4, r4, r4
 80005fc:	416d      	adcs	r5, r5
 80005fe:	2e00      	cmp	r6, #0
 8000600:	d1f8      	bne.n	80005f4 <__udivmoddi4+0xfc>
 8000602:	9800      	ldr	r0, [sp, #0]
 8000604:	9901      	ldr	r1, [sp, #4]
 8000606:	465b      	mov	r3, fp
 8000608:	1900      	adds	r0, r0, r4
 800060a:	4169      	adcs	r1, r5
 800060c:	2b00      	cmp	r3, #0
 800060e:	db24      	blt.n	800065a <__udivmoddi4+0x162>
 8000610:	002b      	movs	r3, r5
 8000612:	465a      	mov	r2, fp
 8000614:	4644      	mov	r4, r8
 8000616:	40d3      	lsrs	r3, r2
 8000618:	002a      	movs	r2, r5
 800061a:	40e2      	lsrs	r2, r4
 800061c:	001c      	movs	r4, r3
 800061e:	465b      	mov	r3, fp
 8000620:	0015      	movs	r5, r2
 8000622:	2b00      	cmp	r3, #0
 8000624:	db2a      	blt.n	800067c <__udivmoddi4+0x184>
 8000626:	0026      	movs	r6, r4
 8000628:	409e      	lsls	r6, r3
 800062a:	0033      	movs	r3, r6
 800062c:	0026      	movs	r6, r4
 800062e:	4647      	mov	r7, r8
 8000630:	40be      	lsls	r6, r7
 8000632:	0032      	movs	r2, r6
 8000634:	1a80      	subs	r0, r0, r2
 8000636:	4199      	sbcs	r1, r3
 8000638:	9000      	str	r0, [sp, #0]
 800063a:	9101      	str	r1, [sp, #4]
 800063c:	e79e      	b.n	800057c <__udivmoddi4+0x84>
 800063e:	42a3      	cmp	r3, r4
 8000640:	d8bc      	bhi.n	80005bc <__udivmoddi4+0xc4>
 8000642:	e782      	b.n	800054a <__udivmoddi4+0x52>
 8000644:	4642      	mov	r2, r8
 8000646:	2320      	movs	r3, #32
 8000648:	2100      	movs	r1, #0
 800064a:	1a9b      	subs	r3, r3, r2
 800064c:	2200      	movs	r2, #0
 800064e:	9100      	str	r1, [sp, #0]
 8000650:	9201      	str	r2, [sp, #4]
 8000652:	2201      	movs	r2, #1
 8000654:	40da      	lsrs	r2, r3
 8000656:	9201      	str	r2, [sp, #4]
 8000658:	e785      	b.n	8000566 <__udivmoddi4+0x6e>
 800065a:	4642      	mov	r2, r8
 800065c:	2320      	movs	r3, #32
 800065e:	1a9b      	subs	r3, r3, r2
 8000660:	002a      	movs	r2, r5
 8000662:	4646      	mov	r6, r8
 8000664:	409a      	lsls	r2, r3
 8000666:	0023      	movs	r3, r4
 8000668:	40f3      	lsrs	r3, r6
 800066a:	4644      	mov	r4, r8
 800066c:	4313      	orrs	r3, r2
 800066e:	002a      	movs	r2, r5
 8000670:	40e2      	lsrs	r2, r4
 8000672:	001c      	movs	r4, r3
 8000674:	465b      	mov	r3, fp
 8000676:	0015      	movs	r5, r2
 8000678:	2b00      	cmp	r3, #0
 800067a:	dad4      	bge.n	8000626 <__udivmoddi4+0x12e>
 800067c:	4642      	mov	r2, r8
 800067e:	002f      	movs	r7, r5
 8000680:	2320      	movs	r3, #32
 8000682:	0026      	movs	r6, r4
 8000684:	4097      	lsls	r7, r2
 8000686:	1a9b      	subs	r3, r3, r2
 8000688:	40de      	lsrs	r6, r3
 800068a:	003b      	movs	r3, r7
 800068c:	4333      	orrs	r3, r6
 800068e:	e7cd      	b.n	800062c <__udivmoddi4+0x134>

08000690 <__aeabi_dadd>:
 8000690:	b5f0      	push	{r4, r5, r6, r7, lr}
 8000692:	464f      	mov	r7, r9
 8000694:	4646      	mov	r6, r8
 8000696:	46d6      	mov	lr, sl
 8000698:	b5c0      	push	{r6, r7, lr}
 800069a:	b082      	sub	sp, #8
 800069c:	9000      	str	r0, [sp, #0]
 800069e:	9101      	str	r1, [sp, #4]
 80006a0:	030e      	lsls	r6, r1, #12
 80006a2:	004c      	lsls	r4, r1, #1
 80006a4:	0fcd      	lsrs	r5, r1, #31
 80006a6:	0a71      	lsrs	r1, r6, #9
 80006a8:	9e00      	ldr	r6, [sp, #0]
 80006aa:	005f      	lsls	r7, r3, #1
 80006ac:	0f76      	lsrs	r6, r6, #29
 80006ae:	430e      	orrs	r6, r1
 80006b0:	9900      	ldr	r1, [sp, #0]
 80006b2:	9200      	str	r2, [sp, #0]
 80006b4:	9301      	str	r3, [sp, #4]
 80006b6:	00c9      	lsls	r1, r1, #3
 80006b8:	4689      	mov	r9, r1
 80006ba:	0319      	lsls	r1, r3, #12
 80006bc:	0d7b      	lsrs	r3, r7, #21
 80006be:	4698      	mov	r8, r3
 80006c0:	9b01      	ldr	r3, [sp, #4]
 80006c2:	0a49      	lsrs	r1, r1, #9
 80006c4:	0fdb      	lsrs	r3, r3, #31
 80006c6:	469c      	mov	ip, r3
 80006c8:	9b00      	ldr	r3, [sp, #0]
 80006ca:	9a00      	ldr	r2, [sp, #0]
 80006cc:	0f5b      	lsrs	r3, r3, #29
 80006ce:	430b      	orrs	r3, r1
 80006d0:	4641      	mov	r1, r8
 80006d2:	0d64      	lsrs	r4, r4, #21
 80006d4:	00d2      	lsls	r2, r2, #3
 80006d6:	1a61      	subs	r1, r4, r1
 80006d8:	4565      	cmp	r5, ip
 80006da:	d100      	bne.n	80006de <__aeabi_dadd+0x4e>
 80006dc:	e0a6      	b.n	800082c <__aeabi_dadd+0x19c>
 80006de:	2900      	cmp	r1, #0
 80006e0:	dd72      	ble.n	80007c8 <__aeabi_dadd+0x138>
 80006e2:	4647      	mov	r7, r8
 80006e4:	2f00      	cmp	r7, #0
 80006e6:	d100      	bne.n	80006ea <__aeabi_dadd+0x5a>
 80006e8:	e0dd      	b.n	80008a6 <__aeabi_dadd+0x216>
 80006ea:	4fcc      	ldr	r7, [pc, #816]	@ (8000a1c <__aeabi_dadd+0x38c>)
 80006ec:	42bc      	cmp	r4, r7
 80006ee:	d100      	bne.n	80006f2 <__aeabi_dadd+0x62>
 80006f0:	e19a      	b.n	8000a28 <__aeabi_dadd+0x398>
 80006f2:	2701      	movs	r7, #1
 80006f4:	2938      	cmp	r1, #56	@ 0x38
 80006f6:	dc17      	bgt.n	8000728 <__aeabi_dadd+0x98>
 80006f8:	2780      	movs	r7, #128	@ 0x80
 80006fa:	043f      	lsls	r7, r7, #16
 80006fc:	433b      	orrs	r3, r7
 80006fe:	291f      	cmp	r1, #31
 8000700:	dd00      	ble.n	8000704 <__aeabi_dadd+0x74>
 8000702:	e1dd      	b.n	8000ac0 <__aeabi_dadd+0x430>
 8000704:	2720      	movs	r7, #32
 8000706:	1a78      	subs	r0, r7, r1
 8000708:	001f      	movs	r7, r3
 800070a:	4087      	lsls	r7, r0
 800070c:	46ba      	mov	sl, r7
 800070e:	0017      	movs	r7, r2
 8000710:	40cf      	lsrs	r7, r1
 8000712:	4684      	mov	ip, r0
 8000714:	0038      	movs	r0, r7
 8000716:	4657      	mov	r7, sl
 8000718:	4307      	orrs	r7, r0
 800071a:	4660      	mov	r0, ip
 800071c:	4082      	lsls	r2, r0
 800071e:	40cb      	lsrs	r3, r1
 8000720:	1e50      	subs	r0, r2, #1
 8000722:	4182      	sbcs	r2, r0
 8000724:	1af6      	subs	r6, r6, r3
 8000726:	4317      	orrs	r7, r2
 8000728:	464b      	mov	r3, r9
 800072a:	1bdf      	subs	r7, r3, r7
 800072c:	45b9      	cmp	r9, r7
 800072e:	4180      	sbcs	r0, r0
 8000730:	4240      	negs	r0, r0
 8000732:	1a36      	subs	r6, r6, r0
 8000734:	0233      	lsls	r3, r6, #8
 8000736:	d400      	bmi.n	800073a <__aeabi_dadd+0xaa>
 8000738:	e0ff      	b.n	800093a <__aeabi_dadd+0x2aa>
 800073a:	0276      	lsls	r6, r6, #9
 800073c:	0a76      	lsrs	r6, r6, #9
 800073e:	2e00      	cmp	r6, #0
 8000740:	d100      	bne.n	8000744 <__aeabi_dadd+0xb4>
 8000742:	e13c      	b.n	80009be <__aeabi_dadd+0x32e>
 8000744:	0030      	movs	r0, r6
 8000746:	f001 ff43 	bl	80025d0 <__clzsi2>
 800074a:	0003      	movs	r3, r0
 800074c:	3b08      	subs	r3, #8
 800074e:	2120      	movs	r1, #32
 8000750:	0038      	movs	r0, r7
 8000752:	1aca      	subs	r2, r1, r3
 8000754:	40d0      	lsrs	r0, r2
 8000756:	409e      	lsls	r6, r3
 8000758:	0002      	movs	r2, r0
 800075a:	409f      	lsls	r7, r3
 800075c:	4332      	orrs	r2, r6
 800075e:	429c      	cmp	r4, r3
 8000760:	dd00      	ble.n	8000764 <__aeabi_dadd+0xd4>
 8000762:	e1a6      	b.n	8000ab2 <__aeabi_dadd+0x422>
 8000764:	1b18      	subs	r0, r3, r4
 8000766:	3001      	adds	r0, #1
 8000768:	1a09      	subs	r1, r1, r0
 800076a:	003e      	movs	r6, r7
 800076c:	408f      	lsls	r7, r1
 800076e:	40c6      	lsrs	r6, r0
 8000770:	1e7b      	subs	r3, r7, #1
 8000772:	419f      	sbcs	r7, r3
 8000774:	0013      	movs	r3, r2
 8000776:	408b      	lsls	r3, r1
 8000778:	4337      	orrs	r7, r6
 800077a:	431f      	orrs	r7, r3
 800077c:	40c2      	lsrs	r2, r0
 800077e:	003b      	movs	r3, r7
 8000780:	0016      	movs	r6, r2
 8000782:	2400      	movs	r4, #0
 8000784:	4313      	orrs	r3, r2
 8000786:	d100      	bne.n	800078a <__aeabi_dadd+0xfa>
 8000788:	e1df      	b.n	8000b4a <__aeabi_dadd+0x4ba>
 800078a:	077b      	lsls	r3, r7, #29
 800078c:	d100      	bne.n	8000790 <__aeabi_dadd+0x100>
 800078e:	e332      	b.n	8000df6 <__aeabi_dadd+0x766>
 8000790:	230f      	movs	r3, #15
 8000792:	003a      	movs	r2, r7
 8000794:	403b      	ands	r3, r7
 8000796:	2b04      	cmp	r3, #4
 8000798:	d004      	beq.n	80007a4 <__aeabi_dadd+0x114>
 800079a:	1d3a      	adds	r2, r7, #4
 800079c:	42ba      	cmp	r2, r7
 800079e:	41bf      	sbcs	r7, r7
 80007a0:	427f      	negs	r7, r7
 80007a2:	19f6      	adds	r6, r6, r7
 80007a4:	0233      	lsls	r3, r6, #8
 80007a6:	d400      	bmi.n	80007aa <__aeabi_dadd+0x11a>
 80007a8:	e323      	b.n	8000df2 <__aeabi_dadd+0x762>
 80007aa:	4b9c      	ldr	r3, [pc, #624]	@ (8000a1c <__aeabi_dadd+0x38c>)
 80007ac:	3401      	adds	r4, #1
 80007ae:	429c      	cmp	r4, r3
 80007b0:	d100      	bne.n	80007b4 <__aeabi_dadd+0x124>
 80007b2:	e0b4      	b.n	800091e <__aeabi_dadd+0x28e>
 80007b4:	4b9a      	ldr	r3, [pc, #616]	@ (8000a20 <__aeabi_dadd+0x390>)
 80007b6:	0564      	lsls	r4, r4, #21
 80007b8:	401e      	ands	r6, r3
 80007ba:	0d64      	lsrs	r4, r4, #21
 80007bc:	0777      	lsls	r7, r6, #29
 80007be:	08d2      	lsrs	r2, r2, #3
 80007c0:	0276      	lsls	r6, r6, #9
 80007c2:	4317      	orrs	r7, r2
 80007c4:	0b36      	lsrs	r6, r6, #12
 80007c6:	e0ac      	b.n	8000922 <__aeabi_dadd+0x292>
 80007c8:	2900      	cmp	r1, #0
 80007ca:	d100      	bne.n	80007ce <__aeabi_dadd+0x13e>
 80007cc:	e07e      	b.n	80008cc <__aeabi_dadd+0x23c>
 80007ce:	4641      	mov	r1, r8
 80007d0:	1b09      	subs	r1, r1, r4
 80007d2:	2c00      	cmp	r4, #0
 80007d4:	d000      	beq.n	80007d8 <__aeabi_dadd+0x148>
 80007d6:	e160      	b.n	8000a9a <__aeabi_dadd+0x40a>
 80007d8:	0034      	movs	r4, r6
 80007da:	4648      	mov	r0, r9
 80007dc:	4304      	orrs	r4, r0
 80007de:	d100      	bne.n	80007e2 <__aeabi_dadd+0x152>
 80007e0:	e1c9      	b.n	8000b76 <__aeabi_dadd+0x4e6>
 80007e2:	1e4c      	subs	r4, r1, #1
 80007e4:	2901      	cmp	r1, #1
 80007e6:	d100      	bne.n	80007ea <__aeabi_dadd+0x15a>
 80007e8:	e22e      	b.n	8000c48 <__aeabi_dadd+0x5b8>
 80007ea:	4d8c      	ldr	r5, [pc, #560]	@ (8000a1c <__aeabi_dadd+0x38c>)
 80007ec:	42a9      	cmp	r1, r5
 80007ee:	d100      	bne.n	80007f2 <__aeabi_dadd+0x162>
 80007f0:	e224      	b.n	8000c3c <__aeabi_dadd+0x5ac>
 80007f2:	2701      	movs	r7, #1
 80007f4:	2c38      	cmp	r4, #56	@ 0x38
 80007f6:	dc11      	bgt.n	800081c <__aeabi_dadd+0x18c>
 80007f8:	0021      	movs	r1, r4
 80007fa:	291f      	cmp	r1, #31
 80007fc:	dd00      	ble.n	8000800 <__aeabi_dadd+0x170>
 80007fe:	e20b      	b.n	8000c18 <__aeabi_dadd+0x588>
 8000800:	2420      	movs	r4, #32
 8000802:	0037      	movs	r7, r6
 8000804:	4648      	mov	r0, r9
 8000806:	1a64      	subs	r4, r4, r1
 8000808:	40a7      	lsls	r7, r4
 800080a:	40c8      	lsrs	r0, r1
 800080c:	4307      	orrs	r7, r0
 800080e:	4648      	mov	r0, r9
 8000810:	40a0      	lsls	r0, r4
 8000812:	40ce      	lsrs	r6, r1
 8000814:	1e44      	subs	r4, r0, #1
 8000816:	41a0      	sbcs	r0, r4
 8000818:	1b9b      	subs	r3, r3, r6
 800081a:	4307      	orrs	r7, r0
 800081c:	1bd7      	subs	r7, r2, r7
 800081e:	42ba      	cmp	r2, r7
 8000820:	4192      	sbcs	r2, r2
 8000822:	4252      	negs	r2, r2
 8000824:	4665      	mov	r5, ip
 8000826:	4644      	mov	r4, r8
 8000828:	1a9e      	subs	r6, r3, r2
 800082a:	e783      	b.n	8000734 <__aeabi_dadd+0xa4>
 800082c:	2900      	cmp	r1, #0
 800082e:	dc00      	bgt.n	8000832 <__aeabi_dadd+0x1a2>
 8000830:	e09c      	b.n	800096c <__aeabi_dadd+0x2dc>
 8000832:	4647      	mov	r7, r8
 8000834:	2f00      	cmp	r7, #0
 8000836:	d167      	bne.n	8000908 <__aeabi_dadd+0x278>
 8000838:	001f      	movs	r7, r3
 800083a:	4317      	orrs	r7, r2
 800083c:	d100      	bne.n	8000840 <__aeabi_dadd+0x1b0>
 800083e:	e0e4      	b.n	8000a0a <__aeabi_dadd+0x37a>
 8000840:	1e48      	subs	r0, r1, #1
 8000842:	2901      	cmp	r1, #1
 8000844:	d100      	bne.n	8000848 <__aeabi_dadd+0x1b8>
 8000846:	e19b      	b.n	8000b80 <__aeabi_dadd+0x4f0>
 8000848:	4f74      	ldr	r7, [pc, #464]	@ (8000a1c <__aeabi_dadd+0x38c>)
 800084a:	42b9      	cmp	r1, r7
 800084c:	d100      	bne.n	8000850 <__aeabi_dadd+0x1c0>
 800084e:	e0eb      	b.n	8000a28 <__aeabi_dadd+0x398>
 8000850:	2701      	movs	r7, #1
 8000852:	0001      	movs	r1, r0
 8000854:	2838      	cmp	r0, #56	@ 0x38
 8000856:	dc11      	bgt.n	800087c <__aeabi_dadd+0x1ec>
 8000858:	291f      	cmp	r1, #31
 800085a:	dd00      	ble.n	800085e <__aeabi_dadd+0x1ce>
 800085c:	e1c7      	b.n	8000bee <__aeabi_dadd+0x55e>
 800085e:	2720      	movs	r7, #32
 8000860:	1a78      	subs	r0, r7, r1
 8000862:	001f      	movs	r7, r3
 8000864:	4684      	mov	ip, r0
 8000866:	4087      	lsls	r7, r0
 8000868:	0010      	movs	r0, r2
 800086a:	40c8      	lsrs	r0, r1
 800086c:	4307      	orrs	r7, r0
 800086e:	4660      	mov	r0, ip
 8000870:	4082      	lsls	r2, r0
 8000872:	40cb      	lsrs	r3, r1
 8000874:	1e50      	subs	r0, r2, #1
 8000876:	4182      	sbcs	r2, r0
 8000878:	18f6      	adds	r6, r6, r3
 800087a:	4317      	orrs	r7, r2
 800087c:	444f      	add	r7, r9
 800087e:	454f      	cmp	r7, r9
 8000880:	4180      	sbcs	r0, r0
 8000882:	4240      	negs	r0, r0
 8000884:	1836      	adds	r6, r6, r0
 8000886:	0233      	lsls	r3, r6, #8
 8000888:	d557      	bpl.n	800093a <__aeabi_dadd+0x2aa>
 800088a:	4b64      	ldr	r3, [pc, #400]	@ (8000a1c <__aeabi_dadd+0x38c>)
 800088c:	3401      	adds	r4, #1
 800088e:	429c      	cmp	r4, r3
 8000890:	d045      	beq.n	800091e <__aeabi_dadd+0x28e>
 8000892:	2101      	movs	r1, #1
 8000894:	4b62      	ldr	r3, [pc, #392]	@ (8000a20 <__aeabi_dadd+0x390>)
 8000896:	087a      	lsrs	r2, r7, #1
 8000898:	401e      	ands	r6, r3
 800089a:	4039      	ands	r1, r7
 800089c:	430a      	orrs	r2, r1
 800089e:	07f7      	lsls	r7, r6, #31
 80008a0:	4317      	orrs	r7, r2
 80008a2:	0876      	lsrs	r6, r6, #1
 80008a4:	e771      	b.n	800078a <__aeabi_dadd+0xfa>
 80008a6:	001f      	movs	r7, r3
 80008a8:	4317      	orrs	r7, r2
 80008aa:	d100      	bne.n	80008ae <__aeabi_dadd+0x21e>
 80008ac:	e0ad      	b.n	8000a0a <__aeabi_dadd+0x37a>
 80008ae:	1e4f      	subs	r7, r1, #1
 80008b0:	46bc      	mov	ip, r7
 80008b2:	2901      	cmp	r1, #1
 80008b4:	d100      	bne.n	80008b8 <__aeabi_dadd+0x228>
 80008b6:	e182      	b.n	8000bbe <__aeabi_dadd+0x52e>
 80008b8:	4f58      	ldr	r7, [pc, #352]	@ (8000a1c <__aeabi_dadd+0x38c>)
 80008ba:	42b9      	cmp	r1, r7
 80008bc:	d100      	bne.n	80008c0 <__aeabi_dadd+0x230>
 80008be:	e190      	b.n	8000be2 <__aeabi_dadd+0x552>
 80008c0:	4661      	mov	r1, ip
 80008c2:	2701      	movs	r7, #1
 80008c4:	2938      	cmp	r1, #56	@ 0x38
 80008c6:	dd00      	ble.n	80008ca <__aeabi_dadd+0x23a>
 80008c8:	e72e      	b.n	8000728 <__aeabi_dadd+0x98>
 80008ca:	e718      	b.n	80006fe <__aeabi_dadd+0x6e>
 80008cc:	4f55      	ldr	r7, [pc, #340]	@ (8000a24 <__aeabi_dadd+0x394>)
 80008ce:	1c61      	adds	r1, r4, #1
 80008d0:	4239      	tst	r1, r7
 80008d2:	d000      	beq.n	80008d6 <__aeabi_dadd+0x246>
 80008d4:	e0d0      	b.n	8000a78 <__aeabi_dadd+0x3e8>
 80008d6:	0031      	movs	r1, r6
 80008d8:	4648      	mov	r0, r9
 80008da:	001f      	movs	r7, r3
 80008dc:	4301      	orrs	r1, r0
 80008de:	4317      	orrs	r7, r2
 80008e0:	2c00      	cmp	r4, #0
 80008e2:	d000      	beq.n	80008e6 <__aeabi_dadd+0x256>
 80008e4:	e13d      	b.n	8000b62 <__aeabi_dadd+0x4d2>
 80008e6:	2900      	cmp	r1, #0
 80008e8:	d100      	bne.n	80008ec <__aeabi_dadd+0x25c>
 80008ea:	e1bc      	b.n	8000c66 <__aeabi_dadd+0x5d6>
 80008ec:	2f00      	cmp	r7, #0
 80008ee:	d000      	beq.n	80008f2 <__aeabi_dadd+0x262>
 80008f0:	e1bf      	b.n	8000c72 <__aeabi_dadd+0x5e2>
 80008f2:	464b      	mov	r3, r9
 80008f4:	2100      	movs	r1, #0
 80008f6:	08d8      	lsrs	r0, r3, #3
 80008f8:	0777      	lsls	r7, r6, #29
 80008fa:	4307      	orrs	r7, r0
 80008fc:	08f0      	lsrs	r0, r6, #3
 80008fe:	0306      	lsls	r6, r0, #12
 8000900:	054c      	lsls	r4, r1, #21
 8000902:	0b36      	lsrs	r6, r6, #12
 8000904:	0d64      	lsrs	r4, r4, #21
 8000906:	e00c      	b.n	8000922 <__aeabi_dadd+0x292>
 8000908:	4f44      	ldr	r7, [pc, #272]	@ (8000a1c <__aeabi_dadd+0x38c>)
 800090a:	42bc      	cmp	r4, r7
 800090c:	d100      	bne.n	8000910 <__aeabi_dadd+0x280>
 800090e:	e08b      	b.n	8000a28 <__aeabi_dadd+0x398>
 8000910:	2701      	movs	r7, #1
 8000912:	2938      	cmp	r1, #56	@ 0x38
 8000914:	dcb2      	bgt.n	800087c <__aeabi_dadd+0x1ec>
 8000916:	2780      	movs	r7, #128	@ 0x80
 8000918:	043f      	lsls	r7, r7, #16
 800091a:	433b      	orrs	r3, r7
 800091c:	e79c      	b.n	8000858 <__aeabi_dadd+0x1c8>
 800091e:	2600      	movs	r6, #0
 8000920:	2700      	movs	r7, #0
 8000922:	0524      	lsls	r4, r4, #20
 8000924:	4334      	orrs	r4, r6
 8000926:	07ed      	lsls	r5, r5, #31
 8000928:	432c      	orrs	r4, r5
 800092a:	0038      	movs	r0, r7
 800092c:	0021      	movs	r1, r4
 800092e:	b002      	add	sp, #8
 8000930:	bce0      	pop	{r5, r6, r7}
 8000932:	46ba      	mov	sl, r7
 8000934:	46b1      	mov	r9, r6
 8000936:	46a8      	mov	r8, r5
 8000938:	bdf0      	pop	{r4, r5, r6, r7, pc}
 800093a:	077b      	lsls	r3, r7, #29
 800093c:	d004      	beq.n	8000948 <__aeabi_dadd+0x2b8>
 800093e:	230f      	movs	r3, #15
 8000940:	403b      	ands	r3, r7
 8000942:	2b04      	cmp	r3, #4
 8000944:	d000      	beq.n	8000948 <__aeabi_dadd+0x2b8>
 8000946:	e728      	b.n	800079a <__aeabi_dadd+0x10a>
 8000948:	08f8      	lsrs	r0, r7, #3
 800094a:	4b34      	ldr	r3, [pc, #208]	@ (8000a1c <__aeabi_dadd+0x38c>)
 800094c:	0777      	lsls	r7, r6, #29
 800094e:	4307      	orrs	r7, r0
 8000950:	08f0      	lsrs	r0, r6, #3
 8000952:	429c      	cmp	r4, r3
 8000954:	d000      	beq.n	8000958 <__aeabi_dadd+0x2c8>
 8000956:	e24a      	b.n	8000dee <__aeabi_dadd+0x75e>
 8000958:	003b      	movs	r3, r7
 800095a:	4303      	orrs	r3, r0
 800095c:	d059      	beq.n	8000a12 <__aeabi_dadd+0x382>
 800095e:	2680      	movs	r6, #128	@ 0x80
 8000960:	0336      	lsls	r6, r6, #12
 8000962:	4306      	orrs	r6, r0
 8000964:	0336      	lsls	r6, r6, #12
 8000966:	4c2d      	ldr	r4, [pc, #180]	@ (8000a1c <__aeabi_dadd+0x38c>)
 8000968:	0b36      	lsrs	r6, r6, #12
 800096a:	e7da      	b.n	8000922 <__aeabi_dadd+0x292>
 800096c:	2900      	cmp	r1, #0
 800096e:	d061      	beq.n	8000a34 <__aeabi_dadd+0x3a4>
 8000970:	4641      	mov	r1, r8
 8000972:	1b09      	subs	r1, r1, r4
 8000974:	2c00      	cmp	r4, #0
 8000976:	d100      	bne.n	800097a <__aeabi_dadd+0x2ea>
 8000978:	e0b9      	b.n	8000aee <__aeabi_dadd+0x45e>
 800097a:	4c28      	ldr	r4, [pc, #160]	@ (8000a1c <__aeabi_dadd+0x38c>)
 800097c:	45a0      	cmp	r8, r4
 800097e:	d100      	bne.n	8000982 <__aeabi_dadd+0x2f2>
 8000980:	e1a5      	b.n	8000cce <__aeabi_dadd+0x63e>
 8000982:	2701      	movs	r7, #1
 8000984:	2938      	cmp	r1, #56	@ 0x38
 8000986:	dc13      	bgt.n	80009b0 <__aeabi_dadd+0x320>
 8000988:	2480      	movs	r4, #128	@ 0x80
 800098a:	0424      	lsls	r4, r4, #16
 800098c:	4326      	orrs	r6, r4
 800098e:	291f      	cmp	r1, #31
 8000990:	dd00      	ble.n	8000994 <__aeabi_dadd+0x304>
 8000992:	e1c8      	b.n	8000d26 <__aeabi_dadd+0x696>
 8000994:	2420      	movs	r4, #32
 8000996:	0037      	movs	r7, r6
 8000998:	4648      	mov	r0, r9
 800099a:	1a64      	subs	r4, r4, r1
 800099c:	40a7      	lsls	r7, r4
 800099e:	40c8      	lsrs	r0, r1
 80009a0:	4307      	orrs	r7, r0
 80009a2:	4648      	mov	r0, r9
 80009a4:	40a0      	lsls	r0, r4
 80009a6:	40ce      	lsrs	r6, r1
 80009a8:	1e44      	subs	r4, r0, #1
 80009aa:	41a0      	sbcs	r0, r4
 80009ac:	199b      	adds	r3, r3, r6
 80009ae:	4307      	orrs	r7, r0
 80009b0:	18bf      	adds	r7, r7, r2
 80009b2:	4297      	cmp	r7, r2
 80009b4:	4192      	sbcs	r2, r2
 80009b6:	4252      	negs	r2, r2
 80009b8:	4644      	mov	r4, r8
 80009ba:	18d6      	adds	r6, r2, r3
 80009bc:	e763      	b.n	8000886 <__aeabi_dadd+0x1f6>
 80009be:	0038      	movs	r0, r7
 80009c0:	f001 fe06 	bl	80025d0 <__clzsi2>
 80009c4:	0003      	movs	r3, r0
 80009c6:	3318      	adds	r3, #24
 80009c8:	2b1f      	cmp	r3, #31
 80009ca:	dc00      	bgt.n	80009ce <__aeabi_dadd+0x33e>
 80009cc:	e6bf      	b.n	800074e <__aeabi_dadd+0xbe>
 80009ce:	003a      	movs	r2, r7
 80009d0:	3808      	subs	r0, #8
 80009d2:	4082      	lsls	r2, r0
 80009d4:	429c      	cmp	r4, r3
 80009d6:	dd00      	ble.n	80009da <__aeabi_dadd+0x34a>
 80009d8:	e083      	b.n	8000ae2 <__aeabi_dadd+0x452>
 80009da:	1b1b      	subs	r3, r3, r4
 80009dc:	1c58      	adds	r0, r3, #1
 80009de:	281f      	cmp	r0, #31
 80009e0:	dc00      	bgt.n	80009e4 <__aeabi_dadd+0x354>
 80009e2:	e1b4      	b.n	8000d4e <__aeabi_dadd+0x6be>
 80009e4:	0017      	movs	r7, r2
 80009e6:	3b1f      	subs	r3, #31
 80009e8:	40df      	lsrs	r7, r3
 80009ea:	2820      	cmp	r0, #32
 80009ec:	d005      	beq.n	80009fa <__aeabi_dadd+0x36a>
 80009ee:	2340      	movs	r3, #64	@ 0x40
 80009f0:	1a1b      	subs	r3, r3, r0
 80009f2:	409a      	lsls	r2, r3
 80009f4:	1e53      	subs	r3, r2, #1
 80009f6:	419a      	sbcs	r2, r3
 80009f8:	4317      	orrs	r7, r2
 80009fa:	2400      	movs	r4, #0
 80009fc:	2f00      	cmp	r7, #0
 80009fe:	d00a      	beq.n	8000a16 <__aeabi_dadd+0x386>
 8000a00:	077b      	lsls	r3, r7, #29
 8000a02:	d000      	beq.n	8000a06 <__aeabi_dadd+0x376>
 8000a04:	e6c4      	b.n	8000790 <__aeabi_dadd+0x100>
 8000a06:	0026      	movs	r6, r4
 8000a08:	e79e      	b.n	8000948 <__aeabi_dadd+0x2b8>
 8000a0a:	464b      	mov	r3, r9
 8000a0c:	000c      	movs	r4, r1
 8000a0e:	08d8      	lsrs	r0, r3, #3
 8000a10:	e79b      	b.n	800094a <__aeabi_dadd+0x2ba>
 8000a12:	2700      	movs	r7, #0
 8000a14:	4c01      	ldr	r4, [pc, #4]	@ (8000a1c <__aeabi_dadd+0x38c>)
 8000a16:	2600      	movs	r6, #0
 8000a18:	e783      	b.n	8000922 <__aeabi_dadd+0x292>
 8000a1a:	46c0      	nop			@ (mov r8, r8)
 8000a1c:	000007ff 	.word	0x000007ff
 8000a20:	ff7fffff 	.word	0xff7fffff
 8000a24:	000007fe 	.word	0x000007fe
 8000a28:	464b      	mov	r3, r9
 8000a2a:	0777      	lsls	r7, r6, #29
 8000a2c:	08d8      	lsrs	r0, r3, #3
 8000a2e:	4307      	orrs	r7, r0
 8000a30:	08f0      	lsrs	r0, r6, #3
 8000a32:	e791      	b.n	8000958 <__aeabi_dadd+0x2c8>
 8000a34:	4fcd      	ldr	r7, [pc, #820]	@ (8000d6c <__aeabi_dadd+0x6dc>)
 8000a36:	1c61      	adds	r1, r4, #1
 8000a38:	4239      	tst	r1, r7
 8000a3a:	d16b      	bne.n	8000b14 <__aeabi_dadd+0x484>
 8000a3c:	0031      	movs	r1, r6
 8000a3e:	4648      	mov	r0, r9
 8000a40:	4301      	orrs	r1, r0
 8000a42:	2c00      	cmp	r4, #0
 8000a44:	d000      	beq.n	8000a48 <__aeabi_dadd+0x3b8>
 8000a46:	e14b      	b.n	8000ce0 <__aeabi_dadd+0x650>
 8000a48:	001f      	movs	r7, r3
 8000a4a:	4317      	orrs	r7, r2
 8000a4c:	2900      	cmp	r1, #0
 8000a4e:	d100      	bne.n	8000a52 <__aeabi_dadd+0x3c2>
 8000a50:	e181      	b.n	8000d56 <__aeabi_dadd+0x6c6>
 8000a52:	2f00      	cmp	r7, #0
 8000a54:	d100      	bne.n	8000a58 <__aeabi_dadd+0x3c8>
 8000a56:	e74c      	b.n	80008f2 <__aeabi_dadd+0x262>
 8000a58:	444a      	add	r2, r9
 8000a5a:	454a      	cmp	r2, r9
 8000a5c:	4180      	sbcs	r0, r0
 8000a5e:	18f6      	adds	r6, r6, r3
 8000a60:	4240      	negs	r0, r0
 8000a62:	1836      	adds	r6, r6, r0
 8000a64:	0233      	lsls	r3, r6, #8
 8000a66:	d500      	bpl.n	8000a6a <__aeabi_dadd+0x3da>
 8000a68:	e1b0      	b.n	8000dcc <__aeabi_dadd+0x73c>
 8000a6a:	0017      	movs	r7, r2
 8000a6c:	4691      	mov	r9, r2
 8000a6e:	4337      	orrs	r7, r6
 8000a70:	d000      	beq.n	8000a74 <__aeabi_dadd+0x3e4>
 8000a72:	e73e      	b.n	80008f2 <__aeabi_dadd+0x262>
 8000a74:	2600      	movs	r6, #0
 8000a76:	e754      	b.n	8000922 <__aeabi_dadd+0x292>
 8000a78:	4649      	mov	r1, r9
 8000a7a:	1a89      	subs	r1, r1, r2
 8000a7c:	4688      	mov	r8, r1
 8000a7e:	45c1      	cmp	r9, r8
 8000a80:	41bf      	sbcs	r7, r7
 8000a82:	1af1      	subs	r1, r6, r3
 8000a84:	427f      	negs	r7, r7
 8000a86:	1bc9      	subs	r1, r1, r7
 8000a88:	020f      	lsls	r7, r1, #8
 8000a8a:	d461      	bmi.n	8000b50 <__aeabi_dadd+0x4c0>
 8000a8c:	4647      	mov	r7, r8
 8000a8e:	430f      	orrs	r7, r1
 8000a90:	d100      	bne.n	8000a94 <__aeabi_dadd+0x404>
 8000a92:	e0bd      	b.n	8000c10 <__aeabi_dadd+0x580>
 8000a94:	000e      	movs	r6, r1
 8000a96:	4647      	mov	r7, r8
 8000a98:	e651      	b.n	800073e <__aeabi_dadd+0xae>
 8000a9a:	4cb5      	ldr	r4, [pc, #724]	@ (8000d70 <__aeabi_dadd+0x6e0>)
 8000a9c:	45a0      	cmp	r8, r4
 8000a9e:	d100      	bne.n	8000aa2 <__aeabi_dadd+0x412>
 8000aa0:	e100      	b.n	8000ca4 <__aeabi_dadd+0x614>
 8000aa2:	2701      	movs	r7, #1
 8000aa4:	2938      	cmp	r1, #56	@ 0x38
 8000aa6:	dd00      	ble.n	8000aaa <__aeabi_dadd+0x41a>
 8000aa8:	e6b8      	b.n	800081c <__aeabi_dadd+0x18c>
 8000aaa:	2480      	movs	r4, #128	@ 0x80
 8000aac:	0424      	lsls	r4, r4, #16
 8000aae:	4326      	orrs	r6, r4
 8000ab0:	e6a3      	b.n	80007fa <__aeabi_dadd+0x16a>
 8000ab2:	4eb0      	ldr	r6, [pc, #704]	@ (8000d74 <__aeabi_dadd+0x6e4>)
 8000ab4:	1ae4      	subs	r4, r4, r3
 8000ab6:	4016      	ands	r6, r2
 8000ab8:	077b      	lsls	r3, r7, #29
 8000aba:	d000      	beq.n	8000abe <__aeabi_dadd+0x42e>
 8000abc:	e73f      	b.n	800093e <__aeabi_dadd+0x2ae>
 8000abe:	e743      	b.n	8000948 <__aeabi_dadd+0x2b8>
 8000ac0:	000f      	movs	r7, r1
 8000ac2:	0018      	movs	r0, r3
 8000ac4:	3f20      	subs	r7, #32
 8000ac6:	40f8      	lsrs	r0, r7
 8000ac8:	4684      	mov	ip, r0
 8000aca:	2920      	cmp	r1, #32
 8000acc:	d003      	beq.n	8000ad6 <__aeabi_dadd+0x446>
 8000ace:	2740      	movs	r7, #64	@ 0x40
 8000ad0:	1a79      	subs	r1, r7, r1
 8000ad2:	408b      	lsls	r3, r1
 8000ad4:	431a      	orrs	r2, r3
 8000ad6:	1e53      	subs	r3, r2, #1
 8000ad8:	419a      	sbcs	r2, r3
 8000ada:	4663      	mov	r3, ip
 8000adc:	0017      	movs	r7, r2
 8000ade:	431f      	orrs	r7, r3
 8000ae0:	e622      	b.n	8000728 <__aeabi_dadd+0x98>
 8000ae2:	48a4      	ldr	r0, [pc, #656]	@ (8000d74 <__aeabi_dadd+0x6e4>)
 8000ae4:	1ae1      	subs	r1, r4, r3
 8000ae6:	4010      	ands	r0, r2
 8000ae8:	0747      	lsls	r7, r0, #29
 8000aea:	08c0      	lsrs	r0, r0, #3
 8000aec:	e707      	b.n	80008fe <__aeabi_dadd+0x26e>
 8000aee:	0034      	movs	r4, r6
 8000af0:	4648      	mov	r0, r9
 8000af2:	4304      	orrs	r4, r0
 8000af4:	d100      	bne.n	8000af8 <__aeabi_dadd+0x468>
 8000af6:	e0fa      	b.n	8000cee <__aeabi_dadd+0x65e>
 8000af8:	1e4c      	subs	r4, r1, #1
 8000afa:	2901      	cmp	r1, #1
 8000afc:	d100      	bne.n	8000b00 <__aeabi_dadd+0x470>
 8000afe:	e0d7      	b.n	8000cb0 <__aeabi_dadd+0x620>
 8000b00:	4f9b      	ldr	r7, [pc, #620]	@ (8000d70 <__aeabi_dadd+0x6e0>)
 8000b02:	42b9      	cmp	r1, r7
 8000b04:	d100      	bne.n	8000b08 <__aeabi_dadd+0x478>
 8000b06:	e0e2      	b.n	8000cce <__aeabi_dadd+0x63e>
 8000b08:	2701      	movs	r7, #1
 8000b0a:	2c38      	cmp	r4, #56	@ 0x38
 8000b0c:	dd00      	ble.n	8000b10 <__aeabi_dadd+0x480>
 8000b0e:	e74f      	b.n	80009b0 <__aeabi_dadd+0x320>
 8000b10:	0021      	movs	r1, r4
 8000b12:	e73c      	b.n	800098e <__aeabi_dadd+0x2fe>
 8000b14:	4c96      	ldr	r4, [pc, #600]	@ (8000d70 <__aeabi_dadd+0x6e0>)
 8000b16:	42a1      	cmp	r1, r4
 8000b18:	d100      	bne.n	8000b1c <__aeabi_dadd+0x48c>
 8000b1a:	e0dd      	b.n	8000cd8 <__aeabi_dadd+0x648>
 8000b1c:	444a      	add	r2, r9
 8000b1e:	454a      	cmp	r2, r9
 8000b20:	4180      	sbcs	r0, r0
 8000b22:	18f3      	adds	r3, r6, r3
 8000b24:	4240      	negs	r0, r0
 8000b26:	1818      	adds	r0, r3, r0
 8000b28:	07c7      	lsls	r7, r0, #31
 8000b2a:	0852      	lsrs	r2, r2, #1
 8000b2c:	4317      	orrs	r7, r2
 8000b2e:	0846      	lsrs	r6, r0, #1
 8000b30:	0752      	lsls	r2, r2, #29
 8000b32:	d005      	beq.n	8000b40 <__aeabi_dadd+0x4b0>
 8000b34:	220f      	movs	r2, #15
 8000b36:	000c      	movs	r4, r1
 8000b38:	403a      	ands	r2, r7
 8000b3a:	2a04      	cmp	r2, #4
 8000b3c:	d000      	beq.n	8000b40 <__aeabi_dadd+0x4b0>
 8000b3e:	e62c      	b.n	800079a <__aeabi_dadd+0x10a>
 8000b40:	0776      	lsls	r6, r6, #29
 8000b42:	08ff      	lsrs	r7, r7, #3
 8000b44:	4337      	orrs	r7, r6
 8000b46:	0900      	lsrs	r0, r0, #4
 8000b48:	e6d9      	b.n	80008fe <__aeabi_dadd+0x26e>
 8000b4a:	2700      	movs	r7, #0
 8000b4c:	2600      	movs	r6, #0
 8000b4e:	e6e8      	b.n	8000922 <__aeabi_dadd+0x292>
 8000b50:	4649      	mov	r1, r9
 8000b52:	1a57      	subs	r7, r2, r1
 8000b54:	42ba      	cmp	r2, r7
 8000b56:	4192      	sbcs	r2, r2
 8000b58:	1b9e      	subs	r6, r3, r6
 8000b5a:	4252      	negs	r2, r2
 8000b5c:	4665      	mov	r5, ip
 8000b5e:	1ab6      	subs	r6, r6, r2
 8000b60:	e5ed      	b.n	800073e <__aeabi_dadd+0xae>
 8000b62:	2900      	cmp	r1, #0
 8000b64:	d000      	beq.n	8000b68 <__aeabi_dadd+0x4d8>
 8000b66:	e0c6      	b.n	8000cf6 <__aeabi_dadd+0x666>
 8000b68:	2f00      	cmp	r7, #0
 8000b6a:	d167      	bne.n	8000c3c <__aeabi_dadd+0x5ac>
 8000b6c:	2680      	movs	r6, #128	@ 0x80
 8000b6e:	2500      	movs	r5, #0
 8000b70:	4c7f      	ldr	r4, [pc, #508]	@ (8000d70 <__aeabi_dadd+0x6e0>)
 8000b72:	0336      	lsls	r6, r6, #12
 8000b74:	e6d5      	b.n	8000922 <__aeabi_dadd+0x292>
 8000b76:	4665      	mov	r5, ip
 8000b78:	000c      	movs	r4, r1
 8000b7a:	001e      	movs	r6, r3
 8000b7c:	08d0      	lsrs	r0, r2, #3
 8000b7e:	e6e4      	b.n	800094a <__aeabi_dadd+0x2ba>
 8000b80:	444a      	add	r2, r9
 8000b82:	454a      	cmp	r2, r9
 8000b84:	4180      	sbcs	r0, r0
 8000b86:	18f3      	adds	r3, r6, r3
 8000b88:	4240      	negs	r0, r0
 8000b8a:	1818      	adds	r0, r3, r0
 8000b8c:	0011      	movs	r1, r2
 8000b8e:	0203      	lsls	r3, r0, #8
 8000b90:	d400      	bmi.n	8000b94 <__aeabi_dadd+0x504>
 8000b92:	e096      	b.n	8000cc2 <__aeabi_dadd+0x632>
 8000b94:	4b77      	ldr	r3, [pc, #476]	@ (8000d74 <__aeabi_dadd+0x6e4>)
 8000b96:	0849      	lsrs	r1, r1, #1
 8000b98:	4018      	ands	r0, r3
 8000b9a:	07c3      	lsls	r3, r0, #31
 8000b9c:	430b      	orrs	r3, r1
 8000b9e:	0844      	lsrs	r4, r0, #1
 8000ba0:	0749      	lsls	r1, r1, #29
 8000ba2:	d100      	bne.n	8000ba6 <__aeabi_dadd+0x516>
 8000ba4:	e129      	b.n	8000dfa <__aeabi_dadd+0x76a>
 8000ba6:	220f      	movs	r2, #15
 8000ba8:	401a      	ands	r2, r3
 8000baa:	2a04      	cmp	r2, #4
 8000bac:	d100      	bne.n	8000bb0 <__aeabi_dadd+0x520>
 8000bae:	e0ea      	b.n	8000d86 <__aeabi_dadd+0x6f6>
 8000bb0:	1d1f      	adds	r7, r3, #4
 8000bb2:	429f      	cmp	r7, r3
 8000bb4:	41b6      	sbcs	r6, r6
 8000bb6:	4276      	negs	r6, r6
 8000bb8:	1936      	adds	r6, r6, r4
 8000bba:	2402      	movs	r4, #2
 8000bbc:	e6c4      	b.n	8000948 <__aeabi_dadd+0x2b8>
 8000bbe:	4649      	mov	r1, r9
 8000bc0:	1a8f      	subs	r7, r1, r2
 8000bc2:	45b9      	cmp	r9, r7
 8000bc4:	4180      	sbcs	r0, r0
 8000bc6:	1af6      	subs	r6, r6, r3
 8000bc8:	4240      	negs	r0, r0
 8000bca:	1a36      	subs	r6, r6, r0
 8000bcc:	0233      	lsls	r3, r6, #8
 8000bce:	d406      	bmi.n	8000bde <__aeabi_dadd+0x54e>
 8000bd0:	0773      	lsls	r3, r6, #29
 8000bd2:	08ff      	lsrs	r7, r7, #3
 8000bd4:	2101      	movs	r1, #1
 8000bd6:	431f      	orrs	r7, r3
 8000bd8:	08f0      	lsrs	r0, r6, #3
 8000bda:	e690      	b.n	80008fe <__aeabi_dadd+0x26e>
 8000bdc:	4665      	mov	r5, ip
 8000bde:	2401      	movs	r4, #1
 8000be0:	e5ab      	b.n	800073a <__aeabi_dadd+0xaa>
 8000be2:	464b      	mov	r3, r9
 8000be4:	0777      	lsls	r7, r6, #29
 8000be6:	08d8      	lsrs	r0, r3, #3
 8000be8:	4307      	orrs	r7, r0
 8000bea:	08f0      	lsrs	r0, r6, #3
 8000bec:	e6b4      	b.n	8000958 <__aeabi_dadd+0x2c8>
 8000bee:	000f      	movs	r7, r1
 8000bf0:	0018      	movs	r0, r3
 8000bf2:	3f20      	subs	r7, #32
 8000bf4:	40f8      	lsrs	r0, r7
 8000bf6:	4684      	mov	ip, r0
 8000bf8:	2920      	cmp	r1, #32
 8000bfa:	d003      	beq.n	8000c04 <__aeabi_dadd+0x574>
 8000bfc:	2740      	movs	r7, #64	@ 0x40
 8000bfe:	1a79      	subs	r1, r7, r1
 8000c00:	408b      	lsls	r3, r1
 8000c02:	431a      	orrs	r2, r3
 8000c04:	1e53      	subs	r3, r2, #1
 8000c06:	419a      	sbcs	r2, r3
 8000c08:	4663      	mov	r3, ip
 8000c0a:	0017      	movs	r7, r2
 8000c0c:	431f      	orrs	r7, r3
 8000c0e:	e635      	b.n	800087c <__aeabi_dadd+0x1ec>
 8000c10:	2500      	movs	r5, #0
 8000c12:	2400      	movs	r4, #0
 8000c14:	2600      	movs	r6, #0
 8000c16:	e684      	b.n	8000922 <__aeabi_dadd+0x292>
 8000c18:	000c      	movs	r4, r1
 8000c1a:	0035      	movs	r5, r6
 8000c1c:	3c20      	subs	r4, #32
 8000c1e:	40e5      	lsrs	r5, r4
 8000c20:	2920      	cmp	r1, #32
 8000c22:	d005      	beq.n	8000c30 <__aeabi_dadd+0x5a0>
 8000c24:	2440      	movs	r4, #64	@ 0x40
 8000c26:	1a61      	subs	r1, r4, r1
 8000c28:	408e      	lsls	r6, r1
 8000c2a:	4649      	mov	r1, r9
 8000c2c:	4331      	orrs	r1, r6
 8000c2e:	4689      	mov	r9, r1
 8000c30:	4648      	mov	r0, r9
 8000c32:	1e41      	subs	r1, r0, #1
 8000c34:	4188      	sbcs	r0, r1
 8000c36:	0007      	movs	r7, r0
 8000c38:	432f      	orrs	r7, r5
 8000c3a:	e5ef      	b.n	800081c <__aeabi_dadd+0x18c>
 8000c3c:	08d2      	lsrs	r2, r2, #3
 8000c3e:	075f      	lsls	r7, r3, #29
 8000c40:	4665      	mov	r5, ip
 8000c42:	4317      	orrs	r7, r2
 8000c44:	08d8      	lsrs	r0, r3, #3
 8000c46:	e687      	b.n	8000958 <__aeabi_dadd+0x2c8>
 8000c48:	1a17      	subs	r7, r2, r0
 8000c4a:	42ba      	cmp	r2, r7
 8000c4c:	4192      	sbcs	r2, r2
 8000c4e:	1b9e      	subs	r6, r3, r6
 8000c50:	4252      	negs	r2, r2
 8000c52:	1ab6      	subs	r6, r6, r2
 8000c54:	0233      	lsls	r3, r6, #8
 8000c56:	d4c1      	bmi.n	8000bdc <__aeabi_dadd+0x54c>
 8000c58:	0773      	lsls	r3, r6, #29
 8000c5a:	08ff      	lsrs	r7, r7, #3
 8000c5c:	4665      	mov	r5, ip
 8000c5e:	2101      	movs	r1, #1
 8000c60:	431f      	orrs	r7, r3
 8000c62:	08f0      	lsrs	r0, r6, #3
 8000c64:	e64b      	b.n	80008fe <__aeabi_dadd+0x26e>
 8000c66:	2f00      	cmp	r7, #0
 8000c68:	d07b      	beq.n	8000d62 <__aeabi_dadd+0x6d2>
 8000c6a:	4665      	mov	r5, ip
 8000c6c:	001e      	movs	r6, r3
 8000c6e:	4691      	mov	r9, r2
 8000c70:	e63f      	b.n	80008f2 <__aeabi_dadd+0x262>
 8000c72:	1a81      	subs	r1, r0, r2
 8000c74:	4688      	mov	r8, r1
 8000c76:	45c1      	cmp	r9, r8
 8000c78:	41a4      	sbcs	r4, r4
 8000c7a:	1af1      	subs	r1, r6, r3
 8000c7c:	4264      	negs	r4, r4
 8000c7e:	1b09      	subs	r1, r1, r4
 8000c80:	2480      	movs	r4, #128	@ 0x80
 8000c82:	0424      	lsls	r4, r4, #16
 8000c84:	4221      	tst	r1, r4
 8000c86:	d077      	beq.n	8000d78 <__aeabi_dadd+0x6e8>
 8000c88:	1a10      	subs	r0, r2, r0
 8000c8a:	4282      	cmp	r2, r0
 8000c8c:	4192      	sbcs	r2, r2
 8000c8e:	0007      	movs	r7, r0
 8000c90:	1b9e      	subs	r6, r3, r6
 8000c92:	4252      	negs	r2, r2
 8000c94:	1ab6      	subs	r6, r6, r2
 8000c96:	4337      	orrs	r7, r6
 8000c98:	d000      	beq.n	8000c9c <__aeabi_dadd+0x60c>
 8000c9a:	e0a0      	b.n	8000dde <__aeabi_dadd+0x74e>
 8000c9c:	4665      	mov	r5, ip
 8000c9e:	2400      	movs	r4, #0
 8000ca0:	2600      	movs	r6, #0
 8000ca2:	e63e      	b.n	8000922 <__aeabi_dadd+0x292>
 8000ca4:	075f      	lsls	r7, r3, #29
 8000ca6:	08d2      	lsrs	r2, r2, #3
 8000ca8:	4665      	mov	r5, ip
 8000caa:	4317      	orrs	r7, r2
 8000cac:	08d8      	lsrs	r0, r3, #3
 8000cae:	e653      	b.n	8000958 <__aeabi_dadd+0x2c8>
 8000cb0:	1881      	adds	r1, r0, r2
 8000cb2:	4291      	cmp	r1, r2
 8000cb4:	4192      	sbcs	r2, r2
 8000cb6:	18f0      	adds	r0, r6, r3
 8000cb8:	4252      	negs	r2, r2
 8000cba:	1880      	adds	r0, r0, r2
 8000cbc:	0203      	lsls	r3, r0, #8
 8000cbe:	d500      	bpl.n	8000cc2 <__aeabi_dadd+0x632>
 8000cc0:	e768      	b.n	8000b94 <__aeabi_dadd+0x504>
 8000cc2:	0747      	lsls	r7, r0, #29
 8000cc4:	08c9      	lsrs	r1, r1, #3
 8000cc6:	430f      	orrs	r7, r1
 8000cc8:	08c0      	lsrs	r0, r0, #3
 8000cca:	2101      	movs	r1, #1
 8000ccc:	e617      	b.n	80008fe <__aeabi_dadd+0x26e>
 8000cce:	08d2      	lsrs	r2, r2, #3
 8000cd0:	075f      	lsls	r7, r3, #29
 8000cd2:	4317      	orrs	r7, r2
 8000cd4:	08d8      	lsrs	r0, r3, #3
 8000cd6:	e63f      	b.n	8000958 <__aeabi_dadd+0x2c8>
 8000cd8:	000c      	movs	r4, r1
 8000cda:	2600      	movs	r6, #0
 8000cdc:	2700      	movs	r7, #0
 8000cde:	e620      	b.n	8000922 <__aeabi_dadd+0x292>
 8000ce0:	2900      	cmp	r1, #0
 8000ce2:	d156      	bne.n	8000d92 <__aeabi_dadd+0x702>
 8000ce4:	075f      	lsls	r7, r3, #29
 8000ce6:	08d2      	lsrs	r2, r2, #3
 8000ce8:	4317      	orrs	r7, r2
 8000cea:	08d8      	lsrs	r0, r3, #3
 8000cec:	e634      	b.n	8000958 <__aeabi_dadd+0x2c8>
 8000cee:	000c      	movs	r4, r1
 8000cf0:	001e      	movs	r6, r3
 8000cf2:	08d0      	lsrs	r0, r2, #3
 8000cf4:	e629      	b.n	800094a <__aeabi_dadd+0x2ba>
 8000cf6:	08c1      	lsrs	r1, r0, #3
 8000cf8:	0770      	lsls	r0, r6, #29
 8000cfa:	4301      	orrs	r1, r0
 8000cfc:	08f0      	lsrs	r0, r6, #3
 8000cfe:	2f00      	cmp	r7, #0
 8000d00:	d062      	beq.n	8000dc8 <__aeabi_dadd+0x738>
 8000d02:	2480      	movs	r4, #128	@ 0x80
 8000d04:	0324      	lsls	r4, r4, #12
 8000d06:	4220      	tst	r0, r4
 8000d08:	d007      	beq.n	8000d1a <__aeabi_dadd+0x68a>
 8000d0a:	08de      	lsrs	r6, r3, #3
 8000d0c:	4226      	tst	r6, r4
 8000d0e:	d104      	bne.n	8000d1a <__aeabi_dadd+0x68a>
 8000d10:	4665      	mov	r5, ip
 8000d12:	0030      	movs	r0, r6
 8000d14:	08d1      	lsrs	r1, r2, #3
 8000d16:	075b      	lsls	r3, r3, #29
 8000d18:	4319      	orrs	r1, r3
 8000d1a:	0f4f      	lsrs	r7, r1, #29
 8000d1c:	00c9      	lsls	r1, r1, #3
 8000d1e:	08c9      	lsrs	r1, r1, #3
 8000d20:	077f      	lsls	r7, r7, #29
 8000d22:	430f      	orrs	r7, r1
 8000d24:	e618      	b.n	8000958 <__aeabi_dadd+0x2c8>
 8000d26:	000c      	movs	r4, r1
 8000d28:	0030      	movs	r0, r6
 8000d2a:	3c20      	subs	r4, #32
 8000d2c:	40e0      	lsrs	r0, r4
 8000d2e:	4684      	mov	ip, r0
 8000d30:	2920      	cmp	r1, #32
 8000d32:	d005      	beq.n	8000d40 <__aeabi_dadd+0x6b0>
 8000d34:	2440      	movs	r4, #64	@ 0x40
 8000d36:	1a61      	subs	r1, r4, r1
 8000d38:	408e      	lsls	r6, r1
 8000d3a:	4649      	mov	r1, r9
 8000d3c:	4331      	orrs	r1, r6
 8000d3e:	4689      	mov	r9, r1
 8000d40:	4648      	mov	r0, r9
 8000d42:	1e41      	subs	r1, r0, #1
 8000d44:	4188      	sbcs	r0, r1
 8000d46:	4661      	mov	r1, ip
 8000d48:	0007      	movs	r7, r0
 8000d4a:	430f      	orrs	r7, r1
 8000d4c:	e630      	b.n	80009b0 <__aeabi_dadd+0x320>
 8000d4e:	2120      	movs	r1, #32
 8000d50:	2700      	movs	r7, #0
 8000d52:	1a09      	subs	r1, r1, r0
 8000d54:	e50e      	b.n	8000774 <__aeabi_dadd+0xe4>
 8000d56:	001e      	movs	r6, r3
 8000d58:	2f00      	cmp	r7, #0
 8000d5a:	d000      	beq.n	8000d5e <__aeabi_dadd+0x6ce>
 8000d5c:	e522      	b.n	80007a4 <__aeabi_dadd+0x114>
 8000d5e:	2400      	movs	r4, #0
 8000d60:	e758      	b.n	8000c14 <__aeabi_dadd+0x584>
 8000d62:	2500      	movs	r5, #0
 8000d64:	2400      	movs	r4, #0
 8000d66:	2600      	movs	r6, #0
 8000d68:	e5db      	b.n	8000922 <__aeabi_dadd+0x292>
 8000d6a:	46c0      	nop			@ (mov r8, r8)
 8000d6c:	000007fe 	.word	0x000007fe
 8000d70:	000007ff 	.word	0x000007ff
 8000d74:	ff7fffff 	.word	0xff7fffff
 8000d78:	4647      	mov	r7, r8
 8000d7a:	430f      	orrs	r7, r1
 8000d7c:	d100      	bne.n	8000d80 <__aeabi_dadd+0x6f0>
 8000d7e:	e747      	b.n	8000c10 <__aeabi_dadd+0x580>
 8000d80:	000e      	movs	r6, r1
 8000d82:	46c1      	mov	r9, r8
 8000d84:	e5b5      	b.n	80008f2 <__aeabi_dadd+0x262>
 8000d86:	08df      	lsrs	r7, r3, #3
 8000d88:	0764      	lsls	r4, r4, #29
 8000d8a:	2102      	movs	r1, #2
 8000d8c:	4327      	orrs	r7, r4
 8000d8e:	0900      	lsrs	r0, r0, #4
 8000d90:	e5b5      	b.n	80008fe <__aeabi_dadd+0x26e>
 8000d92:	0019      	movs	r1, r3
 8000d94:	08c0      	lsrs	r0, r0, #3
 8000d96:	0777      	lsls	r7, r6, #29
 8000d98:	4307      	orrs	r7, r0
 8000d9a:	4311      	orrs	r1, r2
 8000d9c:	08f0      	lsrs	r0, r6, #3
 8000d9e:	2900      	cmp	r1, #0
 8000da0:	d100      	bne.n	8000da4 <__aeabi_dadd+0x714>
 8000da2:	e5d9      	b.n	8000958 <__aeabi_dadd+0x2c8>
 8000da4:	2180      	movs	r1, #128	@ 0x80
 8000da6:	0309      	lsls	r1, r1, #12
 8000da8:	4208      	tst	r0, r1
 8000daa:	d007      	beq.n	8000dbc <__aeabi_dadd+0x72c>
 8000dac:	08dc      	lsrs	r4, r3, #3
 8000dae:	420c      	tst	r4, r1
 8000db0:	d104      	bne.n	8000dbc <__aeabi_dadd+0x72c>
 8000db2:	08d2      	lsrs	r2, r2, #3
 8000db4:	075b      	lsls	r3, r3, #29
 8000db6:	431a      	orrs	r2, r3
 8000db8:	0017      	movs	r7, r2
 8000dba:	0020      	movs	r0, r4
 8000dbc:	0f7b      	lsrs	r3, r7, #29
 8000dbe:	00ff      	lsls	r7, r7, #3
 8000dc0:	08ff      	lsrs	r7, r7, #3
 8000dc2:	075b      	lsls	r3, r3, #29
 8000dc4:	431f      	orrs	r7, r3
 8000dc6:	e5c7      	b.n	8000958 <__aeabi_dadd+0x2c8>
 8000dc8:	000f      	movs	r7, r1
 8000dca:	e5c5      	b.n	8000958 <__aeabi_dadd+0x2c8>
 8000dcc:	4b12      	ldr	r3, [pc, #72]	@ (8000e18 <__aeabi_dadd+0x788>)
 8000dce:	08d2      	lsrs	r2, r2, #3
 8000dd0:	4033      	ands	r3, r6
 8000dd2:	075f      	lsls	r7, r3, #29
 8000dd4:	025b      	lsls	r3, r3, #9
 8000dd6:	2401      	movs	r4, #1
 8000dd8:	4317      	orrs	r7, r2
 8000dda:	0b1e      	lsrs	r6, r3, #12
 8000ddc:	e5a1      	b.n	8000922 <__aeabi_dadd+0x292>
 8000dde:	4226      	tst	r6, r4
 8000de0:	d012      	beq.n	8000e08 <__aeabi_dadd+0x778>
 8000de2:	4b0d      	ldr	r3, [pc, #52]	@ (8000e18 <__aeabi_dadd+0x788>)
 8000de4:	4665      	mov	r5, ip
 8000de6:	0002      	movs	r2, r0
 8000de8:	2401      	movs	r4, #1
 8000dea:	401e      	ands	r6, r3
 8000dec:	e4e6      	b.n	80007bc <__aeabi_dadd+0x12c>
 8000dee:	0021      	movs	r1, r4
 8000df0:	e585      	b.n	80008fe <__aeabi_dadd+0x26e>
 8000df2:	0017      	movs	r7, r2
 8000df4:	e5a8      	b.n	8000948 <__aeabi_dadd+0x2b8>
 8000df6:	003a      	movs	r2, r7
 8000df8:	e4d4      	b.n	80007a4 <__aeabi_dadd+0x114>
 8000dfa:	08db      	lsrs	r3, r3, #3
 8000dfc:	0764      	lsls	r4, r4, #29
 8000dfe:	431c      	orrs	r4, r3
 8000e00:	0027      	movs	r7, r4
 8000e02:	2102      	movs	r1, #2
 8000e04:	0900      	lsrs	r0, r0, #4
 8000e06:	e57a      	b.n	80008fe <__aeabi_dadd+0x26e>
 8000e08:	08c0      	lsrs	r0, r0, #3
 8000e0a:	0777      	lsls	r7, r6, #29
 8000e0c:	4307      	orrs	r7, r0
 8000e0e:	4665      	mov	r5, ip
 8000e10:	2100      	movs	r1, #0
 8000e12:	08f0      	lsrs	r0, r6, #3
 8000e14:	e573      	b.n	80008fe <__aeabi_dadd+0x26e>
 8000e16:	46c0      	nop			@ (mov r8, r8)
 8000e18:	ff7fffff 	.word	0xff7fffff

08000e1c <__aeabi_ddiv>:
 8000e1c:	b5f0      	push	{r4, r5, r6, r7, lr}
 8000e1e:	46de      	mov	lr, fp
 8000e20:	4645      	mov	r5, r8
 8000e22:	4657      	mov	r7, sl
 8000e24:	464e      	mov	r6, r9
 8000e26:	b5e0      	push	{r5, r6, r7, lr}
 8000e28:	b087      	sub	sp, #28
 8000e2a:	9200      	str	r2, [sp, #0]
 8000e2c:	9301      	str	r3, [sp, #4]
 8000e2e:	030b      	lsls	r3, r1, #12
 8000e30:	0b1b      	lsrs	r3, r3, #12
 8000e32:	469b      	mov	fp, r3
 8000e34:	0fca      	lsrs	r2, r1, #31
 8000e36:	004b      	lsls	r3, r1, #1
 8000e38:	0004      	movs	r4, r0
 8000e3a:	4680      	mov	r8, r0
 8000e3c:	0d5b      	lsrs	r3, r3, #21
 8000e3e:	9202      	str	r2, [sp, #8]
 8000e40:	d100      	bne.n	8000e44 <__aeabi_ddiv+0x28>
 8000e42:	e098      	b.n	8000f76 <__aeabi_ddiv+0x15a>
 8000e44:	4a7c      	ldr	r2, [pc, #496]	@ (8001038 <__aeabi_ddiv+0x21c>)
 8000e46:	4293      	cmp	r3, r2
 8000e48:	d037      	beq.n	8000eba <__aeabi_ddiv+0x9e>
 8000e4a:	4659      	mov	r1, fp
 8000e4c:	0f42      	lsrs	r2, r0, #29
 8000e4e:	00c9      	lsls	r1, r1, #3
 8000e50:	430a      	orrs	r2, r1
 8000e52:	2180      	movs	r1, #128	@ 0x80
 8000e54:	0409      	lsls	r1, r1, #16
 8000e56:	4311      	orrs	r1, r2
 8000e58:	00c2      	lsls	r2, r0, #3
 8000e5a:	4690      	mov	r8, r2
 8000e5c:	4a77      	ldr	r2, [pc, #476]	@ (800103c <__aeabi_ddiv+0x220>)
 8000e5e:	4689      	mov	r9, r1
 8000e60:	4692      	mov	sl, r2
 8000e62:	449a      	add	sl, r3
 8000e64:	2300      	movs	r3, #0
 8000e66:	2400      	movs	r4, #0
 8000e68:	9303      	str	r3, [sp, #12]
 8000e6a:	9e00      	ldr	r6, [sp, #0]
 8000e6c:	9f01      	ldr	r7, [sp, #4]
 8000e6e:	033b      	lsls	r3, r7, #12
 8000e70:	0b1b      	lsrs	r3, r3, #12
 8000e72:	469b      	mov	fp, r3
 8000e74:	007b      	lsls	r3, r7, #1
 8000e76:	0030      	movs	r0, r6
 8000e78:	0d5b      	lsrs	r3, r3, #21
 8000e7a:	0ffd      	lsrs	r5, r7, #31
 8000e7c:	2b00      	cmp	r3, #0
 8000e7e:	d059      	beq.n	8000f34 <__aeabi_ddiv+0x118>
 8000e80:	4a6d      	ldr	r2, [pc, #436]	@ (8001038 <__aeabi_ddiv+0x21c>)
 8000e82:	4293      	cmp	r3, r2
 8000e84:	d048      	beq.n	8000f18 <__aeabi_ddiv+0xfc>
 8000e86:	4659      	mov	r1, fp
 8000e88:	0f72      	lsrs	r2, r6, #29
 8000e8a:	00c9      	lsls	r1, r1, #3
 8000e8c:	430a      	orrs	r2, r1
 8000e8e:	2180      	movs	r1, #128	@ 0x80
 8000e90:	0409      	lsls	r1, r1, #16
 8000e92:	4311      	orrs	r1, r2
 8000e94:	468b      	mov	fp, r1
 8000e96:	4969      	ldr	r1, [pc, #420]	@ (800103c <__aeabi_ddiv+0x220>)
 8000e98:	00f2      	lsls	r2, r6, #3
 8000e9a:	468c      	mov	ip, r1
 8000e9c:	4651      	mov	r1, sl
 8000e9e:	4463      	add	r3, ip
 8000ea0:	1acb      	subs	r3, r1, r3
 8000ea2:	469a      	mov	sl, r3
 8000ea4:	2100      	movs	r1, #0
 8000ea6:	9e02      	ldr	r6, [sp, #8]
 8000ea8:	406e      	eors	r6, r5
 8000eaa:	b2f6      	uxtb	r6, r6
 8000eac:	2c0f      	cmp	r4, #15
 8000eae:	d900      	bls.n	8000eb2 <__aeabi_ddiv+0x96>
 8000eb0:	e0ce      	b.n	8001050 <__aeabi_ddiv+0x234>
 8000eb2:	4b63      	ldr	r3, [pc, #396]	@ (8001040 <__aeabi_ddiv+0x224>)
 8000eb4:	00a4      	lsls	r4, r4, #2
 8000eb6:	591b      	ldr	r3, [r3, r4]
 8000eb8:	469f      	mov	pc, r3
 8000eba:	465a      	mov	r2, fp
 8000ebc:	4302      	orrs	r2, r0
 8000ebe:	4691      	mov	r9, r2
 8000ec0:	d000      	beq.n	8000ec4 <__aeabi_ddiv+0xa8>
 8000ec2:	e090      	b.n	8000fe6 <__aeabi_ddiv+0x1ca>
 8000ec4:	469a      	mov	sl, r3
 8000ec6:	2302      	movs	r3, #2
 8000ec8:	4690      	mov	r8, r2
 8000eca:	2408      	movs	r4, #8
 8000ecc:	9303      	str	r3, [sp, #12]
 8000ece:	e7cc      	b.n	8000e6a <__aeabi_ddiv+0x4e>
 8000ed0:	46cb      	mov	fp, r9
 8000ed2:	4642      	mov	r2, r8
 8000ed4:	9d02      	ldr	r5, [sp, #8]
 8000ed6:	9903      	ldr	r1, [sp, #12]
 8000ed8:	2902      	cmp	r1, #2
 8000eda:	d100      	bne.n	8000ede <__aeabi_ddiv+0xc2>
 8000edc:	e1de      	b.n	800129c <__aeabi_ddiv+0x480>
 8000ede:	2903      	cmp	r1, #3
 8000ee0:	d100      	bne.n	8000ee4 <__aeabi_ddiv+0xc8>
 8000ee2:	e08d      	b.n	8001000 <__aeabi_ddiv+0x1e4>
 8000ee4:	2901      	cmp	r1, #1
 8000ee6:	d000      	beq.n	8000eea <__aeabi_ddiv+0xce>
 8000ee8:	e179      	b.n	80011de <__aeabi_ddiv+0x3c2>
 8000eea:	002e      	movs	r6, r5
 8000eec:	2200      	movs	r2, #0
 8000eee:	2300      	movs	r3, #0
 8000ef0:	2400      	movs	r4, #0
 8000ef2:	4690      	mov	r8, r2
 8000ef4:	051b      	lsls	r3, r3, #20
 8000ef6:	4323      	orrs	r3, r4
 8000ef8:	07f6      	lsls	r6, r6, #31
 8000efa:	4333      	orrs	r3, r6
 8000efc:	4640      	mov	r0, r8
 8000efe:	0019      	movs	r1, r3
 8000f00:	b007      	add	sp, #28
 8000f02:	bcf0      	pop	{r4, r5, r6, r7}
 8000f04:	46bb      	mov	fp, r7
 8000f06:	46b2      	mov	sl, r6
 8000f08:	46a9      	mov	r9, r5
 8000f0a:	46a0      	mov	r8, r4
 8000f0c:	bdf0      	pop	{r4, r5, r6, r7, pc}
 8000f0e:	2200      	movs	r2, #0
 8000f10:	2400      	movs	r4, #0
 8000f12:	4690      	mov	r8, r2
 8000f14:	4b48      	ldr	r3, [pc, #288]	@ (8001038 <__aeabi_ddiv+0x21c>)
 8000f16:	e7ed      	b.n	8000ef4 <__aeabi_ddiv+0xd8>
 8000f18:	465a      	mov	r2, fp
 8000f1a:	9b00      	ldr	r3, [sp, #0]
 8000f1c:	431a      	orrs	r2, r3
 8000f1e:	4b49      	ldr	r3, [pc, #292]	@ (8001044 <__aeabi_ddiv+0x228>)
 8000f20:	469c      	mov	ip, r3
 8000f22:	44e2      	add	sl, ip
 8000f24:	2a00      	cmp	r2, #0
 8000f26:	d159      	bne.n	8000fdc <__aeabi_ddiv+0x1c0>
 8000f28:	2302      	movs	r3, #2
 8000f2a:	431c      	orrs	r4, r3
 8000f2c:	2300      	movs	r3, #0
 8000f2e:	2102      	movs	r1, #2
 8000f30:	469b      	mov	fp, r3
 8000f32:	e7b8      	b.n	8000ea6 <__aeabi_ddiv+0x8a>
 8000f34:	465a      	mov	r2, fp
 8000f36:	9b00      	ldr	r3, [sp, #0]
 8000f38:	431a      	orrs	r2, r3
 8000f3a:	d049      	beq.n	8000fd0 <__aeabi_ddiv+0x1b4>
 8000f3c:	465b      	mov	r3, fp
 8000f3e:	2b00      	cmp	r3, #0
 8000f40:	d100      	bne.n	8000f44 <__aeabi_ddiv+0x128>
 8000f42:	e19c      	b.n	800127e <__aeabi_ddiv+0x462>
 8000f44:	4658      	mov	r0, fp
 8000f46:	f001 fb43 	bl	80025d0 <__clzsi2>
 8000f4a:	0002      	movs	r2, r0
 8000f4c:	0003      	movs	r3, r0
 8000f4e:	3a0b      	subs	r2, #11
 8000f50:	271d      	movs	r7, #29
 8000f52:	9e00      	ldr	r6, [sp, #0]
 8000f54:	1aba      	subs	r2, r7, r2
 8000f56:	0019      	movs	r1, r3
 8000f58:	4658      	mov	r0, fp
 8000f5a:	40d6      	lsrs	r6, r2
 8000f5c:	3908      	subs	r1, #8
 8000f5e:	4088      	lsls	r0, r1
 8000f60:	0032      	movs	r2, r6
 8000f62:	4302      	orrs	r2, r0
 8000f64:	4693      	mov	fp, r2
 8000f66:	9a00      	ldr	r2, [sp, #0]
 8000f68:	408a      	lsls	r2, r1
 8000f6a:	4937      	ldr	r1, [pc, #220]	@ (8001048 <__aeabi_ddiv+0x22c>)
 8000f6c:	4453      	add	r3, sl
 8000f6e:	468a      	mov	sl, r1
 8000f70:	2100      	movs	r1, #0
 8000f72:	449a      	add	sl, r3
 8000f74:	e797      	b.n	8000ea6 <__aeabi_ddiv+0x8a>
 8000f76:	465b      	mov	r3, fp
 8000f78:	4303      	orrs	r3, r0
 8000f7a:	4699      	mov	r9, r3
 8000f7c:	d021      	beq.n	8000fc2 <__aeabi_ddiv+0x1a6>
 8000f7e:	465b      	mov	r3, fp
 8000f80:	2b00      	cmp	r3, #0
 8000f82:	d100      	bne.n	8000f86 <__aeabi_ddiv+0x16a>
 8000f84:	e169      	b.n	800125a <__aeabi_ddiv+0x43e>
 8000f86:	4658      	mov	r0, fp
 8000f88:	f001 fb22 	bl	80025d0 <__clzsi2>
 8000f8c:	230b      	movs	r3, #11
 8000f8e:	425b      	negs	r3, r3
 8000f90:	469c      	mov	ip, r3
 8000f92:	0002      	movs	r2, r0
 8000f94:	4484      	add	ip, r0
 8000f96:	4666      	mov	r6, ip
 8000f98:	231d      	movs	r3, #29
 8000f9a:	1b9b      	subs	r3, r3, r6
 8000f9c:	0026      	movs	r6, r4
 8000f9e:	0011      	movs	r1, r2
 8000fa0:	4658      	mov	r0, fp
 8000fa2:	40de      	lsrs	r6, r3
 8000fa4:	3908      	subs	r1, #8
 8000fa6:	4088      	lsls	r0, r1
 8000fa8:	0033      	movs	r3, r6
 8000faa:	4303      	orrs	r3, r0
 8000fac:	4699      	mov	r9, r3
 8000fae:	0023      	movs	r3, r4
 8000fb0:	408b      	lsls	r3, r1
 8000fb2:	4698      	mov	r8, r3
 8000fb4:	4b25      	ldr	r3, [pc, #148]	@ (800104c <__aeabi_ddiv+0x230>)
 8000fb6:	2400      	movs	r4, #0
 8000fb8:	1a9b      	subs	r3, r3, r2
 8000fba:	469a      	mov	sl, r3
 8000fbc:	2300      	movs	r3, #0
 8000fbe:	9303      	str	r3, [sp, #12]
 8000fc0:	e753      	b.n	8000e6a <__aeabi_ddiv+0x4e>
 8000fc2:	2300      	movs	r3, #0
 8000fc4:	4698      	mov	r8, r3
 8000fc6:	469a      	mov	sl, r3
 8000fc8:	3301      	adds	r3, #1
 8000fca:	2404      	movs	r4, #4
 8000fcc:	9303      	str	r3, [sp, #12]
 8000fce:	e74c      	b.n	8000e6a <__aeabi_ddiv+0x4e>
 8000fd0:	2301      	movs	r3, #1
 8000fd2:	431c      	orrs	r4, r3
 8000fd4:	2300      	movs	r3, #0
 8000fd6:	2101      	movs	r1, #1
 8000fd8:	469b      	mov	fp, r3
 8000fda:	e764      	b.n	8000ea6 <__aeabi_ddiv+0x8a>
 8000fdc:	2303      	movs	r3, #3
 8000fde:	0032      	movs	r2, r6
 8000fe0:	2103      	movs	r1, #3
 8000fe2:	431c      	orrs	r4, r3
 8000fe4:	e75f      	b.n	8000ea6 <__aeabi_ddiv+0x8a>
 8000fe6:	469a      	mov	sl, r3
 8000fe8:	2303      	movs	r3, #3
 8000fea:	46d9      	mov	r9, fp
 8000fec:	240c      	movs	r4, #12
 8000fee:	9303      	str	r3, [sp, #12]
 8000ff0:	e73b      	b.n	8000e6a <__aeabi_ddiv+0x4e>
 8000ff2:	2300      	movs	r3, #0
 8000ff4:	2480      	movs	r4, #128	@ 0x80
 8000ff6:	4698      	mov	r8, r3
 8000ff8:	2600      	movs	r6, #0
 8000ffa:	4b0f      	ldr	r3, [pc, #60]	@ (8001038 <__aeabi_ddiv+0x21c>)
 8000ffc:	0324      	lsls	r4, r4, #12
 8000ffe:	e779      	b.n	8000ef4 <__aeabi_ddiv+0xd8>
 8001000:	2480      	movs	r4, #128	@ 0x80
 8001002:	465b      	mov	r3, fp
 8001004:	0324      	lsls	r4, r4, #12
 8001006:	431c      	orrs	r4, r3
 8001008:	0324      	lsls	r4, r4, #12
 800100a:	002e      	movs	r6, r5
 800100c:	4690      	mov	r8, r2
 800100e:	4b0a      	ldr	r3, [pc, #40]	@ (8001038 <__aeabi_ddiv+0x21c>)
 8001010:	0b24      	lsrs	r4, r4, #12
 8001012:	e76f      	b.n	8000ef4 <__aeabi_ddiv+0xd8>
 8001014:	2480      	movs	r4, #128	@ 0x80
 8001016:	464b      	mov	r3, r9
 8001018:	0324      	lsls	r4, r4, #12
 800101a:	4223      	tst	r3, r4
 800101c:	d002      	beq.n	8001024 <__aeabi_ddiv+0x208>
 800101e:	465b      	mov	r3, fp
 8001020:	4223      	tst	r3, r4
 8001022:	d0f0      	beq.n	8001006 <__aeabi_ddiv+0x1ea>
 8001024:	2480      	movs	r4, #128	@ 0x80
 8001026:	464b      	mov	r3, r9
 8001028:	0324      	lsls	r4, r4, #12
 800102a:	431c      	orrs	r4, r3
 800102c:	0324      	lsls	r4, r4, #12
 800102e:	9e02      	ldr	r6, [sp, #8]
 8001030:	4b01      	ldr	r3, [pc, #4]	@ (8001038 <__aeabi_ddiv+0x21c>)
 8001032:	0b24      	lsrs	r4, r4, #12
 8001034:	e75e      	b.n	8000ef4 <__aeabi_ddiv+0xd8>
 8001036:	46c0      	nop			@ (mov r8, r8)
 8001038:	000007ff 	.word	0x000007ff
 800103c:	fffffc01 	.word	0xfffffc01
 8001040:	08009bcc 	.word	0x08009bcc
 8001044:	fffff801 	.word	0xfffff801
 8001048:	000003f3 	.word	0x000003f3
 800104c:	fffffc0d 	.word	0xfffffc0d
 8001050:	45cb      	cmp	fp, r9
 8001052:	d200      	bcs.n	8001056 <__aeabi_ddiv+0x23a>
 8001054:	e0f8      	b.n	8001248 <__aeabi_ddiv+0x42c>
 8001056:	d100      	bne.n	800105a <__aeabi_ddiv+0x23e>
 8001058:	e0f3      	b.n	8001242 <__aeabi_ddiv+0x426>
 800105a:	2301      	movs	r3, #1
 800105c:	425b      	negs	r3, r3
 800105e:	469c      	mov	ip, r3
 8001060:	4644      	mov	r4, r8
 8001062:	4648      	mov	r0, r9
 8001064:	2500      	movs	r5, #0
 8001066:	44e2      	add	sl, ip
 8001068:	465b      	mov	r3, fp
 800106a:	0e17      	lsrs	r7, r2, #24
 800106c:	021b      	lsls	r3, r3, #8
 800106e:	431f      	orrs	r7, r3
 8001070:	0c19      	lsrs	r1, r3, #16
 8001072:	043b      	lsls	r3, r7, #16
 8001074:	0212      	lsls	r2, r2, #8
 8001076:	9700      	str	r7, [sp, #0]
 8001078:	0c1f      	lsrs	r7, r3, #16
 800107a:	4691      	mov	r9, r2
 800107c:	9102      	str	r1, [sp, #8]
 800107e:	9703      	str	r7, [sp, #12]
 8001080:	f7ff f8ec 	bl	800025c <__aeabi_uidivmod>
 8001084:	0002      	movs	r2, r0
 8001086:	437a      	muls	r2, r7
 8001088:	040b      	lsls	r3, r1, #16
 800108a:	0c21      	lsrs	r1, r4, #16
 800108c:	4680      	mov	r8, r0
 800108e:	4319      	orrs	r1, r3
 8001090:	428a      	cmp	r2, r1
 8001092:	d909      	bls.n	80010a8 <__aeabi_ddiv+0x28c>
 8001094:	9f00      	ldr	r7, [sp, #0]
 8001096:	2301      	movs	r3, #1
 8001098:	46bc      	mov	ip, r7
 800109a:	425b      	negs	r3, r3
 800109c:	4461      	add	r1, ip
 800109e:	469c      	mov	ip, r3
 80010a0:	44e0      	add	r8, ip
 80010a2:	428f      	cmp	r7, r1
 80010a4:	d800      	bhi.n	80010a8 <__aeabi_ddiv+0x28c>
 80010a6:	e15c      	b.n	8001362 <__aeabi_ddiv+0x546>
 80010a8:	1a88      	subs	r0, r1, r2
 80010aa:	9902      	ldr	r1, [sp, #8]
 80010ac:	f7ff f8d6 	bl	800025c <__aeabi_uidivmod>
 80010b0:	9a03      	ldr	r2, [sp, #12]
 80010b2:	0424      	lsls	r4, r4, #16
 80010b4:	4342      	muls	r2, r0
 80010b6:	0409      	lsls	r1, r1, #16
 80010b8:	0c24      	lsrs	r4, r4, #16
 80010ba:	0003      	movs	r3, r0
 80010bc:	430c      	orrs	r4, r1
 80010be:	42a2      	cmp	r2, r4
 80010c0:	d906      	bls.n	80010d0 <__aeabi_ddiv+0x2b4>
 80010c2:	9900      	ldr	r1, [sp, #0]
 80010c4:	3b01      	subs	r3, #1
 80010c6:	468c      	mov	ip, r1
 80010c8:	4464      	add	r4, ip
 80010ca:	42a1      	cmp	r1, r4
 80010cc:	d800      	bhi.n	80010d0 <__aeabi_ddiv+0x2b4>
 80010ce:	e142      	b.n	8001356 <__aeabi_ddiv+0x53a>
 80010d0:	1aa0      	subs	r0, r4, r2
 80010d2:	4642      	mov	r2, r8
 80010d4:	0412      	lsls	r2, r2, #16
 80010d6:	431a      	orrs	r2, r3
 80010d8:	4693      	mov	fp, r2
 80010da:	464b      	mov	r3, r9
 80010dc:	4659      	mov	r1, fp
 80010de:	0c1b      	lsrs	r3, r3, #16
 80010e0:	001f      	movs	r7, r3
 80010e2:	9304      	str	r3, [sp, #16]
 80010e4:	040b      	lsls	r3, r1, #16
 80010e6:	4649      	mov	r1, r9
 80010e8:	0409      	lsls	r1, r1, #16
 80010ea:	0c09      	lsrs	r1, r1, #16
 80010ec:	000c      	movs	r4, r1
 80010ee:	0c1b      	lsrs	r3, r3, #16
 80010f0:	435c      	muls	r4, r3
 80010f2:	0c12      	lsrs	r2, r2, #16
 80010f4:	437b      	muls	r3, r7
 80010f6:	4688      	mov	r8, r1
 80010f8:	4351      	muls	r1, r2
 80010fa:	437a      	muls	r2, r7
 80010fc:	0c27      	lsrs	r7, r4, #16
 80010fe:	46bc      	mov	ip, r7
 8001100:	185b      	adds	r3, r3, r1
 8001102:	4463      	add	r3, ip
 8001104:	4299      	cmp	r1, r3
 8001106:	d903      	bls.n	8001110 <__aeabi_ddiv+0x2f4>
 8001108:	2180      	movs	r1, #128	@ 0x80
 800110a:	0249      	lsls	r1, r1, #9
 800110c:	468c      	mov	ip, r1
 800110e:	4462      	add	r2, ip
 8001110:	0c19      	lsrs	r1, r3, #16
 8001112:	0424      	lsls	r4, r4, #16
 8001114:	041b      	lsls	r3, r3, #16
 8001116:	0c24      	lsrs	r4, r4, #16
 8001118:	188a      	adds	r2, r1, r2
 800111a:	191c      	adds	r4, r3, r4
 800111c:	4290      	cmp	r0, r2
 800111e:	d302      	bcc.n	8001126 <__aeabi_ddiv+0x30a>
 8001120:	d116      	bne.n	8001150 <__aeabi_ddiv+0x334>
 8001122:	42a5      	cmp	r5, r4
 8001124:	d214      	bcs.n	8001150 <__aeabi_ddiv+0x334>
 8001126:	465b      	mov	r3, fp
 8001128:	9f00      	ldr	r7, [sp, #0]
 800112a:	3b01      	subs	r3, #1
 800112c:	444d      	add	r5, r9
 800112e:	9305      	str	r3, [sp, #20]
 8001130:	454d      	cmp	r5, r9
 8001132:	419b      	sbcs	r3, r3
 8001134:	46bc      	mov	ip, r7
 8001136:	425b      	negs	r3, r3
 8001138:	4463      	add	r3, ip
 800113a:	18c0      	adds	r0, r0, r3
 800113c:	4287      	cmp	r7, r0
 800113e:	d300      	bcc.n	8001142 <__aeabi_ddiv+0x326>
 8001140:	e102      	b.n	8001348 <__aeabi_ddiv+0x52c>
 8001142:	4282      	cmp	r2, r0
 8001144:	d900      	bls.n	8001148 <__aeabi_ddiv+0x32c>
 8001146:	e129      	b.n	800139c <__aeabi_ddiv+0x580>
 8001148:	d100      	bne.n	800114c <__aeabi_ddiv+0x330>
 800114a:	e124      	b.n	8001396 <__aeabi_ddiv+0x57a>
 800114c:	9b05      	ldr	r3, [sp, #20]
 800114e:	469b      	mov	fp, r3
 8001150:	1b2c      	subs	r4, r5, r4
 8001152:	42a5      	cmp	r5, r4
 8001154:	41ad      	sbcs	r5, r5
 8001156:	9b00      	ldr	r3, [sp, #0]
 8001158:	1a80      	subs	r0, r0, r2
 800115a:	426d      	negs	r5, r5
 800115c:	1b40      	subs	r0, r0, r5
 800115e:	4283      	cmp	r3, r0
 8001160:	d100      	bne.n	8001164 <__aeabi_ddiv+0x348>
 8001162:	e10f      	b.n	8001384 <__aeabi_ddiv+0x568>
 8001164:	9902      	ldr	r1, [sp, #8]
 8001166:	f7ff f879 	bl	800025c <__aeabi_uidivmod>
 800116a:	9a03      	ldr	r2, [sp, #12]
 800116c:	040b      	lsls	r3, r1, #16
 800116e:	4342      	muls	r2, r0
 8001170:	0c21      	lsrs	r1, r4, #16
 8001172:	0005      	movs	r5, r0
 8001174:	4319      	orrs	r1, r3
 8001176:	428a      	cmp	r2, r1
 8001178:	d900      	bls.n	800117c <__aeabi_ddiv+0x360>
 800117a:	e0cb      	b.n	8001314 <__aeabi_ddiv+0x4f8>
 800117c:	1a88      	subs	r0, r1, r2
 800117e:	9902      	ldr	r1, [sp, #8]
 8001180:	f7ff f86c 	bl	800025c <__aeabi_uidivmod>
 8001184:	9a03      	ldr	r2, [sp, #12]
 8001186:	0424      	lsls	r4, r4, #16
 8001188:	4342      	muls	r2, r0
 800118a:	0409      	lsls	r1, r1, #16
 800118c:	0c24      	lsrs	r4, r4, #16
 800118e:	0003      	movs	r3, r0
 8001190:	430c      	orrs	r4, r1
 8001192:	42a2      	cmp	r2, r4
 8001194:	d900      	bls.n	8001198 <__aeabi_ddiv+0x37c>
 8001196:	e0ca      	b.n	800132e <__aeabi_ddiv+0x512>
 8001198:	4641      	mov	r1, r8
 800119a:	1aa4      	subs	r4, r4, r2
 800119c:	042a      	lsls	r2, r5, #16
 800119e:	431a      	orrs	r2, r3
 80011a0:	9f04      	ldr	r7, [sp, #16]
 80011a2:	0413      	lsls	r3, r2, #16
 80011a4:	0c1b      	lsrs	r3, r3, #16
 80011a6:	4359      	muls	r1, r3
 80011a8:	4640      	mov	r0, r8
 80011aa:	437b      	muls	r3, r7
 80011ac:	469c      	mov	ip, r3
 80011ae:	0c15      	lsrs	r5, r2, #16
 80011b0:	4368      	muls	r0, r5
 80011b2:	0c0b      	lsrs	r3, r1, #16
 80011b4:	4484      	add	ip, r0
 80011b6:	4463      	add	r3, ip
 80011b8:	437d      	muls	r5, r7
 80011ba:	4298      	cmp	r0, r3
 80011bc:	d903      	bls.n	80011c6 <__aeabi_ddiv+0x3aa>
 80011be:	2080      	movs	r0, #128	@ 0x80
 80011c0:	0240      	lsls	r0, r0, #9
 80011c2:	4684      	mov	ip, r0
 80011c4:	4465      	add	r5, ip
 80011c6:	0c18      	lsrs	r0, r3, #16
 80011c8:	0409      	lsls	r1, r1, #16
 80011ca:	041b      	lsls	r3, r3, #16
 80011cc:	0c09      	lsrs	r1, r1, #16
 80011ce:	1940      	adds	r0, r0, r5
 80011d0:	185b      	adds	r3, r3, r1
 80011d2:	4284      	cmp	r4, r0
 80011d4:	d327      	bcc.n	8001226 <__aeabi_ddiv+0x40a>
 80011d6:	d023      	beq.n	8001220 <__aeabi_ddiv+0x404>
 80011d8:	2301      	movs	r3, #1
 80011da:	0035      	movs	r5, r6
 80011dc:	431a      	orrs	r2, r3
 80011de:	4b94      	ldr	r3, [pc, #592]	@ (8001430 <__aeabi_ddiv+0x614>)
 80011e0:	4453      	add	r3, sl
 80011e2:	2b00      	cmp	r3, #0
 80011e4:	dd60      	ble.n	80012a8 <__aeabi_ddiv+0x48c>
 80011e6:	0751      	lsls	r1, r2, #29
 80011e8:	d000      	beq.n	80011ec <__aeabi_ddiv+0x3d0>
 80011ea:	e086      	b.n	80012fa <__aeabi_ddiv+0x4de>
 80011ec:	002e      	movs	r6, r5
 80011ee:	08d1      	lsrs	r1, r2, #3
 80011f0:	465a      	mov	r2, fp
 80011f2:	01d2      	lsls	r2, r2, #7
 80011f4:	d506      	bpl.n	8001204 <__aeabi_ddiv+0x3e8>
 80011f6:	465a      	mov	r2, fp
 80011f8:	4b8e      	ldr	r3, [pc, #568]	@ (8001434 <__aeabi_ddiv+0x618>)
 80011fa:	401a      	ands	r2, r3
 80011fc:	2380      	movs	r3, #128	@ 0x80
 80011fe:	4693      	mov	fp, r2
 8001200:	00db      	lsls	r3, r3, #3
 8001202:	4453      	add	r3, sl
 8001204:	4a8c      	ldr	r2, [pc, #560]	@ (8001438 <__aeabi_ddiv+0x61c>)
 8001206:	4293      	cmp	r3, r2
 8001208:	dd00      	ble.n	800120c <__aeabi_ddiv+0x3f0>
 800120a:	e680      	b.n	8000f0e <__aeabi_ddiv+0xf2>
 800120c:	465a      	mov	r2, fp
 800120e:	0752      	lsls	r2, r2, #29
 8001210:	430a      	orrs	r2, r1
 8001212:	4690      	mov	r8, r2
 8001214:	465a      	mov	r2, fp
 8001216:	055b      	lsls	r3, r3, #21
 8001218:	0254      	lsls	r4, r2, #9
 800121a:	0b24      	lsrs	r4, r4, #12
 800121c:	0d5b      	lsrs	r3, r3, #21
 800121e:	e669      	b.n	8000ef4 <__aeabi_ddiv+0xd8>
 8001220:	0035      	movs	r5, r6
 8001222:	2b00      	cmp	r3, #0
 8001224:	d0db      	beq.n	80011de <__aeabi_ddiv+0x3c2>
 8001226:	9d00      	ldr	r5, [sp, #0]
 8001228:	1e51      	subs	r1, r2, #1
 800122a:	46ac      	mov	ip, r5
 800122c:	4464      	add	r4, ip
 800122e:	42ac      	cmp	r4, r5
 8001230:	d200      	bcs.n	8001234 <__aeabi_ddiv+0x418>
 8001232:	e09e      	b.n	8001372 <__aeabi_ddiv+0x556>
 8001234:	4284      	cmp	r4, r0
 8001236:	d200      	bcs.n	800123a <__aeabi_ddiv+0x41e>
 8001238:	e0e1      	b.n	80013fe <__aeabi_ddiv+0x5e2>
 800123a:	d100      	bne.n	800123e <__aeabi_ddiv+0x422>
 800123c:	e0ee      	b.n	800141c <__aeabi_ddiv+0x600>
 800123e:	000a      	movs	r2, r1
 8001240:	e7ca      	b.n	80011d8 <__aeabi_ddiv+0x3bc>
 8001242:	4542      	cmp	r2, r8
 8001244:	d900      	bls.n	8001248 <__aeabi_ddiv+0x42c>
 8001246:	e708      	b.n	800105a <__aeabi_ddiv+0x23e>
 8001248:	464b      	mov	r3, r9
 800124a:	07dc      	lsls	r4, r3, #31
 800124c:	0858      	lsrs	r0, r3, #1
 800124e:	4643      	mov	r3, r8
 8001250:	085b      	lsrs	r3, r3, #1
 8001252:	431c      	orrs	r4, r3
 8001254:	4643      	mov	r3, r8
 8001256:	07dd      	lsls	r5, r3, #31
 8001258:	e706      	b.n	8001068 <__aeabi_ddiv+0x24c>
 800125a:	f001 f9b9 	bl	80025d0 <__clzsi2>
 800125e:	2315      	movs	r3, #21
 8001260:	469c      	mov	ip, r3
 8001262:	4484      	add	ip, r0
 8001264:	0002      	movs	r2, r0
 8001266:	4663      	mov	r3, ip
 8001268:	3220      	adds	r2, #32
 800126a:	2b1c      	cmp	r3, #28
 800126c:	dc00      	bgt.n	8001270 <__aeabi_ddiv+0x454>
 800126e:	e692      	b.n	8000f96 <__aeabi_ddiv+0x17a>
 8001270:	0023      	movs	r3, r4
 8001272:	3808      	subs	r0, #8
 8001274:	4083      	lsls	r3, r0
 8001276:	4699      	mov	r9, r3
 8001278:	2300      	movs	r3, #0
 800127a:	4698      	mov	r8, r3
 800127c:	e69a      	b.n	8000fb4 <__aeabi_ddiv+0x198>
 800127e:	f001 f9a7 	bl	80025d0 <__clzsi2>
 8001282:	0002      	movs	r2, r0
 8001284:	0003      	movs	r3, r0
 8001286:	3215      	adds	r2, #21
 8001288:	3320      	adds	r3, #32
 800128a:	2a1c      	cmp	r2, #28
 800128c:	dc00      	bgt.n	8001290 <__aeabi_ddiv+0x474>
 800128e:	e65f      	b.n	8000f50 <__aeabi_ddiv+0x134>
 8001290:	9900      	ldr	r1, [sp, #0]
 8001292:	3808      	subs	r0, #8
 8001294:	4081      	lsls	r1, r0
 8001296:	2200      	movs	r2, #0
 8001298:	468b      	mov	fp, r1
 800129a:	e666      	b.n	8000f6a <__aeabi_ddiv+0x14e>
 800129c:	2200      	movs	r2, #0
 800129e:	002e      	movs	r6, r5
 80012a0:	2400      	movs	r4, #0
 80012a2:	4690      	mov	r8, r2
 80012a4:	4b65      	ldr	r3, [pc, #404]	@ (800143c <__aeabi_ddiv+0x620>)
 80012a6:	e625      	b.n	8000ef4 <__aeabi_ddiv+0xd8>
 80012a8:	002e      	movs	r6, r5
 80012aa:	2101      	movs	r1, #1
 80012ac:	1ac9      	subs	r1, r1, r3
 80012ae:	2938      	cmp	r1, #56	@ 0x38
 80012b0:	dd00      	ble.n	80012b4 <__aeabi_ddiv+0x498>
 80012b2:	e61b      	b.n	8000eec <__aeabi_ddiv+0xd0>
 80012b4:	291f      	cmp	r1, #31
 80012b6:	dc7e      	bgt.n	80013b6 <__aeabi_ddiv+0x59a>
 80012b8:	4861      	ldr	r0, [pc, #388]	@ (8001440 <__aeabi_ddiv+0x624>)
 80012ba:	0014      	movs	r4, r2
 80012bc:	4450      	add	r0, sl
 80012be:	465b      	mov	r3, fp
 80012c0:	4082      	lsls	r2, r0
 80012c2:	4083      	lsls	r3, r0
 80012c4:	40cc      	lsrs	r4, r1
 80012c6:	1e50      	subs	r0, r2, #1
 80012c8:	4182      	sbcs	r2, r0
 80012ca:	4323      	orrs	r3, r4
 80012cc:	431a      	orrs	r2, r3
 80012ce:	465b      	mov	r3, fp
 80012d0:	40cb      	lsrs	r3, r1
 80012d2:	0751      	lsls	r1, r2, #29
 80012d4:	d009      	beq.n	80012ea <__aeabi_ddiv+0x4ce>
 80012d6:	210f      	movs	r1, #15
 80012d8:	4011      	ands	r1, r2
 80012da:	2904      	cmp	r1, #4
 80012dc:	d005      	beq.n	80012ea <__aeabi_ddiv+0x4ce>
 80012de:	1d11      	adds	r1, r2, #4
 80012e0:	4291      	cmp	r1, r2
 80012e2:	4192      	sbcs	r2, r2
 80012e4:	4252      	negs	r2, r2
 80012e6:	189b      	adds	r3, r3, r2
 80012e8:	000a      	movs	r2, r1
 80012ea:	0219      	lsls	r1, r3, #8
 80012ec:	d400      	bmi.n	80012f0 <__aeabi_ddiv+0x4d4>
 80012ee:	e09b      	b.n	8001428 <__aeabi_ddiv+0x60c>
 80012f0:	2200      	movs	r2, #0
 80012f2:	2301      	movs	r3, #1
 80012f4:	2400      	movs	r4, #0
 80012f6:	4690      	mov	r8, r2
 80012f8:	e5fc      	b.n	8000ef4 <__aeabi_ddiv+0xd8>
 80012fa:	210f      	movs	r1, #15
 80012fc:	4011      	ands	r1, r2
 80012fe:	2904      	cmp	r1, #4
 8001300:	d100      	bne.n	8001304 <__aeabi_ddiv+0x4e8>
 8001302:	e773      	b.n	80011ec <__aeabi_ddiv+0x3d0>
 8001304:	1d11      	adds	r1, r2, #4
 8001306:	4291      	cmp	r1, r2
 8001308:	4192      	sbcs	r2, r2
 800130a:	4252      	negs	r2, r2
 800130c:	002e      	movs	r6, r5
 800130e:	08c9      	lsrs	r1, r1, #3
 8001310:	4493      	add	fp, r2
 8001312:	e76d      	b.n	80011f0 <__aeabi_ddiv+0x3d4>
 8001314:	9b00      	ldr	r3, [sp, #0]
 8001316:	3d01      	subs	r5, #1
 8001318:	469c      	mov	ip, r3
 800131a:	4461      	add	r1, ip
 800131c:	428b      	cmp	r3, r1
 800131e:	d900      	bls.n	8001322 <__aeabi_ddiv+0x506>
 8001320:	e72c      	b.n	800117c <__aeabi_ddiv+0x360>
 8001322:	428a      	cmp	r2, r1
 8001324:	d800      	bhi.n	8001328 <__aeabi_ddiv+0x50c>
 8001326:	e729      	b.n	800117c <__aeabi_ddiv+0x360>
 8001328:	1e85      	subs	r5, r0, #2
 800132a:	4461      	add	r1, ip
 800132c:	e726      	b.n	800117c <__aeabi_ddiv+0x360>
 800132e:	9900      	ldr	r1, [sp, #0]
 8001330:	3b01      	subs	r3, #1
 8001332:	468c      	mov	ip, r1
 8001334:	4464      	add	r4, ip
 8001336:	42a1      	cmp	r1, r4
 8001338:	d900      	bls.n	800133c <__aeabi_ddiv+0x520>
 800133a:	e72d      	b.n	8001198 <__aeabi_ddiv+0x37c>
 800133c:	42a2      	cmp	r2, r4
 800133e:	d800      	bhi.n	8001342 <__aeabi_ddiv+0x526>
 8001340:	e72a      	b.n	8001198 <__aeabi_ddiv+0x37c>
 8001342:	1e83      	subs	r3, r0, #2
 8001344:	4464      	add	r4, ip
 8001346:	e727      	b.n	8001198 <__aeabi_ddiv+0x37c>
 8001348:	4287      	cmp	r7, r0
 800134a:	d000      	beq.n	800134e <__aeabi_ddiv+0x532>
 800134c:	e6fe      	b.n	800114c <__aeabi_ddiv+0x330>
 800134e:	45a9      	cmp	r9, r5
 8001350:	d900      	bls.n	8001354 <__aeabi_ddiv+0x538>
 8001352:	e6fb      	b.n	800114c <__aeabi_ddiv+0x330>
 8001354:	e6f5      	b.n	8001142 <__aeabi_ddiv+0x326>
 8001356:	42a2      	cmp	r2, r4
 8001358:	d800      	bhi.n	800135c <__aeabi_ddiv+0x540>
 800135a:	e6b9      	b.n	80010d0 <__aeabi_ddiv+0x2b4>
 800135c:	1e83      	subs	r3, r0, #2
 800135e:	4464      	add	r4, ip
 8001360:	e6b6      	b.n	80010d0 <__aeabi_ddiv+0x2b4>
 8001362:	428a      	cmp	r2, r1
 8001364:	d800      	bhi.n	8001368 <__aeabi_ddiv+0x54c>
 8001366:	e69f      	b.n	80010a8 <__aeabi_ddiv+0x28c>
 8001368:	46bc      	mov	ip, r7
 800136a:	1e83      	subs	r3, r0, #2
 800136c:	4698      	mov	r8, r3
 800136e:	4461      	add	r1, ip
 8001370:	e69a      	b.n	80010a8 <__aeabi_ddiv+0x28c>
 8001372:	000a      	movs	r2, r1
 8001374:	4284      	cmp	r4, r0
 8001376:	d000      	beq.n	800137a <__aeabi_ddiv+0x55e>
 8001378:	e72e      	b.n	80011d8 <__aeabi_ddiv+0x3bc>
 800137a:	454b      	cmp	r3, r9
 800137c:	d000      	beq.n	8001380 <__aeabi_ddiv+0x564>
 800137e:	e72b      	b.n	80011d8 <__aeabi_ddiv+0x3bc>
 8001380:	0035      	movs	r5, r6
 8001382:	e72c      	b.n	80011de <__aeabi_ddiv+0x3c2>
 8001384:	4b2a      	ldr	r3, [pc, #168]	@ (8001430 <__aeabi_ddiv+0x614>)
 8001386:	4a2f      	ldr	r2, [pc, #188]	@ (8001444 <__aeabi_ddiv+0x628>)
 8001388:	4453      	add	r3, sl
 800138a:	4592      	cmp	sl, r2
 800138c:	db43      	blt.n	8001416 <__aeabi_ddiv+0x5fa>
 800138e:	2201      	movs	r2, #1
 8001390:	2100      	movs	r1, #0
 8001392:	4493      	add	fp, r2
 8001394:	e72c      	b.n	80011f0 <__aeabi_ddiv+0x3d4>
 8001396:	42ac      	cmp	r4, r5
 8001398:	d800      	bhi.n	800139c <__aeabi_ddiv+0x580>
 800139a:	e6d7      	b.n	800114c <__aeabi_ddiv+0x330>
 800139c:	2302      	movs	r3, #2
 800139e:	425b      	negs	r3, r3
 80013a0:	469c      	mov	ip, r3
 80013a2:	9900      	ldr	r1, [sp, #0]
 80013a4:	444d      	add	r5, r9
 80013a6:	454d      	cmp	r5, r9
 80013a8:	419b      	sbcs	r3, r3
 80013aa:	44e3      	add	fp, ip
 80013ac:	468c      	mov	ip, r1
 80013ae:	425b      	negs	r3, r3
 80013b0:	4463      	add	r3, ip
 80013b2:	18c0      	adds	r0, r0, r3
 80013b4:	e6cc      	b.n	8001150 <__aeabi_ddiv+0x334>
 80013b6:	201f      	movs	r0, #31
 80013b8:	4240      	negs	r0, r0
 80013ba:	1ac3      	subs	r3, r0, r3
 80013bc:	4658      	mov	r0, fp
 80013be:	40d8      	lsrs	r0, r3
 80013c0:	2920      	cmp	r1, #32
 80013c2:	d004      	beq.n	80013ce <__aeabi_ddiv+0x5b2>
 80013c4:	4659      	mov	r1, fp
 80013c6:	4b20      	ldr	r3, [pc, #128]	@ (8001448 <__aeabi_ddiv+0x62c>)
 80013c8:	4453      	add	r3, sl
 80013ca:	4099      	lsls	r1, r3
 80013cc:	430a      	orrs	r2, r1
 80013ce:	1e53      	subs	r3, r2, #1
 80013d0:	419a      	sbcs	r2, r3
 80013d2:	2307      	movs	r3, #7
 80013d4:	0019      	movs	r1, r3
 80013d6:	4302      	orrs	r2, r0
 80013d8:	2400      	movs	r4, #0
 80013da:	4011      	ands	r1, r2
 80013dc:	4213      	tst	r3, r2
 80013de:	d009      	beq.n	80013f4 <__aeabi_ddiv+0x5d8>
 80013e0:	3308      	adds	r3, #8
 80013e2:	4013      	ands	r3, r2
 80013e4:	2b04      	cmp	r3, #4
 80013e6:	d01d      	beq.n	8001424 <__aeabi_ddiv+0x608>
 80013e8:	1d13      	adds	r3, r2, #4
 80013ea:	4293      	cmp	r3, r2
 80013ec:	4189      	sbcs	r1, r1
 80013ee:	001a      	movs	r2, r3
 80013f0:	4249      	negs	r1, r1
 80013f2:	0749      	lsls	r1, r1, #29
 80013f4:	08d2      	lsrs	r2, r2, #3
 80013f6:	430a      	orrs	r2, r1
 80013f8:	4690      	mov	r8, r2
 80013fa:	2300      	movs	r3, #0
 80013fc:	e57a      	b.n	8000ef4 <__aeabi_ddiv+0xd8>
 80013fe:	4649      	mov	r1, r9
 8001400:	9f00      	ldr	r7, [sp, #0]
 8001402:	004d      	lsls	r5, r1, #1
 8001404:	454d      	cmp	r5, r9
 8001406:	4189      	sbcs	r1, r1
 8001408:	46bc      	mov	ip, r7
 800140a:	4249      	negs	r1, r1
 800140c:	4461      	add	r1, ip
 800140e:	46a9      	mov	r9, r5
 8001410:	3a02      	subs	r2, #2
 8001412:	1864      	adds	r4, r4, r1
 8001414:	e7ae      	b.n	8001374 <__aeabi_ddiv+0x558>
 8001416:	2201      	movs	r2, #1
 8001418:	4252      	negs	r2, r2
 800141a:	e746      	b.n	80012aa <__aeabi_ddiv+0x48e>
 800141c:	4599      	cmp	r9, r3
 800141e:	d3ee      	bcc.n	80013fe <__aeabi_ddiv+0x5e2>
 8001420:	000a      	movs	r2, r1
 8001422:	e7aa      	b.n	800137a <__aeabi_ddiv+0x55e>
 8001424:	2100      	movs	r1, #0
 8001426:	e7e5      	b.n	80013f4 <__aeabi_ddiv+0x5d8>
 8001428:	0759      	lsls	r1, r3, #29
 800142a:	025b      	lsls	r3, r3, #9
 800142c:	0b1c      	lsrs	r4, r3, #12
 800142e:	e7e1      	b.n	80013f4 <__aeabi_ddiv+0x5d8>
 8001430:	000003ff 	.word	0x000003ff
 8001434:	feffffff 	.word	0xfeffffff
 8001438:	000007fe 	.word	0x000007fe
 800143c:	000007ff 	.word	0x000007ff
 8001440:	0000041e 	.word	0x0000041e
 8001444:	fffffc02 	.word	0xfffffc02
 8001448:	0000043e 	.word	0x0000043e

0800144c <__eqdf2>:
 800144c:	b5f0      	push	{r4, r5, r6, r7, lr}
 800144e:	4657      	mov	r7, sl
 8001450:	46de      	mov	lr, fp
 8001452:	464e      	mov	r6, r9
 8001454:	4645      	mov	r5, r8
 8001456:	b5e0      	push	{r5, r6, r7, lr}
 8001458:	000d      	movs	r5, r1
 800145a:	0004      	movs	r4, r0
 800145c:	0fe8      	lsrs	r0, r5, #31
 800145e:	4683      	mov	fp, r0
 8001460:	0309      	lsls	r1, r1, #12
 8001462:	0fd8      	lsrs	r0, r3, #31
 8001464:	0b09      	lsrs	r1, r1, #12
 8001466:	4682      	mov	sl, r0
 8001468:	4819      	ldr	r0, [pc, #100]	@ (80014d0 <__eqdf2+0x84>)
 800146a:	468c      	mov	ip, r1
 800146c:	031f      	lsls	r7, r3, #12
 800146e:	0069      	lsls	r1, r5, #1
 8001470:	005e      	lsls	r6, r3, #1
 8001472:	0d49      	lsrs	r1, r1, #21
 8001474:	0b3f      	lsrs	r7, r7, #12
 8001476:	0d76      	lsrs	r6, r6, #21
 8001478:	4281      	cmp	r1, r0
 800147a:	d018      	beq.n	80014ae <__eqdf2+0x62>
 800147c:	4286      	cmp	r6, r0
 800147e:	d00f      	beq.n	80014a0 <__eqdf2+0x54>
 8001480:	2001      	movs	r0, #1
 8001482:	42b1      	cmp	r1, r6
 8001484:	d10d      	bne.n	80014a2 <__eqdf2+0x56>
 8001486:	45bc      	cmp	ip, r7
 8001488:	d10b      	bne.n	80014a2 <__eqdf2+0x56>
 800148a:	4294      	cmp	r4, r2
 800148c:	d109      	bne.n	80014a2 <__eqdf2+0x56>
 800148e:	45d3      	cmp	fp, sl
 8001490:	d01c      	beq.n	80014cc <__eqdf2+0x80>
 8001492:	2900      	cmp	r1, #0
 8001494:	d105      	bne.n	80014a2 <__eqdf2+0x56>
 8001496:	4660      	mov	r0, ip
 8001498:	4320      	orrs	r0, r4
 800149a:	1e43      	subs	r3, r0, #1
 800149c:	4198      	sbcs	r0, r3
 800149e:	e000      	b.n	80014a2 <__eqdf2+0x56>
 80014a0:	2001      	movs	r0, #1
 80014a2:	bcf0      	pop	{r4, r5, r6, r7}
 80014a4:	46bb      	mov	fp, r7
 80014a6:	46b2      	mov	sl, r6
 80014a8:	46a9      	mov	r9, r5
 80014aa:	46a0      	mov	r8, r4
 80014ac:	bdf0      	pop	{r4, r5, r6, r7, pc}
 80014ae:	2001      	movs	r0, #1
 80014b0:	428e      	cmp	r6, r1
 80014b2:	d1f6      	bne.n	80014a2 <__eqdf2+0x56>
 80014b4:	4661      	mov	r1, ip
 80014b6:	4339      	orrs	r1, r7
 80014b8:	000f      	movs	r7, r1
 80014ba:	4317      	orrs	r7, r2
 80014bc:	4327      	orrs	r7, r4
 80014be:	d1f0      	bne.n	80014a2 <__eqdf2+0x56>
 80014c0:	465b      	mov	r3, fp
 80014c2:	4652      	mov	r2, sl
 80014c4:	1a98      	subs	r0, r3, r2
 80014c6:	1e43      	subs	r3, r0, #1
 80014c8:	4198      	sbcs	r0, r3
 80014ca:	e7ea      	b.n	80014a2 <__eqdf2+0x56>
 80014cc:	2000      	movs	r0, #0
 80014ce:	e7e8      	b.n	80014a2 <__eqdf2+0x56>
 80014d0:	000007ff 	.word	0x000007ff

080014d4 <__gedf2>:
 80014d4:	b5f0      	push	{r4, r5, r6, r7, lr}
 80014d6:	4657      	mov	r7, sl
 80014d8:	464e      	mov	r6, r9
 80014da:	4645      	mov	r5, r8
 80014dc:	46de      	mov	lr, fp
 80014de:	b5e0      	push	{r5, r6, r7, lr}
 80014e0:	000d      	movs	r5, r1
 80014e2:	030e      	lsls	r6, r1, #12
 80014e4:	0049      	lsls	r1, r1, #1
 80014e6:	0d49      	lsrs	r1, r1, #21
 80014e8:	468a      	mov	sl, r1
 80014ea:	0fdf      	lsrs	r7, r3, #31
 80014ec:	0fe9      	lsrs	r1, r5, #31
 80014ee:	46bc      	mov	ip, r7
 80014f0:	b083      	sub	sp, #12
 80014f2:	4f2f      	ldr	r7, [pc, #188]	@ (80015b0 <__gedf2+0xdc>)
 80014f4:	0004      	movs	r4, r0
 80014f6:	4680      	mov	r8, r0
 80014f8:	9101      	str	r1, [sp, #4]
 80014fa:	0058      	lsls	r0, r3, #1
 80014fc:	0319      	lsls	r1, r3, #12
 80014fe:	4691      	mov	r9, r2
 8001500:	0b36      	lsrs	r6, r6, #12
 8001502:	0b09      	lsrs	r1, r1, #12
 8001504:	0d40      	lsrs	r0, r0, #21
 8001506:	45ba      	cmp	sl, r7
 8001508:	d01d      	beq.n	8001546 <__gedf2+0x72>
 800150a:	42b8      	cmp	r0, r7
 800150c:	d00d      	beq.n	800152a <__gedf2+0x56>
 800150e:	4657      	mov	r7, sl
 8001510:	2f00      	cmp	r7, #0
 8001512:	d12a      	bne.n	800156a <__gedf2+0x96>
 8001514:	4334      	orrs	r4, r6
 8001516:	2800      	cmp	r0, #0
 8001518:	d124      	bne.n	8001564 <__gedf2+0x90>
 800151a:	430a      	orrs	r2, r1
 800151c:	d036      	beq.n	800158c <__gedf2+0xb8>
 800151e:	2c00      	cmp	r4, #0
 8001520:	d141      	bne.n	80015a6 <__gedf2+0xd2>
 8001522:	4663      	mov	r3, ip
 8001524:	0058      	lsls	r0, r3, #1
 8001526:	3801      	subs	r0, #1
 8001528:	e015      	b.n	8001556 <__gedf2+0x82>
 800152a:	4311      	orrs	r1, r2
 800152c:	d138      	bne.n	80015a0 <__gedf2+0xcc>
 800152e:	4653      	mov	r3, sl
 8001530:	2b00      	cmp	r3, #0
 8001532:	d101      	bne.n	8001538 <__gedf2+0x64>
 8001534:	4326      	orrs	r6, r4
 8001536:	d0f4      	beq.n	8001522 <__gedf2+0x4e>
 8001538:	9b01      	ldr	r3, [sp, #4]
 800153a:	4563      	cmp	r3, ip
 800153c:	d107      	bne.n	800154e <__gedf2+0x7a>
 800153e:	9b01      	ldr	r3, [sp, #4]
 8001540:	0058      	lsls	r0, r3, #1
 8001542:	3801      	subs	r0, #1
 8001544:	e007      	b.n	8001556 <__gedf2+0x82>
 8001546:	4326      	orrs	r6, r4
 8001548:	d12a      	bne.n	80015a0 <__gedf2+0xcc>
 800154a:	4550      	cmp	r0, sl
 800154c:	d021      	beq.n	8001592 <__gedf2+0xbe>
 800154e:	2001      	movs	r0, #1
 8001550:	9b01      	ldr	r3, [sp, #4]
 8001552:	425f      	negs	r7, r3
 8001554:	4338      	orrs	r0, r7
 8001556:	b003      	add	sp, #12
 8001558:	bcf0      	pop	{r4, r5, r6, r7}
 800155a:	46bb      	mov	fp, r7
 800155c:	46b2      	mov	sl, r6
 800155e:	46a9      	mov	r9, r5
 8001560:	46a0      	mov	r8, r4
 8001562:	bdf0      	pop	{r4, r5, r6, r7, pc}
 8001564:	2c00      	cmp	r4, #0
 8001566:	d0dc      	beq.n	8001522 <__gedf2+0x4e>
 8001568:	e7e6      	b.n	8001538 <__gedf2+0x64>
 800156a:	2800      	cmp	r0, #0
 800156c:	d0ef      	beq.n	800154e <__gedf2+0x7a>
 800156e:	9b01      	ldr	r3, [sp, #4]
 8001570:	4563      	cmp	r3, ip
 8001572:	d1ec      	bne.n	800154e <__gedf2+0x7a>
 8001574:	4582      	cmp	sl, r0
 8001576:	dcea      	bgt.n	800154e <__gedf2+0x7a>
 8001578:	dbe1      	blt.n	800153e <__gedf2+0x6a>
 800157a:	428e      	cmp	r6, r1
 800157c:	d8e7      	bhi.n	800154e <__gedf2+0x7a>
 800157e:	d1de      	bne.n	800153e <__gedf2+0x6a>
 8001580:	45c8      	cmp	r8, r9
 8001582:	d8e4      	bhi.n	800154e <__gedf2+0x7a>
 8001584:	2000      	movs	r0, #0
 8001586:	45c8      	cmp	r8, r9
 8001588:	d2e5      	bcs.n	8001556 <__gedf2+0x82>
 800158a:	e7d8      	b.n	800153e <__gedf2+0x6a>
 800158c:	2c00      	cmp	r4, #0
 800158e:	d0e2      	beq.n	8001556 <__gedf2+0x82>
 8001590:	e7dd      	b.n	800154e <__gedf2+0x7a>
 8001592:	4311      	orrs	r1, r2
 8001594:	d104      	bne.n	80015a0 <__gedf2+0xcc>
 8001596:	9b01      	ldr	r3, [sp, #4]
 8001598:	4563      	cmp	r3, ip
 800159a:	d1d8      	bne.n	800154e <__gedf2+0x7a>
 800159c:	2000      	movs	r0, #0
 800159e:	e7da      	b.n	8001556 <__gedf2+0x82>
 80015a0:	2002      	movs	r0, #2
 80015a2:	4240      	negs	r0, r0
 80015a4:	e7d7      	b.n	8001556 <__gedf2+0x82>
 80015a6:	9b01      	ldr	r3, [sp, #4]
 80015a8:	4563      	cmp	r3, ip
 80015aa:	d0e6      	beq.n	800157a <__gedf2+0xa6>
 80015ac:	e7cf      	b.n	800154e <__gedf2+0x7a>
 80015ae:	46c0      	nop			@ (mov r8, r8)
 80015b0:	000007ff 	.word	0x000007ff

080015b4 <__ledf2>:
 80015b4:	b5f0      	push	{r4, r5, r6, r7, lr}
 80015b6:	4657      	mov	r7, sl
 80015b8:	464e      	mov	r6, r9
 80015ba:	4645      	mov	r5, r8
 80015bc:	46de      	mov	lr, fp
 80015be:	b5e0      	push	{r5, r6, r7, lr}
 80015c0:	000d      	movs	r5, r1
 80015c2:	030e      	lsls	r6, r1, #12
 80015c4:	0049      	lsls	r1, r1, #1
 80015c6:	0d49      	lsrs	r1, r1, #21
 80015c8:	468a      	mov	sl, r1
 80015ca:	0fdf      	lsrs	r7, r3, #31
 80015cc:	0fe9      	lsrs	r1, r5, #31
 80015ce:	46bc      	mov	ip, r7
 80015d0:	b083      	sub	sp, #12
 80015d2:	4f2e      	ldr	r7, [pc, #184]	@ (800168c <__ledf2+0xd8>)
 80015d4:	0004      	movs	r4, r0
 80015d6:	4680      	mov	r8, r0
 80015d8:	9101      	str	r1, [sp, #4]
 80015da:	0058      	lsls	r0, r3, #1
 80015dc:	0319      	lsls	r1, r3, #12
 80015de:	4691      	mov	r9, r2
 80015e0:	0b36      	lsrs	r6, r6, #12
 80015e2:	0b09      	lsrs	r1, r1, #12
 80015e4:	0d40      	lsrs	r0, r0, #21
 80015e6:	45ba      	cmp	sl, r7
 80015e8:	d01e      	beq.n	8001628 <__ledf2+0x74>
 80015ea:	42b8      	cmp	r0, r7
 80015ec:	d00d      	beq.n	800160a <__ledf2+0x56>
 80015ee:	4657      	mov	r7, sl
 80015f0:	2f00      	cmp	r7, #0
 80015f2:	d127      	bne.n	8001644 <__ledf2+0x90>
 80015f4:	4334      	orrs	r4, r6
 80015f6:	2800      	cmp	r0, #0
 80015f8:	d133      	bne.n	8001662 <__ledf2+0xae>
 80015fa:	430a      	orrs	r2, r1
 80015fc:	d034      	beq.n	8001668 <__ledf2+0xb4>
 80015fe:	2c00      	cmp	r4, #0
 8001600:	d140      	bne.n	8001684 <__ledf2+0xd0>
 8001602:	4663      	mov	r3, ip
 8001604:	0058      	lsls	r0, r3, #1
 8001606:	3801      	subs	r0, #1
 8001608:	e015      	b.n	8001636 <__ledf2+0x82>
 800160a:	4311      	orrs	r1, r2
 800160c:	d112      	bne.n	8001634 <__ledf2+0x80>
 800160e:	4653      	mov	r3, sl
 8001610:	2b00      	cmp	r3, #0
 8001612:	d101      	bne.n	8001618 <__ledf2+0x64>
 8001614:	4326      	orrs	r6, r4
 8001616:	d0f4      	beq.n	8001602 <__ledf2+0x4e>
 8001618:	9b01      	ldr	r3, [sp, #4]
 800161a:	4563      	cmp	r3, ip
 800161c:	d01d      	beq.n	800165a <__ledf2+0xa6>
 800161e:	2001      	movs	r0, #1
 8001620:	9b01      	ldr	r3, [sp, #4]
 8001622:	425f      	negs	r7, r3
 8001624:	4338      	orrs	r0, r7
 8001626:	e006      	b.n	8001636 <__ledf2+0x82>
 8001628:	4326      	orrs	r6, r4
 800162a:	d103      	bne.n	8001634 <__ledf2+0x80>
 800162c:	4550      	cmp	r0, sl
 800162e:	d1f6      	bne.n	800161e <__ledf2+0x6a>
 8001630:	4311      	orrs	r1, r2
 8001632:	d01c      	beq.n	800166e <__ledf2+0xba>
 8001634:	2002      	movs	r0, #2
 8001636:	b003      	add	sp, #12
 8001638:	bcf0      	pop	{r4, r5, r6, r7}
 800163a:	46bb      	mov	fp, r7
 800163c:	46b2      	mov	sl, r6
 800163e:	46a9      	mov	r9, r5
 8001640:	46a0      	mov	r8, r4
 8001642:	bdf0      	pop	{r4, r5, r6, r7, pc}
 8001644:	2800      	cmp	r0, #0
 8001646:	d0ea      	beq.n	800161e <__ledf2+0x6a>
 8001648:	9b01      	ldr	r3, [sp, #4]
 800164a:	4563      	cmp	r3, ip
 800164c:	d1e7      	bne.n	800161e <__ledf2+0x6a>
 800164e:	4582      	cmp	sl, r0
 8001650:	dce5      	bgt.n	800161e <__ledf2+0x6a>
 8001652:	db02      	blt.n	800165a <__ledf2+0xa6>
 8001654:	428e      	cmp	r6, r1
 8001656:	d8e2      	bhi.n	800161e <__ledf2+0x6a>
 8001658:	d00e      	beq.n	8001678 <__ledf2+0xc4>
 800165a:	9b01      	ldr	r3, [sp, #4]
 800165c:	0058      	lsls	r0, r3, #1
 800165e:	3801      	subs	r0, #1
 8001660:	e7e9      	b.n	8001636 <__ledf2+0x82>
 8001662:	2c00      	cmp	r4, #0
 8001664:	d0cd      	beq.n	8001602 <__ledf2+0x4e>
 8001666:	e7d7      	b.n	8001618 <__ledf2+0x64>
 8001668:	2c00      	cmp	r4, #0
 800166a:	d0e4      	beq.n	8001636 <__ledf2+0x82>
 800166c:	e7d7      	b.n	800161e <__ledf2+0x6a>
 800166e:	9b01      	ldr	r3, [sp, #4]
 8001670:	2000      	movs	r0, #0
 8001672:	4563      	cmp	r3, ip
 8001674:	d0df      	beq.n	8001636 <__ledf2+0x82>
 8001676:	e7d2      	b.n	800161e <__ledf2+0x6a>
 8001678:	45c8      	cmp	r8, r9
 800167a:	d8d0      	bhi.n	800161e <__ledf2+0x6a>
 800167c:	2000      	movs	r0, #0
 800167e:	45c8      	cmp	r8, r9
 8001680:	d2d9      	bcs.n	8001636 <__ledf2+0x82>
 8001682:	e7ea      	b.n	800165a <__ledf2+0xa6>
 8001684:	9b01      	ldr	r3, [sp, #4]
 8001686:	4563      	cmp	r3, ip
 8001688:	d0e4      	beq.n	8001654 <__ledf2+0xa0>
 800168a:	e7c8      	b.n	800161e <__ledf2+0x6a>
 800168c:	000007ff 	.word	0x000007ff

08001690 <__aeabi_dmul>:
 8001690:	b5f0      	push	{r4, r5, r6, r7, lr}
 8001692:	4657      	mov	r7, sl
 8001694:	464e      	mov	r6, r9
 8001696:	46de      	mov	lr, fp
 8001698:	4645      	mov	r5, r8
 800169a:	b5e0      	push	{r5, r6, r7, lr}
 800169c:	001f      	movs	r7, r3
 800169e:	030b      	lsls	r3, r1, #12
 80016a0:	0b1b      	lsrs	r3, r3, #12
 80016a2:	0016      	movs	r6, r2
 80016a4:	469a      	mov	sl, r3
 80016a6:	0fca      	lsrs	r2, r1, #31
 80016a8:	004b      	lsls	r3, r1, #1
 80016aa:	0004      	movs	r4, r0
 80016ac:	4691      	mov	r9, r2
 80016ae:	b085      	sub	sp, #20
 80016b0:	0d5b      	lsrs	r3, r3, #21
 80016b2:	d100      	bne.n	80016b6 <__aeabi_dmul+0x26>
 80016b4:	e1cf      	b.n	8001a56 <__aeabi_dmul+0x3c6>
 80016b6:	4acd      	ldr	r2, [pc, #820]	@ (80019ec <__aeabi_dmul+0x35c>)
 80016b8:	4293      	cmp	r3, r2
 80016ba:	d055      	beq.n	8001768 <__aeabi_dmul+0xd8>
 80016bc:	4651      	mov	r1, sl
 80016be:	0f42      	lsrs	r2, r0, #29
 80016c0:	00c9      	lsls	r1, r1, #3
 80016c2:	430a      	orrs	r2, r1
 80016c4:	2180      	movs	r1, #128	@ 0x80
 80016c6:	0409      	lsls	r1, r1, #16
 80016c8:	4311      	orrs	r1, r2
 80016ca:	00c2      	lsls	r2, r0, #3
 80016cc:	4690      	mov	r8, r2
 80016ce:	4ac8      	ldr	r2, [pc, #800]	@ (80019f0 <__aeabi_dmul+0x360>)
 80016d0:	468a      	mov	sl, r1
 80016d2:	4693      	mov	fp, r2
 80016d4:	449b      	add	fp, r3
 80016d6:	2300      	movs	r3, #0
 80016d8:	2500      	movs	r5, #0
 80016da:	9302      	str	r3, [sp, #8]
 80016dc:	033c      	lsls	r4, r7, #12
 80016de:	007b      	lsls	r3, r7, #1
 80016e0:	0ffa      	lsrs	r2, r7, #31
 80016e2:	9601      	str	r6, [sp, #4]
 80016e4:	0b24      	lsrs	r4, r4, #12
 80016e6:	0d5b      	lsrs	r3, r3, #21
 80016e8:	9200      	str	r2, [sp, #0]
 80016ea:	d100      	bne.n	80016ee <__aeabi_dmul+0x5e>
 80016ec:	e188      	b.n	8001a00 <__aeabi_dmul+0x370>
 80016ee:	4abf      	ldr	r2, [pc, #764]	@ (80019ec <__aeabi_dmul+0x35c>)
 80016f0:	4293      	cmp	r3, r2
 80016f2:	d100      	bne.n	80016f6 <__aeabi_dmul+0x66>
 80016f4:	e092      	b.n	800181c <__aeabi_dmul+0x18c>
 80016f6:	4abe      	ldr	r2, [pc, #760]	@ (80019f0 <__aeabi_dmul+0x360>)
 80016f8:	4694      	mov	ip, r2
 80016fa:	4463      	add	r3, ip
 80016fc:	449b      	add	fp, r3
 80016fe:	2d0a      	cmp	r5, #10
 8001700:	dc42      	bgt.n	8001788 <__aeabi_dmul+0xf8>
 8001702:	00e4      	lsls	r4, r4, #3
 8001704:	0f73      	lsrs	r3, r6, #29
 8001706:	4323      	orrs	r3, r4
 8001708:	2480      	movs	r4, #128	@ 0x80
 800170a:	4649      	mov	r1, r9
 800170c:	0424      	lsls	r4, r4, #16
 800170e:	431c      	orrs	r4, r3
 8001710:	00f3      	lsls	r3, r6, #3
 8001712:	9301      	str	r3, [sp, #4]
 8001714:	9b00      	ldr	r3, [sp, #0]
 8001716:	2000      	movs	r0, #0
 8001718:	4059      	eors	r1, r3
 800171a:	b2cb      	uxtb	r3, r1
 800171c:	9303      	str	r3, [sp, #12]
 800171e:	2d02      	cmp	r5, #2
 8001720:	dc00      	bgt.n	8001724 <__aeabi_dmul+0x94>
 8001722:	e094      	b.n	800184e <__aeabi_dmul+0x1be>
 8001724:	2301      	movs	r3, #1
 8001726:	40ab      	lsls	r3, r5
 8001728:	001d      	movs	r5, r3
 800172a:	23a6      	movs	r3, #166	@ 0xa6
 800172c:	002a      	movs	r2, r5
 800172e:	00db      	lsls	r3, r3, #3
 8001730:	401a      	ands	r2, r3
 8001732:	421d      	tst	r5, r3
 8001734:	d000      	beq.n	8001738 <__aeabi_dmul+0xa8>
 8001736:	e229      	b.n	8001b8c <__aeabi_dmul+0x4fc>
 8001738:	2390      	movs	r3, #144	@ 0x90
 800173a:	009b      	lsls	r3, r3, #2
 800173c:	421d      	tst	r5, r3
 800173e:	d100      	bne.n	8001742 <__aeabi_dmul+0xb2>
 8001740:	e24d      	b.n	8001bde <__aeabi_dmul+0x54e>
 8001742:	2300      	movs	r3, #0
 8001744:	2480      	movs	r4, #128	@ 0x80
 8001746:	4699      	mov	r9, r3
 8001748:	0324      	lsls	r4, r4, #12
 800174a:	4ba8      	ldr	r3, [pc, #672]	@ (80019ec <__aeabi_dmul+0x35c>)
 800174c:	0010      	movs	r0, r2
 800174e:	464a      	mov	r2, r9
 8001750:	051b      	lsls	r3, r3, #20
 8001752:	4323      	orrs	r3, r4
 8001754:	07d2      	lsls	r2, r2, #31
 8001756:	4313      	orrs	r3, r2
 8001758:	0019      	movs	r1, r3
 800175a:	b005      	add	sp, #20
 800175c:	bcf0      	pop	{r4, r5, r6, r7}
 800175e:	46bb      	mov	fp, r7
 8001760:	46b2      	mov	sl, r6
 8001762:	46a9      	mov	r9, r5
 8001764:	46a0      	mov	r8, r4
 8001766:	bdf0      	pop	{r4, r5, r6, r7, pc}
 8001768:	4652      	mov	r2, sl
 800176a:	4302      	orrs	r2, r0
 800176c:	4690      	mov	r8, r2
 800176e:	d000      	beq.n	8001772 <__aeabi_dmul+0xe2>
 8001770:	e1ac      	b.n	8001acc <__aeabi_dmul+0x43c>
 8001772:	469b      	mov	fp, r3
 8001774:	2302      	movs	r3, #2
 8001776:	4692      	mov	sl, r2
 8001778:	2508      	movs	r5, #8
 800177a:	9302      	str	r3, [sp, #8]
 800177c:	e7ae      	b.n	80016dc <__aeabi_dmul+0x4c>
 800177e:	9b00      	ldr	r3, [sp, #0]
 8001780:	46a2      	mov	sl, r4
 8001782:	4699      	mov	r9, r3
 8001784:	9b01      	ldr	r3, [sp, #4]
 8001786:	4698      	mov	r8, r3
 8001788:	9b02      	ldr	r3, [sp, #8]
 800178a:	2b02      	cmp	r3, #2
 800178c:	d100      	bne.n	8001790 <__aeabi_dmul+0x100>
 800178e:	e1ca      	b.n	8001b26 <__aeabi_dmul+0x496>
 8001790:	2b03      	cmp	r3, #3
 8001792:	d100      	bne.n	8001796 <__aeabi_dmul+0x106>
 8001794:	e192      	b.n	8001abc <__aeabi_dmul+0x42c>
 8001796:	2b01      	cmp	r3, #1
 8001798:	d110      	bne.n	80017bc <__aeabi_dmul+0x12c>
 800179a:	2300      	movs	r3, #0
 800179c:	2400      	movs	r4, #0
 800179e:	2200      	movs	r2, #0
 80017a0:	e7d4      	b.n	800174c <__aeabi_dmul+0xbc>
 80017a2:	2201      	movs	r2, #1
 80017a4:	087b      	lsrs	r3, r7, #1
 80017a6:	403a      	ands	r2, r7
 80017a8:	4313      	orrs	r3, r2
 80017aa:	4652      	mov	r2, sl
 80017ac:	07d2      	lsls	r2, r2, #31
 80017ae:	4313      	orrs	r3, r2
 80017b0:	4698      	mov	r8, r3
 80017b2:	4653      	mov	r3, sl
 80017b4:	085b      	lsrs	r3, r3, #1
 80017b6:	469a      	mov	sl, r3
 80017b8:	9b03      	ldr	r3, [sp, #12]
 80017ba:	4699      	mov	r9, r3
 80017bc:	465b      	mov	r3, fp
 80017be:	1c58      	adds	r0, r3, #1
 80017c0:	2380      	movs	r3, #128	@ 0x80
 80017c2:	00db      	lsls	r3, r3, #3
 80017c4:	445b      	add	r3, fp
 80017c6:	2b00      	cmp	r3, #0
 80017c8:	dc00      	bgt.n	80017cc <__aeabi_dmul+0x13c>
 80017ca:	e1b1      	b.n	8001b30 <__aeabi_dmul+0x4a0>
 80017cc:	4642      	mov	r2, r8
 80017ce:	0752      	lsls	r2, r2, #29
 80017d0:	d00b      	beq.n	80017ea <__aeabi_dmul+0x15a>
 80017d2:	220f      	movs	r2, #15
 80017d4:	4641      	mov	r1, r8
 80017d6:	400a      	ands	r2, r1
 80017d8:	2a04      	cmp	r2, #4
 80017da:	d006      	beq.n	80017ea <__aeabi_dmul+0x15a>
 80017dc:	4642      	mov	r2, r8
 80017de:	1d11      	adds	r1, r2, #4
 80017e0:	4541      	cmp	r1, r8
 80017e2:	4192      	sbcs	r2, r2
 80017e4:	4688      	mov	r8, r1
 80017e6:	4252      	negs	r2, r2
 80017e8:	4492      	add	sl, r2
 80017ea:	4652      	mov	r2, sl
 80017ec:	01d2      	lsls	r2, r2, #7
 80017ee:	d506      	bpl.n	80017fe <__aeabi_dmul+0x16e>
 80017f0:	4652      	mov	r2, sl
 80017f2:	4b80      	ldr	r3, [pc, #512]	@ (80019f4 <__aeabi_dmul+0x364>)
 80017f4:	401a      	ands	r2, r3
 80017f6:	2380      	movs	r3, #128	@ 0x80
 80017f8:	4692      	mov	sl, r2
 80017fa:	00db      	lsls	r3, r3, #3
 80017fc:	18c3      	adds	r3, r0, r3
 80017fe:	4a7e      	ldr	r2, [pc, #504]	@ (80019f8 <__aeabi_dmul+0x368>)
 8001800:	4293      	cmp	r3, r2
 8001802:	dd00      	ble.n	8001806 <__aeabi_dmul+0x176>
 8001804:	e18f      	b.n	8001b26 <__aeabi_dmul+0x496>
 8001806:	4642      	mov	r2, r8
 8001808:	08d1      	lsrs	r1, r2, #3
 800180a:	4652      	mov	r2, sl
 800180c:	0752      	lsls	r2, r2, #29
 800180e:	430a      	orrs	r2, r1
 8001810:	4651      	mov	r1, sl
 8001812:	055b      	lsls	r3, r3, #21
 8001814:	024c      	lsls	r4, r1, #9
 8001816:	0b24      	lsrs	r4, r4, #12
 8001818:	0d5b      	lsrs	r3, r3, #21
 800181a:	e797      	b.n	800174c <__aeabi_dmul+0xbc>
 800181c:	4b73      	ldr	r3, [pc, #460]	@ (80019ec <__aeabi_dmul+0x35c>)
 800181e:	4326      	orrs	r6, r4
 8001820:	469c      	mov	ip, r3
 8001822:	44e3      	add	fp, ip
 8001824:	2e00      	cmp	r6, #0
 8001826:	d100      	bne.n	800182a <__aeabi_dmul+0x19a>
 8001828:	e16f      	b.n	8001b0a <__aeabi_dmul+0x47a>
 800182a:	2303      	movs	r3, #3
 800182c:	4649      	mov	r1, r9
 800182e:	431d      	orrs	r5, r3
 8001830:	9b00      	ldr	r3, [sp, #0]
 8001832:	4059      	eors	r1, r3
 8001834:	b2cb      	uxtb	r3, r1
 8001836:	9303      	str	r3, [sp, #12]
 8001838:	2d0a      	cmp	r5, #10
 800183a:	dd00      	ble.n	800183e <__aeabi_dmul+0x1ae>
 800183c:	e133      	b.n	8001aa6 <__aeabi_dmul+0x416>
 800183e:	2301      	movs	r3, #1
 8001840:	40ab      	lsls	r3, r5
 8001842:	001d      	movs	r5, r3
 8001844:	2303      	movs	r3, #3
 8001846:	9302      	str	r3, [sp, #8]
 8001848:	2288      	movs	r2, #136	@ 0x88
 800184a:	422a      	tst	r2, r5
 800184c:	d197      	bne.n	800177e <__aeabi_dmul+0xee>
 800184e:	4642      	mov	r2, r8
 8001850:	4643      	mov	r3, r8
 8001852:	0412      	lsls	r2, r2, #16
 8001854:	0c12      	lsrs	r2, r2, #16
 8001856:	0016      	movs	r6, r2
 8001858:	9801      	ldr	r0, [sp, #4]
 800185a:	0c1d      	lsrs	r5, r3, #16
 800185c:	0c03      	lsrs	r3, r0, #16
 800185e:	0400      	lsls	r0, r0, #16
 8001860:	0c00      	lsrs	r0, r0, #16
 8001862:	4346      	muls	r6, r0
 8001864:	46b4      	mov	ip, r6
 8001866:	001e      	movs	r6, r3
 8001868:	436e      	muls	r6, r5
 800186a:	9600      	str	r6, [sp, #0]
 800186c:	0016      	movs	r6, r2
 800186e:	0007      	movs	r7, r0
 8001870:	435e      	muls	r6, r3
 8001872:	4661      	mov	r1, ip
 8001874:	46b0      	mov	r8, r6
 8001876:	436f      	muls	r7, r5
 8001878:	0c0e      	lsrs	r6, r1, #16
 800187a:	44b8      	add	r8, r7
 800187c:	4446      	add	r6, r8
 800187e:	42b7      	cmp	r7, r6
 8001880:	d905      	bls.n	800188e <__aeabi_dmul+0x1fe>
 8001882:	2180      	movs	r1, #128	@ 0x80
 8001884:	0249      	lsls	r1, r1, #9
 8001886:	4688      	mov	r8, r1
 8001888:	9f00      	ldr	r7, [sp, #0]
 800188a:	4447      	add	r7, r8
 800188c:	9700      	str	r7, [sp, #0]
 800188e:	4661      	mov	r1, ip
 8001890:	0409      	lsls	r1, r1, #16
 8001892:	0c09      	lsrs	r1, r1, #16
 8001894:	0c37      	lsrs	r7, r6, #16
 8001896:	0436      	lsls	r6, r6, #16
 8001898:	468c      	mov	ip, r1
 800189a:	0031      	movs	r1, r6
 800189c:	4461      	add	r1, ip
 800189e:	9101      	str	r1, [sp, #4]
 80018a0:	0011      	movs	r1, r2
 80018a2:	0c26      	lsrs	r6, r4, #16
 80018a4:	0424      	lsls	r4, r4, #16
 80018a6:	0c24      	lsrs	r4, r4, #16
 80018a8:	4361      	muls	r1, r4
 80018aa:	468c      	mov	ip, r1
 80018ac:	0021      	movs	r1, r4
 80018ae:	4369      	muls	r1, r5
 80018b0:	4689      	mov	r9, r1
 80018b2:	4661      	mov	r1, ip
 80018b4:	0c09      	lsrs	r1, r1, #16
 80018b6:	4688      	mov	r8, r1
 80018b8:	4372      	muls	r2, r6
 80018ba:	444a      	add	r2, r9
 80018bc:	4442      	add	r2, r8
 80018be:	4375      	muls	r5, r6
 80018c0:	4591      	cmp	r9, r2
 80018c2:	d903      	bls.n	80018cc <__aeabi_dmul+0x23c>
 80018c4:	2180      	movs	r1, #128	@ 0x80
 80018c6:	0249      	lsls	r1, r1, #9
 80018c8:	4688      	mov	r8, r1
 80018ca:	4445      	add	r5, r8
 80018cc:	0c11      	lsrs	r1, r2, #16
 80018ce:	4688      	mov	r8, r1
 80018d0:	4661      	mov	r1, ip
 80018d2:	0409      	lsls	r1, r1, #16
 80018d4:	0c09      	lsrs	r1, r1, #16
 80018d6:	468c      	mov	ip, r1
 80018d8:	0412      	lsls	r2, r2, #16
 80018da:	4462      	add	r2, ip
 80018dc:	18b9      	adds	r1, r7, r2
 80018de:	9102      	str	r1, [sp, #8]
 80018e0:	4651      	mov	r1, sl
 80018e2:	0c09      	lsrs	r1, r1, #16
 80018e4:	468c      	mov	ip, r1
 80018e6:	4651      	mov	r1, sl
 80018e8:	040f      	lsls	r7, r1, #16
 80018ea:	0c3f      	lsrs	r7, r7, #16
 80018ec:	0039      	movs	r1, r7
 80018ee:	4341      	muls	r1, r0
 80018f0:	4445      	add	r5, r8
 80018f2:	4688      	mov	r8, r1
 80018f4:	4661      	mov	r1, ip
 80018f6:	4341      	muls	r1, r0
 80018f8:	468a      	mov	sl, r1
 80018fa:	4641      	mov	r1, r8
 80018fc:	4660      	mov	r0, ip
 80018fe:	0c09      	lsrs	r1, r1, #16
 8001900:	4689      	mov	r9, r1
 8001902:	4358      	muls	r0, r3
 8001904:	437b      	muls	r3, r7
 8001906:	4453      	add	r3, sl
 8001908:	444b      	add	r3, r9
 800190a:	459a      	cmp	sl, r3
 800190c:	d903      	bls.n	8001916 <__aeabi_dmul+0x286>
 800190e:	2180      	movs	r1, #128	@ 0x80
 8001910:	0249      	lsls	r1, r1, #9
 8001912:	4689      	mov	r9, r1
 8001914:	4448      	add	r0, r9
 8001916:	0c19      	lsrs	r1, r3, #16
 8001918:	4689      	mov	r9, r1
 800191a:	4641      	mov	r1, r8
 800191c:	0409      	lsls	r1, r1, #16
 800191e:	0c09      	lsrs	r1, r1, #16
 8001920:	4688      	mov	r8, r1
 8001922:	0039      	movs	r1, r7
 8001924:	4361      	muls	r1, r4
 8001926:	041b      	lsls	r3, r3, #16
 8001928:	4443      	add	r3, r8
 800192a:	4688      	mov	r8, r1
 800192c:	4661      	mov	r1, ip
 800192e:	434c      	muls	r4, r1
 8001930:	4371      	muls	r1, r6
 8001932:	468c      	mov	ip, r1
 8001934:	4641      	mov	r1, r8
 8001936:	4377      	muls	r7, r6
 8001938:	0c0e      	lsrs	r6, r1, #16
 800193a:	193f      	adds	r7, r7, r4
 800193c:	19f6      	adds	r6, r6, r7
 800193e:	4448      	add	r0, r9
 8001940:	42b4      	cmp	r4, r6
 8001942:	d903      	bls.n	800194c <__aeabi_dmul+0x2bc>
 8001944:	2180      	movs	r1, #128	@ 0x80
 8001946:	0249      	lsls	r1, r1, #9
 8001948:	4689      	mov	r9, r1
 800194a:	44cc      	add	ip, r9
 800194c:	9902      	ldr	r1, [sp, #8]
 800194e:	9f00      	ldr	r7, [sp, #0]
 8001950:	4689      	mov	r9, r1
 8001952:	0431      	lsls	r1, r6, #16
 8001954:	444f      	add	r7, r9
 8001956:	4689      	mov	r9, r1
 8001958:	4641      	mov	r1, r8
 800195a:	4297      	cmp	r7, r2
 800195c:	4192      	sbcs	r2, r2
 800195e:	040c      	lsls	r4, r1, #16
 8001960:	0c24      	lsrs	r4, r4, #16
 8001962:	444c      	add	r4, r9
 8001964:	18ff      	adds	r7, r7, r3
 8001966:	4252      	negs	r2, r2
 8001968:	1964      	adds	r4, r4, r5
 800196a:	18a1      	adds	r1, r4, r2
 800196c:	429f      	cmp	r7, r3
 800196e:	419b      	sbcs	r3, r3
 8001970:	4688      	mov	r8, r1
 8001972:	4682      	mov	sl, r0
 8001974:	425b      	negs	r3, r3
 8001976:	4699      	mov	r9, r3
 8001978:	4590      	cmp	r8, r2
 800197a:	4192      	sbcs	r2, r2
 800197c:	42ac      	cmp	r4, r5
 800197e:	41a4      	sbcs	r4, r4
 8001980:	44c2      	add	sl, r8
 8001982:	44d1      	add	r9, sl
 8001984:	4252      	negs	r2, r2
 8001986:	4264      	negs	r4, r4
 8001988:	4314      	orrs	r4, r2
 800198a:	4599      	cmp	r9, r3
 800198c:	419b      	sbcs	r3, r3
 800198e:	4582      	cmp	sl, r0
 8001990:	4192      	sbcs	r2, r2
 8001992:	425b      	negs	r3, r3
 8001994:	4252      	negs	r2, r2
 8001996:	4313      	orrs	r3, r2
 8001998:	464a      	mov	r2, r9
 800199a:	0c36      	lsrs	r6, r6, #16
 800199c:	19a4      	adds	r4, r4, r6
 800199e:	18e3      	adds	r3, r4, r3
 80019a0:	4463      	add	r3, ip
 80019a2:	025b      	lsls	r3, r3, #9
 80019a4:	0dd2      	lsrs	r2, r2, #23
 80019a6:	431a      	orrs	r2, r3
 80019a8:	9901      	ldr	r1, [sp, #4]
 80019aa:	4692      	mov	sl, r2
 80019ac:	027a      	lsls	r2, r7, #9
 80019ae:	430a      	orrs	r2, r1
 80019b0:	1e50      	subs	r0, r2, #1
 80019b2:	4182      	sbcs	r2, r0
 80019b4:	0dff      	lsrs	r7, r7, #23
 80019b6:	4317      	orrs	r7, r2
 80019b8:	464a      	mov	r2, r9
 80019ba:	0252      	lsls	r2, r2, #9
 80019bc:	4317      	orrs	r7, r2
 80019be:	46b8      	mov	r8, r7
 80019c0:	01db      	lsls	r3, r3, #7
 80019c2:	d500      	bpl.n	80019c6 <__aeabi_dmul+0x336>
 80019c4:	e6ed      	b.n	80017a2 <__aeabi_dmul+0x112>
 80019c6:	4b0d      	ldr	r3, [pc, #52]	@ (80019fc <__aeabi_dmul+0x36c>)
 80019c8:	9a03      	ldr	r2, [sp, #12]
 80019ca:	445b      	add	r3, fp
 80019cc:	4691      	mov	r9, r2
 80019ce:	2b00      	cmp	r3, #0
 80019d0:	dc00      	bgt.n	80019d4 <__aeabi_dmul+0x344>
 80019d2:	e0ac      	b.n	8001b2e <__aeabi_dmul+0x49e>
 80019d4:	003a      	movs	r2, r7
 80019d6:	0752      	lsls	r2, r2, #29
 80019d8:	d100      	bne.n	80019dc <__aeabi_dmul+0x34c>
 80019da:	e710      	b.n	80017fe <__aeabi_dmul+0x16e>
 80019dc:	220f      	movs	r2, #15
 80019de:	4658      	mov	r0, fp
 80019e0:	403a      	ands	r2, r7
 80019e2:	2a04      	cmp	r2, #4
 80019e4:	d000      	beq.n	80019e8 <__aeabi_dmul+0x358>
 80019e6:	e6f9      	b.n	80017dc <__aeabi_dmul+0x14c>
 80019e8:	e709      	b.n	80017fe <__aeabi_dmul+0x16e>
 80019ea:	46c0      	nop			@ (mov r8, r8)
 80019ec:	000007ff 	.word	0x000007ff
 80019f0:	fffffc01 	.word	0xfffffc01
 80019f4:	feffffff 	.word	0xfeffffff
 80019f8:	000007fe 	.word	0x000007fe
 80019fc:	000003ff 	.word	0x000003ff
 8001a00:	0022      	movs	r2, r4
 8001a02:	4332      	orrs	r2, r6
 8001a04:	d06f      	beq.n	8001ae6 <__aeabi_dmul+0x456>
 8001a06:	2c00      	cmp	r4, #0
 8001a08:	d100      	bne.n	8001a0c <__aeabi_dmul+0x37c>
 8001a0a:	e0c2      	b.n	8001b92 <__aeabi_dmul+0x502>
 8001a0c:	0020      	movs	r0, r4
 8001a0e:	f000 fddf 	bl	80025d0 <__clzsi2>
 8001a12:	0002      	movs	r2, r0
 8001a14:	0003      	movs	r3, r0
 8001a16:	3a0b      	subs	r2, #11
 8001a18:	201d      	movs	r0, #29
 8001a1a:	1a82      	subs	r2, r0, r2
 8001a1c:	0030      	movs	r0, r6
 8001a1e:	0019      	movs	r1, r3
 8001a20:	40d0      	lsrs	r0, r2
 8001a22:	3908      	subs	r1, #8
 8001a24:	408c      	lsls	r4, r1
 8001a26:	0002      	movs	r2, r0
 8001a28:	4322      	orrs	r2, r4
 8001a2a:	0034      	movs	r4, r6
 8001a2c:	408c      	lsls	r4, r1
 8001a2e:	4659      	mov	r1, fp
 8001a30:	1acb      	subs	r3, r1, r3
 8001a32:	4986      	ldr	r1, [pc, #536]	@ (8001c4c <__aeabi_dmul+0x5bc>)
 8001a34:	468b      	mov	fp, r1
 8001a36:	449b      	add	fp, r3
 8001a38:	2d0a      	cmp	r5, #10
 8001a3a:	dd00      	ble.n	8001a3e <__aeabi_dmul+0x3ae>
 8001a3c:	e6a4      	b.n	8001788 <__aeabi_dmul+0xf8>
 8001a3e:	4649      	mov	r1, r9
 8001a40:	9b00      	ldr	r3, [sp, #0]
 8001a42:	9401      	str	r4, [sp, #4]
 8001a44:	4059      	eors	r1, r3
 8001a46:	b2cb      	uxtb	r3, r1
 8001a48:	0014      	movs	r4, r2
 8001a4a:	2000      	movs	r0, #0
 8001a4c:	9303      	str	r3, [sp, #12]
 8001a4e:	2d02      	cmp	r5, #2
 8001a50:	dd00      	ble.n	8001a54 <__aeabi_dmul+0x3c4>
 8001a52:	e667      	b.n	8001724 <__aeabi_dmul+0x94>
 8001a54:	e6fb      	b.n	800184e <__aeabi_dmul+0x1be>
 8001a56:	4653      	mov	r3, sl
 8001a58:	4303      	orrs	r3, r0
 8001a5a:	4698      	mov	r8, r3
 8001a5c:	d03c      	beq.n	8001ad8 <__aeabi_dmul+0x448>
 8001a5e:	4653      	mov	r3, sl
 8001a60:	2b00      	cmp	r3, #0
 8001a62:	d100      	bne.n	8001a66 <__aeabi_dmul+0x3d6>
 8001a64:	e0a3      	b.n	8001bae <__aeabi_dmul+0x51e>
 8001a66:	4650      	mov	r0, sl
 8001a68:	f000 fdb2 	bl	80025d0 <__clzsi2>
 8001a6c:	230b      	movs	r3, #11
 8001a6e:	425b      	negs	r3, r3
 8001a70:	469c      	mov	ip, r3
 8001a72:	0002      	movs	r2, r0
 8001a74:	4484      	add	ip, r0
 8001a76:	0011      	movs	r1, r2
 8001a78:	4650      	mov	r0, sl
 8001a7a:	3908      	subs	r1, #8
 8001a7c:	4088      	lsls	r0, r1
 8001a7e:	231d      	movs	r3, #29
 8001a80:	4680      	mov	r8, r0
 8001a82:	4660      	mov	r0, ip
 8001a84:	1a1b      	subs	r3, r3, r0
 8001a86:	0020      	movs	r0, r4
 8001a88:	40d8      	lsrs	r0, r3
 8001a8a:	0003      	movs	r3, r0
 8001a8c:	4640      	mov	r0, r8
 8001a8e:	4303      	orrs	r3, r0
 8001a90:	469a      	mov	sl, r3
 8001a92:	0023      	movs	r3, r4
 8001a94:	408b      	lsls	r3, r1
 8001a96:	4698      	mov	r8, r3
 8001a98:	4b6c      	ldr	r3, [pc, #432]	@ (8001c4c <__aeabi_dmul+0x5bc>)
 8001a9a:	2500      	movs	r5, #0
 8001a9c:	1a9b      	subs	r3, r3, r2
 8001a9e:	469b      	mov	fp, r3
 8001aa0:	2300      	movs	r3, #0
 8001aa2:	9302      	str	r3, [sp, #8]
 8001aa4:	e61a      	b.n	80016dc <__aeabi_dmul+0x4c>
 8001aa6:	2d0f      	cmp	r5, #15
 8001aa8:	d000      	beq.n	8001aac <__aeabi_dmul+0x41c>
 8001aaa:	e0c9      	b.n	8001c40 <__aeabi_dmul+0x5b0>
 8001aac:	2380      	movs	r3, #128	@ 0x80
 8001aae:	4652      	mov	r2, sl
 8001ab0:	031b      	lsls	r3, r3, #12
 8001ab2:	421a      	tst	r2, r3
 8001ab4:	d002      	beq.n	8001abc <__aeabi_dmul+0x42c>
 8001ab6:	421c      	tst	r4, r3
 8001ab8:	d100      	bne.n	8001abc <__aeabi_dmul+0x42c>
 8001aba:	e092      	b.n	8001be2 <__aeabi_dmul+0x552>
 8001abc:	2480      	movs	r4, #128	@ 0x80
 8001abe:	4653      	mov	r3, sl
 8001ac0:	0324      	lsls	r4, r4, #12
 8001ac2:	431c      	orrs	r4, r3
 8001ac4:	0324      	lsls	r4, r4, #12
 8001ac6:	4642      	mov	r2, r8
 8001ac8:	0b24      	lsrs	r4, r4, #12
 8001aca:	e63e      	b.n	800174a <__aeabi_dmul+0xba>
 8001acc:	469b      	mov	fp, r3
 8001ace:	2303      	movs	r3, #3
 8001ad0:	4680      	mov	r8, r0
 8001ad2:	250c      	movs	r5, #12
 8001ad4:	9302      	str	r3, [sp, #8]
 8001ad6:	e601      	b.n	80016dc <__aeabi_dmul+0x4c>
 8001ad8:	2300      	movs	r3, #0
 8001ada:	469a      	mov	sl, r3
 8001adc:	469b      	mov	fp, r3
 8001ade:	3301      	adds	r3, #1
 8001ae0:	2504      	movs	r5, #4
 8001ae2:	9302      	str	r3, [sp, #8]
 8001ae4:	e5fa      	b.n	80016dc <__aeabi_dmul+0x4c>
 8001ae6:	2101      	movs	r1, #1
 8001ae8:	430d      	orrs	r5, r1
 8001aea:	2d0a      	cmp	r5, #10
 8001aec:	dd00      	ble.n	8001af0 <__aeabi_dmul+0x460>
 8001aee:	e64b      	b.n	8001788 <__aeabi_dmul+0xf8>
 8001af0:	4649      	mov	r1, r9
 8001af2:	9800      	ldr	r0, [sp, #0]
 8001af4:	4041      	eors	r1, r0
 8001af6:	b2c9      	uxtb	r1, r1
 8001af8:	9103      	str	r1, [sp, #12]
 8001afa:	2d02      	cmp	r5, #2
 8001afc:	dc00      	bgt.n	8001b00 <__aeabi_dmul+0x470>
 8001afe:	e096      	b.n	8001c2e <__aeabi_dmul+0x59e>
 8001b00:	2300      	movs	r3, #0
 8001b02:	2400      	movs	r4, #0
 8001b04:	2001      	movs	r0, #1
 8001b06:	9301      	str	r3, [sp, #4]
 8001b08:	e60c      	b.n	8001724 <__aeabi_dmul+0x94>
 8001b0a:	4649      	mov	r1, r9
 8001b0c:	2302      	movs	r3, #2
 8001b0e:	9a00      	ldr	r2, [sp, #0]
 8001b10:	432b      	orrs	r3, r5
 8001b12:	4051      	eors	r1, r2
 8001b14:	b2ca      	uxtb	r2, r1
 8001b16:	9203      	str	r2, [sp, #12]
 8001b18:	2b0a      	cmp	r3, #10
 8001b1a:	dd00      	ble.n	8001b1e <__aeabi_dmul+0x48e>
 8001b1c:	e634      	b.n	8001788 <__aeabi_dmul+0xf8>
 8001b1e:	2d00      	cmp	r5, #0
 8001b20:	d157      	bne.n	8001bd2 <__aeabi_dmul+0x542>
 8001b22:	9b03      	ldr	r3, [sp, #12]
 8001b24:	4699      	mov	r9, r3
 8001b26:	2400      	movs	r4, #0
 8001b28:	2200      	movs	r2, #0
 8001b2a:	4b49      	ldr	r3, [pc, #292]	@ (8001c50 <__aeabi_dmul+0x5c0>)
 8001b2c:	e60e      	b.n	800174c <__aeabi_dmul+0xbc>
 8001b2e:	4658      	mov	r0, fp
 8001b30:	2101      	movs	r1, #1
 8001b32:	1ac9      	subs	r1, r1, r3
 8001b34:	2938      	cmp	r1, #56	@ 0x38
 8001b36:	dd00      	ble.n	8001b3a <__aeabi_dmul+0x4aa>
 8001b38:	e62f      	b.n	800179a <__aeabi_dmul+0x10a>
 8001b3a:	291f      	cmp	r1, #31
 8001b3c:	dd56      	ble.n	8001bec <__aeabi_dmul+0x55c>
 8001b3e:	221f      	movs	r2, #31
 8001b40:	4654      	mov	r4, sl
 8001b42:	4252      	negs	r2, r2
 8001b44:	1ad3      	subs	r3, r2, r3
 8001b46:	40dc      	lsrs	r4, r3
 8001b48:	2920      	cmp	r1, #32
 8001b4a:	d007      	beq.n	8001b5c <__aeabi_dmul+0x4cc>
 8001b4c:	4b41      	ldr	r3, [pc, #260]	@ (8001c54 <__aeabi_dmul+0x5c4>)
 8001b4e:	4642      	mov	r2, r8
 8001b50:	469c      	mov	ip, r3
 8001b52:	4653      	mov	r3, sl
 8001b54:	4460      	add	r0, ip
 8001b56:	4083      	lsls	r3, r0
 8001b58:	431a      	orrs	r2, r3
 8001b5a:	4690      	mov	r8, r2
 8001b5c:	4642      	mov	r2, r8
 8001b5e:	2107      	movs	r1, #7
 8001b60:	1e53      	subs	r3, r2, #1
 8001b62:	419a      	sbcs	r2, r3
 8001b64:	000b      	movs	r3, r1
 8001b66:	4322      	orrs	r2, r4
 8001b68:	4013      	ands	r3, r2
 8001b6a:	2400      	movs	r4, #0
 8001b6c:	4211      	tst	r1, r2
 8001b6e:	d009      	beq.n	8001b84 <__aeabi_dmul+0x4f4>
 8001b70:	230f      	movs	r3, #15
 8001b72:	4013      	ands	r3, r2
 8001b74:	2b04      	cmp	r3, #4
 8001b76:	d05d      	beq.n	8001c34 <__aeabi_dmul+0x5a4>
 8001b78:	1d11      	adds	r1, r2, #4
 8001b7a:	4291      	cmp	r1, r2
 8001b7c:	419b      	sbcs	r3, r3
 8001b7e:	000a      	movs	r2, r1
 8001b80:	425b      	negs	r3, r3
 8001b82:	075b      	lsls	r3, r3, #29
 8001b84:	08d2      	lsrs	r2, r2, #3
 8001b86:	431a      	orrs	r2, r3
 8001b88:	2300      	movs	r3, #0
 8001b8a:	e5df      	b.n	800174c <__aeabi_dmul+0xbc>
 8001b8c:	9b03      	ldr	r3, [sp, #12]
 8001b8e:	4699      	mov	r9, r3
 8001b90:	e5fa      	b.n	8001788 <__aeabi_dmul+0xf8>
 8001b92:	9801      	ldr	r0, [sp, #4]
 8001b94:	f000 fd1c 	bl	80025d0 <__clzsi2>
 8001b98:	0002      	movs	r2, r0
 8001b9a:	0003      	movs	r3, r0
 8001b9c:	3215      	adds	r2, #21
 8001b9e:	3320      	adds	r3, #32
 8001ba0:	2a1c      	cmp	r2, #28
 8001ba2:	dc00      	bgt.n	8001ba6 <__aeabi_dmul+0x516>
 8001ba4:	e738      	b.n	8001a18 <__aeabi_dmul+0x388>
 8001ba6:	9a01      	ldr	r2, [sp, #4]
 8001ba8:	3808      	subs	r0, #8
 8001baa:	4082      	lsls	r2, r0
 8001bac:	e73f      	b.n	8001a2e <__aeabi_dmul+0x39e>
 8001bae:	f000 fd0f 	bl	80025d0 <__clzsi2>
 8001bb2:	2315      	movs	r3, #21
 8001bb4:	469c      	mov	ip, r3
 8001bb6:	4484      	add	ip, r0
 8001bb8:	0002      	movs	r2, r0
 8001bba:	4663      	mov	r3, ip
 8001bbc:	3220      	adds	r2, #32
 8001bbe:	2b1c      	cmp	r3, #28
 8001bc0:	dc00      	bgt.n	8001bc4 <__aeabi_dmul+0x534>
 8001bc2:	e758      	b.n	8001a76 <__aeabi_dmul+0x3e6>
 8001bc4:	2300      	movs	r3, #0
 8001bc6:	4698      	mov	r8, r3
 8001bc8:	0023      	movs	r3, r4
 8001bca:	3808      	subs	r0, #8
 8001bcc:	4083      	lsls	r3, r0
 8001bce:	469a      	mov	sl, r3
 8001bd0:	e762      	b.n	8001a98 <__aeabi_dmul+0x408>
 8001bd2:	001d      	movs	r5, r3
 8001bd4:	2300      	movs	r3, #0
 8001bd6:	2400      	movs	r4, #0
 8001bd8:	2002      	movs	r0, #2
 8001bda:	9301      	str	r3, [sp, #4]
 8001bdc:	e5a2      	b.n	8001724 <__aeabi_dmul+0x94>
 8001bde:	9002      	str	r0, [sp, #8]
 8001be0:	e632      	b.n	8001848 <__aeabi_dmul+0x1b8>
 8001be2:	431c      	orrs	r4, r3
 8001be4:	9b00      	ldr	r3, [sp, #0]
 8001be6:	9a01      	ldr	r2, [sp, #4]
 8001be8:	4699      	mov	r9, r3
 8001bea:	e5ae      	b.n	800174a <__aeabi_dmul+0xba>
 8001bec:	4b1a      	ldr	r3, [pc, #104]	@ (8001c58 <__aeabi_dmul+0x5c8>)
 8001bee:	4652      	mov	r2, sl
 8001bf0:	18c3      	adds	r3, r0, r3
 8001bf2:	4640      	mov	r0, r8
 8001bf4:	409a      	lsls	r2, r3
 8001bf6:	40c8      	lsrs	r0, r1
 8001bf8:	4302      	orrs	r2, r0
 8001bfa:	4640      	mov	r0, r8
 8001bfc:	4098      	lsls	r0, r3
 8001bfe:	0003      	movs	r3, r0
 8001c00:	1e58      	subs	r0, r3, #1
 8001c02:	4183      	sbcs	r3, r0
 8001c04:	4654      	mov	r4, sl
 8001c06:	431a      	orrs	r2, r3
 8001c08:	40cc      	lsrs	r4, r1
 8001c0a:	0753      	lsls	r3, r2, #29
 8001c0c:	d009      	beq.n	8001c22 <__aeabi_dmul+0x592>
 8001c0e:	230f      	movs	r3, #15
 8001c10:	4013      	ands	r3, r2
 8001c12:	2b04      	cmp	r3, #4
 8001c14:	d005      	beq.n	8001c22 <__aeabi_dmul+0x592>
 8001c16:	1d13      	adds	r3, r2, #4
 8001c18:	4293      	cmp	r3, r2
 8001c1a:	4192      	sbcs	r2, r2
 8001c1c:	4252      	negs	r2, r2
 8001c1e:	18a4      	adds	r4, r4, r2
 8001c20:	001a      	movs	r2, r3
 8001c22:	0223      	lsls	r3, r4, #8
 8001c24:	d508      	bpl.n	8001c38 <__aeabi_dmul+0x5a8>
 8001c26:	2301      	movs	r3, #1
 8001c28:	2400      	movs	r4, #0
 8001c2a:	2200      	movs	r2, #0
 8001c2c:	e58e      	b.n	800174c <__aeabi_dmul+0xbc>
 8001c2e:	4689      	mov	r9, r1
 8001c30:	2400      	movs	r4, #0
 8001c32:	e58b      	b.n	800174c <__aeabi_dmul+0xbc>
 8001c34:	2300      	movs	r3, #0
 8001c36:	e7a5      	b.n	8001b84 <__aeabi_dmul+0x4f4>
 8001c38:	0763      	lsls	r3, r4, #29
 8001c3a:	0264      	lsls	r4, r4, #9
 8001c3c:	0b24      	lsrs	r4, r4, #12
 8001c3e:	e7a1      	b.n	8001b84 <__aeabi_dmul+0x4f4>
 8001c40:	9b00      	ldr	r3, [sp, #0]
 8001c42:	46a2      	mov	sl, r4
 8001c44:	4699      	mov	r9, r3
 8001c46:	9b01      	ldr	r3, [sp, #4]
 8001c48:	4698      	mov	r8, r3
 8001c4a:	e737      	b.n	8001abc <__aeabi_dmul+0x42c>
 8001c4c:	fffffc0d 	.word	0xfffffc0d
 8001c50:	000007ff 	.word	0x000007ff
 8001c54:	0000043e 	.word	0x0000043e
 8001c58:	0000041e 	.word	0x0000041e

08001c5c <__aeabi_dsub>:
 8001c5c:	b5f0      	push	{r4, r5, r6, r7, lr}
 8001c5e:	4657      	mov	r7, sl
 8001c60:	464e      	mov	r6, r9
 8001c62:	4645      	mov	r5, r8
 8001c64:	46de      	mov	lr, fp
 8001c66:	b5e0      	push	{r5, r6, r7, lr}
 8001c68:	b083      	sub	sp, #12
 8001c6a:	9000      	str	r0, [sp, #0]
 8001c6c:	9101      	str	r1, [sp, #4]
 8001c6e:	030c      	lsls	r4, r1, #12
 8001c70:	004d      	lsls	r5, r1, #1
 8001c72:	0fce      	lsrs	r6, r1, #31
 8001c74:	0a61      	lsrs	r1, r4, #9
 8001c76:	9c00      	ldr	r4, [sp, #0]
 8001c78:	005f      	lsls	r7, r3, #1
 8001c7a:	0f64      	lsrs	r4, r4, #29
 8001c7c:	430c      	orrs	r4, r1
 8001c7e:	9900      	ldr	r1, [sp, #0]
 8001c80:	9200      	str	r2, [sp, #0]
 8001c82:	9301      	str	r3, [sp, #4]
 8001c84:	00c8      	lsls	r0, r1, #3
 8001c86:	0319      	lsls	r1, r3, #12
 8001c88:	0d7b      	lsrs	r3, r7, #21
 8001c8a:	4699      	mov	r9, r3
 8001c8c:	9b01      	ldr	r3, [sp, #4]
 8001c8e:	4fcc      	ldr	r7, [pc, #816]	@ (8001fc0 <__aeabi_dsub+0x364>)
 8001c90:	0fdb      	lsrs	r3, r3, #31
 8001c92:	469c      	mov	ip, r3
 8001c94:	0a4b      	lsrs	r3, r1, #9
 8001c96:	9900      	ldr	r1, [sp, #0]
 8001c98:	4680      	mov	r8, r0
 8001c9a:	0f49      	lsrs	r1, r1, #29
 8001c9c:	4319      	orrs	r1, r3
 8001c9e:	9b00      	ldr	r3, [sp, #0]
 8001ca0:	468b      	mov	fp, r1
 8001ca2:	00da      	lsls	r2, r3, #3
 8001ca4:	4692      	mov	sl, r2
 8001ca6:	0d6d      	lsrs	r5, r5, #21
 8001ca8:	45b9      	cmp	r9, r7
 8001caa:	d100      	bne.n	8001cae <__aeabi_dsub+0x52>
 8001cac:	e0bf      	b.n	8001e2e <__aeabi_dsub+0x1d2>
 8001cae:	2301      	movs	r3, #1
 8001cb0:	4661      	mov	r1, ip
 8001cb2:	4059      	eors	r1, r3
 8001cb4:	464b      	mov	r3, r9
 8001cb6:	468c      	mov	ip, r1
 8001cb8:	1aeb      	subs	r3, r5, r3
 8001cba:	428e      	cmp	r6, r1
 8001cbc:	d075      	beq.n	8001daa <__aeabi_dsub+0x14e>
 8001cbe:	2b00      	cmp	r3, #0
 8001cc0:	dc00      	bgt.n	8001cc4 <__aeabi_dsub+0x68>
 8001cc2:	e2a3      	b.n	800220c <__aeabi_dsub+0x5b0>
 8001cc4:	4649      	mov	r1, r9
 8001cc6:	2900      	cmp	r1, #0
 8001cc8:	d100      	bne.n	8001ccc <__aeabi_dsub+0x70>
 8001cca:	e0ce      	b.n	8001e6a <__aeabi_dsub+0x20e>
 8001ccc:	42bd      	cmp	r5, r7
 8001cce:	d100      	bne.n	8001cd2 <__aeabi_dsub+0x76>
 8001cd0:	e200      	b.n	80020d4 <__aeabi_dsub+0x478>
 8001cd2:	2701      	movs	r7, #1
 8001cd4:	2b38      	cmp	r3, #56	@ 0x38
 8001cd6:	dc19      	bgt.n	8001d0c <__aeabi_dsub+0xb0>
 8001cd8:	2780      	movs	r7, #128	@ 0x80
 8001cda:	4659      	mov	r1, fp
 8001cdc:	043f      	lsls	r7, r7, #16
 8001cde:	4339      	orrs	r1, r7
 8001ce0:	468b      	mov	fp, r1
 8001ce2:	2b1f      	cmp	r3, #31
 8001ce4:	dd00      	ble.n	8001ce8 <__aeabi_dsub+0x8c>
 8001ce6:	e1fa      	b.n	80020de <__aeabi_dsub+0x482>
 8001ce8:	2720      	movs	r7, #32
 8001cea:	1af9      	subs	r1, r7, r3
 8001cec:	468c      	mov	ip, r1
 8001cee:	4659      	mov	r1, fp
 8001cf0:	4667      	mov	r7, ip
 8001cf2:	40b9      	lsls	r1, r7
 8001cf4:	000f      	movs	r7, r1
 8001cf6:	0011      	movs	r1, r2
 8001cf8:	40d9      	lsrs	r1, r3
 8001cfa:	430f      	orrs	r7, r1
 8001cfc:	4661      	mov	r1, ip
 8001cfe:	408a      	lsls	r2, r1
 8001d00:	1e51      	subs	r1, r2, #1
 8001d02:	418a      	sbcs	r2, r1
 8001d04:	4659      	mov	r1, fp
 8001d06:	40d9      	lsrs	r1, r3
 8001d08:	4317      	orrs	r7, r2
 8001d0a:	1a64      	subs	r4, r4, r1
 8001d0c:	1bc7      	subs	r7, r0, r7
 8001d0e:	42b8      	cmp	r0, r7
 8001d10:	4180      	sbcs	r0, r0
 8001d12:	4240      	negs	r0, r0
 8001d14:	1a24      	subs	r4, r4, r0
 8001d16:	0223      	lsls	r3, r4, #8
 8001d18:	d400      	bmi.n	8001d1c <__aeabi_dsub+0xc0>
 8001d1a:	e140      	b.n	8001f9e <__aeabi_dsub+0x342>
 8001d1c:	0264      	lsls	r4, r4, #9
 8001d1e:	0a64      	lsrs	r4, r4, #9
 8001d20:	2c00      	cmp	r4, #0
 8001d22:	d100      	bne.n	8001d26 <__aeabi_dsub+0xca>
 8001d24:	e154      	b.n	8001fd0 <__aeabi_dsub+0x374>
 8001d26:	0020      	movs	r0, r4
 8001d28:	f000 fc52 	bl	80025d0 <__clzsi2>
 8001d2c:	0003      	movs	r3, r0
 8001d2e:	3b08      	subs	r3, #8
 8001d30:	2120      	movs	r1, #32
 8001d32:	0038      	movs	r0, r7
 8001d34:	1aca      	subs	r2, r1, r3
 8001d36:	40d0      	lsrs	r0, r2
 8001d38:	409c      	lsls	r4, r3
 8001d3a:	0002      	movs	r2, r0
 8001d3c:	409f      	lsls	r7, r3
 8001d3e:	4322      	orrs	r2, r4
 8001d40:	429d      	cmp	r5, r3
 8001d42:	dd00      	ble.n	8001d46 <__aeabi_dsub+0xea>
 8001d44:	e1a6      	b.n	8002094 <__aeabi_dsub+0x438>
 8001d46:	1b58      	subs	r0, r3, r5
 8001d48:	3001      	adds	r0, #1
 8001d4a:	1a09      	subs	r1, r1, r0
 8001d4c:	003c      	movs	r4, r7
 8001d4e:	408f      	lsls	r7, r1
 8001d50:	40c4      	lsrs	r4, r0
 8001d52:	1e7b      	subs	r3, r7, #1
 8001d54:	419f      	sbcs	r7, r3
 8001d56:	0013      	movs	r3, r2
 8001d58:	408b      	lsls	r3, r1
 8001d5a:	4327      	orrs	r7, r4
 8001d5c:	431f      	orrs	r7, r3
 8001d5e:	40c2      	lsrs	r2, r0
 8001d60:	003b      	movs	r3, r7
 8001d62:	0014      	movs	r4, r2
 8001d64:	2500      	movs	r5, #0
 8001d66:	4313      	orrs	r3, r2
 8001d68:	d100      	bne.n	8001d6c <__aeabi_dsub+0x110>
 8001d6a:	e1f7      	b.n	800215c <__aeabi_dsub+0x500>
 8001d6c:	077b      	lsls	r3, r7, #29
 8001d6e:	d100      	bne.n	8001d72 <__aeabi_dsub+0x116>
 8001d70:	e377      	b.n	8002462 <__aeabi_dsub+0x806>
 8001d72:	230f      	movs	r3, #15
 8001d74:	0038      	movs	r0, r7
 8001d76:	403b      	ands	r3, r7
 8001d78:	2b04      	cmp	r3, #4
 8001d7a:	d004      	beq.n	8001d86 <__aeabi_dsub+0x12a>
 8001d7c:	1d38      	adds	r0, r7, #4
 8001d7e:	42b8      	cmp	r0, r7
 8001d80:	41bf      	sbcs	r7, r7
 8001d82:	427f      	negs	r7, r7
 8001d84:	19e4      	adds	r4, r4, r7
 8001d86:	0223      	lsls	r3, r4, #8
 8001d88:	d400      	bmi.n	8001d8c <__aeabi_dsub+0x130>
 8001d8a:	e368      	b.n	800245e <__aeabi_dsub+0x802>
 8001d8c:	4b8c      	ldr	r3, [pc, #560]	@ (8001fc0 <__aeabi_dsub+0x364>)
 8001d8e:	3501      	adds	r5, #1
 8001d90:	429d      	cmp	r5, r3
 8001d92:	d100      	bne.n	8001d96 <__aeabi_dsub+0x13a>
 8001d94:	e0f4      	b.n	8001f80 <__aeabi_dsub+0x324>
 8001d96:	4b8b      	ldr	r3, [pc, #556]	@ (8001fc4 <__aeabi_dsub+0x368>)
 8001d98:	056d      	lsls	r5, r5, #21
 8001d9a:	401c      	ands	r4, r3
 8001d9c:	0d6d      	lsrs	r5, r5, #21
 8001d9e:	0767      	lsls	r7, r4, #29
 8001da0:	08c0      	lsrs	r0, r0, #3
 8001da2:	0264      	lsls	r4, r4, #9
 8001da4:	4307      	orrs	r7, r0
 8001da6:	0b24      	lsrs	r4, r4, #12
 8001da8:	e0ec      	b.n	8001f84 <__aeabi_dsub+0x328>
 8001daa:	2b00      	cmp	r3, #0
 8001dac:	dc00      	bgt.n	8001db0 <__aeabi_dsub+0x154>
 8001dae:	e329      	b.n	8002404 <__aeabi_dsub+0x7a8>
 8001db0:	4649      	mov	r1, r9
 8001db2:	2900      	cmp	r1, #0
 8001db4:	d000      	beq.n	8001db8 <__aeabi_dsub+0x15c>
 8001db6:	e0d6      	b.n	8001f66 <__aeabi_dsub+0x30a>
 8001db8:	4659      	mov	r1, fp
 8001dba:	4311      	orrs	r1, r2
 8001dbc:	d100      	bne.n	8001dc0 <__aeabi_dsub+0x164>
 8001dbe:	e12e      	b.n	800201e <__aeabi_dsub+0x3c2>
 8001dc0:	1e59      	subs	r1, r3, #1
 8001dc2:	2b01      	cmp	r3, #1
 8001dc4:	d100      	bne.n	8001dc8 <__aeabi_dsub+0x16c>
 8001dc6:	e1e6      	b.n	8002196 <__aeabi_dsub+0x53a>
 8001dc8:	42bb      	cmp	r3, r7
 8001dca:	d100      	bne.n	8001dce <__aeabi_dsub+0x172>
 8001dcc:	e182      	b.n	80020d4 <__aeabi_dsub+0x478>
 8001dce:	2701      	movs	r7, #1
 8001dd0:	000b      	movs	r3, r1
 8001dd2:	2938      	cmp	r1, #56	@ 0x38
 8001dd4:	dc14      	bgt.n	8001e00 <__aeabi_dsub+0x1a4>
 8001dd6:	2b1f      	cmp	r3, #31
 8001dd8:	dd00      	ble.n	8001ddc <__aeabi_dsub+0x180>
 8001dda:	e23c      	b.n	8002256 <__aeabi_dsub+0x5fa>
 8001ddc:	2720      	movs	r7, #32
 8001dde:	1af9      	subs	r1, r7, r3
 8001de0:	468c      	mov	ip, r1
 8001de2:	4659      	mov	r1, fp
 8001de4:	4667      	mov	r7, ip
 8001de6:	40b9      	lsls	r1, r7
 8001de8:	000f      	movs	r7, r1
 8001dea:	0011      	movs	r1, r2
 8001dec:	40d9      	lsrs	r1, r3
 8001dee:	430f      	orrs	r7, r1
 8001df0:	4661      	mov	r1, ip
 8001df2:	408a      	lsls	r2, r1
 8001df4:	1e51      	subs	r1, r2, #1
 8001df6:	418a      	sbcs	r2, r1
 8001df8:	4659      	mov	r1, fp
 8001dfa:	40d9      	lsrs	r1, r3
 8001dfc:	4317      	orrs	r7, r2
 8001dfe:	1864      	adds	r4, r4, r1
 8001e00:	183f      	adds	r7, r7, r0
 8001e02:	4287      	cmp	r7, r0
 8001e04:	4180      	sbcs	r0, r0
 8001e06:	4240      	negs	r0, r0
 8001e08:	1824      	adds	r4, r4, r0
 8001e0a:	0223      	lsls	r3, r4, #8
 8001e0c:	d400      	bmi.n	8001e10 <__aeabi_dsub+0x1b4>
 8001e0e:	e0c6      	b.n	8001f9e <__aeabi_dsub+0x342>
 8001e10:	4b6b      	ldr	r3, [pc, #428]	@ (8001fc0 <__aeabi_dsub+0x364>)
 8001e12:	3501      	adds	r5, #1
 8001e14:	429d      	cmp	r5, r3
 8001e16:	d100      	bne.n	8001e1a <__aeabi_dsub+0x1be>
 8001e18:	e0b2      	b.n	8001f80 <__aeabi_dsub+0x324>
 8001e1a:	2101      	movs	r1, #1
 8001e1c:	4b69      	ldr	r3, [pc, #420]	@ (8001fc4 <__aeabi_dsub+0x368>)
 8001e1e:	087a      	lsrs	r2, r7, #1
 8001e20:	401c      	ands	r4, r3
 8001e22:	4039      	ands	r1, r7
 8001e24:	430a      	orrs	r2, r1
 8001e26:	07e7      	lsls	r7, r4, #31
 8001e28:	4317      	orrs	r7, r2
 8001e2a:	0864      	lsrs	r4, r4, #1
 8001e2c:	e79e      	b.n	8001d6c <__aeabi_dsub+0x110>
 8001e2e:	4b66      	ldr	r3, [pc, #408]	@ (8001fc8 <__aeabi_dsub+0x36c>)
 8001e30:	4311      	orrs	r1, r2
 8001e32:	468a      	mov	sl, r1
 8001e34:	18eb      	adds	r3, r5, r3
 8001e36:	2900      	cmp	r1, #0
 8001e38:	d028      	beq.n	8001e8c <__aeabi_dsub+0x230>
 8001e3a:	4566      	cmp	r6, ip
 8001e3c:	d02c      	beq.n	8001e98 <__aeabi_dsub+0x23c>
 8001e3e:	2b00      	cmp	r3, #0
 8001e40:	d05b      	beq.n	8001efa <__aeabi_dsub+0x29e>
 8001e42:	2d00      	cmp	r5, #0
 8001e44:	d100      	bne.n	8001e48 <__aeabi_dsub+0x1ec>
 8001e46:	e12c      	b.n	80020a2 <__aeabi_dsub+0x446>
 8001e48:	465b      	mov	r3, fp
 8001e4a:	4666      	mov	r6, ip
 8001e4c:	075f      	lsls	r7, r3, #29
 8001e4e:	08d2      	lsrs	r2, r2, #3
 8001e50:	4317      	orrs	r7, r2
 8001e52:	08dd      	lsrs	r5, r3, #3
 8001e54:	003b      	movs	r3, r7
 8001e56:	432b      	orrs	r3, r5
 8001e58:	d100      	bne.n	8001e5c <__aeabi_dsub+0x200>
 8001e5a:	e0e2      	b.n	8002022 <__aeabi_dsub+0x3c6>
 8001e5c:	2480      	movs	r4, #128	@ 0x80
 8001e5e:	0324      	lsls	r4, r4, #12
 8001e60:	432c      	orrs	r4, r5
 8001e62:	0324      	lsls	r4, r4, #12
 8001e64:	4d56      	ldr	r5, [pc, #344]	@ (8001fc0 <__aeabi_dsub+0x364>)
 8001e66:	0b24      	lsrs	r4, r4, #12
 8001e68:	e08c      	b.n	8001f84 <__aeabi_dsub+0x328>
 8001e6a:	4659      	mov	r1, fp
 8001e6c:	4311      	orrs	r1, r2
 8001e6e:	d100      	bne.n	8001e72 <__aeabi_dsub+0x216>
 8001e70:	e0d5      	b.n	800201e <__aeabi_dsub+0x3c2>
 8001e72:	1e59      	subs	r1, r3, #1
 8001e74:	2b01      	cmp	r3, #1
 8001e76:	d100      	bne.n	8001e7a <__aeabi_dsub+0x21e>
 8001e78:	e1b9      	b.n	80021ee <__aeabi_dsub+0x592>
 8001e7a:	42bb      	cmp	r3, r7
 8001e7c:	d100      	bne.n	8001e80 <__aeabi_dsub+0x224>
 8001e7e:	e1b1      	b.n	80021e4 <__aeabi_dsub+0x588>
 8001e80:	2701      	movs	r7, #1
 8001e82:	000b      	movs	r3, r1
 8001e84:	2938      	cmp	r1, #56	@ 0x38
 8001e86:	dd00      	ble.n	8001e8a <__aeabi_dsub+0x22e>
 8001e88:	e740      	b.n	8001d0c <__aeabi_dsub+0xb0>
 8001e8a:	e72a      	b.n	8001ce2 <__aeabi_dsub+0x86>
 8001e8c:	4661      	mov	r1, ip
 8001e8e:	2701      	movs	r7, #1
 8001e90:	4079      	eors	r1, r7
 8001e92:	468c      	mov	ip, r1
 8001e94:	4566      	cmp	r6, ip
 8001e96:	d1d2      	bne.n	8001e3e <__aeabi_dsub+0x1e2>
 8001e98:	2b00      	cmp	r3, #0
 8001e9a:	d100      	bne.n	8001e9e <__aeabi_dsub+0x242>
 8001e9c:	e0c5      	b.n	800202a <__aeabi_dsub+0x3ce>
 8001e9e:	2d00      	cmp	r5, #0
 8001ea0:	d000      	beq.n	8001ea4 <__aeabi_dsub+0x248>
 8001ea2:	e155      	b.n	8002150 <__aeabi_dsub+0x4f4>
 8001ea4:	464b      	mov	r3, r9
 8001ea6:	0025      	movs	r5, r4
 8001ea8:	4305      	orrs	r5, r0
 8001eaa:	d100      	bne.n	8001eae <__aeabi_dsub+0x252>
 8001eac:	e212      	b.n	80022d4 <__aeabi_dsub+0x678>
 8001eae:	1e59      	subs	r1, r3, #1
 8001eb0:	468c      	mov	ip, r1
 8001eb2:	2b01      	cmp	r3, #1
 8001eb4:	d100      	bne.n	8001eb8 <__aeabi_dsub+0x25c>
 8001eb6:	e249      	b.n	800234c <__aeabi_dsub+0x6f0>
 8001eb8:	4d41      	ldr	r5, [pc, #260]	@ (8001fc0 <__aeabi_dsub+0x364>)
 8001eba:	42ab      	cmp	r3, r5
 8001ebc:	d100      	bne.n	8001ec0 <__aeabi_dsub+0x264>
 8001ebe:	e28f      	b.n	80023e0 <__aeabi_dsub+0x784>
 8001ec0:	2701      	movs	r7, #1
 8001ec2:	2938      	cmp	r1, #56	@ 0x38
 8001ec4:	dc11      	bgt.n	8001eea <__aeabi_dsub+0x28e>
 8001ec6:	4663      	mov	r3, ip
 8001ec8:	2b1f      	cmp	r3, #31
 8001eca:	dd00      	ble.n	8001ece <__aeabi_dsub+0x272>
 8001ecc:	e25b      	b.n	8002386 <__aeabi_dsub+0x72a>
 8001ece:	4661      	mov	r1, ip
 8001ed0:	2320      	movs	r3, #32
 8001ed2:	0027      	movs	r7, r4
 8001ed4:	1a5b      	subs	r3, r3, r1
 8001ed6:	0005      	movs	r5, r0
 8001ed8:	4098      	lsls	r0, r3
 8001eda:	409f      	lsls	r7, r3
 8001edc:	40cd      	lsrs	r5, r1
 8001ede:	1e43      	subs	r3, r0, #1
 8001ee0:	4198      	sbcs	r0, r3
 8001ee2:	40cc      	lsrs	r4, r1
 8001ee4:	432f      	orrs	r7, r5
 8001ee6:	4307      	orrs	r7, r0
 8001ee8:	44a3      	add	fp, r4
 8001eea:	18bf      	adds	r7, r7, r2
 8001eec:	4297      	cmp	r7, r2
 8001eee:	4192      	sbcs	r2, r2
 8001ef0:	4252      	negs	r2, r2
 8001ef2:	445a      	add	r2, fp
 8001ef4:	0014      	movs	r4, r2
 8001ef6:	464d      	mov	r5, r9
 8001ef8:	e787      	b.n	8001e0a <__aeabi_dsub+0x1ae>
 8001efa:	4f34      	ldr	r7, [pc, #208]	@ (8001fcc <__aeabi_dsub+0x370>)
 8001efc:	1c6b      	adds	r3, r5, #1
 8001efe:	423b      	tst	r3, r7
 8001f00:	d000      	beq.n	8001f04 <__aeabi_dsub+0x2a8>
 8001f02:	e0b6      	b.n	8002072 <__aeabi_dsub+0x416>
 8001f04:	4659      	mov	r1, fp
 8001f06:	0023      	movs	r3, r4
 8001f08:	4311      	orrs	r1, r2
 8001f0a:	000f      	movs	r7, r1
 8001f0c:	4303      	orrs	r3, r0
 8001f0e:	2d00      	cmp	r5, #0
 8001f10:	d000      	beq.n	8001f14 <__aeabi_dsub+0x2b8>
 8001f12:	e126      	b.n	8002162 <__aeabi_dsub+0x506>
 8001f14:	2b00      	cmp	r3, #0
 8001f16:	d100      	bne.n	8001f1a <__aeabi_dsub+0x2be>
 8001f18:	e1c0      	b.n	800229c <__aeabi_dsub+0x640>
 8001f1a:	2900      	cmp	r1, #0
 8001f1c:	d100      	bne.n	8001f20 <__aeabi_dsub+0x2c4>
 8001f1e:	e0a1      	b.n	8002064 <__aeabi_dsub+0x408>
 8001f20:	1a83      	subs	r3, r0, r2
 8001f22:	4698      	mov	r8, r3
 8001f24:	465b      	mov	r3, fp
 8001f26:	4540      	cmp	r0, r8
 8001f28:	41ad      	sbcs	r5, r5
 8001f2a:	1ae3      	subs	r3, r4, r3
 8001f2c:	426d      	negs	r5, r5
 8001f2e:	1b5b      	subs	r3, r3, r5
 8001f30:	2580      	movs	r5, #128	@ 0x80
 8001f32:	042d      	lsls	r5, r5, #16
 8001f34:	422b      	tst	r3, r5
 8001f36:	d100      	bne.n	8001f3a <__aeabi_dsub+0x2de>
 8001f38:	e14b      	b.n	80021d2 <__aeabi_dsub+0x576>
 8001f3a:	465b      	mov	r3, fp
 8001f3c:	1a10      	subs	r0, r2, r0
 8001f3e:	4282      	cmp	r2, r0
 8001f40:	4192      	sbcs	r2, r2
 8001f42:	1b1c      	subs	r4, r3, r4
 8001f44:	0007      	movs	r7, r0
 8001f46:	2601      	movs	r6, #1
 8001f48:	4663      	mov	r3, ip
 8001f4a:	4252      	negs	r2, r2
 8001f4c:	1aa4      	subs	r4, r4, r2
 8001f4e:	4327      	orrs	r7, r4
 8001f50:	401e      	ands	r6, r3
 8001f52:	2f00      	cmp	r7, #0
 8001f54:	d100      	bne.n	8001f58 <__aeabi_dsub+0x2fc>
 8001f56:	e142      	b.n	80021de <__aeabi_dsub+0x582>
 8001f58:	422c      	tst	r4, r5
 8001f5a:	d100      	bne.n	8001f5e <__aeabi_dsub+0x302>
 8001f5c:	e26d      	b.n	800243a <__aeabi_dsub+0x7de>
 8001f5e:	4b19      	ldr	r3, [pc, #100]	@ (8001fc4 <__aeabi_dsub+0x368>)
 8001f60:	2501      	movs	r5, #1
 8001f62:	401c      	ands	r4, r3
 8001f64:	e71b      	b.n	8001d9e <__aeabi_dsub+0x142>
 8001f66:	42bd      	cmp	r5, r7
 8001f68:	d100      	bne.n	8001f6c <__aeabi_dsub+0x310>
 8001f6a:	e13b      	b.n	80021e4 <__aeabi_dsub+0x588>
 8001f6c:	2701      	movs	r7, #1
 8001f6e:	2b38      	cmp	r3, #56	@ 0x38
 8001f70:	dd00      	ble.n	8001f74 <__aeabi_dsub+0x318>
 8001f72:	e745      	b.n	8001e00 <__aeabi_dsub+0x1a4>
 8001f74:	2780      	movs	r7, #128	@ 0x80
 8001f76:	4659      	mov	r1, fp
 8001f78:	043f      	lsls	r7, r7, #16
 8001f7a:	4339      	orrs	r1, r7
 8001f7c:	468b      	mov	fp, r1
 8001f7e:	e72a      	b.n	8001dd6 <__aeabi_dsub+0x17a>
 8001f80:	2400      	movs	r4, #0
 8001f82:	2700      	movs	r7, #0
 8001f84:	052d      	lsls	r5, r5, #20
 8001f86:	4325      	orrs	r5, r4
 8001f88:	07f6      	lsls	r6, r6, #31
 8001f8a:	4335      	orrs	r5, r6
 8001f8c:	0038      	movs	r0, r7
 8001f8e:	0029      	movs	r1, r5
 8001f90:	b003      	add	sp, #12
 8001f92:	bcf0      	pop	{r4, r5, r6, r7}
 8001f94:	46bb      	mov	fp, r7
 8001f96:	46b2      	mov	sl, r6
 8001f98:	46a9      	mov	r9, r5
 8001f9a:	46a0      	mov	r8, r4
 8001f9c:	bdf0      	pop	{r4, r5, r6, r7, pc}
 8001f9e:	077b      	lsls	r3, r7, #29
 8001fa0:	d004      	beq.n	8001fac <__aeabi_dsub+0x350>
 8001fa2:	230f      	movs	r3, #15
 8001fa4:	403b      	ands	r3, r7
 8001fa6:	2b04      	cmp	r3, #4
 8001fa8:	d000      	beq.n	8001fac <__aeabi_dsub+0x350>
 8001faa:	e6e7      	b.n	8001d7c <__aeabi_dsub+0x120>
 8001fac:	002b      	movs	r3, r5
 8001fae:	08f8      	lsrs	r0, r7, #3
 8001fb0:	4a03      	ldr	r2, [pc, #12]	@ (8001fc0 <__aeabi_dsub+0x364>)
 8001fb2:	0767      	lsls	r7, r4, #29
 8001fb4:	4307      	orrs	r7, r0
 8001fb6:	08e5      	lsrs	r5, r4, #3
 8001fb8:	4293      	cmp	r3, r2
 8001fba:	d100      	bne.n	8001fbe <__aeabi_dsub+0x362>
 8001fbc:	e74a      	b.n	8001e54 <__aeabi_dsub+0x1f8>
 8001fbe:	e0a5      	b.n	800210c <__aeabi_dsub+0x4b0>
 8001fc0:	000007ff 	.word	0x000007ff
 8001fc4:	ff7fffff 	.word	0xff7fffff
 8001fc8:	fffff801 	.word	0xfffff801
 8001fcc:	000007fe 	.word	0x000007fe
 8001fd0:	0038      	movs	r0, r7
 8001fd2:	f000 fafd 	bl	80025d0 <__clzsi2>
 8001fd6:	0003      	movs	r3, r0
 8001fd8:	3318      	adds	r3, #24
 8001fda:	2b1f      	cmp	r3, #31
 8001fdc:	dc00      	bgt.n	8001fe0 <__aeabi_dsub+0x384>
 8001fde:	e6a7      	b.n	8001d30 <__aeabi_dsub+0xd4>
 8001fe0:	003a      	movs	r2, r7
 8001fe2:	3808      	subs	r0, #8
 8001fe4:	4082      	lsls	r2, r0
 8001fe6:	429d      	cmp	r5, r3
 8001fe8:	dd00      	ble.n	8001fec <__aeabi_dsub+0x390>
 8001fea:	e08a      	b.n	8002102 <__aeabi_dsub+0x4a6>
 8001fec:	1b5b      	subs	r3, r3, r5
 8001fee:	1c58      	adds	r0, r3, #1
 8001ff0:	281f      	cmp	r0, #31
 8001ff2:	dc00      	bgt.n	8001ff6 <__aeabi_dsub+0x39a>
 8001ff4:	e1d8      	b.n	80023a8 <__aeabi_dsub+0x74c>
 8001ff6:	0017      	movs	r7, r2
 8001ff8:	3b1f      	subs	r3, #31
 8001ffa:	40df      	lsrs	r7, r3
 8001ffc:	2820      	cmp	r0, #32
 8001ffe:	d005      	beq.n	800200c <__aeabi_dsub+0x3b0>
 8002000:	2340      	movs	r3, #64	@ 0x40
 8002002:	1a1b      	subs	r3, r3, r0
 8002004:	409a      	lsls	r2, r3
 8002006:	1e53      	subs	r3, r2, #1
 8002008:	419a      	sbcs	r2, r3
 800200a:	4317      	orrs	r7, r2
 800200c:	2500      	movs	r5, #0
 800200e:	2f00      	cmp	r7, #0
 8002010:	d100      	bne.n	8002014 <__aeabi_dsub+0x3b8>
 8002012:	e0e5      	b.n	80021e0 <__aeabi_dsub+0x584>
 8002014:	077b      	lsls	r3, r7, #29
 8002016:	d000      	beq.n	800201a <__aeabi_dsub+0x3be>
 8002018:	e6ab      	b.n	8001d72 <__aeabi_dsub+0x116>
 800201a:	002c      	movs	r4, r5
 800201c:	e7c6      	b.n	8001fac <__aeabi_dsub+0x350>
 800201e:	08c0      	lsrs	r0, r0, #3
 8002020:	e7c6      	b.n	8001fb0 <__aeabi_dsub+0x354>
 8002022:	2700      	movs	r7, #0
 8002024:	2400      	movs	r4, #0
 8002026:	4dd1      	ldr	r5, [pc, #836]	@ (800236c <__aeabi_dsub+0x710>)
 8002028:	e7ac      	b.n	8001f84 <__aeabi_dsub+0x328>
 800202a:	4fd1      	ldr	r7, [pc, #836]	@ (8002370 <__aeabi_dsub+0x714>)
 800202c:	1c6b      	adds	r3, r5, #1
 800202e:	423b      	tst	r3, r7
 8002030:	d171      	bne.n	8002116 <__aeabi_dsub+0x4ba>
 8002032:	0023      	movs	r3, r4
 8002034:	4303      	orrs	r3, r0
 8002036:	2d00      	cmp	r5, #0
 8002038:	d000      	beq.n	800203c <__aeabi_dsub+0x3e0>
 800203a:	e14e      	b.n	80022da <__aeabi_dsub+0x67e>
 800203c:	4657      	mov	r7, sl
 800203e:	2b00      	cmp	r3, #0
 8002040:	d100      	bne.n	8002044 <__aeabi_dsub+0x3e8>
 8002042:	e1b5      	b.n	80023b0 <__aeabi_dsub+0x754>
 8002044:	2f00      	cmp	r7, #0
 8002046:	d00d      	beq.n	8002064 <__aeabi_dsub+0x408>
 8002048:	1883      	adds	r3, r0, r2
 800204a:	4283      	cmp	r3, r0
 800204c:	4180      	sbcs	r0, r0
 800204e:	445c      	add	r4, fp
 8002050:	4240      	negs	r0, r0
 8002052:	1824      	adds	r4, r4, r0
 8002054:	0222      	lsls	r2, r4, #8
 8002056:	d500      	bpl.n	800205a <__aeabi_dsub+0x3fe>
 8002058:	e1c8      	b.n	80023ec <__aeabi_dsub+0x790>
 800205a:	001f      	movs	r7, r3
 800205c:	4698      	mov	r8, r3
 800205e:	4327      	orrs	r7, r4
 8002060:	d100      	bne.n	8002064 <__aeabi_dsub+0x408>
 8002062:	e0bc      	b.n	80021de <__aeabi_dsub+0x582>
 8002064:	4643      	mov	r3, r8
 8002066:	0767      	lsls	r7, r4, #29
 8002068:	08db      	lsrs	r3, r3, #3
 800206a:	431f      	orrs	r7, r3
 800206c:	08e5      	lsrs	r5, r4, #3
 800206e:	2300      	movs	r3, #0
 8002070:	e04c      	b.n	800210c <__aeabi_dsub+0x4b0>
 8002072:	1a83      	subs	r3, r0, r2
 8002074:	4698      	mov	r8, r3
 8002076:	465b      	mov	r3, fp
 8002078:	4540      	cmp	r0, r8
 800207a:	41bf      	sbcs	r7, r7
 800207c:	1ae3      	subs	r3, r4, r3
 800207e:	427f      	negs	r7, r7
 8002080:	1bdb      	subs	r3, r3, r7
 8002082:	021f      	lsls	r7, r3, #8
 8002084:	d47c      	bmi.n	8002180 <__aeabi_dsub+0x524>
 8002086:	4647      	mov	r7, r8
 8002088:	431f      	orrs	r7, r3
 800208a:	d100      	bne.n	800208e <__aeabi_dsub+0x432>
 800208c:	e0a6      	b.n	80021dc <__aeabi_dsub+0x580>
 800208e:	001c      	movs	r4, r3
 8002090:	4647      	mov	r7, r8
 8002092:	e645      	b.n	8001d20 <__aeabi_dsub+0xc4>
 8002094:	4cb7      	ldr	r4, [pc, #732]	@ (8002374 <__aeabi_dsub+0x718>)
 8002096:	1aed      	subs	r5, r5, r3
 8002098:	4014      	ands	r4, r2
 800209a:	077b      	lsls	r3, r7, #29
 800209c:	d000      	beq.n	80020a0 <__aeabi_dsub+0x444>
 800209e:	e780      	b.n	8001fa2 <__aeabi_dsub+0x346>
 80020a0:	e784      	b.n	8001fac <__aeabi_dsub+0x350>
 80020a2:	464b      	mov	r3, r9
 80020a4:	0025      	movs	r5, r4
 80020a6:	4305      	orrs	r5, r0
 80020a8:	d066      	beq.n	8002178 <__aeabi_dsub+0x51c>
 80020aa:	1e5f      	subs	r7, r3, #1
 80020ac:	2b01      	cmp	r3, #1
 80020ae:	d100      	bne.n	80020b2 <__aeabi_dsub+0x456>
 80020b0:	e0fc      	b.n	80022ac <__aeabi_dsub+0x650>
 80020b2:	4dae      	ldr	r5, [pc, #696]	@ (800236c <__aeabi_dsub+0x710>)
 80020b4:	42ab      	cmp	r3, r5
 80020b6:	d100      	bne.n	80020ba <__aeabi_dsub+0x45e>
 80020b8:	e15e      	b.n	8002378 <__aeabi_dsub+0x71c>
 80020ba:	4666      	mov	r6, ip
 80020bc:	2f38      	cmp	r7, #56	@ 0x38
 80020be:	dc00      	bgt.n	80020c2 <__aeabi_dsub+0x466>
 80020c0:	e0b4      	b.n	800222c <__aeabi_dsub+0x5d0>
 80020c2:	2001      	movs	r0, #1
 80020c4:	1a17      	subs	r7, r2, r0
 80020c6:	42ba      	cmp	r2, r7
 80020c8:	4192      	sbcs	r2, r2
 80020ca:	465b      	mov	r3, fp
 80020cc:	4252      	negs	r2, r2
 80020ce:	464d      	mov	r5, r9
 80020d0:	1a9c      	subs	r4, r3, r2
 80020d2:	e620      	b.n	8001d16 <__aeabi_dsub+0xba>
 80020d4:	0767      	lsls	r7, r4, #29
 80020d6:	08c0      	lsrs	r0, r0, #3
 80020d8:	4307      	orrs	r7, r0
 80020da:	08e5      	lsrs	r5, r4, #3
 80020dc:	e6ba      	b.n	8001e54 <__aeabi_dsub+0x1f8>
 80020de:	001f      	movs	r7, r3
 80020e0:	4659      	mov	r1, fp
 80020e2:	3f20      	subs	r7, #32
 80020e4:	40f9      	lsrs	r1, r7
 80020e6:	000f      	movs	r7, r1
 80020e8:	2b20      	cmp	r3, #32
 80020ea:	d005      	beq.n	80020f8 <__aeabi_dsub+0x49c>
 80020ec:	2140      	movs	r1, #64	@ 0x40
 80020ee:	1acb      	subs	r3, r1, r3
 80020f0:	4659      	mov	r1, fp
 80020f2:	4099      	lsls	r1, r3
 80020f4:	430a      	orrs	r2, r1
 80020f6:	4692      	mov	sl, r2
 80020f8:	4653      	mov	r3, sl
 80020fa:	1e5a      	subs	r2, r3, #1
 80020fc:	4193      	sbcs	r3, r2
 80020fe:	431f      	orrs	r7, r3
 8002100:	e604      	b.n	8001d0c <__aeabi_dsub+0xb0>
 8002102:	1aeb      	subs	r3, r5, r3
 8002104:	4d9b      	ldr	r5, [pc, #620]	@ (8002374 <__aeabi_dsub+0x718>)
 8002106:	4015      	ands	r5, r2
 8002108:	076f      	lsls	r7, r5, #29
 800210a:	08ed      	lsrs	r5, r5, #3
 800210c:	032c      	lsls	r4, r5, #12
 800210e:	055d      	lsls	r5, r3, #21
 8002110:	0b24      	lsrs	r4, r4, #12
 8002112:	0d6d      	lsrs	r5, r5, #21
 8002114:	e736      	b.n	8001f84 <__aeabi_dsub+0x328>
 8002116:	4d95      	ldr	r5, [pc, #596]	@ (800236c <__aeabi_dsub+0x710>)
 8002118:	42ab      	cmp	r3, r5
 800211a:	d100      	bne.n	800211e <__aeabi_dsub+0x4c2>
 800211c:	e0d6      	b.n	80022cc <__aeabi_dsub+0x670>
 800211e:	1882      	adds	r2, r0, r2
 8002120:	0021      	movs	r1, r4
 8002122:	4282      	cmp	r2, r0
 8002124:	4180      	sbcs	r0, r0
 8002126:	4459      	add	r1, fp
 8002128:	4240      	negs	r0, r0
 800212a:	1808      	adds	r0, r1, r0
 800212c:	07c7      	lsls	r7, r0, #31
 800212e:	0852      	lsrs	r2, r2, #1
 8002130:	4317      	orrs	r7, r2
 8002132:	0844      	lsrs	r4, r0, #1
 8002134:	0752      	lsls	r2, r2, #29
 8002136:	d400      	bmi.n	800213a <__aeabi_dsub+0x4de>
 8002138:	e185      	b.n	8002446 <__aeabi_dsub+0x7ea>
 800213a:	220f      	movs	r2, #15
 800213c:	001d      	movs	r5, r3
 800213e:	403a      	ands	r2, r7
 8002140:	2a04      	cmp	r2, #4
 8002142:	d000      	beq.n	8002146 <__aeabi_dsub+0x4ea>
 8002144:	e61a      	b.n	8001d7c <__aeabi_dsub+0x120>
 8002146:	08ff      	lsrs	r7, r7, #3
 8002148:	0764      	lsls	r4, r4, #29
 800214a:	4327      	orrs	r7, r4
 800214c:	0905      	lsrs	r5, r0, #4
 800214e:	e7dd      	b.n	800210c <__aeabi_dsub+0x4b0>
 8002150:	465b      	mov	r3, fp
 8002152:	08d2      	lsrs	r2, r2, #3
 8002154:	075f      	lsls	r7, r3, #29
 8002156:	4317      	orrs	r7, r2
 8002158:	08dd      	lsrs	r5, r3, #3
 800215a:	e67b      	b.n	8001e54 <__aeabi_dsub+0x1f8>
 800215c:	2700      	movs	r7, #0
 800215e:	2400      	movs	r4, #0
 8002160:	e710      	b.n	8001f84 <__aeabi_dsub+0x328>
 8002162:	2b00      	cmp	r3, #0
 8002164:	d000      	beq.n	8002168 <__aeabi_dsub+0x50c>
 8002166:	e0d6      	b.n	8002316 <__aeabi_dsub+0x6ba>
 8002168:	2900      	cmp	r1, #0
 800216a:	d000      	beq.n	800216e <__aeabi_dsub+0x512>
 800216c:	e12f      	b.n	80023ce <__aeabi_dsub+0x772>
 800216e:	2480      	movs	r4, #128	@ 0x80
 8002170:	2600      	movs	r6, #0
 8002172:	4d7e      	ldr	r5, [pc, #504]	@ (800236c <__aeabi_dsub+0x710>)
 8002174:	0324      	lsls	r4, r4, #12
 8002176:	e705      	b.n	8001f84 <__aeabi_dsub+0x328>
 8002178:	4666      	mov	r6, ip
 800217a:	465c      	mov	r4, fp
 800217c:	08d0      	lsrs	r0, r2, #3
 800217e:	e717      	b.n	8001fb0 <__aeabi_dsub+0x354>
 8002180:	465b      	mov	r3, fp
 8002182:	1a17      	subs	r7, r2, r0
 8002184:	42ba      	cmp	r2, r7
 8002186:	4192      	sbcs	r2, r2
 8002188:	1b1c      	subs	r4, r3, r4
 800218a:	2601      	movs	r6, #1
 800218c:	4663      	mov	r3, ip
 800218e:	4252      	negs	r2, r2
 8002190:	1aa4      	subs	r4, r4, r2
 8002192:	401e      	ands	r6, r3
 8002194:	e5c4      	b.n	8001d20 <__aeabi_dsub+0xc4>
 8002196:	1883      	adds	r3, r0, r2
 8002198:	4283      	cmp	r3, r0
 800219a:	4180      	sbcs	r0, r0
 800219c:	445c      	add	r4, fp
 800219e:	4240      	negs	r0, r0
 80021a0:	1825      	adds	r5, r4, r0
 80021a2:	022a      	lsls	r2, r5, #8
 80021a4:	d400      	bmi.n	80021a8 <__aeabi_dsub+0x54c>
 80021a6:	e0da      	b.n	800235e <__aeabi_dsub+0x702>
 80021a8:	4a72      	ldr	r2, [pc, #456]	@ (8002374 <__aeabi_dsub+0x718>)
 80021aa:	085b      	lsrs	r3, r3, #1
 80021ac:	4015      	ands	r5, r2
 80021ae:	07ea      	lsls	r2, r5, #31
 80021b0:	431a      	orrs	r2, r3
 80021b2:	0869      	lsrs	r1, r5, #1
 80021b4:	075b      	lsls	r3, r3, #29
 80021b6:	d400      	bmi.n	80021ba <__aeabi_dsub+0x55e>
 80021b8:	e14a      	b.n	8002450 <__aeabi_dsub+0x7f4>
 80021ba:	230f      	movs	r3, #15
 80021bc:	4013      	ands	r3, r2
 80021be:	2b04      	cmp	r3, #4
 80021c0:	d100      	bne.n	80021c4 <__aeabi_dsub+0x568>
 80021c2:	e0fc      	b.n	80023be <__aeabi_dsub+0x762>
 80021c4:	1d17      	adds	r7, r2, #4
 80021c6:	4297      	cmp	r7, r2
 80021c8:	41a4      	sbcs	r4, r4
 80021ca:	4264      	negs	r4, r4
 80021cc:	2502      	movs	r5, #2
 80021ce:	1864      	adds	r4, r4, r1
 80021d0:	e6ec      	b.n	8001fac <__aeabi_dsub+0x350>
 80021d2:	4647      	mov	r7, r8
 80021d4:	001c      	movs	r4, r3
 80021d6:	431f      	orrs	r7, r3
 80021d8:	d000      	beq.n	80021dc <__aeabi_dsub+0x580>
 80021da:	e743      	b.n	8002064 <__aeabi_dsub+0x408>
 80021dc:	2600      	movs	r6, #0
 80021de:	2500      	movs	r5, #0
 80021e0:	2400      	movs	r4, #0
 80021e2:	e6cf      	b.n	8001f84 <__aeabi_dsub+0x328>
 80021e4:	08c0      	lsrs	r0, r0, #3
 80021e6:	0767      	lsls	r7, r4, #29
 80021e8:	4307      	orrs	r7, r0
 80021ea:	08e5      	lsrs	r5, r4, #3
 80021ec:	e632      	b.n	8001e54 <__aeabi_dsub+0x1f8>
 80021ee:	1a87      	subs	r7, r0, r2
 80021f0:	465b      	mov	r3, fp
 80021f2:	42b8      	cmp	r0, r7
 80021f4:	4180      	sbcs	r0, r0
 80021f6:	1ae4      	subs	r4, r4, r3
 80021f8:	4240      	negs	r0, r0
 80021fa:	1a24      	subs	r4, r4, r0
 80021fc:	0223      	lsls	r3, r4, #8
 80021fe:	d428      	bmi.n	8002252 <__aeabi_dsub+0x5f6>
 8002200:	0763      	lsls	r3, r4, #29
 8002202:	08ff      	lsrs	r7, r7, #3
 8002204:	431f      	orrs	r7, r3
 8002206:	08e5      	lsrs	r5, r4, #3
 8002208:	2301      	movs	r3, #1
 800220a:	e77f      	b.n	800210c <__aeabi_dsub+0x4b0>
 800220c:	2b00      	cmp	r3, #0
 800220e:	d100      	bne.n	8002212 <__aeabi_dsub+0x5b6>
 8002210:	e673      	b.n	8001efa <__aeabi_dsub+0x29e>
 8002212:	464b      	mov	r3, r9
 8002214:	1b5f      	subs	r7, r3, r5
 8002216:	003b      	movs	r3, r7
 8002218:	2d00      	cmp	r5, #0
 800221a:	d100      	bne.n	800221e <__aeabi_dsub+0x5c2>
 800221c:	e742      	b.n	80020a4 <__aeabi_dsub+0x448>
 800221e:	2f38      	cmp	r7, #56	@ 0x38
 8002220:	dd00      	ble.n	8002224 <__aeabi_dsub+0x5c8>
 8002222:	e0ec      	b.n	80023fe <__aeabi_dsub+0x7a2>
 8002224:	2380      	movs	r3, #128	@ 0x80
 8002226:	000e      	movs	r6, r1
 8002228:	041b      	lsls	r3, r3, #16
 800222a:	431c      	orrs	r4, r3
 800222c:	2f1f      	cmp	r7, #31
 800222e:	dc25      	bgt.n	800227c <__aeabi_dsub+0x620>
 8002230:	2520      	movs	r5, #32
 8002232:	0023      	movs	r3, r4
 8002234:	1bed      	subs	r5, r5, r7
 8002236:	0001      	movs	r1, r0
 8002238:	40a8      	lsls	r0, r5
 800223a:	40ab      	lsls	r3, r5
 800223c:	40f9      	lsrs	r1, r7
 800223e:	1e45      	subs	r5, r0, #1
 8002240:	41a8      	sbcs	r0, r5
 8002242:	430b      	orrs	r3, r1
 8002244:	40fc      	lsrs	r4, r7
 8002246:	4318      	orrs	r0, r3
 8002248:	465b      	mov	r3, fp
 800224a:	1b1b      	subs	r3, r3, r4
 800224c:	469b      	mov	fp, r3
 800224e:	e739      	b.n	80020c4 <__aeabi_dsub+0x468>
 8002250:	4666      	mov	r6, ip
 8002252:	2501      	movs	r5, #1
 8002254:	e562      	b.n	8001d1c <__aeabi_dsub+0xc0>
 8002256:	001f      	movs	r7, r3
 8002258:	4659      	mov	r1, fp
 800225a:	3f20      	subs	r7, #32
 800225c:	40f9      	lsrs	r1, r7
 800225e:	468c      	mov	ip, r1
 8002260:	2b20      	cmp	r3, #32
 8002262:	d005      	beq.n	8002270 <__aeabi_dsub+0x614>
 8002264:	2740      	movs	r7, #64	@ 0x40
 8002266:	4659      	mov	r1, fp
 8002268:	1afb      	subs	r3, r7, r3
 800226a:	4099      	lsls	r1, r3
 800226c:	430a      	orrs	r2, r1
 800226e:	4692      	mov	sl, r2
 8002270:	4657      	mov	r7, sl
 8002272:	1e7b      	subs	r3, r7, #1
 8002274:	419f      	sbcs	r7, r3
 8002276:	4663      	mov	r3, ip
 8002278:	431f      	orrs	r7, r3
 800227a:	e5c1      	b.n	8001e00 <__aeabi_dsub+0x1a4>
 800227c:	003b      	movs	r3, r7
 800227e:	0025      	movs	r5, r4
 8002280:	3b20      	subs	r3, #32
 8002282:	40dd      	lsrs	r5, r3
 8002284:	2f20      	cmp	r7, #32
 8002286:	d004      	beq.n	8002292 <__aeabi_dsub+0x636>
 8002288:	2340      	movs	r3, #64	@ 0x40
 800228a:	1bdb      	subs	r3, r3, r7
 800228c:	409c      	lsls	r4, r3
 800228e:	4320      	orrs	r0, r4
 8002290:	4680      	mov	r8, r0
 8002292:	4640      	mov	r0, r8
 8002294:	1e43      	subs	r3, r0, #1
 8002296:	4198      	sbcs	r0, r3
 8002298:	4328      	orrs	r0, r5
 800229a:	e713      	b.n	80020c4 <__aeabi_dsub+0x468>
 800229c:	2900      	cmp	r1, #0
 800229e:	d09d      	beq.n	80021dc <__aeabi_dsub+0x580>
 80022a0:	2601      	movs	r6, #1
 80022a2:	4663      	mov	r3, ip
 80022a4:	465c      	mov	r4, fp
 80022a6:	4690      	mov	r8, r2
 80022a8:	401e      	ands	r6, r3
 80022aa:	e6db      	b.n	8002064 <__aeabi_dsub+0x408>
 80022ac:	1a17      	subs	r7, r2, r0
 80022ae:	465b      	mov	r3, fp
 80022b0:	42ba      	cmp	r2, r7
 80022b2:	4192      	sbcs	r2, r2
 80022b4:	1b1c      	subs	r4, r3, r4
 80022b6:	4252      	negs	r2, r2
 80022b8:	1aa4      	subs	r4, r4, r2
 80022ba:	0223      	lsls	r3, r4, #8
 80022bc:	d4c8      	bmi.n	8002250 <__aeabi_dsub+0x5f4>
 80022be:	0763      	lsls	r3, r4, #29
 80022c0:	08ff      	lsrs	r7, r7, #3
 80022c2:	431f      	orrs	r7, r3
 80022c4:	4666      	mov	r6, ip
 80022c6:	2301      	movs	r3, #1
 80022c8:	08e5      	lsrs	r5, r4, #3
 80022ca:	e71f      	b.n	800210c <__aeabi_dsub+0x4b0>
 80022cc:	001d      	movs	r5, r3
 80022ce:	2400      	movs	r4, #0
 80022d0:	2700      	movs	r7, #0
 80022d2:	e657      	b.n	8001f84 <__aeabi_dsub+0x328>
 80022d4:	465c      	mov	r4, fp
 80022d6:	08d0      	lsrs	r0, r2, #3
 80022d8:	e66a      	b.n	8001fb0 <__aeabi_dsub+0x354>
 80022da:	2b00      	cmp	r3, #0
 80022dc:	d100      	bne.n	80022e0 <__aeabi_dsub+0x684>
 80022de:	e737      	b.n	8002150 <__aeabi_dsub+0x4f4>
 80022e0:	4653      	mov	r3, sl
 80022e2:	08c0      	lsrs	r0, r0, #3
 80022e4:	0767      	lsls	r7, r4, #29
 80022e6:	4307      	orrs	r7, r0
 80022e8:	08e5      	lsrs	r5, r4, #3
 80022ea:	2b00      	cmp	r3, #0
 80022ec:	d100      	bne.n	80022f0 <__aeabi_dsub+0x694>
 80022ee:	e5b1      	b.n	8001e54 <__aeabi_dsub+0x1f8>
 80022f0:	2380      	movs	r3, #128	@ 0x80
 80022f2:	031b      	lsls	r3, r3, #12
 80022f4:	421d      	tst	r5, r3
 80022f6:	d008      	beq.n	800230a <__aeabi_dsub+0x6ae>
 80022f8:	4659      	mov	r1, fp
 80022fa:	08c8      	lsrs	r0, r1, #3
 80022fc:	4218      	tst	r0, r3
 80022fe:	d104      	bne.n	800230a <__aeabi_dsub+0x6ae>
 8002300:	08d2      	lsrs	r2, r2, #3
 8002302:	0749      	lsls	r1, r1, #29
 8002304:	430a      	orrs	r2, r1
 8002306:	0017      	movs	r7, r2
 8002308:	0005      	movs	r5, r0
 800230a:	0f7b      	lsrs	r3, r7, #29
 800230c:	00ff      	lsls	r7, r7, #3
 800230e:	08ff      	lsrs	r7, r7, #3
 8002310:	075b      	lsls	r3, r3, #29
 8002312:	431f      	orrs	r7, r3
 8002314:	e59e      	b.n	8001e54 <__aeabi_dsub+0x1f8>
 8002316:	08c0      	lsrs	r0, r0, #3
 8002318:	0763      	lsls	r3, r4, #29
 800231a:	4318      	orrs	r0, r3
 800231c:	08e5      	lsrs	r5, r4, #3
 800231e:	2900      	cmp	r1, #0
 8002320:	d053      	beq.n	80023ca <__aeabi_dsub+0x76e>
 8002322:	2380      	movs	r3, #128	@ 0x80
 8002324:	031b      	lsls	r3, r3, #12
 8002326:	421d      	tst	r5, r3
 8002328:	d00a      	beq.n	8002340 <__aeabi_dsub+0x6e4>
 800232a:	4659      	mov	r1, fp
 800232c:	08cc      	lsrs	r4, r1, #3
 800232e:	421c      	tst	r4, r3
 8002330:	d106      	bne.n	8002340 <__aeabi_dsub+0x6e4>
 8002332:	2601      	movs	r6, #1
 8002334:	4663      	mov	r3, ip
 8002336:	0025      	movs	r5, r4
 8002338:	08d0      	lsrs	r0, r2, #3
 800233a:	0749      	lsls	r1, r1, #29
 800233c:	4308      	orrs	r0, r1
 800233e:	401e      	ands	r6, r3
 8002340:	0f47      	lsrs	r7, r0, #29
 8002342:	00c0      	lsls	r0, r0, #3
 8002344:	08c0      	lsrs	r0, r0, #3
 8002346:	077f      	lsls	r7, r7, #29
 8002348:	4307      	orrs	r7, r0
 800234a:	e583      	b.n	8001e54 <__aeabi_dsub+0x1f8>
 800234c:	1883      	adds	r3, r0, r2
 800234e:	4293      	cmp	r3, r2
 8002350:	4192      	sbcs	r2, r2
 8002352:	445c      	add	r4, fp
 8002354:	4252      	negs	r2, r2
 8002356:	18a5      	adds	r5, r4, r2
 8002358:	022a      	lsls	r2, r5, #8
 800235a:	d500      	bpl.n	800235e <__aeabi_dsub+0x702>
 800235c:	e724      	b.n	80021a8 <__aeabi_dsub+0x54c>
 800235e:	076f      	lsls	r7, r5, #29
 8002360:	08db      	lsrs	r3, r3, #3
 8002362:	431f      	orrs	r7, r3
 8002364:	08ed      	lsrs	r5, r5, #3
 8002366:	2301      	movs	r3, #1
 8002368:	e6d0      	b.n	800210c <__aeabi_dsub+0x4b0>
 800236a:	46c0      	nop			@ (mov r8, r8)
 800236c:	000007ff 	.word	0x000007ff
 8002370:	000007fe 	.word	0x000007fe
 8002374:	ff7fffff 	.word	0xff7fffff
 8002378:	465b      	mov	r3, fp
 800237a:	08d2      	lsrs	r2, r2, #3
 800237c:	075f      	lsls	r7, r3, #29
 800237e:	4666      	mov	r6, ip
 8002380:	4317      	orrs	r7, r2
 8002382:	08dd      	lsrs	r5, r3, #3
 8002384:	e566      	b.n	8001e54 <__aeabi_dsub+0x1f8>
 8002386:	0025      	movs	r5, r4
 8002388:	3b20      	subs	r3, #32
 800238a:	40dd      	lsrs	r5, r3
 800238c:	4663      	mov	r3, ip
 800238e:	2b20      	cmp	r3, #32
 8002390:	d005      	beq.n	800239e <__aeabi_dsub+0x742>
 8002392:	2340      	movs	r3, #64	@ 0x40
 8002394:	4661      	mov	r1, ip
 8002396:	1a5b      	subs	r3, r3, r1
 8002398:	409c      	lsls	r4, r3
 800239a:	4320      	orrs	r0, r4
 800239c:	4680      	mov	r8, r0
 800239e:	4647      	mov	r7, r8
 80023a0:	1e7b      	subs	r3, r7, #1
 80023a2:	419f      	sbcs	r7, r3
 80023a4:	432f      	orrs	r7, r5
 80023a6:	e5a0      	b.n	8001eea <__aeabi_dsub+0x28e>
 80023a8:	2120      	movs	r1, #32
 80023aa:	2700      	movs	r7, #0
 80023ac:	1a09      	subs	r1, r1, r0
 80023ae:	e4d2      	b.n	8001d56 <__aeabi_dsub+0xfa>
 80023b0:	2f00      	cmp	r7, #0
 80023b2:	d100      	bne.n	80023b6 <__aeabi_dsub+0x75a>
 80023b4:	e713      	b.n	80021de <__aeabi_dsub+0x582>
 80023b6:	465c      	mov	r4, fp
 80023b8:	0017      	movs	r7, r2
 80023ba:	2500      	movs	r5, #0
 80023bc:	e5f6      	b.n	8001fac <__aeabi_dsub+0x350>
 80023be:	08d7      	lsrs	r7, r2, #3
 80023c0:	0749      	lsls	r1, r1, #29
 80023c2:	2302      	movs	r3, #2
 80023c4:	430f      	orrs	r7, r1
 80023c6:	092d      	lsrs	r5, r5, #4
 80023c8:	e6a0      	b.n	800210c <__aeabi_dsub+0x4b0>
 80023ca:	0007      	movs	r7, r0
 80023cc:	e542      	b.n	8001e54 <__aeabi_dsub+0x1f8>
 80023ce:	465b      	mov	r3, fp
 80023d0:	2601      	movs	r6, #1
 80023d2:	075f      	lsls	r7, r3, #29
 80023d4:	08dd      	lsrs	r5, r3, #3
 80023d6:	4663      	mov	r3, ip
 80023d8:	08d2      	lsrs	r2, r2, #3
 80023da:	4317      	orrs	r7, r2
 80023dc:	401e      	ands	r6, r3
 80023de:	e539      	b.n	8001e54 <__aeabi_dsub+0x1f8>
 80023e0:	465b      	mov	r3, fp
 80023e2:	08d2      	lsrs	r2, r2, #3
 80023e4:	075f      	lsls	r7, r3, #29
 80023e6:	4317      	orrs	r7, r2
 80023e8:	08dd      	lsrs	r5, r3, #3
 80023ea:	e533      	b.n	8001e54 <__aeabi_dsub+0x1f8>
 80023ec:	4a1e      	ldr	r2, [pc, #120]	@ (8002468 <__aeabi_dsub+0x80c>)
 80023ee:	08db      	lsrs	r3, r3, #3
 80023f0:	4022      	ands	r2, r4
 80023f2:	0757      	lsls	r7, r2, #29
 80023f4:	0252      	lsls	r2, r2, #9
 80023f6:	2501      	movs	r5, #1
 80023f8:	431f      	orrs	r7, r3
 80023fa:	0b14      	lsrs	r4, r2, #12
 80023fc:	e5c2      	b.n	8001f84 <__aeabi_dsub+0x328>
 80023fe:	000e      	movs	r6, r1
 8002400:	2001      	movs	r0, #1
 8002402:	e65f      	b.n	80020c4 <__aeabi_dsub+0x468>
 8002404:	2b00      	cmp	r3, #0
 8002406:	d00d      	beq.n	8002424 <__aeabi_dsub+0x7c8>
 8002408:	464b      	mov	r3, r9
 800240a:	1b5b      	subs	r3, r3, r5
 800240c:	469c      	mov	ip, r3
 800240e:	2d00      	cmp	r5, #0
 8002410:	d100      	bne.n	8002414 <__aeabi_dsub+0x7b8>
 8002412:	e548      	b.n	8001ea6 <__aeabi_dsub+0x24a>
 8002414:	2701      	movs	r7, #1
 8002416:	2b38      	cmp	r3, #56	@ 0x38
 8002418:	dd00      	ble.n	800241c <__aeabi_dsub+0x7c0>
 800241a:	e566      	b.n	8001eea <__aeabi_dsub+0x28e>
 800241c:	2380      	movs	r3, #128	@ 0x80
 800241e:	041b      	lsls	r3, r3, #16
 8002420:	431c      	orrs	r4, r3
 8002422:	e550      	b.n	8001ec6 <__aeabi_dsub+0x26a>
 8002424:	1c6b      	adds	r3, r5, #1
 8002426:	4d11      	ldr	r5, [pc, #68]	@ (800246c <__aeabi_dsub+0x810>)
 8002428:	422b      	tst	r3, r5
 800242a:	d000      	beq.n	800242e <__aeabi_dsub+0x7d2>
 800242c:	e673      	b.n	8002116 <__aeabi_dsub+0x4ba>
 800242e:	4659      	mov	r1, fp
 8002430:	0023      	movs	r3, r4
 8002432:	4311      	orrs	r1, r2
 8002434:	468a      	mov	sl, r1
 8002436:	4303      	orrs	r3, r0
 8002438:	e600      	b.n	800203c <__aeabi_dsub+0x3e0>
 800243a:	0767      	lsls	r7, r4, #29
 800243c:	08c0      	lsrs	r0, r0, #3
 800243e:	2300      	movs	r3, #0
 8002440:	4307      	orrs	r7, r0
 8002442:	08e5      	lsrs	r5, r4, #3
 8002444:	e662      	b.n	800210c <__aeabi_dsub+0x4b0>
 8002446:	0764      	lsls	r4, r4, #29
 8002448:	08ff      	lsrs	r7, r7, #3
 800244a:	4327      	orrs	r7, r4
 800244c:	0905      	lsrs	r5, r0, #4
 800244e:	e65d      	b.n	800210c <__aeabi_dsub+0x4b0>
 8002450:	08d2      	lsrs	r2, r2, #3
 8002452:	0749      	lsls	r1, r1, #29
 8002454:	4311      	orrs	r1, r2
 8002456:	000f      	movs	r7, r1
 8002458:	2302      	movs	r3, #2
 800245a:	092d      	lsrs	r5, r5, #4
 800245c:	e656      	b.n	800210c <__aeabi_dsub+0x4b0>
 800245e:	0007      	movs	r7, r0
 8002460:	e5a4      	b.n	8001fac <__aeabi_dsub+0x350>
 8002462:	0038      	movs	r0, r7
 8002464:	e48f      	b.n	8001d86 <__aeabi_dsub+0x12a>
 8002466:	46c0      	nop			@ (mov r8, r8)
 8002468:	ff7fffff 	.word	0xff7fffff
 800246c:	000007fe 	.word	0x000007fe

08002470 <__aeabi_dcmpun>:
 8002470:	b5f0      	push	{r4, r5, r6, r7, lr}
 8002472:	46c6      	mov	lr, r8
 8002474:	031e      	lsls	r6, r3, #12
 8002476:	0b36      	lsrs	r6, r6, #12
 8002478:	46b0      	mov	r8, r6
 800247a:	4e0d      	ldr	r6, [pc, #52]	@ (80024b0 <__aeabi_dcmpun+0x40>)
 800247c:	030c      	lsls	r4, r1, #12
 800247e:	004d      	lsls	r5, r1, #1
 8002480:	005f      	lsls	r7, r3, #1
 8002482:	b500      	push	{lr}
 8002484:	0b24      	lsrs	r4, r4, #12
 8002486:	0d6d      	lsrs	r5, r5, #21
 8002488:	0d7f      	lsrs	r7, r7, #21
 800248a:	42b5      	cmp	r5, r6
 800248c:	d00b      	beq.n	80024a6 <__aeabi_dcmpun+0x36>
 800248e:	4908      	ldr	r1, [pc, #32]	@ (80024b0 <__aeabi_dcmpun+0x40>)
 8002490:	2000      	movs	r0, #0
 8002492:	428f      	cmp	r7, r1
 8002494:	d104      	bne.n	80024a0 <__aeabi_dcmpun+0x30>
 8002496:	4646      	mov	r6, r8
 8002498:	4316      	orrs	r6, r2
 800249a:	0030      	movs	r0, r6
 800249c:	1e43      	subs	r3, r0, #1
 800249e:	4198      	sbcs	r0, r3
 80024a0:	bc80      	pop	{r7}
 80024a2:	46b8      	mov	r8, r7
 80024a4:	bdf0      	pop	{r4, r5, r6, r7, pc}
 80024a6:	4304      	orrs	r4, r0
 80024a8:	2001      	movs	r0, #1
 80024aa:	2c00      	cmp	r4, #0
 80024ac:	d1f8      	bne.n	80024a0 <__aeabi_dcmpun+0x30>
 80024ae:	e7ee      	b.n	800248e <__aeabi_dcmpun+0x1e>
 80024b0:	000007ff 	.word	0x000007ff

080024b4 <__aeabi_d2iz>:
 80024b4:	000b      	movs	r3, r1
 80024b6:	0002      	movs	r2, r0
 80024b8:	b570      	push	{r4, r5, r6, lr}
 80024ba:	4d16      	ldr	r5, [pc, #88]	@ (8002514 <__aeabi_d2iz+0x60>)
 80024bc:	030c      	lsls	r4, r1, #12
 80024be:	b082      	sub	sp, #8
 80024c0:	0049      	lsls	r1, r1, #1
 80024c2:	2000      	movs	r0, #0
 80024c4:	9200      	str	r2, [sp, #0]
 80024c6:	9301      	str	r3, [sp, #4]
 80024c8:	0b24      	lsrs	r4, r4, #12
 80024ca:	0d49      	lsrs	r1, r1, #21
 80024cc:	0fde      	lsrs	r6, r3, #31
 80024ce:	42a9      	cmp	r1, r5
 80024d0:	dd04      	ble.n	80024dc <__aeabi_d2iz+0x28>
 80024d2:	4811      	ldr	r0, [pc, #68]	@ (8002518 <__aeabi_d2iz+0x64>)
 80024d4:	4281      	cmp	r1, r0
 80024d6:	dd03      	ble.n	80024e0 <__aeabi_d2iz+0x2c>
 80024d8:	4b10      	ldr	r3, [pc, #64]	@ (800251c <__aeabi_d2iz+0x68>)
 80024da:	18f0      	adds	r0, r6, r3
 80024dc:	b002      	add	sp, #8
 80024de:	bd70      	pop	{r4, r5, r6, pc}
 80024e0:	2080      	movs	r0, #128	@ 0x80
 80024e2:	0340      	lsls	r0, r0, #13
 80024e4:	4320      	orrs	r0, r4
 80024e6:	4c0e      	ldr	r4, [pc, #56]	@ (8002520 <__aeabi_d2iz+0x6c>)
 80024e8:	1a64      	subs	r4, r4, r1
 80024ea:	2c1f      	cmp	r4, #31
 80024ec:	dd08      	ble.n	8002500 <__aeabi_d2iz+0x4c>
 80024ee:	4b0d      	ldr	r3, [pc, #52]	@ (8002524 <__aeabi_d2iz+0x70>)
 80024f0:	1a5b      	subs	r3, r3, r1
 80024f2:	40d8      	lsrs	r0, r3
 80024f4:	0003      	movs	r3, r0
 80024f6:	4258      	negs	r0, r3
 80024f8:	2e00      	cmp	r6, #0
 80024fa:	d1ef      	bne.n	80024dc <__aeabi_d2iz+0x28>
 80024fc:	0018      	movs	r0, r3
 80024fe:	e7ed      	b.n	80024dc <__aeabi_d2iz+0x28>
 8002500:	4b09      	ldr	r3, [pc, #36]	@ (8002528 <__aeabi_d2iz+0x74>)
 8002502:	9a00      	ldr	r2, [sp, #0]
 8002504:	469c      	mov	ip, r3
 8002506:	0003      	movs	r3, r0
 8002508:	4461      	add	r1, ip
 800250a:	408b      	lsls	r3, r1
 800250c:	40e2      	lsrs	r2, r4
 800250e:	4313      	orrs	r3, r2
 8002510:	e7f1      	b.n	80024f6 <__aeabi_d2iz+0x42>
 8002512:	46c0      	nop			@ (mov r8, r8)
 8002514:	000003fe 	.word	0x000003fe
 8002518:	0000041d 	.word	0x0000041d
 800251c:	7fffffff 	.word	0x7fffffff
 8002520:	00000433 	.word	0x00000433
 8002524:	00000413 	.word	0x00000413
 8002528:	fffffbed 	.word	0xfffffbed

0800252c <__aeabi_i2d>:
 800252c:	b570      	push	{r4, r5, r6, lr}
 800252e:	2800      	cmp	r0, #0
 8002530:	d016      	beq.n	8002560 <__aeabi_i2d+0x34>
 8002532:	17c3      	asrs	r3, r0, #31
 8002534:	18c5      	adds	r5, r0, r3
 8002536:	405d      	eors	r5, r3
 8002538:	0fc4      	lsrs	r4, r0, #31
 800253a:	0028      	movs	r0, r5
 800253c:	f000 f848 	bl	80025d0 <__clzsi2>
 8002540:	4b10      	ldr	r3, [pc, #64]	@ (8002584 <__aeabi_i2d+0x58>)
 8002542:	1a1b      	subs	r3, r3, r0
 8002544:	055b      	lsls	r3, r3, #21
 8002546:	0d5b      	lsrs	r3, r3, #21
 8002548:	280a      	cmp	r0, #10
 800254a:	dc14      	bgt.n	8002576 <__aeabi_i2d+0x4a>
 800254c:	0002      	movs	r2, r0
 800254e:	002e      	movs	r6, r5
 8002550:	3215      	adds	r2, #21
 8002552:	4096      	lsls	r6, r2
 8002554:	220b      	movs	r2, #11
 8002556:	1a12      	subs	r2, r2, r0
 8002558:	40d5      	lsrs	r5, r2
 800255a:	032d      	lsls	r5, r5, #12
 800255c:	0b2d      	lsrs	r5, r5, #12
 800255e:	e003      	b.n	8002568 <__aeabi_i2d+0x3c>
 8002560:	2400      	movs	r4, #0
 8002562:	2300      	movs	r3, #0
 8002564:	2500      	movs	r5, #0
 8002566:	2600      	movs	r6, #0
 8002568:	051b      	lsls	r3, r3, #20
 800256a:	432b      	orrs	r3, r5
 800256c:	07e4      	lsls	r4, r4, #31
 800256e:	4323      	orrs	r3, r4
 8002570:	0030      	movs	r0, r6
 8002572:	0019      	movs	r1, r3
 8002574:	bd70      	pop	{r4, r5, r6, pc}
 8002576:	380b      	subs	r0, #11
 8002578:	4085      	lsls	r5, r0
 800257a:	032d      	lsls	r5, r5, #12
 800257c:	2600      	movs	r6, #0
 800257e:	0b2d      	lsrs	r5, r5, #12
 8002580:	e7f2      	b.n	8002568 <__aeabi_i2d+0x3c>
 8002582:	46c0      	nop			@ (mov r8, r8)
 8002584:	0000041e 	.word	0x0000041e

08002588 <__aeabi_ui2d>:
 8002588:	b510      	push	{r4, lr}
 800258a:	1e04      	subs	r4, r0, #0
 800258c:	d010      	beq.n	80025b0 <__aeabi_ui2d+0x28>
 800258e:	f000 f81f 	bl	80025d0 <__clzsi2>
 8002592:	4b0e      	ldr	r3, [pc, #56]	@ (80025cc <__aeabi_ui2d+0x44>)
 8002594:	1a1b      	subs	r3, r3, r0
 8002596:	055b      	lsls	r3, r3, #21
 8002598:	0d5b      	lsrs	r3, r3, #21
 800259a:	280a      	cmp	r0, #10
 800259c:	dc0f      	bgt.n	80025be <__aeabi_ui2d+0x36>
 800259e:	220b      	movs	r2, #11
 80025a0:	0021      	movs	r1, r4
 80025a2:	1a12      	subs	r2, r2, r0
 80025a4:	40d1      	lsrs	r1, r2
 80025a6:	3015      	adds	r0, #21
 80025a8:	030a      	lsls	r2, r1, #12
 80025aa:	4084      	lsls	r4, r0
 80025ac:	0b12      	lsrs	r2, r2, #12
 80025ae:	e001      	b.n	80025b4 <__aeabi_ui2d+0x2c>
 80025b0:	2300      	movs	r3, #0
 80025b2:	2200      	movs	r2, #0
 80025b4:	051b      	lsls	r3, r3, #20
 80025b6:	4313      	orrs	r3, r2
 80025b8:	0020      	movs	r0, r4
 80025ba:	0019      	movs	r1, r3
 80025bc:	bd10      	pop	{r4, pc}
 80025be:	0022      	movs	r2, r4
 80025c0:	380b      	subs	r0, #11
 80025c2:	4082      	lsls	r2, r0
 80025c4:	0312      	lsls	r2, r2, #12
 80025c6:	2400      	movs	r4, #0
 80025c8:	0b12      	lsrs	r2, r2, #12
 80025ca:	e7f3      	b.n	80025b4 <__aeabi_ui2d+0x2c>
 80025cc:	0000041e 	.word	0x0000041e

080025d0 <__clzsi2>:
 80025d0:	211c      	movs	r1, #28
 80025d2:	2301      	movs	r3, #1
 80025d4:	041b      	lsls	r3, r3, #16
 80025d6:	4298      	cmp	r0, r3
 80025d8:	d301      	bcc.n	80025de <__clzsi2+0xe>
 80025da:	0c00      	lsrs	r0, r0, #16
 80025dc:	3910      	subs	r1, #16
 80025de:	0a1b      	lsrs	r3, r3, #8
 80025e0:	4298      	cmp	r0, r3
 80025e2:	d301      	bcc.n	80025e8 <__clzsi2+0x18>
 80025e4:	0a00      	lsrs	r0, r0, #8
 80025e6:	3908      	subs	r1, #8
 80025e8:	091b      	lsrs	r3, r3, #4
 80025ea:	4298      	cmp	r0, r3
 80025ec:	d301      	bcc.n	80025f2 <__clzsi2+0x22>
 80025ee:	0900      	lsrs	r0, r0, #4
 80025f0:	3904      	subs	r1, #4
 80025f2:	a202      	add	r2, pc, #8	@ (adr r2, 80025fc <__clzsi2+0x2c>)
 80025f4:	5c10      	ldrb	r0, [r2, r0]
 80025f6:	1840      	adds	r0, r0, r1
 80025f8:	4770      	bx	lr
 80025fa:	46c0      	nop			@ (mov r8, r8)
 80025fc:	02020304 	.word	0x02020304
 8002600:	01010101 	.word	0x01010101
	...

0800260c <__clzdi2>:
 800260c:	b510      	push	{r4, lr}
 800260e:	2900      	cmp	r1, #0
 8002610:	d103      	bne.n	800261a <__clzdi2+0xe>
 8002612:	f7ff ffdd 	bl	80025d0 <__clzsi2>
 8002616:	3020      	adds	r0, #32
 8002618:	e002      	b.n	8002620 <__clzdi2+0x14>
 800261a:	0008      	movs	r0, r1
 800261c:	f7ff ffd8 	bl	80025d0 <__clzsi2>
 8002620:	bd10      	pop	{r4, pc}
 8002622:	46c0      	nop			@ (mov r8, r8)

08002624 <fram_reload_address_words>:

/* =========================
 * Helper utilities
 * ========================= */
static void fram_reload_address_words(void)
{
 8002624:	b580      	push	{r7, lr}
 8002626:	b082      	sub	sp, #8
 8002628:	af00      	add	r7, sp, #0
    uint16_t first = 0xFFFFu;
 800262a:	1d3b      	adds	r3, r7, #4
 800262c:	2201      	movs	r2, #1
 800262e:	4252      	negs	r2, r2
 8002630:	801a      	strh	r2, [r3, #0]
    uint16_t last  = 0xFFFFu;
 8002632:	1cbb      	adds	r3, r7, #2
 8002634:	2201      	movs	r2, #1
 8002636:	4252      	negs	r2, r2
 8002638:	801a      	strh	r2, [r3, #0]

    (void)fram_read_u16(FRAM_WORD_FIRST_ADDR, &first);
 800263a:	1d3b      	adds	r3, r7, #4
 800263c:	0019      	movs	r1, r3
 800263e:	2000      	movs	r0, #0
 8002640:	f000 f980 	bl	8002944 <fram_read_u16>
    (void)fram_read_u16(FRAM_WORD_LAST_ADDR,  &last);
 8002644:	1cbb      	adds	r3, r7, #2
 8002646:	0019      	movs	r1, r3
 8002648:	2002      	movs	r0, #2
 800264a:	f000 f97b 	bl	8002944 <fram_read_u16>

    if (first == 0xFFFFu && last == 0xFFFFu)
 800264e:	1d3b      	adds	r3, r7, #4
 8002650:	881b      	ldrh	r3, [r3, #0]
 8002652:	4a24      	ldr	r2, [pc, #144]	@ (80026e4 <fram_reload_address_words+0xc0>)
 8002654:	4293      	cmp	r3, r2
 8002656:	d117      	bne.n	8002688 <fram_reload_address_words+0x64>
 8002658:	1cbb      	adds	r3, r7, #2
 800265a:	881b      	ldrh	r3, [r3, #0]
 800265c:	4a21      	ldr	r2, [pc, #132]	@ (80026e4 <fram_reload_address_words+0xc0>)
 800265e:	4293      	cmp	r3, r2
 8002660:	d112      	bne.n	8002688 <fram_reload_address_words+0x64>
    {
        g_first_addr = FRAM_DATA_START;
 8002662:	4b21      	ldr	r3, [pc, #132]	@ (80026e8 <fram_reload_address_words+0xc4>)
 8002664:	2204      	movs	r2, #4
 8002666:	801a      	strh	r2, [r3, #0]
        g_last_addr  = FRAM_DATA_START - 2u;
 8002668:	4b20      	ldr	r3, [pc, #128]	@ (80026ec <fram_reload_address_words+0xc8>)
 800266a:	2202      	movs	r2, #2
 800266c:	801a      	strh	r2, [r3, #0]
        (void)fram_write_u16(FRAM_WORD_FIRST_ADDR, g_first_addr);
 800266e:	4b1e      	ldr	r3, [pc, #120]	@ (80026e8 <fram_reload_address_words+0xc4>)
 8002670:	881b      	ldrh	r3, [r3, #0]
 8002672:	0019      	movs	r1, r3
 8002674:	2000      	movs	r0, #0
 8002676:	f000 f943 	bl	8002900 <fram_write_u16>
        (void)fram_write_u16(FRAM_WORD_LAST_ADDR,  g_last_addr);
 800267a:	4b1c      	ldr	r3, [pc, #112]	@ (80026ec <fram_reload_address_words+0xc8>)
 800267c:	881b      	ldrh	r3, [r3, #0]
 800267e:	0019      	movs	r1, r3
 8002680:	2002      	movs	r0, #2
 8002682:	f000 f93d 	bl	8002900 <fram_write_u16>
 8002686:	e029      	b.n	80026dc <fram_reload_address_words+0xb8>
        return;
    }

    if (first < FRAM_DATA_START || first > FRAM_MAX_ADDR)
 8002688:	1d3b      	adds	r3, r7, #4
 800268a:	881b      	ldrh	r3, [r3, #0]
 800268c:	2b03      	cmp	r3, #3
 800268e:	d905      	bls.n	800269c <fram_reload_address_words+0x78>
 8002690:	1d3b      	adds	r3, r7, #4
 8002692:	881a      	ldrh	r2, [r3, #0]
 8002694:	2380      	movs	r3, #128	@ 0x80
 8002696:	019b      	lsls	r3, r3, #6
 8002698:	429a      	cmp	r2, r3
 800269a:	d302      	bcc.n	80026a2 <fram_reload_address_words+0x7e>
    {
        first = FRAM_DATA_START;
 800269c:	1d3b      	adds	r3, r7, #4
 800269e:	2204      	movs	r2, #4
 80026a0:	801a      	strh	r2, [r3, #0]
    }

    uint16_t min_last = (uint16_t)(first - 2u);
 80026a2:	1d3b      	adds	r3, r7, #4
 80026a4:	881a      	ldrh	r2, [r3, #0]
 80026a6:	1dbb      	adds	r3, r7, #6
 80026a8:	3a02      	subs	r2, #2
 80026aa:	801a      	strh	r2, [r3, #0]
    if (last < min_last || last > FRAM_MAX_ADDR)
 80026ac:	1cbb      	adds	r3, r7, #2
 80026ae:	881b      	ldrh	r3, [r3, #0]
 80026b0:	1dba      	adds	r2, r7, #6
 80026b2:	8812      	ldrh	r2, [r2, #0]
 80026b4:	429a      	cmp	r2, r3
 80026b6:	d805      	bhi.n	80026c4 <fram_reload_address_words+0xa0>
 80026b8:	1cbb      	adds	r3, r7, #2
 80026ba:	881a      	ldrh	r2, [r3, #0]
 80026bc:	2380      	movs	r3, #128	@ 0x80
 80026be:	019b      	lsls	r3, r3, #6
 80026c0:	429a      	cmp	r2, r3
 80026c2:	d303      	bcc.n	80026cc <fram_reload_address_words+0xa8>
    {
        last = min_last;
 80026c4:	1cbb      	adds	r3, r7, #2
 80026c6:	1dba      	adds	r2, r7, #6
 80026c8:	8812      	ldrh	r2, [r2, #0]
 80026ca:	801a      	strh	r2, [r3, #0]
    }

    g_first_addr = first;
 80026cc:	1d3b      	adds	r3, r7, #4
 80026ce:	881a      	ldrh	r2, [r3, #0]
 80026d0:	4b05      	ldr	r3, [pc, #20]	@ (80026e8 <fram_reload_address_words+0xc4>)
 80026d2:	801a      	strh	r2, [r3, #0]
    g_last_addr  = last;
 80026d4:	1cbb      	adds	r3, r7, #2
 80026d6:	881a      	ldrh	r2, [r3, #0]
 80026d8:	4b04      	ldr	r3, [pc, #16]	@ (80026ec <fram_reload_address_words+0xc8>)
 80026da:	801a      	strh	r2, [r3, #0]
}
 80026dc:	46bd      	mov	sp, r7
 80026de:	b002      	add	sp, #8
 80026e0:	bd80      	pop	{r7, pc}
 80026e2:	46c0      	nop			@ (mov r8, r8)
 80026e4:	0000ffff 	.word	0x0000ffff
 80026e8:	20000000 	.word	0x20000000
 80026ec:	20000002 	.word	0x20000002

080026f0 <fram_wren>:

/* =========================
 * Low-level FRAM helpers
 * ========================= */
static HAL_StatusTypeDef fram_wren(void)
{
 80026f0:	b590      	push	{r4, r7, lr}
 80026f2:	b083      	sub	sp, #12
 80026f4:	af00      	add	r7, sp, #0
    uint8_t cmd = 0x06u; /* WREN */
 80026f6:	1dbb      	adds	r3, r7, #6
 80026f8:	2206      	movs	r2, #6
 80026fa:	701a      	strb	r2, [r3, #0]
    FRAM_CS_LOW();
 80026fc:	4b0d      	ldr	r3, [pc, #52]	@ (8002734 <fram_wren+0x44>)
 80026fe:	2200      	movs	r2, #0
 8002700:	2101      	movs	r1, #1
 8002702:	0018      	movs	r0, r3
 8002704:	f002 f8f4 	bl	80048f0 <HAL_GPIO_WritePin>
    HAL_StatusTypeDef st = HAL_SPI_Transmit(&hspi1, &cmd, 1, HAL_MAX_DELAY);
 8002708:	1dfc      	adds	r4, r7, #7
 800270a:	2301      	movs	r3, #1
 800270c:	425b      	negs	r3, r3
 800270e:	1db9      	adds	r1, r7, #6
 8002710:	4809      	ldr	r0, [pc, #36]	@ (8002738 <fram_wren+0x48>)
 8002712:	2201      	movs	r2, #1
 8002714:	f002 fc28 	bl	8004f68 <HAL_SPI_Transmit>
 8002718:	0003      	movs	r3, r0
 800271a:	7023      	strb	r3, [r4, #0]
    FRAM_CS_HIGH();
 800271c:	4b05      	ldr	r3, [pc, #20]	@ (8002734 <fram_wren+0x44>)
 800271e:	2201      	movs	r2, #1
 8002720:	2101      	movs	r1, #1
 8002722:	0018      	movs	r0, r3
 8002724:	f002 f8e4 	bl	80048f0 <HAL_GPIO_WritePin>
    return st;
 8002728:	1dfb      	adds	r3, r7, #7
 800272a:	781b      	ldrb	r3, [r3, #0]
}
 800272c:	0018      	movs	r0, r3
 800272e:	46bd      	mov	sp, r7
 8002730:	b003      	add	sp, #12
 8002732:	bd90      	pop	{r4, r7, pc}
 8002734:	50000400 	.word	0x50000400
 8002738:	200001f8 	.word	0x200001f8

0800273c <fram_read>:
    return sr;
}

/* FRAM API: raw read/write */
HAL_StatusTypeDef fram_read(uint16_t addr, uint8_t* buf, size_t len)
{
 800273c:	b5f0      	push	{r4, r5, r6, r7, lr}
 800273e:	b089      	sub	sp, #36	@ 0x24
 8002740:	af00      	add	r7, sp, #0
 8002742:	60b9      	str	r1, [r7, #8]
 8002744:	607a      	str	r2, [r7, #4]
 8002746:	230e      	movs	r3, #14
 8002748:	18fb      	adds	r3, r7, r3
 800274a:	1c02      	adds	r2, r0, #0
 800274c:	801a      	strh	r2, [r3, #0]
    if (buf == NULL || len == 0u)
 800274e:	68bb      	ldr	r3, [r7, #8]
 8002750:	2b00      	cmp	r3, #0
 8002752:	d002      	beq.n	800275a <fram_read+0x1e>
 8002754:	687b      	ldr	r3, [r7, #4]
 8002756:	2b00      	cmp	r3, #0
 8002758:	d101      	bne.n	800275e <fram_read+0x22>
    {
        return HAL_OK; /* nothing to do */
 800275a:	2300      	movs	r3, #0
 800275c:	e050      	b.n	8002800 <fram_read+0xc4>
    }

    if (addr > FRAM_MAX_ADDR)
 800275e:	230e      	movs	r3, #14
 8002760:	18fb      	adds	r3, r7, r3
 8002762:	881a      	ldrh	r2, [r3, #0]
 8002764:	2380      	movs	r3, #128	@ 0x80
 8002766:	019b      	lsls	r3, r3, #6
 8002768:	429a      	cmp	r2, r3
 800276a:	d301      	bcc.n	8002770 <fram_read+0x34>
    {
        return HAL_ERROR;
 800276c:	2301      	movs	r3, #1
 800276e:	e047      	b.n	8002800 <fram_read+0xc4>
    }

    /* Clamp length so we don't run past FRAM end */
    size_t maxLen = (size_t)(FRAM_BYTES - addr);
 8002770:	230e      	movs	r3, #14
 8002772:	18fb      	adds	r3, r7, r3
 8002774:	881b      	ldrh	r3, [r3, #0]
 8002776:	2280      	movs	r2, #128	@ 0x80
 8002778:	0192      	lsls	r2, r2, #6
 800277a:	1ad3      	subs	r3, r2, r3
 800277c:	61bb      	str	r3, [r7, #24]
    if (len > maxLen)
 800277e:	687a      	ldr	r2, [r7, #4]
 8002780:	69bb      	ldr	r3, [r7, #24]
 8002782:	429a      	cmp	r2, r3
 8002784:	d901      	bls.n	800278a <fram_read+0x4e>
    {
        len = maxLen;
 8002786:	69bb      	ldr	r3, [r7, #24]
 8002788:	607b      	str	r3, [r7, #4]
    }

    uint8_t hdr[3] = { 0x03u, (uint8_t)(addr >> 8), (uint8_t)addr }; /* READ opcode */
 800278a:	2114      	movs	r1, #20
 800278c:	187b      	adds	r3, r7, r1
 800278e:	2203      	movs	r2, #3
 8002790:	701a      	strb	r2, [r3, #0]
 8002792:	200e      	movs	r0, #14
 8002794:	183b      	adds	r3, r7, r0
 8002796:	881b      	ldrh	r3, [r3, #0]
 8002798:	0a1b      	lsrs	r3, r3, #8
 800279a:	b29b      	uxth	r3, r3
 800279c:	b2da      	uxtb	r2, r3
 800279e:	187b      	adds	r3, r7, r1
 80027a0:	705a      	strb	r2, [r3, #1]
 80027a2:	183b      	adds	r3, r7, r0
 80027a4:	881b      	ldrh	r3, [r3, #0]
 80027a6:	b2da      	uxtb	r2, r3
 80027a8:	000d      	movs	r5, r1
 80027aa:	187b      	adds	r3, r7, r1
 80027ac:	709a      	strb	r2, [r3, #2]
    FRAM_CS_LOW();
 80027ae:	4b16      	ldr	r3, [pc, #88]	@ (8002808 <fram_read+0xcc>)
 80027b0:	2200      	movs	r2, #0
 80027b2:	2101      	movs	r1, #1
 80027b4:	0018      	movs	r0, r3
 80027b6:	f002 f89b 	bl	80048f0 <HAL_GPIO_WritePin>
    HAL_StatusTypeDef st = HAL_SPI_Transmit(&hspi1, hdr, 3, HAL_MAX_DELAY);
 80027ba:	261f      	movs	r6, #31
 80027bc:	19bc      	adds	r4, r7, r6
 80027be:	2301      	movs	r3, #1
 80027c0:	425b      	negs	r3, r3
 80027c2:	1979      	adds	r1, r7, r5
 80027c4:	4811      	ldr	r0, [pc, #68]	@ (800280c <fram_read+0xd0>)
 80027c6:	2203      	movs	r2, #3
 80027c8:	f002 fbce 	bl	8004f68 <HAL_SPI_Transmit>
 80027cc:	0003      	movs	r3, r0
 80027ce:	7023      	strb	r3, [r4, #0]
    if (st == HAL_OK)
 80027d0:	19bb      	adds	r3, r7, r6
 80027d2:	781b      	ldrb	r3, [r3, #0]
 80027d4:	2b00      	cmp	r3, #0
 80027d6:	d10a      	bne.n	80027ee <fram_read+0xb2>
    {
        st = HAL_SPI_Receive(&hspi1, buf, len, HAL_MAX_DELAY);
 80027d8:	687b      	ldr	r3, [r7, #4]
 80027da:	b29a      	uxth	r2, r3
 80027dc:	19bc      	adds	r4, r7, r6
 80027de:	2301      	movs	r3, #1
 80027e0:	425b      	negs	r3, r3
 80027e2:	68b9      	ldr	r1, [r7, #8]
 80027e4:	4809      	ldr	r0, [pc, #36]	@ (800280c <fram_read+0xd0>)
 80027e6:	f002 fd1f 	bl	8005228 <HAL_SPI_Receive>
 80027ea:	0003      	movs	r3, r0
 80027ec:	7023      	strb	r3, [r4, #0]
    }
    FRAM_CS_HIGH();
 80027ee:	4b06      	ldr	r3, [pc, #24]	@ (8002808 <fram_read+0xcc>)
 80027f0:	2201      	movs	r2, #1
 80027f2:	2101      	movs	r1, #1
 80027f4:	0018      	movs	r0, r3
 80027f6:	f002 f87b 	bl	80048f0 <HAL_GPIO_WritePin>
    return st;
 80027fa:	231f      	movs	r3, #31
 80027fc:	18fb      	adds	r3, r7, r3
 80027fe:	781b      	ldrb	r3, [r3, #0]
}
 8002800:	0018      	movs	r0, r3
 8002802:	46bd      	mov	sp, r7
 8002804:	b009      	add	sp, #36	@ 0x24
 8002806:	bdf0      	pop	{r4, r5, r6, r7, pc}
 8002808:	50000400 	.word	0x50000400
 800280c:	200001f8 	.word	0x200001f8

08002810 <fram_write>:

HAL_StatusTypeDef fram_write(uint16_t addr, const uint8_t* buf, size_t len)
{
 8002810:	b5f0      	push	{r4, r5, r6, r7, lr}
 8002812:	b089      	sub	sp, #36	@ 0x24
 8002814:	af00      	add	r7, sp, #0
 8002816:	60b9      	str	r1, [r7, #8]
 8002818:	607a      	str	r2, [r7, #4]
 800281a:	230e      	movs	r3, #14
 800281c:	18fb      	adds	r3, r7, r3
 800281e:	1c02      	adds	r2, r0, #0
 8002820:	801a      	strh	r2, [r3, #0]
    if (buf == NULL || len == 0u)
 8002822:	68bb      	ldr	r3, [r7, #8]
 8002824:	2b00      	cmp	r3, #0
 8002826:	d002      	beq.n	800282e <fram_write+0x1e>
 8002828:	687b      	ldr	r3, [r7, #4]
 800282a:	2b00      	cmp	r3, #0
 800282c:	d101      	bne.n	8002832 <fram_write+0x22>
    {
        return HAL_OK; /* nothing to do */
 800282e:	2300      	movs	r3, #0
 8002830:	e05e      	b.n	80028f0 <fram_write+0xe0>
    }

    if (addr > FRAM_MAX_ADDR)
 8002832:	230e      	movs	r3, #14
 8002834:	18fb      	adds	r3, r7, r3
 8002836:	881a      	ldrh	r2, [r3, #0]
 8002838:	2380      	movs	r3, #128	@ 0x80
 800283a:	019b      	lsls	r3, r3, #6
 800283c:	429a      	cmp	r2, r3
 800283e:	d301      	bcc.n	8002844 <fram_write+0x34>
    {
        return HAL_ERROR;
 8002840:	2301      	movs	r3, #1
 8002842:	e055      	b.n	80028f0 <fram_write+0xe0>
    }

    /* Clamp length so we don't run past FRAM end */
    size_t maxLen = (size_t)(FRAM_BYTES - addr);
 8002844:	230e      	movs	r3, #14
 8002846:	18fb      	adds	r3, r7, r3
 8002848:	881b      	ldrh	r3, [r3, #0]
 800284a:	2280      	movs	r2, #128	@ 0x80
 800284c:	0192      	lsls	r2, r2, #6
 800284e:	1ad3      	subs	r3, r2, r3
 8002850:	61bb      	str	r3, [r7, #24]
    if (len > maxLen)
 8002852:	687a      	ldr	r2, [r7, #4]
 8002854:	69bb      	ldr	r3, [r7, #24]
 8002856:	429a      	cmp	r2, r3
 8002858:	d901      	bls.n	800285e <fram_write+0x4e>
    {
        len = maxLen;
 800285a:	69bb      	ldr	r3, [r7, #24]
 800285c:	607b      	str	r3, [r7, #4]
    }

    HAL_StatusTypeDef st = fram_wren();
 800285e:	251f      	movs	r5, #31
 8002860:	197c      	adds	r4, r7, r5
 8002862:	f7ff ff45 	bl	80026f0 <fram_wren>
 8002866:	0003      	movs	r3, r0
 8002868:	7023      	strb	r3, [r4, #0]
    if (st != HAL_OK) return st;
 800286a:	002a      	movs	r2, r5
 800286c:	18bb      	adds	r3, r7, r2
 800286e:	781b      	ldrb	r3, [r3, #0]
 8002870:	2b00      	cmp	r3, #0
 8002872:	d002      	beq.n	800287a <fram_write+0x6a>
 8002874:	18bb      	adds	r3, r7, r2
 8002876:	781b      	ldrb	r3, [r3, #0]
 8002878:	e03a      	b.n	80028f0 <fram_write+0xe0>

    uint8_t hdr[3] = { 0x02u, (uint8_t)(addr >> 8), (uint8_t)addr }; /* WRITE opcode */
 800287a:	2114      	movs	r1, #20
 800287c:	187b      	adds	r3, r7, r1
 800287e:	2202      	movs	r2, #2
 8002880:	701a      	strb	r2, [r3, #0]
 8002882:	200e      	movs	r0, #14
 8002884:	183b      	adds	r3, r7, r0
 8002886:	881b      	ldrh	r3, [r3, #0]
 8002888:	0a1b      	lsrs	r3, r3, #8
 800288a:	b29b      	uxth	r3, r3
 800288c:	b2da      	uxtb	r2, r3
 800288e:	187b      	adds	r3, r7, r1
 8002890:	705a      	strb	r2, [r3, #1]
 8002892:	183b      	adds	r3, r7, r0
 8002894:	881b      	ldrh	r3, [r3, #0]
 8002896:	b2da      	uxtb	r2, r3
 8002898:	000d      	movs	r5, r1
 800289a:	187b      	adds	r3, r7, r1
 800289c:	709a      	strb	r2, [r3, #2]
    FRAM_CS_LOW();
 800289e:	4b16      	ldr	r3, [pc, #88]	@ (80028f8 <fram_write+0xe8>)
 80028a0:	2200      	movs	r2, #0
 80028a2:	2101      	movs	r1, #1
 80028a4:	0018      	movs	r0, r3
 80028a6:	f002 f823 	bl	80048f0 <HAL_GPIO_WritePin>
    st = HAL_SPI_Transmit(&hspi1, hdr, 3, HAL_MAX_DELAY);
 80028aa:	261f      	movs	r6, #31
 80028ac:	19bc      	adds	r4, r7, r6
 80028ae:	2301      	movs	r3, #1
 80028b0:	425b      	negs	r3, r3
 80028b2:	1979      	adds	r1, r7, r5
 80028b4:	4811      	ldr	r0, [pc, #68]	@ (80028fc <fram_write+0xec>)
 80028b6:	2203      	movs	r2, #3
 80028b8:	f002 fb56 	bl	8004f68 <HAL_SPI_Transmit>
 80028bc:	0003      	movs	r3, r0
 80028be:	7023      	strb	r3, [r4, #0]
    if (st == HAL_OK)
 80028c0:	19bb      	adds	r3, r7, r6
 80028c2:	781b      	ldrb	r3, [r3, #0]
 80028c4:	2b00      	cmp	r3, #0
 80028c6:	d10a      	bne.n	80028de <fram_write+0xce>
    {
        st = HAL_SPI_Transmit(&hspi1, (uint8_t*)buf, len, HAL_MAX_DELAY);
 80028c8:	687b      	ldr	r3, [r7, #4]
 80028ca:	b29a      	uxth	r2, r3
 80028cc:	19bc      	adds	r4, r7, r6
 80028ce:	2301      	movs	r3, #1
 80028d0:	425b      	negs	r3, r3
 80028d2:	68b9      	ldr	r1, [r7, #8]
 80028d4:	4809      	ldr	r0, [pc, #36]	@ (80028fc <fram_write+0xec>)
 80028d6:	f002 fb47 	bl	8004f68 <HAL_SPI_Transmit>
 80028da:	0003      	movs	r3, r0
 80028dc:	7023      	strb	r3, [r4, #0]
    }
    FRAM_CS_HIGH();
 80028de:	4b06      	ldr	r3, [pc, #24]	@ (80028f8 <fram_write+0xe8>)
 80028e0:	2201      	movs	r2, #1
 80028e2:	2101      	movs	r1, #1
 80028e4:	0018      	movs	r0, r3
 80028e6:	f002 f803 	bl	80048f0 <HAL_GPIO_WritePin>
    return st;
 80028ea:	231f      	movs	r3, #31
 80028ec:	18fb      	adds	r3, r7, r3
 80028ee:	781b      	ldrb	r3, [r3, #0]
}
 80028f0:	0018      	movs	r0, r3
 80028f2:	46bd      	mov	sp, r7
 80028f4:	b009      	add	sp, #36	@ 0x24
 80028f6:	bdf0      	pop	{r4, r5, r6, r7, pc}
 80028f8:	50000400 	.word	0x50000400
 80028fc:	200001f8 	.word	0x200001f8

08002900 <fram_write_u16>:

/* 16-bit big-endian read/write of a word at 'a' */
static HAL_StatusTypeDef fram_write_u16(uint16_t a, uint16_t v)
{
 8002900:	b580      	push	{r7, lr}
 8002902:	b084      	sub	sp, #16
 8002904:	af00      	add	r7, sp, #0
 8002906:	0002      	movs	r2, r0
 8002908:	1dbb      	adds	r3, r7, #6
 800290a:	801a      	strh	r2, [r3, #0]
 800290c:	1d3b      	adds	r3, r7, #4
 800290e:	1c0a      	adds	r2, r1, #0
 8002910:	801a      	strh	r2, [r3, #0]
    uint8_t be[2] = { (uint8_t)(v >> 8), (uint8_t)(v & 0xFF) };
 8002912:	1d3b      	adds	r3, r7, #4
 8002914:	881b      	ldrh	r3, [r3, #0]
 8002916:	0a1b      	lsrs	r3, r3, #8
 8002918:	b29b      	uxth	r3, r3
 800291a:	b2da      	uxtb	r2, r3
 800291c:	210c      	movs	r1, #12
 800291e:	187b      	adds	r3, r7, r1
 8002920:	701a      	strb	r2, [r3, #0]
 8002922:	1d3b      	adds	r3, r7, #4
 8002924:	881b      	ldrh	r3, [r3, #0]
 8002926:	b2da      	uxtb	r2, r3
 8002928:	187b      	adds	r3, r7, r1
 800292a:	705a      	strb	r2, [r3, #1]
    return fram_write(a, be, 2);
 800292c:	1879      	adds	r1, r7, r1
 800292e:	1dbb      	adds	r3, r7, #6
 8002930:	881b      	ldrh	r3, [r3, #0]
 8002932:	2202      	movs	r2, #2
 8002934:	0018      	movs	r0, r3
 8002936:	f7ff ff6b 	bl	8002810 <fram_write>
 800293a:	0003      	movs	r3, r0
}
 800293c:	0018      	movs	r0, r3
 800293e:	46bd      	mov	sp, r7
 8002940:	b004      	add	sp, #16
 8002942:	bd80      	pop	{r7, pc}

08002944 <fram_read_u16>:

static HAL_StatusTypeDef fram_read_u16(uint16_t a, uint16_t* out)
{
 8002944:	b5f0      	push	{r4, r5, r6, r7, lr}
 8002946:	b085      	sub	sp, #20
 8002948:	af00      	add	r7, sp, #0
 800294a:	0002      	movs	r2, r0
 800294c:	6039      	str	r1, [r7, #0]
 800294e:	1dbb      	adds	r3, r7, #6
 8002950:	801a      	strh	r2, [r3, #0]
    uint8_t be[2] = {0,0};
 8002952:	250c      	movs	r5, #12
 8002954:	197b      	adds	r3, r7, r5
 8002956:	2200      	movs	r2, #0
 8002958:	801a      	strh	r2, [r3, #0]
    HAL_StatusTypeDef st = fram_read(a, be, 2);
 800295a:	260f      	movs	r6, #15
 800295c:	19bc      	adds	r4, r7, r6
 800295e:	1979      	adds	r1, r7, r5
 8002960:	1dbb      	adds	r3, r7, #6
 8002962:	881b      	ldrh	r3, [r3, #0]
 8002964:	2202      	movs	r2, #2
 8002966:	0018      	movs	r0, r3
 8002968:	f7ff fee8 	bl	800273c <fram_read>
 800296c:	0003      	movs	r3, r0
 800296e:	7023      	strb	r3, [r4, #0]
    if (st == HAL_OK && out)
 8002970:	19bb      	adds	r3, r7, r6
 8002972:	781b      	ldrb	r3, [r3, #0]
 8002974:	2b00      	cmp	r3, #0
 8002976:	d10f      	bne.n	8002998 <fram_read_u16+0x54>
 8002978:	683b      	ldr	r3, [r7, #0]
 800297a:	2b00      	cmp	r3, #0
 800297c:	d00c      	beq.n	8002998 <fram_read_u16+0x54>
    {
        *out = ((uint16_t)be[0] << 8) | be[1];
 800297e:	197b      	adds	r3, r7, r5
 8002980:	781b      	ldrb	r3, [r3, #0]
 8002982:	b21b      	sxth	r3, r3
 8002984:	021b      	lsls	r3, r3, #8
 8002986:	b21a      	sxth	r2, r3
 8002988:	197b      	adds	r3, r7, r5
 800298a:	785b      	ldrb	r3, [r3, #1]
 800298c:	b21b      	sxth	r3, r3
 800298e:	4313      	orrs	r3, r2
 8002990:	b21b      	sxth	r3, r3
 8002992:	b29a      	uxth	r2, r3
 8002994:	683b      	ldr	r3, [r7, #0]
 8002996:	801a      	strh	r2, [r3, #0]
    }
    return st;
 8002998:	230f      	movs	r3, #15
 800299a:	18fb      	adds	r3, r7, r3
 800299c:	781b      	ldrb	r3, [r3, #0]
}
 800299e:	0018      	movs	r0, r3
 80029a0:	46bd      	mov	sp, r7
 80029a2:	b005      	add	sp, #20
 80029a4:	bdf0      	pop	{r4, r5, r6, r7, pc}
	...

080029a8 <fram_init_state>:

/* returns 1 if the two address words look uninitialized (0xFFFF/0xFFFF or out of range) */
void fram_init_state(void)
{
 80029a8:	b580      	push	{r7, lr}
 80029aa:	af00      	add	r7, sp, #0
    g_logging_enabled = 0u;
 80029ac:	4b03      	ldr	r3, [pc, #12]	@ (80029bc <fram_init_state+0x14>)
 80029ae:	2200      	movs	r2, #0
 80029b0:	701a      	strb	r2, [r3, #0]
    fram_reload_address_words();
 80029b2:	f7ff fe37 	bl	8002624 <fram_reload_address_words>
}
 80029b6:	46c0      	nop			@ (mov r8, r8)
 80029b8:	46bd      	mov	sp, r7
 80029ba:	bd80      	pop	{r7, pc}
 80029bc:	200001f4 	.word	0x200001f4

080029c0 <fram_logging_enabled>:

/* =========================
 * Assignment commands
 * ========================= */
bool fram_logging_enabled(void)
{
 80029c0:	b580      	push	{r7, lr}
 80029c2:	af00      	add	r7, sp, #0
    return g_logging_enabled != 0u;
 80029c4:	4b04      	ldr	r3, [pc, #16]	@ (80029d8 <fram_logging_enabled+0x18>)
 80029c6:	781b      	ldrb	r3, [r3, #0]
 80029c8:	b2db      	uxtb	r3, r3
 80029ca:	1e5a      	subs	r2, r3, #1
 80029cc:	4193      	sbcs	r3, r2
 80029ce:	b2db      	uxtb	r3, r3
}
 80029d0:	0018      	movs	r0, r3
 80029d2:	46bd      	mov	sp, r7
 80029d4:	bd80      	pop	{r7, pc}
 80029d6:	46c0      	nop			@ (mov r8, r8)
 80029d8:	200001f4 	.word	0x200001f4

080029dc <fram_get_first_last>:

HAL_StatusTypeDef fram_get_first_last(uint16_t* first, uint16_t* last)
{
 80029dc:	b580      	push	{r7, lr}
 80029de:	b082      	sub	sp, #8
 80029e0:	af00      	add	r7, sp, #0
 80029e2:	6078      	str	r0, [r7, #4]
 80029e4:	6039      	str	r1, [r7, #0]
    if (first) *first = g_first_addr;
 80029e6:	687b      	ldr	r3, [r7, #4]
 80029e8:	2b00      	cmp	r3, #0
 80029ea:	d003      	beq.n	80029f4 <fram_get_first_last+0x18>
 80029ec:	4b07      	ldr	r3, [pc, #28]	@ (8002a0c <fram_get_first_last+0x30>)
 80029ee:	881a      	ldrh	r2, [r3, #0]
 80029f0:	687b      	ldr	r3, [r7, #4]
 80029f2:	801a      	strh	r2, [r3, #0]
    if (last)  *last  = g_last_addr;
 80029f4:	683b      	ldr	r3, [r7, #0]
 80029f6:	2b00      	cmp	r3, #0
 80029f8:	d003      	beq.n	8002a02 <fram_get_first_last+0x26>
 80029fa:	4b05      	ldr	r3, [pc, #20]	@ (8002a10 <fram_get_first_last+0x34>)
 80029fc:	881a      	ldrh	r2, [r3, #0]
 80029fe:	683b      	ldr	r3, [r7, #0]
 8002a00:	801a      	strh	r2, [r3, #0]
    return HAL_OK;
 8002a02:	2300      	movs	r3, #0
}
 8002a04:	0018      	movs	r0, r3
 8002a06:	46bd      	mov	sp, r7
 8002a08:	b002      	add	sp, #8
 8002a0a:	bd80      	pop	{r7, pc}
 8002a0c:	20000000 	.word	0x20000000
 8002a10:	20000002 	.word	0x20000002

08002a14 <fram_cmd_start>:

void fram_cmd_start(void)
{
 8002a14:	b580      	push	{r7, lr}
 8002a16:	af00      	add	r7, sp, #0
    fram_reload_address_words();
 8002a18:	f7ff fe04 	bl	8002624 <fram_reload_address_words>
    g_logging_enabled = 1u;
 8002a1c:	4b02      	ldr	r3, [pc, #8]	@ (8002a28 <fram_cmd_start+0x14>)
 8002a1e:	2201      	movs	r2, #1
 8002a20:	701a      	strb	r2, [r3, #0]
}
 8002a22:	46c0      	nop			@ (mov r8, r8)
 8002a24:	46bd      	mov	sp, r7
 8002a26:	bd80      	pop	{r7, pc}
 8002a28:	200001f4 	.word	0x200001f4

08002a2c <fram_cmd_stop>:

void fram_cmd_stop(void)
{
 8002a2c:	b580      	push	{r7, lr}
 8002a2e:	af00      	add	r7, sp, #0
    g_logging_enabled = 0u;
 8002a30:	4b02      	ldr	r3, [pc, #8]	@ (8002a3c <fram_cmd_stop+0x10>)
 8002a32:	2200      	movs	r2, #0
 8002a34:	701a      	strb	r2, [r3, #0]
}
 8002a36:	46c0      	nop			@ (mov r8, r8)
 8002a38:	46bd      	mov	sp, r7
 8002a3a:	bd80      	pop	{r7, pc}
 8002a3c:	200001f4 	.word	0x200001f4

08002a40 <fram_cmd_clear>:

void fram_cmd_clear(void)
{
 8002a40:	b590      	push	{r4, r7, lr}
 8002a42:	b08d      	sub	sp, #52	@ 0x34
 8002a44:	af00      	add	r7, sp, #0
    g_logging_enabled = 0u;
 8002a46:	4b22      	ldr	r3, [pc, #136]	@ (8002ad0 <fram_cmd_clear+0x90>)
 8002a48:	2200      	movs	r2, #0
 8002a4a:	701a      	strb	r2, [r3, #0]

    uint8_t blank[32];
    memset(blank, 0xFF, sizeof(blank));
 8002a4c:	1d3b      	adds	r3, r7, #4
 8002a4e:	2220      	movs	r2, #32
 8002a50:	21ff      	movs	r1, #255	@ 0xff
 8002a52:	0018      	movs	r0, r3
 8002a54:	f005 f866 	bl	8007b24 <memset>
    for (uint16_t addr = 0u; addr < FRAM_BYTES; addr = (uint16_t)(addr + (uint16_t)sizeof(blank)))
 8002a58:	232e      	movs	r3, #46	@ 0x2e
 8002a5a:	18fb      	adds	r3, r7, r3
 8002a5c:	2200      	movs	r2, #0
 8002a5e:	801a      	strh	r2, [r3, #0]
 8002a60:	e018      	b.n	8002a94 <fram_cmd_clear+0x54>
    {
        size_t remaining = (size_t)(FRAM_BYTES - addr);
 8002a62:	232e      	movs	r3, #46	@ 0x2e
 8002a64:	18fb      	adds	r3, r7, r3
 8002a66:	881b      	ldrh	r3, [r3, #0]
 8002a68:	2280      	movs	r2, #128	@ 0x80
 8002a6a:	0192      	lsls	r2, r2, #6
 8002a6c:	1ad3      	subs	r3, r2, r3
 8002a6e:	62bb      	str	r3, [r7, #40]	@ 0x28
        size_t chunk = remaining < sizeof(blank) ? remaining : sizeof(blank);
 8002a70:	6abb      	ldr	r3, [r7, #40]	@ 0x28
 8002a72:	2b20      	cmp	r3, #32
 8002a74:	d900      	bls.n	8002a78 <fram_cmd_clear+0x38>
 8002a76:	2320      	movs	r3, #32
 8002a78:	627b      	str	r3, [r7, #36]	@ 0x24
        (void)fram_write(addr, blank, chunk);
 8002a7a:	6a7a      	ldr	r2, [r7, #36]	@ 0x24
 8002a7c:	1d39      	adds	r1, r7, #4
 8002a7e:	242e      	movs	r4, #46	@ 0x2e
 8002a80:	193b      	adds	r3, r7, r4
 8002a82:	881b      	ldrh	r3, [r3, #0]
 8002a84:	0018      	movs	r0, r3
 8002a86:	f7ff fec3 	bl	8002810 <fram_write>
    for (uint16_t addr = 0u; addr < FRAM_BYTES; addr = (uint16_t)(addr + (uint16_t)sizeof(blank)))
 8002a8a:	193b      	adds	r3, r7, r4
 8002a8c:	193a      	adds	r2, r7, r4
 8002a8e:	8812      	ldrh	r2, [r2, #0]
 8002a90:	3220      	adds	r2, #32
 8002a92:	801a      	strh	r2, [r3, #0]
 8002a94:	232e      	movs	r3, #46	@ 0x2e
 8002a96:	18fb      	adds	r3, r7, r3
 8002a98:	881a      	ldrh	r2, [r3, #0]
 8002a9a:	2380      	movs	r3, #128	@ 0x80
 8002a9c:	019b      	lsls	r3, r3, #6
 8002a9e:	429a      	cmp	r2, r3
 8002aa0:	d3df      	bcc.n	8002a62 <fram_cmd_clear+0x22>
    }

    g_first_addr = FRAM_DATA_START;
 8002aa2:	4b0c      	ldr	r3, [pc, #48]	@ (8002ad4 <fram_cmd_clear+0x94>)
 8002aa4:	2204      	movs	r2, #4
 8002aa6:	801a      	strh	r2, [r3, #0]
    g_last_addr  = FRAM_DATA_START - 2u;
 8002aa8:	4b0b      	ldr	r3, [pc, #44]	@ (8002ad8 <fram_cmd_clear+0x98>)
 8002aaa:	2202      	movs	r2, #2
 8002aac:	801a      	strh	r2, [r3, #0]
    (void)fram_write_u16(FRAM_WORD_FIRST_ADDR, g_first_addr);
 8002aae:	4b09      	ldr	r3, [pc, #36]	@ (8002ad4 <fram_cmd_clear+0x94>)
 8002ab0:	881b      	ldrh	r3, [r3, #0]
 8002ab2:	0019      	movs	r1, r3
 8002ab4:	2000      	movs	r0, #0
 8002ab6:	f7ff ff23 	bl	8002900 <fram_write_u16>
    (void)fram_write_u16(FRAM_WORD_LAST_ADDR,  g_last_addr);
 8002aba:	4b07      	ldr	r3, [pc, #28]	@ (8002ad8 <fram_cmd_clear+0x98>)
 8002abc:	881b      	ldrh	r3, [r3, #0]
 8002abe:	0019      	movs	r1, r3
 8002ac0:	2002      	movs	r0, #2
 8002ac2:	f7ff ff1d 	bl	8002900 <fram_write_u16>
}
 8002ac6:	46c0      	nop			@ (mov r8, r8)
 8002ac8:	46bd      	mov	sp, r7
 8002aca:	b00d      	add	sp, #52	@ 0x34
 8002acc:	bd90      	pop	{r4, r7, pc}
 8002ace:	46c0      	nop			@ (mov r8, r8)
 8002ad0:	200001f4 	.word	0x200001f4
 8002ad4:	20000000 	.word	0x20000000
 8002ad8:	20000002 	.word	0x20000002

08002adc <fram_log_sample>:

/* Pass the raw 16-bit TMP102 reading here once per second */
HAL_StatusTypeDef fram_log_sample(uint16_t tmp102_raw)
{
 8002adc:	b5b0      	push	{r4, r5, r7, lr}
 8002ade:	b084      	sub	sp, #16
 8002ae0:	af00      	add	r7, sp, #0
 8002ae2:	0002      	movs	r2, r0
 8002ae4:	1dbb      	adds	r3, r7, #6
 8002ae6:	801a      	strh	r2, [r3, #0]
    if (!g_logging_enabled)
 8002ae8:	4b27      	ldr	r3, [pc, #156]	@ (8002b88 <fram_log_sample+0xac>)
 8002aea:	781b      	ldrb	r3, [r3, #0]
 8002aec:	b2db      	uxtb	r3, r3
 8002aee:	2b00      	cmp	r3, #0
 8002af0:	d101      	bne.n	8002af6 <fram_log_sample+0x1a>
    {
        return HAL_OK;
 8002af2:	2300      	movs	r3, #0
 8002af4:	e043      	b.n	8002b7e <fram_log_sample+0xa2>
    }

    uint16_t next = (uint16_t)(g_last_addr + 2u);
 8002af6:	4b25      	ldr	r3, [pc, #148]	@ (8002b8c <fram_log_sample+0xb0>)
 8002af8:	881a      	ldrh	r2, [r3, #0]
 8002afa:	210e      	movs	r1, #14
 8002afc:	187b      	adds	r3, r7, r1
 8002afe:	3202      	adds	r2, #2
 8002b00:	801a      	strh	r2, [r3, #0]
    if (next > (FRAM_MAX_ADDR - 1u))
 8002b02:	187b      	adds	r3, r7, r1
 8002b04:	881b      	ldrh	r3, [r3, #0]
 8002b06:	4a22      	ldr	r2, [pc, #136]	@ (8002b90 <fram_log_sample+0xb4>)
 8002b08:	4293      	cmp	r3, r2
 8002b0a:	d904      	bls.n	8002b16 <fram_log_sample+0x3a>
    {
        g_logging_enabled = 0u;
 8002b0c:	4b1e      	ldr	r3, [pc, #120]	@ (8002b88 <fram_log_sample+0xac>)
 8002b0e:	2200      	movs	r2, #0
 8002b10:	701a      	strb	r2, [r3, #0]
        return HAL_ERROR;
 8002b12:	2301      	movs	r3, #1
 8002b14:	e033      	b.n	8002b7e <fram_log_sample+0xa2>
    }

    HAL_StatusTypeDef st = fram_write_u16(next, tmp102_raw);
 8002b16:	250d      	movs	r5, #13
 8002b18:	197c      	adds	r4, r7, r5
 8002b1a:	1dbb      	adds	r3, r7, #6
 8002b1c:	881a      	ldrh	r2, [r3, #0]
 8002b1e:	230e      	movs	r3, #14
 8002b20:	18fb      	adds	r3, r7, r3
 8002b22:	881b      	ldrh	r3, [r3, #0]
 8002b24:	0011      	movs	r1, r2
 8002b26:	0018      	movs	r0, r3
 8002b28:	f7ff feea 	bl	8002900 <fram_write_u16>
 8002b2c:	0003      	movs	r3, r0
 8002b2e:	7023      	strb	r3, [r4, #0]
    if (st != HAL_OK)
 8002b30:	197b      	adds	r3, r7, r5
 8002b32:	781b      	ldrb	r3, [r3, #0]
 8002b34:	2b00      	cmp	r3, #0
 8002b36:	d005      	beq.n	8002b44 <fram_log_sample+0x68>
    {
        g_logging_enabled = 0u;
 8002b38:	4b13      	ldr	r3, [pc, #76]	@ (8002b88 <fram_log_sample+0xac>)
 8002b3a:	2200      	movs	r2, #0
 8002b3c:	701a      	strb	r2, [r3, #0]
        return st;
 8002b3e:	197b      	adds	r3, r7, r5
 8002b40:	781b      	ldrb	r3, [r3, #0]
 8002b42:	e01c      	b.n	8002b7e <fram_log_sample+0xa2>
    }

    if (g_last_addr < g_first_addr)
 8002b44:	4b11      	ldr	r3, [pc, #68]	@ (8002b8c <fram_log_sample+0xb0>)
 8002b46:	881a      	ldrh	r2, [r3, #0]
 8002b48:	4b12      	ldr	r3, [pc, #72]	@ (8002b94 <fram_log_sample+0xb8>)
 8002b4a:	881b      	ldrh	r3, [r3, #0]
 8002b4c:	429a      	cmp	r2, r3
 8002b4e:	d20a      	bcs.n	8002b66 <fram_log_sample+0x8a>
    {
        g_first_addr = next;
 8002b50:	4b10      	ldr	r3, [pc, #64]	@ (8002b94 <fram_log_sample+0xb8>)
 8002b52:	220e      	movs	r2, #14
 8002b54:	18ba      	adds	r2, r7, r2
 8002b56:	8812      	ldrh	r2, [r2, #0]
 8002b58:	801a      	strh	r2, [r3, #0]
        (void)fram_write_u16(FRAM_WORD_FIRST_ADDR, g_first_addr);
 8002b5a:	4b0e      	ldr	r3, [pc, #56]	@ (8002b94 <fram_log_sample+0xb8>)
 8002b5c:	881b      	ldrh	r3, [r3, #0]
 8002b5e:	0019      	movs	r1, r3
 8002b60:	2000      	movs	r0, #0
 8002b62:	f7ff fecd 	bl	8002900 <fram_write_u16>
    }

    g_last_addr = next;
 8002b66:	4b09      	ldr	r3, [pc, #36]	@ (8002b8c <fram_log_sample+0xb0>)
 8002b68:	220e      	movs	r2, #14
 8002b6a:	18ba      	adds	r2, r7, r2
 8002b6c:	8812      	ldrh	r2, [r2, #0]
 8002b6e:	801a      	strh	r2, [r3, #0]
    (void)fram_write_u16(FRAM_WORD_LAST_ADDR, g_last_addr);
 8002b70:	4b06      	ldr	r3, [pc, #24]	@ (8002b8c <fram_log_sample+0xb0>)
 8002b72:	881b      	ldrh	r3, [r3, #0]
 8002b74:	0019      	movs	r1, r3
 8002b76:	2002      	movs	r0, #2
 8002b78:	f7ff fec2 	bl	8002900 <fram_write_u16>
    return HAL_OK;
 8002b7c:	2300      	movs	r3, #0
}
 8002b7e:	0018      	movs	r0, r3
 8002b80:	46bd      	mov	sp, r7
 8002b82:	b004      	add	sp, #16
 8002b84:	bdb0      	pop	{r4, r5, r7, pc}
 8002b86:	46c0      	nop			@ (mov r8, r8)
 8002b88:	200001f4 	.word	0x200001f4
 8002b8c:	20000002 	.word	0x20000002
 8002b90:	00001ffe 	.word	0x00001ffe
 8002b94:	20000000 	.word	0x20000000

08002b98 <I2C1_Init_PB8PB9_100k_HSI16>:
#include <stdio.h>

/* ===== Low-level I2C1 (register-level, NO HAL handle) ===== */

void I2C1_Init_PB8PB9_100k_HSI16(void)
{
 8002b98:	b580      	push	{r7, lr}
 8002b9a:	af00      	add	r7, sp, #0
    RCC->IOPENR  |= RCC_IOPENR_GPIOBEN;
 8002b9c:	4b2d      	ldr	r3, [pc, #180]	@ (8002c54 <I2C1_Init_PB8PB9_100k_HSI16+0xbc>)
 8002b9e:	6b5a      	ldr	r2, [r3, #52]	@ 0x34
 8002ba0:	4b2c      	ldr	r3, [pc, #176]	@ (8002c54 <I2C1_Init_PB8PB9_100k_HSI16+0xbc>)
 8002ba2:	2102      	movs	r1, #2
 8002ba4:	430a      	orrs	r2, r1
 8002ba6:	635a      	str	r2, [r3, #52]	@ 0x34
    RCC->APBENR1 |= RCC_APBENR1_I2C1EN;
 8002ba8:	4b2a      	ldr	r3, [pc, #168]	@ (8002c54 <I2C1_Init_PB8PB9_100k_HSI16+0xbc>)
 8002baa:	6bda      	ldr	r2, [r3, #60]	@ 0x3c
 8002bac:	4b29      	ldr	r3, [pc, #164]	@ (8002c54 <I2C1_Init_PB8PB9_100k_HSI16+0xbc>)
 8002bae:	2180      	movs	r1, #128	@ 0x80
 8002bb0:	0389      	lsls	r1, r1, #14
 8002bb2:	430a      	orrs	r2, r1
 8002bb4:	63da      	str	r2, [r3, #60]	@ 0x3c

    /* PB8=SCL, PB9=SDA (AF6), open-drain, pull-ups, medium speed */
    GPIOB->MODER   &= ~((3u<<(8*2)) | (3u<<(9*2)));
 8002bb6:	4b28      	ldr	r3, [pc, #160]	@ (8002c58 <I2C1_Init_PB8PB9_100k_HSI16+0xc0>)
 8002bb8:	681a      	ldr	r2, [r3, #0]
 8002bba:	4b27      	ldr	r3, [pc, #156]	@ (8002c58 <I2C1_Init_PB8PB9_100k_HSI16+0xc0>)
 8002bbc:	4927      	ldr	r1, [pc, #156]	@ (8002c5c <I2C1_Init_PB8PB9_100k_HSI16+0xc4>)
 8002bbe:	400a      	ands	r2, r1
 8002bc0:	601a      	str	r2, [r3, #0]
    GPIOB->MODER   |=  ((2u<<(8*2)) | (2u<<(9*2)));
 8002bc2:	4b25      	ldr	r3, [pc, #148]	@ (8002c58 <I2C1_Init_PB8PB9_100k_HSI16+0xc0>)
 8002bc4:	681a      	ldr	r2, [r3, #0]
 8002bc6:	4b24      	ldr	r3, [pc, #144]	@ (8002c58 <I2C1_Init_PB8PB9_100k_HSI16+0xc0>)
 8002bc8:	21a0      	movs	r1, #160	@ 0xa0
 8002bca:	0309      	lsls	r1, r1, #12
 8002bcc:	430a      	orrs	r2, r1
 8002bce:	601a      	str	r2, [r3, #0]
    GPIOB->AFR[1]  &= ~((0xFu<<((8-8)*4)) | (0xFu<<((9-8)*4)));
 8002bd0:	4b21      	ldr	r3, [pc, #132]	@ (8002c58 <I2C1_Init_PB8PB9_100k_HSI16+0xc0>)
 8002bd2:	6a5a      	ldr	r2, [r3, #36]	@ 0x24
 8002bd4:	4b20      	ldr	r3, [pc, #128]	@ (8002c58 <I2C1_Init_PB8PB9_100k_HSI16+0xc0>)
 8002bd6:	21ff      	movs	r1, #255	@ 0xff
 8002bd8:	438a      	bics	r2, r1
 8002bda:	625a      	str	r2, [r3, #36]	@ 0x24
    GPIOB->AFR[1]  |=  ((6u<<((8-8)*4)) | (6u<<((9-8)*4)));
 8002bdc:	4b1e      	ldr	r3, [pc, #120]	@ (8002c58 <I2C1_Init_PB8PB9_100k_HSI16+0xc0>)
 8002bde:	6a5a      	ldr	r2, [r3, #36]	@ 0x24
 8002be0:	4b1d      	ldr	r3, [pc, #116]	@ (8002c58 <I2C1_Init_PB8PB9_100k_HSI16+0xc0>)
 8002be2:	2166      	movs	r1, #102	@ 0x66
 8002be4:	430a      	orrs	r2, r1
 8002be6:	625a      	str	r2, [r3, #36]	@ 0x24
    GPIOB->OTYPER  |=  (1u<<8) | (1u<<9);
 8002be8:	4b1b      	ldr	r3, [pc, #108]	@ (8002c58 <I2C1_Init_PB8PB9_100k_HSI16+0xc0>)
 8002bea:	685a      	ldr	r2, [r3, #4]
 8002bec:	4b1a      	ldr	r3, [pc, #104]	@ (8002c58 <I2C1_Init_PB8PB9_100k_HSI16+0xc0>)
 8002bee:	21c0      	movs	r1, #192	@ 0xc0
 8002bf0:	0089      	lsls	r1, r1, #2
 8002bf2:	430a      	orrs	r2, r1
 8002bf4:	605a      	str	r2, [r3, #4]
    GPIOB->PUPDR   &= ~((3u<<(8*2)) | (3u<<(9*2)));
 8002bf6:	4b18      	ldr	r3, [pc, #96]	@ (8002c58 <I2C1_Init_PB8PB9_100k_HSI16+0xc0>)
 8002bf8:	68da      	ldr	r2, [r3, #12]
 8002bfa:	4b17      	ldr	r3, [pc, #92]	@ (8002c58 <I2C1_Init_PB8PB9_100k_HSI16+0xc0>)
 8002bfc:	4917      	ldr	r1, [pc, #92]	@ (8002c5c <I2C1_Init_PB8PB9_100k_HSI16+0xc4>)
 8002bfe:	400a      	ands	r2, r1
 8002c00:	60da      	str	r2, [r3, #12]
    GPIOB->PUPDR   |=  ((1u<<(8*2)) | (1u<<(9*2)));
 8002c02:	4b15      	ldr	r3, [pc, #84]	@ (8002c58 <I2C1_Init_PB8PB9_100k_HSI16+0xc0>)
 8002c04:	68da      	ldr	r2, [r3, #12]
 8002c06:	4b14      	ldr	r3, [pc, #80]	@ (8002c58 <I2C1_Init_PB8PB9_100k_HSI16+0xc0>)
 8002c08:	21a0      	movs	r1, #160	@ 0xa0
 8002c0a:	02c9      	lsls	r1, r1, #11
 8002c0c:	430a      	orrs	r2, r1
 8002c0e:	60da      	str	r2, [r3, #12]
    GPIOB->OSPEEDR |=  ((1u<<(8*2)) | (1u<<(9*2)));
 8002c10:	4b11      	ldr	r3, [pc, #68]	@ (8002c58 <I2C1_Init_PB8PB9_100k_HSI16+0xc0>)
 8002c12:	689a      	ldr	r2, [r3, #8]
 8002c14:	4b10      	ldr	r3, [pc, #64]	@ (8002c58 <I2C1_Init_PB8PB9_100k_HSI16+0xc0>)
 8002c16:	21a0      	movs	r1, #160	@ 0xa0
 8002c18:	02c9      	lsls	r1, r1, #11
 8002c1a:	430a      	orrs	r2, r1
 8002c1c:	609a      	str	r2, [r3, #8]

    /* I2C1 kernel clock = HSI16 (stable) */
#if defined(RCC_CCIPR_I2C1SEL_Pos)
    RCC->CCIPR = (RCC->CCIPR & ~RCC_CCIPR_I2C1SEL_Msk) | (0x2u << RCC_CCIPR_I2C1SEL_Pos);
 8002c1e:	4b0d      	ldr	r3, [pc, #52]	@ (8002c54 <I2C1_Init_PB8PB9_100k_HSI16+0xbc>)
 8002c20:	6d5b      	ldr	r3, [r3, #84]	@ 0x54
 8002c22:	4a0f      	ldr	r2, [pc, #60]	@ (8002c60 <I2C1_Init_PB8PB9_100k_HSI16+0xc8>)
 8002c24:	401a      	ands	r2, r3
 8002c26:	4b0b      	ldr	r3, [pc, #44]	@ (8002c54 <I2C1_Init_PB8PB9_100k_HSI16+0xbc>)
 8002c28:	2180      	movs	r1, #128	@ 0x80
 8002c2a:	0189      	lsls	r1, r1, #6
 8002c2c:	430a      	orrs	r2, r1
 8002c2e:	655a      	str	r2, [r3, #84]	@ 0x54
#endif

    I2C1->CR1 &= ~I2C_CR1_PE;
 8002c30:	4b0c      	ldr	r3, [pc, #48]	@ (8002c64 <I2C1_Init_PB8PB9_100k_HSI16+0xcc>)
 8002c32:	681a      	ldr	r2, [r3, #0]
 8002c34:	4b0b      	ldr	r3, [pc, #44]	@ (8002c64 <I2C1_Init_PB8PB9_100k_HSI16+0xcc>)
 8002c36:	2101      	movs	r1, #1
 8002c38:	438a      	bics	r2, r1
 8002c3a:	601a      	str	r2, [r3, #0]
    /* Timing: 100 kHz @ 16 MHz kernel clock */
    I2C1->TIMINGR = 0x00503D58u;
 8002c3c:	4b09      	ldr	r3, [pc, #36]	@ (8002c64 <I2C1_Init_PB8PB9_100k_HSI16+0xcc>)
 8002c3e:	4a0a      	ldr	r2, [pc, #40]	@ (8002c68 <I2C1_Init_PB8PB9_100k_HSI16+0xd0>)
 8002c40:	611a      	str	r2, [r3, #16]
    I2C1->CR1 |= I2C_CR1_PE;
 8002c42:	4b08      	ldr	r3, [pc, #32]	@ (8002c64 <I2C1_Init_PB8PB9_100k_HSI16+0xcc>)
 8002c44:	681a      	ldr	r2, [r3, #0]
 8002c46:	4b07      	ldr	r3, [pc, #28]	@ (8002c64 <I2C1_Init_PB8PB9_100k_HSI16+0xcc>)
 8002c48:	2101      	movs	r1, #1
 8002c4a:	430a      	orrs	r2, r1
 8002c4c:	601a      	str	r2, [r3, #0]
}
 8002c4e:	46c0      	nop			@ (mov r8, r8)
 8002c50:	46bd      	mov	sp, r7
 8002c52:	bd80      	pop	{r7, pc}
 8002c54:	40021000 	.word	0x40021000
 8002c58:	50000400 	.word	0x50000400
 8002c5c:	fff0ffff 	.word	0xfff0ffff
 8002c60:	ffffcfff 	.word	0xffffcfff
 8002c64:	40005400 	.word	0x40005400
 8002c68:	00503d58 	.word	0x00503d58

08002c6c <wait_flag_set>:

/* Small bounded-spin helper */
static inline int wait_flag_set(volatile uint32_t *reg, uint32_t mask, uint32_t max_iter)
{
 8002c6c:	b580      	push	{r7, lr}
 8002c6e:	b084      	sub	sp, #16
 8002c70:	af00      	add	r7, sp, #0
 8002c72:	60f8      	str	r0, [r7, #12]
 8002c74:	60b9      	str	r1, [r7, #8]
 8002c76:	607a      	str	r2, [r7, #4]
    while (((*reg) & mask) == 0u) {
 8002c78:	e007      	b.n	8002c8a <wait_flag_set+0x1e>
        if (max_iter-- == 0u) return -1;
 8002c7a:	687b      	ldr	r3, [r7, #4]
 8002c7c:	1e5a      	subs	r2, r3, #1
 8002c7e:	607a      	str	r2, [r7, #4]
 8002c80:	2b00      	cmp	r3, #0
 8002c82:	d102      	bne.n	8002c8a <wait_flag_set+0x1e>
 8002c84:	2301      	movs	r3, #1
 8002c86:	425b      	negs	r3, r3
 8002c88:	e005      	b.n	8002c96 <wait_flag_set+0x2a>
    while (((*reg) & mask) == 0u) {
 8002c8a:	68fb      	ldr	r3, [r7, #12]
 8002c8c:	681b      	ldr	r3, [r3, #0]
 8002c8e:	68ba      	ldr	r2, [r7, #8]
 8002c90:	4013      	ands	r3, r2
 8002c92:	d0f2      	beq.n	8002c7a <wait_flag_set+0xe>
    }
    return 0;
 8002c94:	2300      	movs	r3, #0
}
 8002c96:	0018      	movs	r0, r3
 8002c98:	46bd      	mov	sp, r7
 8002c9a:	b004      	add	sp, #16
 8002c9c:	bd80      	pop	{r7, pc}

08002c9e <wait_flag_clr>:
static inline int wait_flag_clr(volatile uint32_t *reg, uint32_t mask, uint32_t max_iter)
{
 8002c9e:	b580      	push	{r7, lr}
 8002ca0:	b084      	sub	sp, #16
 8002ca2:	af00      	add	r7, sp, #0
 8002ca4:	60f8      	str	r0, [r7, #12]
 8002ca6:	60b9      	str	r1, [r7, #8]
 8002ca8:	607a      	str	r2, [r7, #4]
    while (((*reg) & mask) != 0u) {
 8002caa:	e007      	b.n	8002cbc <wait_flag_clr+0x1e>
        if (max_iter-- == 0u) return -1;
 8002cac:	687b      	ldr	r3, [r7, #4]
 8002cae:	1e5a      	subs	r2, r3, #1
 8002cb0:	607a      	str	r2, [r7, #4]
 8002cb2:	2b00      	cmp	r3, #0
 8002cb4:	d102      	bne.n	8002cbc <wait_flag_clr+0x1e>
 8002cb6:	2301      	movs	r3, #1
 8002cb8:	425b      	negs	r3, r3
 8002cba:	e005      	b.n	8002cc8 <wait_flag_clr+0x2a>
    while (((*reg) & mask) != 0u) {
 8002cbc:	68fb      	ldr	r3, [r7, #12]
 8002cbe:	681b      	ldr	r3, [r3, #0]
 8002cc0:	68ba      	ldr	r2, [r7, #8]
 8002cc2:	4013      	ands	r3, r2
 8002cc4:	d1f2      	bne.n	8002cac <wait_flag_clr+0xe>
    }
    return 0;
 8002cc6:	2300      	movs	r3, #0
}
 8002cc8:	0018      	movs	r0, r3
 8002cca:	46bd      	mov	sp, r7
 8002ccc:	b004      	add	sp, #16
 8002cce:	bd80      	pop	{r7, pc}

08002cd0 <I2C1_MemRead>:

#define I2C_SPIN  200000u

int I2C1_MemRead(uint8_t addr7, uint8_t reg, uint8_t *buf, uint32_t len)
{
 8002cd0:	b580      	push	{r7, lr}
 8002cd2:	b086      	sub	sp, #24
 8002cd4:	af00      	add	r7, sp, #0
 8002cd6:	60ba      	str	r2, [r7, #8]
 8002cd8:	607b      	str	r3, [r7, #4]
 8002cda:	230f      	movs	r3, #15
 8002cdc:	18fb      	adds	r3, r7, r3
 8002cde:	1c02      	adds	r2, r0, #0
 8002ce0:	701a      	strb	r2, [r3, #0]
 8002ce2:	230e      	movs	r3, #14
 8002ce4:	18fb      	adds	r3, r7, r3
 8002ce6:	1c0a      	adds	r2, r1, #0
 8002ce8:	701a      	strb	r2, [r3, #0]
    if (!len || !buf) return -1;
 8002cea:	687b      	ldr	r3, [r7, #4]
 8002cec:	2b00      	cmp	r3, #0
 8002cee:	d002      	beq.n	8002cf6 <I2C1_MemRead+0x26>
 8002cf0:	68bb      	ldr	r3, [r7, #8]
 8002cf2:	2b00      	cmp	r3, #0
 8002cf4:	d102      	bne.n	8002cfc <I2C1_MemRead+0x2c>
 8002cf6:	2301      	movs	r3, #1
 8002cf8:	425b      	negs	r3, r3
 8002cfa:	e072      	b.n	8002de2 <I2C1_MemRead+0x112>
    if (wait_flag_clr(&I2C1->ISR, I2C_ISR_BUSY, I2C_SPIN)) return -10;
 8002cfc:	4a3b      	ldr	r2, [pc, #236]	@ (8002dec <I2C1_MemRead+0x11c>)
 8002cfe:	2380      	movs	r3, #128	@ 0x80
 8002d00:	021b      	lsls	r3, r3, #8
 8002d02:	483b      	ldr	r0, [pc, #236]	@ (8002df0 <I2C1_MemRead+0x120>)
 8002d04:	0019      	movs	r1, r3
 8002d06:	f7ff ffca 	bl	8002c9e <wait_flag_clr>
 8002d0a:	1e03      	subs	r3, r0, #0
 8002d0c:	d002      	beq.n	8002d14 <I2C1_MemRead+0x44>
 8002d0e:	230a      	movs	r3, #10
 8002d10:	425b      	negs	r3, r3
 8002d12:	e066      	b.n	8002de2 <I2C1_MemRead+0x112>

    /* Write register address */
    I2C1->CR2 = ((uint32_t)addr7 << 1) | (1u << 16); /* NBYTES=1 */
 8002d14:	230f      	movs	r3, #15
 8002d16:	18fb      	adds	r3, r7, r3
 8002d18:	781b      	ldrb	r3, [r3, #0]
 8002d1a:	005a      	lsls	r2, r3, #1
 8002d1c:	4b35      	ldr	r3, [pc, #212]	@ (8002df4 <I2C1_MemRead+0x124>)
 8002d1e:	2180      	movs	r1, #128	@ 0x80
 8002d20:	0249      	lsls	r1, r1, #9
 8002d22:	430a      	orrs	r2, r1
 8002d24:	605a      	str	r2, [r3, #4]
    I2C1->CR2 &= ~I2C_CR2_RD_WRN;
 8002d26:	4b33      	ldr	r3, [pc, #204]	@ (8002df4 <I2C1_MemRead+0x124>)
 8002d28:	685a      	ldr	r2, [r3, #4]
 8002d2a:	4b32      	ldr	r3, [pc, #200]	@ (8002df4 <I2C1_MemRead+0x124>)
 8002d2c:	4932      	ldr	r1, [pc, #200]	@ (8002df8 <I2C1_MemRead+0x128>)
 8002d2e:	400a      	ands	r2, r1
 8002d30:	605a      	str	r2, [r3, #4]
    I2C1->CR2 |=  I2C_CR2_START;
 8002d32:	4b30      	ldr	r3, [pc, #192]	@ (8002df4 <I2C1_MemRead+0x124>)
 8002d34:	685a      	ldr	r2, [r3, #4]
 8002d36:	4b2f      	ldr	r3, [pc, #188]	@ (8002df4 <I2C1_MemRead+0x124>)
 8002d38:	2180      	movs	r1, #128	@ 0x80
 8002d3a:	0189      	lsls	r1, r1, #6
 8002d3c:	430a      	orrs	r2, r1
 8002d3e:	605a      	str	r2, [r3, #4]
    if (wait_flag_set(&I2C1->ISR, I2C_ISR_TXIS, I2C_SPIN)) return -11;
 8002d40:	4a2a      	ldr	r2, [pc, #168]	@ (8002dec <I2C1_MemRead+0x11c>)
 8002d42:	4b2b      	ldr	r3, [pc, #172]	@ (8002df0 <I2C1_MemRead+0x120>)
 8002d44:	2102      	movs	r1, #2
 8002d46:	0018      	movs	r0, r3
 8002d48:	f7ff ff90 	bl	8002c6c <wait_flag_set>
 8002d4c:	1e03      	subs	r3, r0, #0
 8002d4e:	d002      	beq.n	8002d56 <I2C1_MemRead+0x86>
 8002d50:	230b      	movs	r3, #11
 8002d52:	425b      	negs	r3, r3
 8002d54:	e045      	b.n	8002de2 <I2C1_MemRead+0x112>
    I2C1->TXDR = reg;
 8002d56:	4b27      	ldr	r3, [pc, #156]	@ (8002df4 <I2C1_MemRead+0x124>)
 8002d58:	220e      	movs	r2, #14
 8002d5a:	18ba      	adds	r2, r7, r2
 8002d5c:	7812      	ldrb	r2, [r2, #0]
 8002d5e:	629a      	str	r2, [r3, #40]	@ 0x28
    if (wait_flag_set(&I2C1->ISR, I2C_ISR_TC, I2C_SPIN))   return -12;
 8002d60:	4a22      	ldr	r2, [pc, #136]	@ (8002dec <I2C1_MemRead+0x11c>)
 8002d62:	4b23      	ldr	r3, [pc, #140]	@ (8002df0 <I2C1_MemRead+0x120>)
 8002d64:	2140      	movs	r1, #64	@ 0x40
 8002d66:	0018      	movs	r0, r3
 8002d68:	f7ff ff80 	bl	8002c6c <wait_flag_set>
 8002d6c:	1e03      	subs	r3, r0, #0
 8002d6e:	d002      	beq.n	8002d76 <I2C1_MemRead+0xa6>
 8002d70:	230c      	movs	r3, #12
 8002d72:	425b      	negs	r3, r3
 8002d74:	e035      	b.n	8002de2 <I2C1_MemRead+0x112>

    /* Read N bytes */
    I2C1->CR2 = ((uint32_t)addr7 << 1) | (len << 16) | I2C_CR2_RD_WRN | I2C_CR2_START | I2C_CR2_AUTOEND;
 8002d76:	230f      	movs	r3, #15
 8002d78:	18fb      	adds	r3, r7, r3
 8002d7a:	781b      	ldrb	r3, [r3, #0]
 8002d7c:	005a      	lsls	r2, r3, #1
 8002d7e:	687b      	ldr	r3, [r7, #4]
 8002d80:	041b      	lsls	r3, r3, #16
 8002d82:	431a      	orrs	r2, r3
 8002d84:	4b1b      	ldr	r3, [pc, #108]	@ (8002df4 <I2C1_MemRead+0x124>)
 8002d86:	491d      	ldr	r1, [pc, #116]	@ (8002dfc <I2C1_MemRead+0x12c>)
 8002d88:	430a      	orrs	r2, r1
 8002d8a:	605a      	str	r2, [r3, #4]
    for (uint32_t i = 0; i < len; ++i) {
 8002d8c:	2300      	movs	r3, #0
 8002d8e:	617b      	str	r3, [r7, #20]
 8002d90:	e014      	b.n	8002dbc <I2C1_MemRead+0xec>
        if (wait_flag_set(&I2C1->ISR, I2C_ISR_RXNE, I2C_SPIN)) return -13;
 8002d92:	4a16      	ldr	r2, [pc, #88]	@ (8002dec <I2C1_MemRead+0x11c>)
 8002d94:	4b16      	ldr	r3, [pc, #88]	@ (8002df0 <I2C1_MemRead+0x120>)
 8002d96:	2104      	movs	r1, #4
 8002d98:	0018      	movs	r0, r3
 8002d9a:	f7ff ff67 	bl	8002c6c <wait_flag_set>
 8002d9e:	1e03      	subs	r3, r0, #0
 8002da0:	d002      	beq.n	8002da8 <I2C1_MemRead+0xd8>
 8002da2:	230d      	movs	r3, #13
 8002da4:	425b      	negs	r3, r3
 8002da6:	e01c      	b.n	8002de2 <I2C1_MemRead+0x112>
        buf[i] = (uint8_t)I2C1->RXDR;
 8002da8:	4b12      	ldr	r3, [pc, #72]	@ (8002df4 <I2C1_MemRead+0x124>)
 8002daa:	6a59      	ldr	r1, [r3, #36]	@ 0x24
 8002dac:	68ba      	ldr	r2, [r7, #8]
 8002dae:	697b      	ldr	r3, [r7, #20]
 8002db0:	18d3      	adds	r3, r2, r3
 8002db2:	b2ca      	uxtb	r2, r1
 8002db4:	701a      	strb	r2, [r3, #0]
    for (uint32_t i = 0; i < len; ++i) {
 8002db6:	697b      	ldr	r3, [r7, #20]
 8002db8:	3301      	adds	r3, #1
 8002dba:	617b      	str	r3, [r7, #20]
 8002dbc:	697a      	ldr	r2, [r7, #20]
 8002dbe:	687b      	ldr	r3, [r7, #4]
 8002dc0:	429a      	cmp	r2, r3
 8002dc2:	d3e6      	bcc.n	8002d92 <I2C1_MemRead+0xc2>
    }
    if (wait_flag_set(&I2C1->ISR, I2C_ISR_STOPF, I2C_SPIN)) return -14;
 8002dc4:	4a09      	ldr	r2, [pc, #36]	@ (8002dec <I2C1_MemRead+0x11c>)
 8002dc6:	4b0a      	ldr	r3, [pc, #40]	@ (8002df0 <I2C1_MemRead+0x120>)
 8002dc8:	2120      	movs	r1, #32
 8002dca:	0018      	movs	r0, r3
 8002dcc:	f7ff ff4e 	bl	8002c6c <wait_flag_set>
 8002dd0:	1e03      	subs	r3, r0, #0
 8002dd2:	d002      	beq.n	8002dda <I2C1_MemRead+0x10a>
 8002dd4:	230e      	movs	r3, #14
 8002dd6:	425b      	negs	r3, r3
 8002dd8:	e003      	b.n	8002de2 <I2C1_MemRead+0x112>
    I2C1->ICR = I2C_ICR_STOPCF;
 8002dda:	4b06      	ldr	r3, [pc, #24]	@ (8002df4 <I2C1_MemRead+0x124>)
 8002ddc:	2220      	movs	r2, #32
 8002dde:	61da      	str	r2, [r3, #28]
    return 0;
 8002de0:	2300      	movs	r3, #0
}
 8002de2:	0018      	movs	r0, r3
 8002de4:	46bd      	mov	sp, r7
 8002de6:	b006      	add	sp, #24
 8002de8:	bd80      	pop	{r7, pc}
 8002dea:	46c0      	nop			@ (mov r8, r8)
 8002dec:	00030d40 	.word	0x00030d40
 8002df0:	40005418 	.word	0x40005418
 8002df4:	40005400 	.word	0x40005400
 8002df8:	fffffbff 	.word	0xfffffbff
 8002dfc:	02002400 	.word	0x02002400

08002e00 <I2C1_MemWrite>:

int I2C1_MemWrite(uint8_t addr7, uint8_t reg, const uint8_t *buf, uint32_t len)
{
 8002e00:	b580      	push	{r7, lr}
 8002e02:	b086      	sub	sp, #24
 8002e04:	af00      	add	r7, sp, #0
 8002e06:	60ba      	str	r2, [r7, #8]
 8002e08:	607b      	str	r3, [r7, #4]
 8002e0a:	230f      	movs	r3, #15
 8002e0c:	18fb      	adds	r3, r7, r3
 8002e0e:	1c02      	adds	r2, r0, #0
 8002e10:	701a      	strb	r2, [r3, #0]
 8002e12:	230e      	movs	r3, #14
 8002e14:	18fb      	adds	r3, r7, r3
 8002e16:	1c0a      	adds	r2, r1, #0
 8002e18:	701a      	strb	r2, [r3, #0]
    if (!buf && len) return -1;
 8002e1a:	68bb      	ldr	r3, [r7, #8]
 8002e1c:	2b00      	cmp	r3, #0
 8002e1e:	d105      	bne.n	8002e2c <I2C1_MemWrite+0x2c>
 8002e20:	687b      	ldr	r3, [r7, #4]
 8002e22:	2b00      	cmp	r3, #0
 8002e24:	d002      	beq.n	8002e2c <I2C1_MemWrite+0x2c>
 8002e26:	2301      	movs	r3, #1
 8002e28:	425b      	negs	r3, r3
 8002e2a:	e05b      	b.n	8002ee4 <I2C1_MemWrite+0xe4>
    if (wait_flag_clr(&I2C1->ISR, I2C_ISR_BUSY, I2C_SPIN)) return -10;
 8002e2c:	4a2f      	ldr	r2, [pc, #188]	@ (8002eec <I2C1_MemWrite+0xec>)
 8002e2e:	2380      	movs	r3, #128	@ 0x80
 8002e30:	021b      	lsls	r3, r3, #8
 8002e32:	482f      	ldr	r0, [pc, #188]	@ (8002ef0 <I2C1_MemWrite+0xf0>)
 8002e34:	0019      	movs	r1, r3
 8002e36:	f7ff ff32 	bl	8002c9e <wait_flag_clr>
 8002e3a:	1e03      	subs	r3, r0, #0
 8002e3c:	d002      	beq.n	8002e44 <I2C1_MemWrite+0x44>
 8002e3e:	230a      	movs	r3, #10
 8002e40:	425b      	negs	r3, r3
 8002e42:	e04f      	b.n	8002ee4 <I2C1_MemWrite+0xe4>

    /* Send reg + payload in single AUTOEND transfer */
    I2C1->CR2 = ((uint32_t)addr7 << 1) | ((uint32_t)(len + 1u) << 16);
 8002e44:	230f      	movs	r3, #15
 8002e46:	18fb      	adds	r3, r7, r3
 8002e48:	781b      	ldrb	r3, [r3, #0]
 8002e4a:	0059      	lsls	r1, r3, #1
 8002e4c:	687b      	ldr	r3, [r7, #4]
 8002e4e:	3301      	adds	r3, #1
 8002e50:	041a      	lsls	r2, r3, #16
 8002e52:	4b28      	ldr	r3, [pc, #160]	@ (8002ef4 <I2C1_MemWrite+0xf4>)
 8002e54:	430a      	orrs	r2, r1
 8002e56:	605a      	str	r2, [r3, #4]
    I2C1->CR2 &= ~I2C_CR2_RD_WRN;
 8002e58:	4b26      	ldr	r3, [pc, #152]	@ (8002ef4 <I2C1_MemWrite+0xf4>)
 8002e5a:	685a      	ldr	r2, [r3, #4]
 8002e5c:	4b25      	ldr	r3, [pc, #148]	@ (8002ef4 <I2C1_MemWrite+0xf4>)
 8002e5e:	4926      	ldr	r1, [pc, #152]	@ (8002ef8 <I2C1_MemWrite+0xf8>)
 8002e60:	400a      	ands	r2, r1
 8002e62:	605a      	str	r2, [r3, #4]
    I2C1->CR2 |=  I2C_CR2_START | I2C_CR2_AUTOEND;
 8002e64:	4b23      	ldr	r3, [pc, #140]	@ (8002ef4 <I2C1_MemWrite+0xf4>)
 8002e66:	685a      	ldr	r2, [r3, #4]
 8002e68:	4b22      	ldr	r3, [pc, #136]	@ (8002ef4 <I2C1_MemWrite+0xf4>)
 8002e6a:	4924      	ldr	r1, [pc, #144]	@ (8002efc <I2C1_MemWrite+0xfc>)
 8002e6c:	430a      	orrs	r2, r1
 8002e6e:	605a      	str	r2, [r3, #4]

    if (wait_flag_set(&I2C1->ISR, I2C_ISR_TXIS, I2C_SPIN)) return -11;
 8002e70:	4a1e      	ldr	r2, [pc, #120]	@ (8002eec <I2C1_MemWrite+0xec>)
 8002e72:	4b1f      	ldr	r3, [pc, #124]	@ (8002ef0 <I2C1_MemWrite+0xf0>)
 8002e74:	2102      	movs	r1, #2
 8002e76:	0018      	movs	r0, r3
 8002e78:	f7ff fef8 	bl	8002c6c <wait_flag_set>
 8002e7c:	1e03      	subs	r3, r0, #0
 8002e7e:	d002      	beq.n	8002e86 <I2C1_MemWrite+0x86>
 8002e80:	230b      	movs	r3, #11
 8002e82:	425b      	negs	r3, r3
 8002e84:	e02e      	b.n	8002ee4 <I2C1_MemWrite+0xe4>
    I2C1->TXDR = reg;
 8002e86:	4b1b      	ldr	r3, [pc, #108]	@ (8002ef4 <I2C1_MemWrite+0xf4>)
 8002e88:	220e      	movs	r2, #14
 8002e8a:	18ba      	adds	r2, r7, r2
 8002e8c:	7812      	ldrb	r2, [r2, #0]
 8002e8e:	629a      	str	r2, [r3, #40]	@ 0x28

    for (uint32_t i = 0; i < len; ++i) {
 8002e90:	2300      	movs	r3, #0
 8002e92:	617b      	str	r3, [r7, #20]
 8002e94:	e013      	b.n	8002ebe <I2C1_MemWrite+0xbe>
        if (wait_flag_set(&I2C1->ISR, I2C_ISR_TXIS, I2C_SPIN)) return -12;
 8002e96:	4a15      	ldr	r2, [pc, #84]	@ (8002eec <I2C1_MemWrite+0xec>)
 8002e98:	4b15      	ldr	r3, [pc, #84]	@ (8002ef0 <I2C1_MemWrite+0xf0>)
 8002e9a:	2102      	movs	r1, #2
 8002e9c:	0018      	movs	r0, r3
 8002e9e:	f7ff fee5 	bl	8002c6c <wait_flag_set>
 8002ea2:	1e03      	subs	r3, r0, #0
 8002ea4:	d002      	beq.n	8002eac <I2C1_MemWrite+0xac>
 8002ea6:	230c      	movs	r3, #12
 8002ea8:	425b      	negs	r3, r3
 8002eaa:	e01b      	b.n	8002ee4 <I2C1_MemWrite+0xe4>
        I2C1->TXDR = buf[i];
 8002eac:	68ba      	ldr	r2, [r7, #8]
 8002eae:	697b      	ldr	r3, [r7, #20]
 8002eb0:	18d3      	adds	r3, r2, r3
 8002eb2:	781a      	ldrb	r2, [r3, #0]
 8002eb4:	4b0f      	ldr	r3, [pc, #60]	@ (8002ef4 <I2C1_MemWrite+0xf4>)
 8002eb6:	629a      	str	r2, [r3, #40]	@ 0x28
    for (uint32_t i = 0; i < len; ++i) {
 8002eb8:	697b      	ldr	r3, [r7, #20]
 8002eba:	3301      	adds	r3, #1
 8002ebc:	617b      	str	r3, [r7, #20]
 8002ebe:	697a      	ldr	r2, [r7, #20]
 8002ec0:	687b      	ldr	r3, [r7, #4]
 8002ec2:	429a      	cmp	r2, r3
 8002ec4:	d3e7      	bcc.n	8002e96 <I2C1_MemWrite+0x96>
    }
    if (wait_flag_set(&I2C1->ISR, I2C_ISR_STOPF, I2C_SPIN)) return -13;
 8002ec6:	4a09      	ldr	r2, [pc, #36]	@ (8002eec <I2C1_MemWrite+0xec>)
 8002ec8:	4b09      	ldr	r3, [pc, #36]	@ (8002ef0 <I2C1_MemWrite+0xf0>)
 8002eca:	2120      	movs	r1, #32
 8002ecc:	0018      	movs	r0, r3
 8002ece:	f7ff fecd 	bl	8002c6c <wait_flag_set>
 8002ed2:	1e03      	subs	r3, r0, #0
 8002ed4:	d002      	beq.n	8002edc <I2C1_MemWrite+0xdc>
 8002ed6:	230d      	movs	r3, #13
 8002ed8:	425b      	negs	r3, r3
 8002eda:	e003      	b.n	8002ee4 <I2C1_MemWrite+0xe4>
    I2C1->ICR = I2C_ICR_STOPCF;
 8002edc:	4b05      	ldr	r3, [pc, #20]	@ (8002ef4 <I2C1_MemWrite+0xf4>)
 8002ede:	2220      	movs	r2, #32
 8002ee0:	61da      	str	r2, [r3, #28]
    return 0;
 8002ee2:	2300      	movs	r3, #0
}
 8002ee4:	0018      	movs	r0, r3
 8002ee6:	46bd      	mov	sp, r7
 8002ee8:	b006      	add	sp, #24
 8002eea:	bd80      	pop	{r7, pc}
 8002eec:	00030d40 	.word	0x00030d40
 8002ef0:	40005418 	.word	0x40005418
 8002ef4:	40005400 	.word	0x40005400
 8002ef8:	fffffbff 	.word	0xfffffbff
 8002efc:	02002000 	.word	0x02002000

08002f00 <rd_cfg>:
/* ===== TMP102 helpers (register-level, bounded waits) ===== */

#define TMP102_CFG_OS_BIT   (1u << 15)
#define TMP102_CFG_SD_BIT   (1u << 0)

static HAL_StatusTypeDef rd_cfg(uint16_t *cfg) {
 8002f00:	b580      	push	{r7, lr}
 8002f02:	b084      	sub	sp, #16
 8002f04:	af00      	add	r7, sp, #0
 8002f06:	6078      	str	r0, [r7, #4]
    if (!cfg) return HAL_ERROR;
 8002f08:	687b      	ldr	r3, [r7, #4]
 8002f0a:	2b00      	cmp	r3, #0
 8002f0c:	d101      	bne.n	8002f12 <rd_cfg+0x12>
 8002f0e:	2301      	movs	r3, #1
 8002f10:	e019      	b.n	8002f46 <rd_cfg+0x46>
    uint8_t rx[2];
    if (I2C1_MemRead(TMP102_ADDR7, TMP102_REG_CONFIG, rx, 2) != 0) return HAL_ERROR;
 8002f12:	230c      	movs	r3, #12
 8002f14:	18fa      	adds	r2, r7, r3
 8002f16:	2302      	movs	r3, #2
 8002f18:	2101      	movs	r1, #1
 8002f1a:	2048      	movs	r0, #72	@ 0x48
 8002f1c:	f7ff fed8 	bl	8002cd0 <I2C1_MemRead>
 8002f20:	1e03      	subs	r3, r0, #0
 8002f22:	d001      	beq.n	8002f28 <rd_cfg+0x28>
 8002f24:	2301      	movs	r3, #1
 8002f26:	e00e      	b.n	8002f46 <rd_cfg+0x46>
    *cfg = (uint16_t)((rx[0] << 8) | rx[1]);
 8002f28:	210c      	movs	r1, #12
 8002f2a:	187b      	adds	r3, r7, r1
 8002f2c:	781b      	ldrb	r3, [r3, #0]
 8002f2e:	b21b      	sxth	r3, r3
 8002f30:	021b      	lsls	r3, r3, #8
 8002f32:	b21a      	sxth	r2, r3
 8002f34:	187b      	adds	r3, r7, r1
 8002f36:	785b      	ldrb	r3, [r3, #1]
 8002f38:	b21b      	sxth	r3, r3
 8002f3a:	4313      	orrs	r3, r2
 8002f3c:	b21b      	sxth	r3, r3
 8002f3e:	b29a      	uxth	r2, r3
 8002f40:	687b      	ldr	r3, [r7, #4]
 8002f42:	801a      	strh	r2, [r3, #0]
    return HAL_OK;
 8002f44:	2300      	movs	r3, #0
}
 8002f46:	0018      	movs	r0, r3
 8002f48:	46bd      	mov	sp, r7
 8002f4a:	b004      	add	sp, #16
 8002f4c:	bd80      	pop	{r7, pc}

08002f4e <wr_cfg>:
static HAL_StatusTypeDef wr_cfg(uint16_t cfg) {
 8002f4e:	b580      	push	{r7, lr}
 8002f50:	b084      	sub	sp, #16
 8002f52:	af00      	add	r7, sp, #0
 8002f54:	0002      	movs	r2, r0
 8002f56:	1dbb      	adds	r3, r7, #6
 8002f58:	801a      	strh	r2, [r3, #0]
    uint8_t tx[2] = { (uint8_t)(cfg >> 8), (uint8_t)(cfg & 0xFF) };
 8002f5a:	1dbb      	adds	r3, r7, #6
 8002f5c:	881b      	ldrh	r3, [r3, #0]
 8002f5e:	0a1b      	lsrs	r3, r3, #8
 8002f60:	b29b      	uxth	r3, r3
 8002f62:	b2da      	uxtb	r2, r3
 8002f64:	210c      	movs	r1, #12
 8002f66:	187b      	adds	r3, r7, r1
 8002f68:	701a      	strb	r2, [r3, #0]
 8002f6a:	1dbb      	adds	r3, r7, #6
 8002f6c:	881b      	ldrh	r3, [r3, #0]
 8002f6e:	b2da      	uxtb	r2, r3
 8002f70:	187b      	adds	r3, r7, r1
 8002f72:	705a      	strb	r2, [r3, #1]
    return (I2C1_MemWrite(TMP102_ADDR7, TMP102_REG_CONFIG, tx, 2) == 0) ? HAL_OK : HAL_ERROR;
 8002f74:	187a      	adds	r2, r7, r1
 8002f76:	2302      	movs	r3, #2
 8002f78:	2101      	movs	r1, #1
 8002f7a:	2048      	movs	r0, #72	@ 0x48
 8002f7c:	f7ff ff40 	bl	8002e00 <I2C1_MemWrite>
 8002f80:	0003      	movs	r3, r0
 8002f82:	1e5a      	subs	r2, r3, #1
 8002f84:	4193      	sbcs	r3, r2
 8002f86:	b2db      	uxtb	r3, r3
}
 8002f88:	0018      	movs	r0, r3
 8002f8a:	46bd      	mov	sp, r7
 8002f8c:	b004      	add	sp, #16
 8002f8e:	bd80      	pop	{r7, pc}

08002f90 <tmp102_initialize>:

HAL_StatusTypeDef tmp102_initialize(void)
{
 8002f90:	b580      	push	{r7, lr}
 8002f92:	b082      	sub	sp, #8
 8002f94:	af00      	add	r7, sp, #0
    uint16_t cfg=0;
 8002f96:	1dbb      	adds	r3, r7, #6
 8002f98:	2200      	movs	r2, #0
 8002f9a:	801a      	strh	r2, [r3, #0]
    if (rd_cfg(&cfg) != HAL_OK) return HAL_ERROR;
 8002f9c:	1dbb      	adds	r3, r7, #6
 8002f9e:	0018      	movs	r0, r3
 8002fa0:	f7ff ffae 	bl	8002f00 <rd_cfg>
 8002fa4:	1e03      	subs	r3, r0, #0
 8002fa6:	d001      	beq.n	8002fac <tmp102_initialize+0x1c>
 8002fa8:	2301      	movs	r3, #1
 8002faa:	e015      	b.n	8002fd8 <tmp102_initialize+0x48>
    /* Put device into shutdown so one-shot works as expected */
    if (wr_cfg(cfg | TMP102_CFG_SD_BIT) != HAL_OK) return HAL_ERROR;
 8002fac:	1dbb      	adds	r3, r7, #6
 8002fae:	881b      	ldrh	r3, [r3, #0]
 8002fb0:	2201      	movs	r2, #1
 8002fb2:	4313      	orrs	r3, r2
 8002fb4:	b29b      	uxth	r3, r3
 8002fb6:	0018      	movs	r0, r3
 8002fb8:	f7ff ffc9 	bl	8002f4e <wr_cfg>
 8002fbc:	1e03      	subs	r3, r0, #0
 8002fbe:	d001      	beq.n	8002fc4 <tmp102_initialize+0x34>
 8002fc0:	2301      	movs	r3, #1
 8002fc2:	e009      	b.n	8002fd8 <tmp102_initialize+0x48>

    /* Dummy read to verify bus */
    uint8_t t[2];
    return (I2C1_MemRead(TMP102_ADDR7, TMP102_REG_TEMP, t, 2) == 0) ? HAL_OK : HAL_ERROR;
 8002fc4:	1d3a      	adds	r2, r7, #4
 8002fc6:	2302      	movs	r3, #2
 8002fc8:	2100      	movs	r1, #0
 8002fca:	2048      	movs	r0, #72	@ 0x48
 8002fcc:	f7ff fe80 	bl	8002cd0 <I2C1_MemRead>
 8002fd0:	0003      	movs	r3, r0
 8002fd2:	1e5a      	subs	r2, r3, #1
 8002fd4:	4193      	sbcs	r3, r2
 8002fd6:	b2db      	uxtb	r3, r3
}
 8002fd8:	0018      	movs	r0, r3
 8002fda:	46bd      	mov	sp, r7
 8002fdc:	b002      	add	sp, #8
 8002fde:	bd80      	pop	{r7, pc}

08002fe0 <tmp102_trigger_oneshot>:

HAL_StatusTypeDef tmp102_trigger_oneshot(void)
{
 8002fe0:	b580      	push	{r7, lr}
 8002fe2:	b082      	sub	sp, #8
 8002fe4:	af00      	add	r7, sp, #0
    uint16_t cfg=0;
 8002fe6:	1dbb      	adds	r3, r7, #6
 8002fe8:	2200      	movs	r2, #0
 8002fea:	801a      	strh	r2, [r3, #0]
    if (rd_cfg(&cfg) != HAL_OK) return HAL_ERROR;
 8002fec:	1dbb      	adds	r3, r7, #6
 8002fee:	0018      	movs	r0, r3
 8002ff0:	f7ff ff86 	bl	8002f00 <rd_cfg>
 8002ff4:	1e03      	subs	r3, r0, #0
 8002ff6:	d001      	beq.n	8002ffc <tmp102_trigger_oneshot+0x1c>
 8002ff8:	2301      	movs	r3, #1
 8002ffa:	e013      	b.n	8003024 <tmp102_trigger_oneshot+0x44>
    cfg |= TMP102_CFG_SD_BIT | TMP102_CFG_OS_BIT;
 8002ffc:	1dbb      	adds	r3, r7, #6
 8002ffe:	881b      	ldrh	r3, [r3, #0]
 8003000:	4a0a      	ldr	r2, [pc, #40]	@ (800302c <tmp102_trigger_oneshot+0x4c>)
 8003002:	4313      	orrs	r3, r2
 8003004:	b29a      	uxth	r2, r3
 8003006:	1dbb      	adds	r3, r7, #6
 8003008:	801a      	strh	r2, [r3, #0]
    if (wr_cfg(cfg) != HAL_OK) return HAL_ERROR;
 800300a:	1dbb      	adds	r3, r7, #6
 800300c:	881b      	ldrh	r3, [r3, #0]
 800300e:	0018      	movs	r0, r3
 8003010:	f7ff ff9d 	bl	8002f4e <wr_cfg>
 8003014:	1e03      	subs	r3, r0, #0
 8003016:	d001      	beq.n	800301c <tmp102_trigger_oneshot+0x3c>
 8003018:	2301      	movs	r3, #1
 800301a:	e003      	b.n	8003024 <tmp102_trigger_oneshot+0x44>

    /* Wait typical conversion time; bounded so caller can't hang */
    HAL_Delay(TMP102_CONV_TIME_MS);
 800301c:	201e      	movs	r0, #30
 800301e:	f001 f935 	bl	800428c <HAL_Delay>
    return HAL_OK;
 8003022:	2300      	movs	r3, #0
}
 8003024:	0018      	movs	r0, r3
 8003026:	46bd      	mov	sp, r7
 8003028:	b002      	add	sp, #8
 800302a:	bd80      	pop	{r7, pc}
 800302c:	ffff8001 	.word	0xffff8001

08003030 <tmp102_read_raw>:
    *c_out = (float)raw * 0.0625f;
    return HAL_OK;
}

HAL_StatusTypeDef tmp102_read_raw(int16_t *raw_out)
{
 8003030:	b580      	push	{r7, lr}
 8003032:	b084      	sub	sp, #16
 8003034:	af00      	add	r7, sp, #0
 8003036:	6078      	str	r0, [r7, #4]
    if (!raw_out)
 8003038:	687b      	ldr	r3, [r7, #4]
 800303a:	2b00      	cmp	r3, #0
 800303c:	d101      	bne.n	8003042 <tmp102_read_raw+0x12>
        return HAL_ERROR;
 800303e:	2301      	movs	r3, #1
 8003040:	e031      	b.n	80030a6 <tmp102_read_raw+0x76>

    uint8_t rx[2];
    if (I2C1_MemRead(TMP102_ADDR7, TMP102_REG_TEMP, rx, 2) != 0)
 8003042:	230c      	movs	r3, #12
 8003044:	18fa      	adds	r2, r7, r3
 8003046:	2302      	movs	r3, #2
 8003048:	2100      	movs	r1, #0
 800304a:	2048      	movs	r0, #72	@ 0x48
 800304c:	f7ff fe40 	bl	8002cd0 <I2C1_MemRead>
 8003050:	1e03      	subs	r3, r0, #0
 8003052:	d001      	beq.n	8003058 <tmp102_read_raw+0x28>
        return HAL_ERROR;
 8003054:	2301      	movs	r3, #1
 8003056:	e026      	b.n	80030a6 <tmp102_read_raw+0x76>

    int16_t raw = (int16_t)((rx[0] << 8) | rx[1]);
 8003058:	220c      	movs	r2, #12
 800305a:	18bb      	adds	r3, r7, r2
 800305c:	781b      	ldrb	r3, [r3, #0]
 800305e:	b21b      	sxth	r3, r3
 8003060:	021b      	lsls	r3, r3, #8
 8003062:	b219      	sxth	r1, r3
 8003064:	18bb      	adds	r3, r7, r2
 8003066:	785b      	ldrb	r3, [r3, #1]
 8003068:	b21a      	sxth	r2, r3
 800306a:	200e      	movs	r0, #14
 800306c:	183b      	adds	r3, r7, r0
 800306e:	430a      	orrs	r2, r1
 8003070:	801a      	strh	r2, [r3, #0]
    raw >>= 4;
 8003072:	0001      	movs	r1, r0
 8003074:	187b      	adds	r3, r7, r1
 8003076:	187a      	adds	r2, r7, r1
 8003078:	2000      	movs	r0, #0
 800307a:	5e12      	ldrsh	r2, [r2, r0]
 800307c:	1112      	asrs	r2, r2, #4
 800307e:	801a      	strh	r2, [r3, #0]
    if (raw & 0x0800)
 8003080:	187b      	adds	r3, r7, r1
 8003082:	881b      	ldrh	r3, [r3, #0]
 8003084:	001a      	movs	r2, r3
 8003086:	2380      	movs	r3, #128	@ 0x80
 8003088:	011b      	lsls	r3, r3, #4
 800308a:	4013      	ands	r3, r2
 800308c:	d005      	beq.n	800309a <tmp102_read_raw+0x6a>
        raw |= (int16_t)~0x0FFF;
 800308e:	187b      	adds	r3, r7, r1
 8003090:	187a      	adds	r2, r7, r1
 8003092:	8812      	ldrh	r2, [r2, #0]
 8003094:	4906      	ldr	r1, [pc, #24]	@ (80030b0 <tmp102_read_raw+0x80>)
 8003096:	430a      	orrs	r2, r1
 8003098:	801a      	strh	r2, [r3, #0]

    *raw_out = raw;
 800309a:	687b      	ldr	r3, [r7, #4]
 800309c:	220e      	movs	r2, #14
 800309e:	18ba      	adds	r2, r7, r2
 80030a0:	8812      	ldrh	r2, [r2, #0]
 80030a2:	801a      	strh	r2, [r3, #0]
    return HAL_OK;
 80030a4:	2300      	movs	r3, #0
}
 80030a6:	0018      	movs	r0, r3
 80030a8:	46bd      	mov	sp, r7
 80030aa:	b004      	add	sp, #16
 80030ac:	bd80      	pop	{r7, pc}
 80030ae:	46c0      	nop			@ (mov r8, r8)
 80030b0:	fffff000 	.word	0xfffff000

080030b4 <to_upper>:
SPI_HandleTypeDef hspi1;

static void MX_GPIO_Init(void);
static void MX_SPI1_Init(void);

static void to_upper(char *s) {
 80030b4:	b580      	push	{r7, lr}
 80030b6:	b082      	sub	sp, #8
 80030b8:	af00      	add	r7, sp, #0
 80030ba:	6078      	str	r0, [r7, #4]
    if (!s) return;
 80030bc:	687b      	ldr	r3, [r7, #4]
 80030be:	2b00      	cmp	r3, #0
 80030c0:	d016      	beq.n	80030f0 <to_upper+0x3c>
    for (; *s; ++s) {
 80030c2:	e010      	b.n	80030e6 <to_upper+0x32>
        if (*s >= 'a' && *s <= 'z') *s = (char)(*s - 'a' + 'A');
 80030c4:	687b      	ldr	r3, [r7, #4]
 80030c6:	781b      	ldrb	r3, [r3, #0]
 80030c8:	2b60      	cmp	r3, #96	@ 0x60
 80030ca:	d909      	bls.n	80030e0 <to_upper+0x2c>
 80030cc:	687b      	ldr	r3, [r7, #4]
 80030ce:	781b      	ldrb	r3, [r3, #0]
 80030d0:	2b7a      	cmp	r3, #122	@ 0x7a
 80030d2:	d805      	bhi.n	80030e0 <to_upper+0x2c>
 80030d4:	687b      	ldr	r3, [r7, #4]
 80030d6:	781b      	ldrb	r3, [r3, #0]
 80030d8:	3b20      	subs	r3, #32
 80030da:	b2da      	uxtb	r2, r3
 80030dc:	687b      	ldr	r3, [r7, #4]
 80030de:	701a      	strb	r2, [r3, #0]
    for (; *s; ++s) {
 80030e0:	687b      	ldr	r3, [r7, #4]
 80030e2:	3301      	adds	r3, #1
 80030e4:	607b      	str	r3, [r7, #4]
 80030e6:	687b      	ldr	r3, [r7, #4]
 80030e8:	781b      	ldrb	r3, [r3, #0]
 80030ea:	2b00      	cmp	r3, #0
 80030ec:	d1ea      	bne.n	80030c4 <to_upper+0x10>
 80030ee:	e000      	b.n	80030f2 <to_upper+0x3e>
    if (!s) return;
 80030f0:	46c0      	nop			@ (mov r8, r8)
    }
}
 80030f2:	46bd      	mov	sp, r7
 80030f4:	b002      	add	sp, #8
 80030f6:	bd80      	pop	{r7, pc}

080030f8 <trim>:

static void trim(char *s) {
 80030f8:	b580      	push	{r7, lr}
 80030fa:	b084      	sub	sp, #16
 80030fc:	af00      	add	r7, sp, #0
 80030fe:	6078      	str	r0, [r7, #4]
    if (!s) return;
 8003100:	687b      	ldr	r3, [r7, #4]
 8003102:	2b00      	cmp	r3, #0
 8003104:	d053      	beq.n	80031ae <trim+0xb6>
    char *p = s;
 8003106:	687b      	ldr	r3, [r7, #4]
 8003108:	60fb      	str	r3, [r7, #12]
    while (*p == ' ' || *p == '\t' || *p == '\r' || *p == '\n') ++p;
 800310a:	e002      	b.n	8003112 <trim+0x1a>
 800310c:	68fb      	ldr	r3, [r7, #12]
 800310e:	3301      	adds	r3, #1
 8003110:	60fb      	str	r3, [r7, #12]
 8003112:	68fb      	ldr	r3, [r7, #12]
 8003114:	781b      	ldrb	r3, [r3, #0]
 8003116:	2b20      	cmp	r3, #32
 8003118:	d0f8      	beq.n	800310c <trim+0x14>
 800311a:	68fb      	ldr	r3, [r7, #12]
 800311c:	781b      	ldrb	r3, [r3, #0]
 800311e:	2b09      	cmp	r3, #9
 8003120:	d0f4      	beq.n	800310c <trim+0x14>
 8003122:	68fb      	ldr	r3, [r7, #12]
 8003124:	781b      	ldrb	r3, [r3, #0]
 8003126:	2b0d      	cmp	r3, #13
 8003128:	d0f0      	beq.n	800310c <trim+0x14>
 800312a:	68fb      	ldr	r3, [r7, #12]
 800312c:	781b      	ldrb	r3, [r3, #0]
 800312e:	2b0a      	cmp	r3, #10
 8003130:	d0ec      	beq.n	800310c <trim+0x14>
    if (p != s) memmove(s, p, strlen(p) + 1);
 8003132:	68fa      	ldr	r2, [r7, #12]
 8003134:	687b      	ldr	r3, [r7, #4]
 8003136:	429a      	cmp	r2, r3
 8003138:	d00a      	beq.n	8003150 <trim+0x58>
 800313a:	68fb      	ldr	r3, [r7, #12]
 800313c:	0018      	movs	r0, r3
 800313e:	f7fc ffeb 	bl	8000118 <strlen>
 8003142:	0003      	movs	r3, r0
 8003144:	1c5a      	adds	r2, r3, #1
 8003146:	68f9      	ldr	r1, [r7, #12]
 8003148:	687b      	ldr	r3, [r7, #4]
 800314a:	0018      	movs	r0, r3
 800314c:	f004 fcd8 	bl	8007b00 <memmove>
    size_t n = strlen(s);
 8003150:	687b      	ldr	r3, [r7, #4]
 8003152:	0018      	movs	r0, r3
 8003154:	f7fc ffe0 	bl	8000118 <strlen>
 8003158:	0003      	movs	r3, r0
 800315a:	60bb      	str	r3, [r7, #8]
    while (n > 0 && (s[n - 1] == ' ' || s[n - 1] == '\t' || s[n - 1] == '\r' || s[n - 1] == '\n')) {
 800315c:	e007      	b.n	800316e <trim+0x76>
        s[--n] = '\0';
 800315e:	68bb      	ldr	r3, [r7, #8]
 8003160:	3b01      	subs	r3, #1
 8003162:	60bb      	str	r3, [r7, #8]
 8003164:	687a      	ldr	r2, [r7, #4]
 8003166:	68bb      	ldr	r3, [r7, #8]
 8003168:	18d3      	adds	r3, r2, r3
 800316a:	2200      	movs	r2, #0
 800316c:	701a      	strb	r2, [r3, #0]
    while (n > 0 && (s[n - 1] == ' ' || s[n - 1] == '\t' || s[n - 1] == '\r' || s[n - 1] == '\n')) {
 800316e:	68bb      	ldr	r3, [r7, #8]
 8003170:	2b00      	cmp	r3, #0
 8003172:	d01d      	beq.n	80031b0 <trim+0xb8>
 8003174:	68bb      	ldr	r3, [r7, #8]
 8003176:	3b01      	subs	r3, #1
 8003178:	687a      	ldr	r2, [r7, #4]
 800317a:	18d3      	adds	r3, r2, r3
 800317c:	781b      	ldrb	r3, [r3, #0]
 800317e:	2b20      	cmp	r3, #32
 8003180:	d0ed      	beq.n	800315e <trim+0x66>
 8003182:	68bb      	ldr	r3, [r7, #8]
 8003184:	3b01      	subs	r3, #1
 8003186:	687a      	ldr	r2, [r7, #4]
 8003188:	18d3      	adds	r3, r2, r3
 800318a:	781b      	ldrb	r3, [r3, #0]
 800318c:	2b09      	cmp	r3, #9
 800318e:	d0e6      	beq.n	800315e <trim+0x66>
 8003190:	68bb      	ldr	r3, [r7, #8]
 8003192:	3b01      	subs	r3, #1
 8003194:	687a      	ldr	r2, [r7, #4]
 8003196:	18d3      	adds	r3, r2, r3
 8003198:	781b      	ldrb	r3, [r3, #0]
 800319a:	2b0d      	cmp	r3, #13
 800319c:	d0df      	beq.n	800315e <trim+0x66>
 800319e:	68bb      	ldr	r3, [r7, #8]
 80031a0:	3b01      	subs	r3, #1
 80031a2:	687a      	ldr	r2, [r7, #4]
 80031a4:	18d3      	adds	r3, r2, r3
 80031a6:	781b      	ldrb	r3, [r3, #0]
 80031a8:	2b0a      	cmp	r3, #10
 80031aa:	d0d8      	beq.n	800315e <trim+0x66>
 80031ac:	e000      	b.n	80031b0 <trim+0xb8>
    if (!s) return;
 80031ae:	46c0      	nop			@ (mov r8, r8)
    }
}
 80031b0:	46bd      	mov	sp, r7
 80031b2:	b004      	add	sp, #16
 80031b4:	bd80      	pop	{r7, pc}

080031b6 <convert_tmp102_raw>:

static void convert_tmp102_raw(int16_t raw, int* c_tenths, int* f_tenths)
{
 80031b6:	b580      	push	{r7, lr}
 80031b8:	b086      	sub	sp, #24
 80031ba:	af00      	add	r7, sp, #0
 80031bc:	60b9      	str	r1, [r7, #8]
 80031be:	607a      	str	r2, [r7, #4]
 80031c0:	210e      	movs	r1, #14
 80031c2:	187b      	adds	r3, r7, r1
 80031c4:	1c02      	adds	r2, r0, #0
 80031c6:	801a      	strh	r2, [r3, #0]
    int c = (int)((int32_t)raw * 625 / 1000);
 80031c8:	187b      	adds	r3, r7, r1
 80031ca:	2200      	movs	r2, #0
 80031cc:	5e9a      	ldrsh	r2, [r3, r2]
 80031ce:	0013      	movs	r3, r2
 80031d0:	015b      	lsls	r3, r3, #5
 80031d2:	1a9b      	subs	r3, r3, r2
 80031d4:	009b      	lsls	r3, r3, #2
 80031d6:	189b      	adds	r3, r3, r2
 80031d8:	009a      	lsls	r2, r3, #2
 80031da:	189b      	adds	r3, r3, r2
 80031dc:	22fa      	movs	r2, #250	@ 0xfa
 80031de:	0091      	lsls	r1, r2, #2
 80031e0:	0018      	movs	r0, r3
 80031e2:	f7fd f83f 	bl	8000264 <__divsi3>
 80031e6:	0003      	movs	r3, r0
 80031e8:	617b      	str	r3, [r7, #20]
    int f = (c * 9) / 5 + 320;
 80031ea:	697a      	ldr	r2, [r7, #20]
 80031ec:	0013      	movs	r3, r2
 80031ee:	00db      	lsls	r3, r3, #3
 80031f0:	189b      	adds	r3, r3, r2
 80031f2:	2105      	movs	r1, #5
 80031f4:	0018      	movs	r0, r3
 80031f6:	f7fd f835 	bl	8000264 <__divsi3>
 80031fa:	0003      	movs	r3, r0
 80031fc:	3341      	adds	r3, #65	@ 0x41
 80031fe:	33ff      	adds	r3, #255	@ 0xff
 8003200:	613b      	str	r3, [r7, #16]
    if (c_tenths) *c_tenths = c;
 8003202:	68bb      	ldr	r3, [r7, #8]
 8003204:	2b00      	cmp	r3, #0
 8003206:	d002      	beq.n	800320e <convert_tmp102_raw+0x58>
 8003208:	68bb      	ldr	r3, [r7, #8]
 800320a:	697a      	ldr	r2, [r7, #20]
 800320c:	601a      	str	r2, [r3, #0]
    if (f_tenths) *f_tenths = f;
 800320e:	687b      	ldr	r3, [r7, #4]
 8003210:	2b00      	cmp	r3, #0
 8003212:	d002      	beq.n	800321a <convert_tmp102_raw+0x64>
 8003214:	687b      	ldr	r3, [r7, #4]
 8003216:	693a      	ldr	r2, [r7, #16]
 8003218:	601a      	str	r2, [r3, #0]
}
 800321a:	46c0      	nop			@ (mov r8, r8)
 800321c:	46bd      	mov	sp, r7
 800321e:	b006      	add	sp, #24
 8003220:	bd80      	pop	{r7, pc}
	...

08003224 <print_prompt>:

static uint32_t next_log_ms = 0u;

static void print_prompt(void) {
 8003224:	b580      	push	{r7, lr}
 8003226:	af00      	add	r7, sp, #0
    printf("> ");
 8003228:	4b03      	ldr	r3, [pc, #12]	@ (8003238 <print_prompt+0x14>)
 800322a:	0018      	movs	r0, r3
 800322c:	f004 fb0c 	bl	8007848 <iprintf>
}
 8003230:	46c0      	nop			@ (mov r8, r8)
 8003232:	46bd      	mov	sp, r7
 8003234:	bd80      	pop	{r7, pc}
 8003236:	46c0      	nop			@ (mov r8, r8)
 8003238:	08009968 	.word	0x08009968

0800323c <print_help>:

static void print_help(void) {
 800323c:	b580      	push	{r7, lr}
 800323e:	af00      	add	r7, sp, #0
    printf("Commands: START, STOP, TEMP, CLEAN, STATUS, HELP\r\n");
 8003240:	4b03      	ldr	r3, [pc, #12]	@ (8003250 <print_help+0x14>)
 8003242:	0018      	movs	r0, r3
 8003244:	f004 fb66 	bl	8007914 <puts>
}
 8003248:	46c0      	nop			@ (mov r8, r8)
 800324a:	46bd      	mov	sp, r7
 800324c:	bd80      	pop	{r7, pc}
 800324e:	46c0      	nop			@ (mov r8, r8)
 8003250:	0800996c 	.word	0x0800996c

08003254 <print_session_summary>:

static void print_session_summary(uint16_t first, uint16_t last)
{
 8003254:	b580      	push	{r7, lr}
 8003256:	b084      	sub	sp, #16
 8003258:	af00      	add	r7, sp, #0
 800325a:	0002      	movs	r2, r0
 800325c:	1dbb      	adds	r3, r7, #6
 800325e:	801a      	strh	r2, [r3, #0]
 8003260:	1d3b      	adds	r3, r7, #4
 8003262:	1c0a      	adds	r2, r1, #0
 8003264:	801a      	strh	r2, [r3, #0]
    if (last < first)
 8003266:	1d3a      	adds	r2, r7, #4
 8003268:	1dbb      	adds	r3, r7, #6
 800326a:	8812      	ldrh	r2, [r2, #0]
 800326c:	881b      	ldrh	r3, [r3, #0]
 800326e:	429a      	cmp	r2, r3
 8003270:	d204      	bcs.n	800327c <print_session_summary+0x28>
    {
        printf("No logged samples. Use START to begin logging.\r\n");
 8003272:	4b0d      	ldr	r3, [pc, #52]	@ (80032a8 <print_session_summary+0x54>)
 8003274:	0018      	movs	r0, r3
 8003276:	f004 fb4d 	bl	8007914 <puts>
        return;
 800327a:	e011      	b.n	80032a0 <print_session_summary+0x4c>
    }

    uint32_t span = (uint32_t)last - (uint32_t)first;
 800327c:	1d3b      	adds	r3, r7, #4
 800327e:	881a      	ldrh	r2, [r3, #0]
 8003280:	1dbb      	adds	r3, r7, #6
 8003282:	881b      	ldrh	r3, [r3, #0]
 8003284:	1ad3      	subs	r3, r2, r3
 8003286:	60fb      	str	r3, [r7, #12]
    uint32_t count = span / 2u + 1u;
 8003288:	68fb      	ldr	r3, [r7, #12]
 800328a:	085b      	lsrs	r3, r3, #1
 800328c:	3301      	adds	r3, #1
 800328e:	60bb      	str	r3, [r7, #8]
    printf("Last session: %lu samples (first=0x%04X last=0x%04X)\r\n",
 8003290:	1dbb      	adds	r3, r7, #6
 8003292:	881a      	ldrh	r2, [r3, #0]
 8003294:	1d3b      	adds	r3, r7, #4
 8003296:	881b      	ldrh	r3, [r3, #0]
 8003298:	68b9      	ldr	r1, [r7, #8]
 800329a:	4804      	ldr	r0, [pc, #16]	@ (80032ac <print_session_summary+0x58>)
 800329c:	f004 fad4 	bl	8007848 <iprintf>
           (unsigned long)count, first, last);
}
 80032a0:	46bd      	mov	sp, r7
 80032a2:	b004      	add	sp, #16
 80032a4:	bd80      	pop	{r7, pc}
 80032a6:	46c0      	nop			@ (mov r8, r8)
 80032a8:	080099a0 	.word	0x080099a0
 80032ac:	080099d0 	.word	0x080099d0

080032b0 <dump_recent_session>:

static void dump_recent_session(void)
{
 80032b0:	b5f0      	push	{r4, r5, r6, r7, lr}
 80032b2:	46c6      	mov	lr, r8
 80032b4:	b500      	push	{lr}
 80032b6:	b08c      	sub	sp, #48	@ 0x30
 80032b8:	af04      	add	r7, sp, #16
    uint16_t first = 0, last = 0;
 80032ba:	210c      	movs	r1, #12
 80032bc:	187b      	adds	r3, r7, r1
 80032be:	2200      	movs	r2, #0
 80032c0:	801a      	strh	r2, [r3, #0]
 80032c2:	250a      	movs	r5, #10
 80032c4:	197b      	adds	r3, r7, r5
 80032c6:	2200      	movs	r2, #0
 80032c8:	801a      	strh	r2, [r3, #0]
    (void)fram_get_first_last(&first, &last);
 80032ca:	197a      	adds	r2, r7, r5
 80032cc:	000c      	movs	r4, r1
 80032ce:	187b      	adds	r3, r7, r1
 80032d0:	0011      	movs	r1, r2
 80032d2:	0018      	movs	r0, r3
 80032d4:	f7ff fb82 	bl	80029dc <fram_get_first_last>

    if (last < first)
 80032d8:	197b      	adds	r3, r7, r5
 80032da:	881a      	ldrh	r2, [r3, #0]
 80032dc:	193b      	adds	r3, r7, r4
 80032de:	881b      	ldrh	r3, [r3, #0]
 80032e0:	429a      	cmp	r2, r3
 80032e2:	d204      	bcs.n	80032ee <dump_recent_session+0x3e>
    {
        printf("No logged samples. Use START to begin logging.\r\n");
 80032e4:	4b47      	ldr	r3, [pc, #284]	@ (8003404 <dump_recent_session+0x154>)
 80032e6:	0018      	movs	r0, r3
 80032e8:	f004 fb14 	bl	8007914 <puts>
 80032ec:	e085      	b.n	80033fa <dump_recent_session+0x14a>
        return;
    }

    uint32_t span = (uint32_t)last - (uint32_t)first;
 80032ee:	210a      	movs	r1, #10
 80032f0:	187b      	adds	r3, r7, r1
 80032f2:	881b      	ldrh	r3, [r3, #0]
 80032f4:	001a      	movs	r2, r3
 80032f6:	240c      	movs	r4, #12
 80032f8:	193b      	adds	r3, r7, r4
 80032fa:	881b      	ldrh	r3, [r3, #0]
 80032fc:	1ad3      	subs	r3, r2, r3
 80032fe:	617b      	str	r3, [r7, #20]
    uint32_t count = span / 2u + 1u;
 8003300:	697b      	ldr	r3, [r7, #20]
 8003302:	085b      	lsrs	r3, r3, #1
 8003304:	3301      	adds	r3, #1
 8003306:	613b      	str	r3, [r7, #16]
    printf("Dumping %lu samples (first=0x%04X last=0x%04X)\r\n",
 8003308:	193b      	adds	r3, r7, r4
 800330a:	881b      	ldrh	r3, [r3, #0]
 800330c:	001a      	movs	r2, r3
 800330e:	187b      	adds	r3, r7, r1
 8003310:	881b      	ldrh	r3, [r3, #0]
 8003312:	6939      	ldr	r1, [r7, #16]
 8003314:	483c      	ldr	r0, [pc, #240]	@ (8003408 <dump_recent_session+0x158>)
 8003316:	f004 fa97 	bl	8007848 <iprintf>
           (unsigned long)count, first, last);

    uint16_t addr = first;
 800331a:	231e      	movs	r3, #30
 800331c:	18fb      	adds	r3, r7, r3
 800331e:	193a      	adds	r2, r7, r4
 8003320:	8812      	ldrh	r2, [r2, #0]
 8003322:	801a      	strh	r2, [r3, #0]
    for (uint32_t idx = 0; idx < count; ++idx, addr = (uint16_t)(addr + 2u))
 8003324:	2300      	movs	r3, #0
 8003326:	61bb      	str	r3, [r7, #24]
 8003328:	e063      	b.n	80033f2 <dump_recent_session+0x142>
    {
        uint8_t be[2] = {0};
 800332a:	2108      	movs	r1, #8
 800332c:	187b      	adds	r3, r7, r1
 800332e:	2200      	movs	r2, #0
 8003330:	801a      	strh	r2, [r3, #0]
        if (fram_read(addr, be, 2) != HAL_OK)
 8003332:	1879      	adds	r1, r7, r1
 8003334:	241e      	movs	r4, #30
 8003336:	193b      	adds	r3, r7, r4
 8003338:	881b      	ldrh	r3, [r3, #0]
 800333a:	2202      	movs	r2, #2
 800333c:	0018      	movs	r0, r3
 800333e:	f7ff f9fd 	bl	800273c <fram_read>
 8003342:	1e03      	subs	r3, r0, #0
 8003344:	d007      	beq.n	8003356 <dump_recent_session+0xa6>
        {
            printf("FRAM read error @0x%04X\r\n", addr);
 8003346:	193b      	adds	r3, r7, r4
 8003348:	881a      	ldrh	r2, [r3, #0]
 800334a:	4b30      	ldr	r3, [pc, #192]	@ (800340c <dump_recent_session+0x15c>)
 800334c:	0011      	movs	r1, r2
 800334e:	0018      	movs	r0, r3
 8003350:	f004 fa7a 	bl	8007848 <iprintf>
 8003354:	e051      	b.n	80033fa <dump_recent_session+0x14a>
            break;
        }

        int16_t raw = (int16_t)(((uint16_t)be[0] << 8) | be[1]);
 8003356:	2208      	movs	r2, #8
 8003358:	18bb      	adds	r3, r7, r2
 800335a:	781b      	ldrb	r3, [r3, #0]
 800335c:	b21b      	sxth	r3, r3
 800335e:	021b      	lsls	r3, r3, #8
 8003360:	b219      	sxth	r1, r3
 8003362:	18bb      	adds	r3, r7, r2
 8003364:	785b      	ldrb	r3, [r3, #1]
 8003366:	b21a      	sxth	r2, r3
 8003368:	200e      	movs	r0, #14
 800336a:	183b      	adds	r3, r7, r0
 800336c:	430a      	orrs	r2, r1
 800336e:	801a      	strh	r2, [r3, #0]
        int c_tenths = 0;
 8003370:	2300      	movs	r3, #0
 8003372:	607b      	str	r3, [r7, #4]
        int f_tenths = 0;
 8003374:	2300      	movs	r3, #0
 8003376:	603b      	str	r3, [r7, #0]
        convert_tmp102_raw(raw, &c_tenths, &f_tenths);
 8003378:	003a      	movs	r2, r7
 800337a:	1d39      	adds	r1, r7, #4
 800337c:	183b      	adds	r3, r7, r0
 800337e:	2000      	movs	r0, #0
 8003380:	5e1b      	ldrsh	r3, [r3, r0]
 8003382:	0018      	movs	r0, r3
 8003384:	f7ff ff17 	bl	80031b6 <convert_tmp102_raw>
        printf("[%03lu] 0x%04X -> %d.%01d C (%d.%01d F)\r\n",
 8003388:	221e      	movs	r2, #30
 800338a:	18bb      	adds	r3, r7, r2
 800338c:	881d      	ldrh	r5, [r3, #0]
 800338e:	687b      	ldr	r3, [r7, #4]
 8003390:	210a      	movs	r1, #10
 8003392:	0018      	movs	r0, r3
 8003394:	f7fc ff66 	bl	8000264 <__divsi3>
 8003398:	0003      	movs	r3, r0
 800339a:	4698      	mov	r8, r3
               (unsigned long)idx,
               addr,
               c_tenths / 10,
               abs(c_tenths % 10),
 800339c:	687b      	ldr	r3, [r7, #4]
 800339e:	210a      	movs	r1, #10
 80033a0:	0018      	movs	r0, r3
 80033a2:	f7fd f845 	bl	8000430 <__aeabi_idivmod>
 80033a6:	000b      	movs	r3, r1
        printf("[%03lu] 0x%04X -> %d.%01d C (%d.%01d F)\r\n",
 80033a8:	17da      	asrs	r2, r3, #31
 80033aa:	189c      	adds	r4, r3, r2
 80033ac:	4054      	eors	r4, r2
 80033ae:	683b      	ldr	r3, [r7, #0]
 80033b0:	210a      	movs	r1, #10
 80033b2:	0018      	movs	r0, r3
 80033b4:	f7fc ff56 	bl	8000264 <__divsi3>
 80033b8:	0003      	movs	r3, r0
 80033ba:	001e      	movs	r6, r3
               f_tenths / 10,
               abs(f_tenths % 10));
 80033bc:	683b      	ldr	r3, [r7, #0]
 80033be:	210a      	movs	r1, #10
 80033c0:	0018      	movs	r0, r3
 80033c2:	f7fd f835 	bl	8000430 <__aeabi_idivmod>
 80033c6:	000b      	movs	r3, r1
        printf("[%03lu] 0x%04X -> %d.%01d C (%d.%01d F)\r\n",
 80033c8:	17da      	asrs	r2, r3, #31
 80033ca:	189b      	adds	r3, r3, r2
 80033cc:	4053      	eors	r3, r2
 80033ce:	69b9      	ldr	r1, [r7, #24]
 80033d0:	480f      	ldr	r0, [pc, #60]	@ (8003410 <dump_recent_session+0x160>)
 80033d2:	9302      	str	r3, [sp, #8]
 80033d4:	9601      	str	r6, [sp, #4]
 80033d6:	9400      	str	r4, [sp, #0]
 80033d8:	4643      	mov	r3, r8
 80033da:	002a      	movs	r2, r5
 80033dc:	f004 fa34 	bl	8007848 <iprintf>
    for (uint32_t idx = 0; idx < count; ++idx, addr = (uint16_t)(addr + 2u))
 80033e0:	69bb      	ldr	r3, [r7, #24]
 80033e2:	3301      	adds	r3, #1
 80033e4:	61bb      	str	r3, [r7, #24]
 80033e6:	221e      	movs	r2, #30
 80033e8:	18bb      	adds	r3, r7, r2
 80033ea:	18ba      	adds	r2, r7, r2
 80033ec:	8812      	ldrh	r2, [r2, #0]
 80033ee:	3202      	adds	r2, #2
 80033f0:	801a      	strh	r2, [r3, #0]
 80033f2:	69ba      	ldr	r2, [r7, #24]
 80033f4:	693b      	ldr	r3, [r7, #16]
 80033f6:	429a      	cmp	r2, r3
 80033f8:	d397      	bcc.n	800332a <dump_recent_session+0x7a>
    }
}
 80033fa:	46bd      	mov	sp, r7
 80033fc:	b008      	add	sp, #32
 80033fe:	bc80      	pop	{r7}
 8003400:	46b8      	mov	r8, r7
 8003402:	bdf0      	pop	{r4, r5, r6, r7, pc}
 8003404:	080099a0 	.word	0x080099a0
 8003408:	08009a08 	.word	0x08009a08
 800340c:	08009a3c 	.word	0x08009a3c
 8003410:	08009a58 	.word	0x08009a58

08003414 <mark_next_sample_immediate>:

static void mark_next_sample_immediate(void)
{
 8003414:	b580      	push	{r7, lr}
 8003416:	af00      	add	r7, sp, #0
    next_log_ms = 0u;
 8003418:	4b02      	ldr	r3, [pc, #8]	@ (8003424 <mark_next_sample_immediate+0x10>)
 800341a:	2200      	movs	r2, #0
 800341c:	601a      	str	r2, [r3, #0]
}
 800341e:	46c0      	nop			@ (mov r8, r8)
 8003420:	46bd      	mov	sp, r7
 8003422:	bd80      	pop	{r7, pc}
 8003424:	2000025c 	.word	0x2000025c

08003428 <service_logging>:

static void service_logging(void)
{
 8003428:	b5f0      	push	{r4, r5, r6, r7, lr}
 800342a:	b087      	sub	sp, #28
 800342c:	af02      	add	r7, sp, #8
    if (!fram_logging_enabled())
 800342e:	f7ff fac7 	bl	80029c0 <fram_logging_enabled>
 8003432:	0003      	movs	r3, r0
 8003434:	001a      	movs	r2, r3
 8003436:	2301      	movs	r3, #1
 8003438:	4053      	eors	r3, r2
 800343a:	b2db      	uxtb	r3, r3
 800343c:	2b00      	cmp	r3, #0
 800343e:	d003      	beq.n	8003448 <service_logging+0x20>
    {
        next_log_ms = 0u;
 8003440:	4b40      	ldr	r3, [pc, #256]	@ (8003544 <service_logging+0x11c>)
 8003442:	2200      	movs	r2, #0
 8003444:	601a      	str	r2, [r3, #0]
        return;
 8003446:	e079      	b.n	800353c <service_logging+0x114>
    }

    uint32_t now = HAL_GetTick();
 8003448:	f000 ff16 	bl	8004278 <HAL_GetTick>
 800344c:	0003      	movs	r3, r0
 800344e:	60fb      	str	r3, [r7, #12]
    if (next_log_ms == 0u)
 8003450:	4b3c      	ldr	r3, [pc, #240]	@ (8003544 <service_logging+0x11c>)
 8003452:	681b      	ldr	r3, [r3, #0]
 8003454:	2b00      	cmp	r3, #0
 8003456:	d102      	bne.n	800345e <service_logging+0x36>
    {
        next_log_ms = now;
 8003458:	4b3a      	ldr	r3, [pc, #232]	@ (8003544 <service_logging+0x11c>)
 800345a:	68fa      	ldr	r2, [r7, #12]
 800345c:	601a      	str	r2, [r3, #0]
    }

    if ((int32_t)(now - next_log_ms) < 0)
 800345e:	4b39      	ldr	r3, [pc, #228]	@ (8003544 <service_logging+0x11c>)
 8003460:	681b      	ldr	r3, [r3, #0]
 8003462:	68fa      	ldr	r2, [r7, #12]
 8003464:	1ad3      	subs	r3, r2, r3
 8003466:	d468      	bmi.n	800353a <service_logging+0x112>
    {
        return;
    }

    next_log_ms = now + 1000u;
 8003468:	68fb      	ldr	r3, [r7, #12]
 800346a:	22fa      	movs	r2, #250	@ 0xfa
 800346c:	0092      	lsls	r2, r2, #2
 800346e:	189a      	adds	r2, r3, r2
 8003470:	4b34      	ldr	r3, [pc, #208]	@ (8003544 <service_logging+0x11c>)
 8003472:	601a      	str	r2, [r3, #0]

    if (tmp102_trigger_oneshot() != HAL_OK)
 8003474:	f7ff fdb4 	bl	8002fe0 <tmp102_trigger_oneshot>
 8003478:	1e03      	subs	r3, r0, #0
 800347a:	d006      	beq.n	800348a <service_logging+0x62>
    {
        printf("[LOG] TMP102 trigger failed\r\n");
 800347c:	4b32      	ldr	r3, [pc, #200]	@ (8003548 <service_logging+0x120>)
 800347e:	0018      	movs	r0, r3
 8003480:	f004 fa48 	bl	8007914 <puts>
        print_prompt();
 8003484:	f7ff fece 	bl	8003224 <print_prompt>
        return;
 8003488:	e058      	b.n	800353c <service_logging+0x114>
    }

    int16_t raw = 0;
 800348a:	210a      	movs	r1, #10
 800348c:	187b      	adds	r3, r7, r1
 800348e:	2200      	movs	r2, #0
 8003490:	801a      	strh	r2, [r3, #0]
    if (tmp102_read_raw(&raw) != HAL_OK)
 8003492:	187b      	adds	r3, r7, r1
 8003494:	0018      	movs	r0, r3
 8003496:	f7ff fdcb 	bl	8003030 <tmp102_read_raw>
 800349a:	1e03      	subs	r3, r0, #0
 800349c:	d006      	beq.n	80034ac <service_logging+0x84>
    {
        printf("[LOG] TMP102 read failed\r\n");
 800349e:	4b2b      	ldr	r3, [pc, #172]	@ (800354c <service_logging+0x124>)
 80034a0:	0018      	movs	r0, r3
 80034a2:	f004 fa37 	bl	8007914 <puts>
        print_prompt();
 80034a6:	f7ff febd 	bl	8003224 <print_prompt>
        return;
 80034aa:	e047      	b.n	800353c <service_logging+0x114>
    }

    int c_tenths = 0;
 80034ac:	2300      	movs	r3, #0
 80034ae:	607b      	str	r3, [r7, #4]
    int f_tenths = 0;
 80034b0:	2300      	movs	r3, #0
 80034b2:	603b      	str	r3, [r7, #0]
    convert_tmp102_raw(raw, &c_tenths, &f_tenths);
 80034b4:	240a      	movs	r4, #10
 80034b6:	193b      	adds	r3, r7, r4
 80034b8:	2200      	movs	r2, #0
 80034ba:	5e9b      	ldrsh	r3, [r3, r2]
 80034bc:	003a      	movs	r2, r7
 80034be:	1d39      	adds	r1, r7, #4
 80034c0:	0018      	movs	r0, r3
 80034c2:	f7ff fe78 	bl	80031b6 <convert_tmp102_raw>

    if (fram_log_sample((uint16_t)raw) != HAL_OK)
 80034c6:	193b      	adds	r3, r7, r4
 80034c8:	2200      	movs	r2, #0
 80034ca:	5e9b      	ldrsh	r3, [r3, r2]
 80034cc:	b29b      	uxth	r3, r3
 80034ce:	0018      	movs	r0, r3
 80034d0:	f7ff fb04 	bl	8002adc <fram_log_sample>
 80034d4:	1e03      	subs	r3, r0, #0
 80034d6:	d006      	beq.n	80034e6 <service_logging+0xbe>
    {
        printf("[LOG] FRAM full or write error, logging stopped\r\n");
 80034d8:	4b1d      	ldr	r3, [pc, #116]	@ (8003550 <service_logging+0x128>)
 80034da:	0018      	movs	r0, r3
 80034dc:	f004 fa1a 	bl	8007914 <puts>
        print_prompt();
 80034e0:	f7ff fea0 	bl	8003224 <print_prompt>
        return;
 80034e4:	e02a      	b.n	800353c <service_logging+0x114>
    }

    printf("[LOG] %d.%01d C (%d.%01d F)\r\n",
 80034e6:	687b      	ldr	r3, [r7, #4]
 80034e8:	210a      	movs	r1, #10
 80034ea:	0018      	movs	r0, r3
 80034ec:	f7fc feba 	bl	8000264 <__divsi3>
 80034f0:	0003      	movs	r3, r0
 80034f2:	001d      	movs	r5, r3
           c_tenths / 10,
           abs(c_tenths % 10),
 80034f4:	687b      	ldr	r3, [r7, #4]
 80034f6:	210a      	movs	r1, #10
 80034f8:	0018      	movs	r0, r3
 80034fa:	f7fc ff99 	bl	8000430 <__aeabi_idivmod>
 80034fe:	000b      	movs	r3, r1
    printf("[LOG] %d.%01d C (%d.%01d F)\r\n",
 8003500:	17da      	asrs	r2, r3, #31
 8003502:	189c      	adds	r4, r3, r2
 8003504:	4054      	eors	r4, r2
 8003506:	683b      	ldr	r3, [r7, #0]
 8003508:	210a      	movs	r1, #10
 800350a:	0018      	movs	r0, r3
 800350c:	f7fc feaa 	bl	8000264 <__divsi3>
 8003510:	0003      	movs	r3, r0
 8003512:	001e      	movs	r6, r3
           f_tenths / 10,
           abs(f_tenths % 10));
 8003514:	683b      	ldr	r3, [r7, #0]
 8003516:	210a      	movs	r1, #10
 8003518:	0018      	movs	r0, r3
 800351a:	f7fc ff89 	bl	8000430 <__aeabi_idivmod>
 800351e:	000b      	movs	r3, r1
    printf("[LOG] %d.%01d C (%d.%01d F)\r\n",
 8003520:	17da      	asrs	r2, r3, #31
 8003522:	189b      	adds	r3, r3, r2
 8003524:	4053      	eors	r3, r2
 8003526:	480b      	ldr	r0, [pc, #44]	@ (8003554 <service_logging+0x12c>)
 8003528:	9300      	str	r3, [sp, #0]
 800352a:	0033      	movs	r3, r6
 800352c:	0022      	movs	r2, r4
 800352e:	0029      	movs	r1, r5
 8003530:	f004 f98a 	bl	8007848 <iprintf>
    print_prompt();
 8003534:	f7ff fe76 	bl	8003224 <print_prompt>
 8003538:	e000      	b.n	800353c <service_logging+0x114>
        return;
 800353a:	46c0      	nop			@ (mov r8, r8)
}
 800353c:	46bd      	mov	sp, r7
 800353e:	b005      	add	sp, #20
 8003540:	bdf0      	pop	{r4, r5, r6, r7, pc}
 8003542:	46c0      	nop			@ (mov r8, r8)
 8003544:	2000025c 	.word	0x2000025c
 8003548:	08009a84 	.word	0x08009a84
 800354c:	08009aa4 	.word	0x08009aa4
 8003550:	08009ac0 	.word	0x08009ac0
 8003554:	08009af4 	.word	0x08009af4

08003558 <handle_line>:

static void handle_line(char *line) {
 8003558:	b580      	push	{r7, lr}
 800355a:	b084      	sub	sp, #16
 800355c:	af00      	add	r7, sp, #0
 800355e:	6078      	str	r0, [r7, #4]
    trim(line);
 8003560:	687b      	ldr	r3, [r7, #4]
 8003562:	0018      	movs	r0, r3
 8003564:	f7ff fdc8 	bl	80030f8 <trim>
    to_upper(line);
 8003568:	687b      	ldr	r3, [r7, #4]
 800356a:	0018      	movs	r0, r3
 800356c:	f7ff fda2 	bl	80030b4 <to_upper>

    if (strcmp(line, "HELP") == 0 || strcmp(line, "?") == 0) {
 8003570:	4a4b      	ldr	r2, [pc, #300]	@ (80036a0 <handle_line+0x148>)
 8003572:	687b      	ldr	r3, [r7, #4]
 8003574:	0011      	movs	r1, r2
 8003576:	0018      	movs	r0, r3
 8003578:	f7fc fdc4 	bl	8000104 <strcmp>
 800357c:	1e03      	subs	r3, r0, #0
 800357e:	d007      	beq.n	8003590 <handle_line+0x38>
 8003580:	4a48      	ldr	r2, [pc, #288]	@ (80036a4 <handle_line+0x14c>)
 8003582:	687b      	ldr	r3, [r7, #4]
 8003584:	0011      	movs	r1, r2
 8003586:	0018      	movs	r0, r3
 8003588:	f7fc fdbc 	bl	8000104 <strcmp>
 800358c:	1e03      	subs	r3, r0, #0
 800358e:	d102      	bne.n	8003596 <handle_line+0x3e>
        print_help();
 8003590:	f7ff fe54 	bl	800323c <print_help>
 8003594:	e07f      	b.n	8003696 <handle_line+0x13e>

    } else if (strcmp(line, "STATUS") == 0) {
 8003596:	4a44      	ldr	r2, [pc, #272]	@ (80036a8 <handle_line+0x150>)
 8003598:	687b      	ldr	r3, [r7, #4]
 800359a:	0011      	movs	r1, r2
 800359c:	0018      	movs	r0, r3
 800359e:	f7fc fdb1 	bl	8000104 <strcmp>
 80035a2:	1e03      	subs	r3, r0, #0
 80035a4:	d126      	bne.n	80035f4 <handle_line+0x9c>
        uint16_t first = 0xFFFF, last = 0xFFFF;
 80035a6:	210e      	movs	r1, #14
 80035a8:	187b      	adds	r3, r7, r1
 80035aa:	2201      	movs	r2, #1
 80035ac:	4252      	negs	r2, r2
 80035ae:	801a      	strh	r2, [r3, #0]
 80035b0:	200c      	movs	r0, #12
 80035b2:	183b      	adds	r3, r7, r0
 80035b4:	2201      	movs	r2, #1
 80035b6:	4252      	negs	r2, r2
 80035b8:	801a      	strh	r2, [r3, #0]
        (void)fram_get_first_last(&first, &last);
 80035ba:	183a      	adds	r2, r7, r0
 80035bc:	187b      	adds	r3, r7, r1
 80035be:	0011      	movs	r1, r2
 80035c0:	0018      	movs	r0, r3
 80035c2:	f7ff fa0b 	bl	80029dc <fram_get_first_last>
        printf("Logging: %s\r\n", fram_logging_enabled() ? "ON" : "OFF");
 80035c6:	f7ff f9fb 	bl	80029c0 <fram_logging_enabled>
 80035ca:	1e03      	subs	r3, r0, #0
 80035cc:	d001      	beq.n	80035d2 <handle_line+0x7a>
 80035ce:	4b37      	ldr	r3, [pc, #220]	@ (80036ac <handle_line+0x154>)
 80035d0:	e000      	b.n	80035d4 <handle_line+0x7c>
 80035d2:	4b37      	ldr	r3, [pc, #220]	@ (80036b0 <handle_line+0x158>)
 80035d4:	4a37      	ldr	r2, [pc, #220]	@ (80036b4 <handle_line+0x15c>)
 80035d6:	0019      	movs	r1, r3
 80035d8:	0010      	movs	r0, r2
 80035da:	f004 f935 	bl	8007848 <iprintf>
        print_session_summary(first, last);
 80035de:	230e      	movs	r3, #14
 80035e0:	18fb      	adds	r3, r7, r3
 80035e2:	881a      	ldrh	r2, [r3, #0]
 80035e4:	230c      	movs	r3, #12
 80035e6:	18fb      	adds	r3, r7, r3
 80035e8:	881b      	ldrh	r3, [r3, #0]
 80035ea:	0019      	movs	r1, r3
 80035ec:	0010      	movs	r0, r2
 80035ee:	f7ff fe31 	bl	8003254 <print_session_summary>

    } else if (line[0] != '\0') {
        printf("Unknown: %s\r\n", line);
        print_help();
    }
}
 80035f2:	e050      	b.n	8003696 <handle_line+0x13e>
    } else if (strcmp(line, "START") == 0) {
 80035f4:	4a30      	ldr	r2, [pc, #192]	@ (80036b8 <handle_line+0x160>)
 80035f6:	687b      	ldr	r3, [r7, #4]
 80035f8:	0011      	movs	r1, r2
 80035fa:	0018      	movs	r0, r3
 80035fc:	f7fc fd82 	bl	8000104 <strcmp>
 8003600:	1e03      	subs	r3, r0, #0
 8003602:	d108      	bne.n	8003616 <handle_line+0xbe>
        fram_cmd_start();
 8003604:	f7ff fa06 	bl	8002a14 <fram_cmd_start>
        mark_next_sample_immediate();
 8003608:	f7ff ff04 	bl	8003414 <mark_next_sample_immediate>
        printf("Logging STARTED\r\n");
 800360c:	4b2b      	ldr	r3, [pc, #172]	@ (80036bc <handle_line+0x164>)
 800360e:	0018      	movs	r0, r3
 8003610:	f004 f980 	bl	8007914 <puts>
}
 8003614:	e03f      	b.n	8003696 <handle_line+0x13e>
    } else if (strcmp(line, "STOP") == 0) {
 8003616:	4a2a      	ldr	r2, [pc, #168]	@ (80036c0 <handle_line+0x168>)
 8003618:	687b      	ldr	r3, [r7, #4]
 800361a:	0011      	movs	r1, r2
 800361c:	0018      	movs	r0, r3
 800361e:	f7fc fd71 	bl	8000104 <strcmp>
 8003622:	1e03      	subs	r3, r0, #0
 8003624:	d106      	bne.n	8003634 <handle_line+0xdc>
        fram_cmd_stop();
 8003626:	f7ff fa01 	bl	8002a2c <fram_cmd_stop>
        printf("Logging STOPPED\r\n");
 800362a:	4b26      	ldr	r3, [pc, #152]	@ (80036c4 <handle_line+0x16c>)
 800362c:	0018      	movs	r0, r3
 800362e:	f004 f971 	bl	8007914 <puts>
}
 8003632:	e030      	b.n	8003696 <handle_line+0x13e>
    } else if (strcmp(line, "CLEAN") == 0 || strcmp(line, "CLEAR") == 0) {
 8003634:	4a24      	ldr	r2, [pc, #144]	@ (80036c8 <handle_line+0x170>)
 8003636:	687b      	ldr	r3, [r7, #4]
 8003638:	0011      	movs	r1, r2
 800363a:	0018      	movs	r0, r3
 800363c:	f7fc fd62 	bl	8000104 <strcmp>
 8003640:	1e03      	subs	r3, r0, #0
 8003642:	d007      	beq.n	8003654 <handle_line+0xfc>
 8003644:	4a21      	ldr	r2, [pc, #132]	@ (80036cc <handle_line+0x174>)
 8003646:	687b      	ldr	r3, [r7, #4]
 8003648:	0011      	movs	r1, r2
 800364a:	0018      	movs	r0, r3
 800364c:	f7fc fd5a 	bl	8000104 <strcmp>
 8003650:	1e03      	subs	r3, r0, #0
 8003652:	d108      	bne.n	8003666 <handle_line+0x10e>
        fram_cmd_clear();
 8003654:	f7ff f9f4 	bl	8002a40 <fram_cmd_clear>
        mark_next_sample_immediate();
 8003658:	f7ff fedc 	bl	8003414 <mark_next_sample_immediate>
        printf("FRAM CLEARED\r\n");
 800365c:	4b1c      	ldr	r3, [pc, #112]	@ (80036d0 <handle_line+0x178>)
 800365e:	0018      	movs	r0, r3
 8003660:	f004 f958 	bl	8007914 <puts>
 8003664:	e017      	b.n	8003696 <handle_line+0x13e>
    } else if (strcmp(line, "TEMP") == 0) {
 8003666:	4a1b      	ldr	r2, [pc, #108]	@ (80036d4 <handle_line+0x17c>)
 8003668:	687b      	ldr	r3, [r7, #4]
 800366a:	0011      	movs	r1, r2
 800366c:	0018      	movs	r0, r3
 800366e:	f7fc fd49 	bl	8000104 <strcmp>
 8003672:	1e03      	subs	r3, r0, #0
 8003674:	d102      	bne.n	800367c <handle_line+0x124>
        dump_recent_session();
 8003676:	f7ff fe1b 	bl	80032b0 <dump_recent_session>
}
 800367a:	e00c      	b.n	8003696 <handle_line+0x13e>
    } else if (line[0] != '\0') {
 800367c:	687b      	ldr	r3, [r7, #4]
 800367e:	781b      	ldrb	r3, [r3, #0]
 8003680:	2b00      	cmp	r3, #0
 8003682:	d008      	beq.n	8003696 <handle_line+0x13e>
        printf("Unknown: %s\r\n", line);
 8003684:	687a      	ldr	r2, [r7, #4]
 8003686:	4b14      	ldr	r3, [pc, #80]	@ (80036d8 <handle_line+0x180>)
 8003688:	0011      	movs	r1, r2
 800368a:	0018      	movs	r0, r3
 800368c:	f004 f8dc 	bl	8007848 <iprintf>
        print_help();
 8003690:	f7ff fdd4 	bl	800323c <print_help>
}
 8003694:	e7ff      	b.n	8003696 <handle_line+0x13e>
 8003696:	46c0      	nop			@ (mov r8, r8)
 8003698:	46bd      	mov	sp, r7
 800369a:	b004      	add	sp, #16
 800369c:	bd80      	pop	{r7, pc}
 800369e:	46c0      	nop			@ (mov r8, r8)
 80036a0:	08009b14 	.word	0x08009b14
 80036a4:	08009b1c 	.word	0x08009b1c
 80036a8:	08009b20 	.word	0x08009b20
 80036ac:	08009b28 	.word	0x08009b28
 80036b0:	08009b2c 	.word	0x08009b2c
 80036b4:	08009b30 	.word	0x08009b30
 80036b8:	08009b40 	.word	0x08009b40
 80036bc:	08009b48 	.word	0x08009b48
 80036c0:	08009b5c 	.word	0x08009b5c
 80036c4:	08009b64 	.word	0x08009b64
 80036c8:	08009b78 	.word	0x08009b78
 80036cc:	08009b80 	.word	0x08009b80
 80036d0:	08009b88 	.word	0x08009b88
 80036d4:	08009b98 	.word	0x08009b98
 80036d8:	08009ba0 	.word	0x08009ba0

080036dc <main>:

int main(void)
{
 80036dc:	b580      	push	{r7, lr}
 80036de:	b0a2      	sub	sp, #136	@ 0x88
 80036e0:	af00      	add	r7, sp, #0
    HAL_Init();
 80036e2:	f000 fd4d 	bl	8004180 <HAL_Init>

    /* Configure I2C1 on PB8/PB9 at 100 kHz using HSI16 as kernel clock */
    I2C1_Init_PB8PB9_100k_HSI16();
 80036e6:	f7ff fa57 	bl	8002b98 <I2C1_Init_PB8PB9_100k_HSI16>

    MX_GPIO_Init();
 80036ea:	f000 f82d 	bl	8003748 <MX_GPIO_Init>
    MX_SPI1_Init();
 80036ee:	f000 f881 	bl	80037f4 <MX_SPI1_Init>

    MX_USART2_UART_Init();
 80036f2:	f000 fd0f 	bl	8004114 <MX_USART2_UART_Init>

    (void)tmp102_initialize();
 80036f6:	f7ff fc4b 	bl	8002f90 <tmp102_initialize>
    fram_init_state();
 80036fa:	f7ff f955 	bl	80029a8 <fram_init_state>

    printf("\r\nUART online (115200 8N1)\r\n");
 80036fe:	4b11      	ldr	r3, [pc, #68]	@ (8003744 <main+0x68>)
 8003700:	0018      	movs	r0, r3
 8003702:	f004 f907 	bl	8007914 <puts>
    print_help();
 8003706:	f7ff fd99 	bl	800323c <print_help>
    print_prompt();
 800370a:	f7ff fd8b 	bl	8003224 <print_prompt>

    char line[128];

    while (1) {
        if (ring_has_line()) {
 800370e:	f000 f91b 	bl	8003948 <ring_has_line>
 8003712:	1e03      	subs	r3, r0, #0
 8003714:	d012      	beq.n	800373c <main+0x60>
            int n = ring_read_line(line, sizeof line);
 8003716:	1d3b      	adds	r3, r7, #4
 8003718:	2180      	movs	r1, #128	@ 0x80
 800371a:	0018      	movs	r0, r3
 800371c:	f000 f9e2 	bl	8003ae4 <ring_read_line>
 8003720:	0003      	movs	r3, r0
 8003722:	2284      	movs	r2, #132	@ 0x84
 8003724:	18b9      	adds	r1, r7, r2
 8003726:	600b      	str	r3, [r1, #0]
            if (n > 0) {
 8003728:	18bb      	adds	r3, r7, r2
 800372a:	681b      	ldr	r3, [r3, #0]
 800372c:	2b00      	cmp	r3, #0
 800372e:	dd05      	ble.n	800373c <main+0x60>
                handle_line(line);
 8003730:	1d3b      	adds	r3, r7, #4
 8003732:	0018      	movs	r0, r3
 8003734:	f7ff ff10 	bl	8003558 <handle_line>
                print_prompt();
 8003738:	f7ff fd74 	bl	8003224 <print_prompt>
            }
        }

        service_logging();
 800373c:	f7ff fe74 	bl	8003428 <service_logging>
        if (ring_has_line()) {
 8003740:	e7e5      	b.n	800370e <main+0x32>
 8003742:	46c0      	nop			@ (mov r8, r8)
 8003744:	08009bb0 	.word	0x08009bb0

08003748 <MX_GPIO_Init>:
    }
}

static void MX_GPIO_Init(void)
{
 8003748:	b590      	push	{r4, r7, lr}
 800374a:	b089      	sub	sp, #36	@ 0x24
 800374c:	af00      	add	r7, sp, #0
    GPIO_InitTypeDef GPIO_InitStruct = {0};
 800374e:	240c      	movs	r4, #12
 8003750:	193b      	adds	r3, r7, r4
 8003752:	0018      	movs	r0, r3
 8003754:	2314      	movs	r3, #20
 8003756:	001a      	movs	r2, r3
 8003758:	2100      	movs	r1, #0
 800375a:	f004 f9e3 	bl	8007b24 <memset>

    __HAL_RCC_GPIOB_CLK_ENABLE();
 800375e:	4b22      	ldr	r3, [pc, #136]	@ (80037e8 <MX_GPIO_Init+0xa0>)
 8003760:	6b5a      	ldr	r2, [r3, #52]	@ 0x34
 8003762:	4b21      	ldr	r3, [pc, #132]	@ (80037e8 <MX_GPIO_Init+0xa0>)
 8003764:	2102      	movs	r1, #2
 8003766:	430a      	orrs	r2, r1
 8003768:	635a      	str	r2, [r3, #52]	@ 0x34
 800376a:	4b1f      	ldr	r3, [pc, #124]	@ (80037e8 <MX_GPIO_Init+0xa0>)
 800376c:	6b5b      	ldr	r3, [r3, #52]	@ 0x34
 800376e:	2202      	movs	r2, #2
 8003770:	4013      	ands	r3, r2
 8003772:	60bb      	str	r3, [r7, #8]
 8003774:	68bb      	ldr	r3, [r7, #8]
    __HAL_RCC_GPIOC_CLK_ENABLE();
 8003776:	4b1c      	ldr	r3, [pc, #112]	@ (80037e8 <MX_GPIO_Init+0xa0>)
 8003778:	6b5a      	ldr	r2, [r3, #52]	@ 0x34
 800377a:	4b1b      	ldr	r3, [pc, #108]	@ (80037e8 <MX_GPIO_Init+0xa0>)
 800377c:	2104      	movs	r1, #4
 800377e:	430a      	orrs	r2, r1
 8003780:	635a      	str	r2, [r3, #52]	@ 0x34
 8003782:	4b19      	ldr	r3, [pc, #100]	@ (80037e8 <MX_GPIO_Init+0xa0>)
 8003784:	6b5b      	ldr	r3, [r3, #52]	@ 0x34
 8003786:	2204      	movs	r2, #4
 8003788:	4013      	ands	r3, r2
 800378a:	607b      	str	r3, [r7, #4]
 800378c:	687b      	ldr	r3, [r7, #4]

    GPIO_InitStruct.Pin = FRAM_CS_Pin;
 800378e:	193b      	adds	r3, r7, r4
 8003790:	2201      	movs	r2, #1
 8003792:	601a      	str	r2, [r3, #0]
    GPIO_InitStruct.Mode = GPIO_MODE_OUTPUT_PP;
 8003794:	193b      	adds	r3, r7, r4
 8003796:	2201      	movs	r2, #1
 8003798:	605a      	str	r2, [r3, #4]
    GPIO_InitStruct.Pull = GPIO_NOPULL;
 800379a:	193b      	adds	r3, r7, r4
 800379c:	2200      	movs	r2, #0
 800379e:	609a      	str	r2, [r3, #8]
    GPIO_InitStruct.Speed = GPIO_SPEED_FREQ_HIGH;
 80037a0:	193b      	adds	r3, r7, r4
 80037a2:	2202      	movs	r2, #2
 80037a4:	60da      	str	r2, [r3, #12]
    HAL_GPIO_Init(FRAM_CS_GPIO_Port, &GPIO_InitStruct);
 80037a6:	193b      	adds	r3, r7, r4
 80037a8:	4a10      	ldr	r2, [pc, #64]	@ (80037ec <MX_GPIO_Init+0xa4>)
 80037aa:	0019      	movs	r1, r3
 80037ac:	0010      	movs	r0, r2
 80037ae:	f000 ff3b 	bl	8004628 <HAL_GPIO_Init>

    GPIO_InitStruct.Pin = FRAM_WP_Pin;
 80037b2:	0021      	movs	r1, r4
 80037b4:	187b      	adds	r3, r7, r1
 80037b6:	2280      	movs	r2, #128	@ 0x80
 80037b8:	601a      	str	r2, [r3, #0]
    HAL_GPIO_Init(FRAM_WP_GPIO_Port, &GPIO_InitStruct);
 80037ba:	187b      	adds	r3, r7, r1
 80037bc:	4a0c      	ldr	r2, [pc, #48]	@ (80037f0 <MX_GPIO_Init+0xa8>)
 80037be:	0019      	movs	r1, r3
 80037c0:	0010      	movs	r0, r2
 80037c2:	f000 ff31 	bl	8004628 <HAL_GPIO_Init>

    HAL_GPIO_WritePin(FRAM_CS_GPIO_Port, FRAM_CS_Pin, GPIO_PIN_SET);
 80037c6:	4b09      	ldr	r3, [pc, #36]	@ (80037ec <MX_GPIO_Init+0xa4>)
 80037c8:	2201      	movs	r2, #1
 80037ca:	2101      	movs	r1, #1
 80037cc:	0018      	movs	r0, r3
 80037ce:	f001 f88f 	bl	80048f0 <HAL_GPIO_WritePin>
    HAL_GPIO_WritePin(FRAM_WP_GPIO_Port, FRAM_WP_Pin, GPIO_PIN_SET);
 80037d2:	4b07      	ldr	r3, [pc, #28]	@ (80037f0 <MX_GPIO_Init+0xa8>)
 80037d4:	2201      	movs	r2, #1
 80037d6:	2180      	movs	r1, #128	@ 0x80
 80037d8:	0018      	movs	r0, r3
 80037da:	f001 f889 	bl	80048f0 <HAL_GPIO_WritePin>
}
 80037de:	46c0      	nop			@ (mov r8, r8)
 80037e0:	46bd      	mov	sp, r7
 80037e2:	b009      	add	sp, #36	@ 0x24
 80037e4:	bd90      	pop	{r4, r7, pc}
 80037e6:	46c0      	nop			@ (mov r8, r8)
 80037e8:	40021000 	.word	0x40021000
 80037ec:	50000400 	.word	0x50000400
 80037f0:	50000800 	.word	0x50000800

080037f4 <MX_SPI1_Init>:

static void MX_SPI1_Init(void)
{
 80037f4:	b580      	push	{r7, lr}
 80037f6:	af00      	add	r7, sp, #0
    hspi1.Instance = SPI1;
 80037f8:	4b1b      	ldr	r3, [pc, #108]	@ (8003868 <MX_SPI1_Init+0x74>)
 80037fa:	4a1c      	ldr	r2, [pc, #112]	@ (800386c <MX_SPI1_Init+0x78>)
 80037fc:	601a      	str	r2, [r3, #0]
    hspi1.Init.Mode = SPI_MODE_MASTER;
 80037fe:	4b1a      	ldr	r3, [pc, #104]	@ (8003868 <MX_SPI1_Init+0x74>)
 8003800:	2282      	movs	r2, #130	@ 0x82
 8003802:	0052      	lsls	r2, r2, #1
 8003804:	605a      	str	r2, [r3, #4]
    hspi1.Init.Direction = SPI_DIRECTION_2LINES;
 8003806:	4b18      	ldr	r3, [pc, #96]	@ (8003868 <MX_SPI1_Init+0x74>)
 8003808:	2200      	movs	r2, #0
 800380a:	609a      	str	r2, [r3, #8]
    hspi1.Init.DataSize = SPI_DATASIZE_8BIT;
 800380c:	4b16      	ldr	r3, [pc, #88]	@ (8003868 <MX_SPI1_Init+0x74>)
 800380e:	22e0      	movs	r2, #224	@ 0xe0
 8003810:	00d2      	lsls	r2, r2, #3
 8003812:	60da      	str	r2, [r3, #12]
    hspi1.Init.CLKPolarity = SPI_POLARITY_LOW;
 8003814:	4b14      	ldr	r3, [pc, #80]	@ (8003868 <MX_SPI1_Init+0x74>)
 8003816:	2200      	movs	r2, #0
 8003818:	611a      	str	r2, [r3, #16]
    hspi1.Init.CLKPhase = SPI_PHASE_1EDGE;
 800381a:	4b13      	ldr	r3, [pc, #76]	@ (8003868 <MX_SPI1_Init+0x74>)
 800381c:	2200      	movs	r2, #0
 800381e:	615a      	str	r2, [r3, #20]
    hspi1.Init.NSS = SPI_NSS_SOFT;
 8003820:	4b11      	ldr	r3, [pc, #68]	@ (8003868 <MX_SPI1_Init+0x74>)
 8003822:	2280      	movs	r2, #128	@ 0x80
 8003824:	0092      	lsls	r2, r2, #2
 8003826:	619a      	str	r2, [r3, #24]
    hspi1.Init.BaudRatePrescaler = SPI_BAUDRATEPRESCALER_32;
 8003828:	4b0f      	ldr	r3, [pc, #60]	@ (8003868 <MX_SPI1_Init+0x74>)
 800382a:	2220      	movs	r2, #32
 800382c:	61da      	str	r2, [r3, #28]
    hspi1.Init.FirstBit = SPI_FIRSTBIT_MSB;
 800382e:	4b0e      	ldr	r3, [pc, #56]	@ (8003868 <MX_SPI1_Init+0x74>)
 8003830:	2200      	movs	r2, #0
 8003832:	621a      	str	r2, [r3, #32]
    hspi1.Init.TIMode = SPI_TIMODE_DISABLE;
 8003834:	4b0c      	ldr	r3, [pc, #48]	@ (8003868 <MX_SPI1_Init+0x74>)
 8003836:	2200      	movs	r2, #0
 8003838:	625a      	str	r2, [r3, #36]	@ 0x24
    hspi1.Init.CRCCalculation = SPI_CRCCALCULATION_DISABLE;
 800383a:	4b0b      	ldr	r3, [pc, #44]	@ (8003868 <MX_SPI1_Init+0x74>)
 800383c:	2200      	movs	r2, #0
 800383e:	629a      	str	r2, [r3, #40]	@ 0x28
    hspi1.Init.CRCPolynomial = 7;
 8003840:	4b09      	ldr	r3, [pc, #36]	@ (8003868 <MX_SPI1_Init+0x74>)
 8003842:	2207      	movs	r2, #7
 8003844:	62da      	str	r2, [r3, #44]	@ 0x2c
    hspi1.Init.CRCLength = SPI_CRC_LENGTH_DATASIZE;
 8003846:	4b08      	ldr	r3, [pc, #32]	@ (8003868 <MX_SPI1_Init+0x74>)
 8003848:	2200      	movs	r2, #0
 800384a:	631a      	str	r2, [r3, #48]	@ 0x30
    hspi1.Init.NSSPMode = SPI_NSS_PULSE_DISABLE;
 800384c:	4b06      	ldr	r3, [pc, #24]	@ (8003868 <MX_SPI1_Init+0x74>)
 800384e:	2200      	movs	r2, #0
 8003850:	635a      	str	r2, [r3, #52]	@ 0x34
    if (HAL_SPI_Init(&hspi1) != HAL_OK)
 8003852:	4b05      	ldr	r3, [pc, #20]	@ (8003868 <MX_SPI1_Init+0x74>)
 8003854:	0018      	movs	r0, r3
 8003856:	f001 facf 	bl	8004df8 <HAL_SPI_Init>
 800385a:	1e03      	subs	r3, r0, #0
 800385c:	d001      	beq.n	8003862 <MX_SPI1_Init+0x6e>
    {
        Error_Handler();
 800385e:	f000 f807 	bl	8003870 <Error_Handler>
    }
}
 8003862:	46c0      	nop			@ (mov r8, r8)
 8003864:	46bd      	mov	sp, r7
 8003866:	bd80      	pop	{r7, pc}
 8003868:	200001f8 	.word	0x200001f8
 800386c:	40013000 	.word	0x40013000

08003870 <Error_Handler>:

void Error_Handler(void)
{
 8003870:	b580      	push	{r7, lr}
 8003872:	af00      	add	r7, sp, #0
  \details Disables IRQ interrupts by setting the I-bit in the CPSR.
           Can only be executed in Privileged modes.
 */
__STATIC_FORCEINLINE void __disable_irq(void)
{
  __ASM volatile ("cpsid i" : : : "memory");
 8003874:	b672      	cpsid	i
}
 8003876:	46c0      	nop			@ (mov r8, r8)
    __disable_irq();
    while (1) { }
 8003878:	46c0      	nop			@ (mov r8, r8)
 800387a:	e7fd      	b.n	8003878 <Error_Handler+0x8>

0800387c <__io_putchar>:
/* Provided by usart.c */
void USR_USART2_WriteByte(uint8_t b);


int __io_putchar(int ch)
{
 800387c:	b580      	push	{r7, lr}
 800387e:	b082      	sub	sp, #8
 8003880:	af00      	add	r7, sp, #0
 8003882:	6078      	str	r0, [r7, #4]
if (ch == '\n') {
 8003884:	687b      	ldr	r3, [r7, #4]
 8003886:	2b0a      	cmp	r3, #10
 8003888:	d102      	bne.n	8003890 <__io_putchar+0x14>
USR_USART2_WriteByte('\r');
 800388a:	200d      	movs	r0, #13
 800388c:	f000 fb7c 	bl	8003f88 <USR_USART2_WriteByte>
}
USR_USART2_WriteByte((uint8_t)ch);
 8003890:	687b      	ldr	r3, [r7, #4]
 8003892:	b2db      	uxtb	r3, r3
 8003894:	0018      	movs	r0, r3
 8003896:	f000 fb77 	bl	8003f88 <USR_USART2_WriteByte>
return ch;
 800389a:	687b      	ldr	r3, [r7, #4]
}
 800389c:	0018      	movs	r0, r3
 800389e:	46bd      	mov	sp, r7
 80038a0:	b002      	add	sp, #8
 80038a2:	bd80      	pop	{r7, pc}

080038a4 <inc>:
/* Storage */
static char    rb[RING_CAP];
static uint8_t head, tail, count, lines;
static uint8_t last_was_cr;

static inline uint8_t inc(uint8_t x){ return (uint8_t)((x + 1u) % RING_CAP); }
 80038a4:	b580      	push	{r7, lr}
 80038a6:	b082      	sub	sp, #8
 80038a8:	af00      	add	r7, sp, #0
 80038aa:	0002      	movs	r2, r0
 80038ac:	1dfb      	adds	r3, r7, #7
 80038ae:	701a      	strb	r2, [r3, #0]
 80038b0:	1dfb      	adds	r3, r7, #7
 80038b2:	781b      	ldrb	r3, [r3, #0]
 80038b4:	3301      	adds	r3, #1
 80038b6:	b2db      	uxtb	r3, r3
 80038b8:	0018      	movs	r0, r3
 80038ba:	46bd      	mov	sp, r7
 80038bc:	b002      	add	sp, #8
 80038be:	bd80      	pop	{r7, pc}

080038c0 <dec>:
static inline uint8_t dec(uint8_t x){ return (uint8_t)((x + RING_CAP - 1u) % RING_CAP); }
 80038c0:	b580      	push	{r7, lr}
 80038c2:	b082      	sub	sp, #8
 80038c4:	af00      	add	r7, sp, #0
 80038c6:	0002      	movs	r2, r0
 80038c8:	1dfb      	adds	r3, r7, #7
 80038ca:	701a      	strb	r2, [r3, #0]
 80038cc:	1dfb      	adds	r3, r7, #7
 80038ce:	781b      	ldrb	r3, [r3, #0]
 80038d0:	3b01      	subs	r3, #1
 80038d2:	b2db      	uxtb	r3, r3
 80038d4:	0018      	movs	r0, r3
 80038d6:	46bd      	mov	sp, r7
 80038d8:	b002      	add	sp, #8
 80038da:	bd80      	pop	{r7, pc}

080038dc <ring_init>:

void ring_init(void){
 80038dc:	b580      	push	{r7, lr}
 80038de:	b082      	sub	sp, #8
 80038e0:	af00      	add	r7, sp, #0
    head = tail = count = lines = last_was_cr = 0u;
 80038e2:	4b13      	ldr	r3, [pc, #76]	@ (8003930 <ring_init+0x54>)
 80038e4:	2200      	movs	r2, #0
 80038e6:	701a      	strb	r2, [r3, #0]
 80038e8:	4b11      	ldr	r3, [pc, #68]	@ (8003930 <ring_init+0x54>)
 80038ea:	781a      	ldrb	r2, [r3, #0]
 80038ec:	4b11      	ldr	r3, [pc, #68]	@ (8003934 <ring_init+0x58>)
 80038ee:	701a      	strb	r2, [r3, #0]
 80038f0:	4b10      	ldr	r3, [pc, #64]	@ (8003934 <ring_init+0x58>)
 80038f2:	781a      	ldrb	r2, [r3, #0]
 80038f4:	4b10      	ldr	r3, [pc, #64]	@ (8003938 <ring_init+0x5c>)
 80038f6:	701a      	strb	r2, [r3, #0]
 80038f8:	4b0f      	ldr	r3, [pc, #60]	@ (8003938 <ring_init+0x5c>)
 80038fa:	781a      	ldrb	r2, [r3, #0]
 80038fc:	4b0f      	ldr	r3, [pc, #60]	@ (800393c <ring_init+0x60>)
 80038fe:	701a      	strb	r2, [r3, #0]
 8003900:	4b0e      	ldr	r3, [pc, #56]	@ (800393c <ring_init+0x60>)
 8003902:	781a      	ldrb	r2, [r3, #0]
 8003904:	4b0e      	ldr	r3, [pc, #56]	@ (8003940 <ring_init+0x64>)
 8003906:	701a      	strb	r2, [r3, #0]
    for (uint32_t i=0;i<RING_CAP;i++) rb[i]=0;
 8003908:	2300      	movs	r3, #0
 800390a:	607b      	str	r3, [r7, #4]
 800390c:	e007      	b.n	800391e <ring_init+0x42>
 800390e:	4a0d      	ldr	r2, [pc, #52]	@ (8003944 <ring_init+0x68>)
 8003910:	687b      	ldr	r3, [r7, #4]
 8003912:	18d3      	adds	r3, r2, r3
 8003914:	2200      	movs	r2, #0
 8003916:	701a      	strb	r2, [r3, #0]
 8003918:	687b      	ldr	r3, [r7, #4]
 800391a:	3301      	adds	r3, #1
 800391c:	607b      	str	r3, [r7, #4]
 800391e:	687b      	ldr	r3, [r7, #4]
 8003920:	2bff      	cmp	r3, #255	@ 0xff
 8003922:	d9f4      	bls.n	800390e <ring_init+0x32>
}
 8003924:	46c0      	nop			@ (mov r8, r8)
 8003926:	46c0      	nop			@ (mov r8, r8)
 8003928:	46bd      	mov	sp, r7
 800392a:	b002      	add	sp, #8
 800392c:	bd80      	pop	{r7, pc}
 800392e:	46c0      	nop			@ (mov r8, r8)
 8003930:	20000364 	.word	0x20000364
 8003934:	20000363 	.word	0x20000363
 8003938:	20000362 	.word	0x20000362
 800393c:	20000361 	.word	0x20000361
 8003940:	20000360 	.word	0x20000360
 8003944:	20000260 	.word	0x20000260

08003948 <ring_has_line>:
void ring_clear(void){ ring_init(); }
int  ring_count(void){ return (int)count; }
int  ring_is_empty(void){ return count==0u; }
int  ring_has_line(void){ return lines>0u; }
 8003948:	b580      	push	{r7, lr}
 800394a:	af00      	add	r7, sp, #0
 800394c:	4b03      	ldr	r3, [pc, #12]	@ (800395c <ring_has_line+0x14>)
 800394e:	781b      	ldrb	r3, [r3, #0]
 8003950:	1e5a      	subs	r2, r3, #1
 8003952:	4193      	sbcs	r3, r2
 8003954:	b2db      	uxtb	r3, r3
 8003956:	0018      	movs	r0, r3
 8003958:	46bd      	mov	sp, r7
 800395a:	bd80      	pop	{r7, pc}
 800395c:	20000363 	.word	0x20000363

08003960 <push_byte>:

static void push_byte(char ch){
 8003960:	b580      	push	{r7, lr}
 8003962:	b082      	sub	sp, #8
 8003964:	af00      	add	r7, sp, #0
 8003966:	0002      	movs	r2, r0
 8003968:	1dfb      	adds	r3, r7, #7
 800396a:	701a      	strb	r2, [r3, #0]
    if (count == RING_CAP) {
        if (rb[tail] == '\r' && lines) lines--;
        tail = inc(tail); count--;
    }
    rb[head]=ch; head=inc(head); count++;
 800396c:	4b0c      	ldr	r3, [pc, #48]	@ (80039a0 <push_byte+0x40>)
 800396e:	781b      	ldrb	r3, [r3, #0]
 8003970:	0019      	movs	r1, r3
 8003972:	4b0c      	ldr	r3, [pc, #48]	@ (80039a4 <push_byte+0x44>)
 8003974:	1dfa      	adds	r2, r7, #7
 8003976:	7812      	ldrb	r2, [r2, #0]
 8003978:	545a      	strb	r2, [r3, r1]
 800397a:	4b09      	ldr	r3, [pc, #36]	@ (80039a0 <push_byte+0x40>)
 800397c:	781b      	ldrb	r3, [r3, #0]
 800397e:	0018      	movs	r0, r3
 8003980:	f7ff ff90 	bl	80038a4 <inc>
 8003984:	0003      	movs	r3, r0
 8003986:	001a      	movs	r2, r3
 8003988:	4b05      	ldr	r3, [pc, #20]	@ (80039a0 <push_byte+0x40>)
 800398a:	701a      	strb	r2, [r3, #0]
 800398c:	4b06      	ldr	r3, [pc, #24]	@ (80039a8 <push_byte+0x48>)
 800398e:	781b      	ldrb	r3, [r3, #0]
 8003990:	3301      	adds	r3, #1
 8003992:	b2da      	uxtb	r2, r3
 8003994:	4b04      	ldr	r3, [pc, #16]	@ (80039a8 <push_byte+0x48>)
 8003996:	701a      	strb	r2, [r3, #0]
}
 8003998:	46c0      	nop			@ (mov r8, r8)
 800399a:	46bd      	mov	sp, r7
 800399c:	b002      	add	sp, #8
 800399e:	bd80      	pop	{r7, pc}
 80039a0:	20000360 	.word	0x20000360
 80039a4:	20000260 	.word	0x20000260
 80039a8:	20000362 	.word	0x20000362

080039ac <echo_bs_one>:

static void echo_bs_one(void){
 80039ac:	b580      	push	{r7, lr}
 80039ae:	af00      	add	r7, sp, #0
    __io_putchar('\b'); __io_putchar(' '); __io_putchar('\b');
 80039b0:	2008      	movs	r0, #8
 80039b2:	f7ff ff63 	bl	800387c <__io_putchar>
 80039b6:	2020      	movs	r0, #32
 80039b8:	f7ff ff60 	bl	800387c <__io_putchar>
 80039bc:	2008      	movs	r0, #8
 80039be:	f7ff ff5d 	bl	800387c <__io_putchar>
}
 80039c2:	46c0      	nop			@ (mov r8, r8)
 80039c4:	46bd      	mov	sp, r7
 80039c6:	bd80      	pop	{r7, pc}

080039c8 <ring_add>:

void ring_add(char ch){
 80039c8:	b5b0      	push	{r4, r5, r7, lr}
 80039ca:	b084      	sub	sp, #16
 80039cc:	af00      	add	r7, sp, #0
 80039ce:	0002      	movs	r2, r0
 80039d0:	1dfb      	adds	r3, r7, #7
 80039d2:	701a      	strb	r2, [r3, #0]
    unsigned char u = (unsigned char)ch;
 80039d4:	210f      	movs	r1, #15
 80039d6:	187b      	adds	r3, r7, r1
 80039d8:	1dfa      	adds	r2, r7, #7
 80039da:	7812      	ldrb	r2, [r2, #0]
 80039dc:	701a      	strb	r2, [r3, #0]

    /* Backspace or DEL */
    if (u == '\b' || u == 0x7Fu){
 80039de:	000a      	movs	r2, r1
 80039e0:	18bb      	adds	r3, r7, r2
 80039e2:	781b      	ldrb	r3, [r3, #0]
 80039e4:	2b08      	cmp	r3, #8
 80039e6:	d003      	beq.n	80039f0 <ring_add+0x28>
 80039e8:	18bb      	adds	r3, r7, r2
 80039ea:	781b      	ldrb	r3, [r3, #0]
 80039ec:	2b7f      	cmp	r3, #127	@ 0x7f
 80039ee:	d129      	bne.n	8003a44 <ring_add+0x7c>
        last_was_cr = 0u;
 80039f0:	4b37      	ldr	r3, [pc, #220]	@ (8003ad0 <ring_add+0x108>)
 80039f2:	2200      	movs	r2, #0
 80039f4:	701a      	strb	r2, [r3, #0]
        if (count>0u){
 80039f6:	4b37      	ldr	r3, [pc, #220]	@ (8003ad4 <ring_add+0x10c>)
 80039f8:	781b      	ldrb	r3, [r3, #0]
 80039fa:	2b00      	cmp	r3, #0
 80039fc:	d063      	beq.n	8003ac6 <ring_add+0xfe>
            uint8_t prev = dec(head);
 80039fe:	4b36      	ldr	r3, [pc, #216]	@ (8003ad8 <ring_add+0x110>)
 8003a00:	781b      	ldrb	r3, [r3, #0]
 8003a02:	250e      	movs	r5, #14
 8003a04:	197c      	adds	r4, r7, r5
 8003a06:	0018      	movs	r0, r3
 8003a08:	f7ff ff5a 	bl	80038c0 <dec>
 8003a0c:	0003      	movs	r3, r0
 8003a0e:	7023      	strb	r3, [r4, #0]
            if (rb[prev] != '\r'){ head=prev; rb[head]=0; count--; echo_bs_one(); }
 8003a10:	0029      	movs	r1, r5
 8003a12:	187b      	adds	r3, r7, r1
 8003a14:	781b      	ldrb	r3, [r3, #0]
 8003a16:	4a31      	ldr	r2, [pc, #196]	@ (8003adc <ring_add+0x114>)
 8003a18:	5cd3      	ldrb	r3, [r2, r3]
 8003a1a:	2b0d      	cmp	r3, #13
 8003a1c:	d053      	beq.n	8003ac6 <ring_add+0xfe>
 8003a1e:	4b2e      	ldr	r3, [pc, #184]	@ (8003ad8 <ring_add+0x110>)
 8003a20:	187a      	adds	r2, r7, r1
 8003a22:	7812      	ldrb	r2, [r2, #0]
 8003a24:	701a      	strb	r2, [r3, #0]
 8003a26:	4b2c      	ldr	r3, [pc, #176]	@ (8003ad8 <ring_add+0x110>)
 8003a28:	781b      	ldrb	r3, [r3, #0]
 8003a2a:	001a      	movs	r2, r3
 8003a2c:	4b2b      	ldr	r3, [pc, #172]	@ (8003adc <ring_add+0x114>)
 8003a2e:	2100      	movs	r1, #0
 8003a30:	5499      	strb	r1, [r3, r2]
 8003a32:	4b28      	ldr	r3, [pc, #160]	@ (8003ad4 <ring_add+0x10c>)
 8003a34:	781b      	ldrb	r3, [r3, #0]
 8003a36:	3b01      	subs	r3, #1
 8003a38:	b2da      	uxtb	r2, r3
 8003a3a:	4b26      	ldr	r3, [pc, #152]	@ (8003ad4 <ring_add+0x10c>)
 8003a3c:	701a      	strb	r2, [r3, #0]
 8003a3e:	f7ff ffb5 	bl	80039ac <echo_bs_one>
        }
        return;
 8003a42:	e040      	b.n	8003ac6 <ring_add+0xfe>
    }

    /* Normalize line endings */
    if (u == '\n'){
 8003a44:	230f      	movs	r3, #15
 8003a46:	18fb      	adds	r3, r7, r3
 8003a48:	781b      	ldrb	r3, [r3, #0]
 8003a4a:	2b0a      	cmp	r3, #10
 8003a4c:	d10b      	bne.n	8003a66 <ring_add+0x9e>
        if (last_was_cr){ last_was_cr=0u; return; } /* swallow LF after CR */
 8003a4e:	4b20      	ldr	r3, [pc, #128]	@ (8003ad0 <ring_add+0x108>)
 8003a50:	781b      	ldrb	r3, [r3, #0]
 8003a52:	2b00      	cmp	r3, #0
 8003a54:	d003      	beq.n	8003a5e <ring_add+0x96>
 8003a56:	4b1e      	ldr	r3, [pc, #120]	@ (8003ad0 <ring_add+0x108>)
 8003a58:	2200      	movs	r2, #0
 8003a5a:	701a      	strb	r2, [r3, #0]
 8003a5c:	e034      	b.n	8003ac8 <ring_add+0x100>
        u = '\r';
 8003a5e:	230f      	movs	r3, #15
 8003a60:	18fb      	adds	r3, r7, r3
 8003a62:	220d      	movs	r2, #13
 8003a64:	701a      	strb	r2, [r3, #0]
    }

    if (u == '\r'){
 8003a66:	230f      	movs	r3, #15
 8003a68:	18fb      	adds	r3, r7, r3
 8003a6a:	781b      	ldrb	r3, [r3, #0]
 8003a6c:	2b0d      	cmp	r3, #13
 8003a6e:	d112      	bne.n	8003a96 <ring_add+0xce>
        push_byte('\r'); lines++; last_was_cr=1u;
 8003a70:	200d      	movs	r0, #13
 8003a72:	f7ff ff75 	bl	8003960 <push_byte>
 8003a76:	4b1a      	ldr	r3, [pc, #104]	@ (8003ae0 <ring_add+0x118>)
 8003a78:	781b      	ldrb	r3, [r3, #0]
 8003a7a:	3301      	adds	r3, #1
 8003a7c:	b2da      	uxtb	r2, r3
 8003a7e:	4b18      	ldr	r3, [pc, #96]	@ (8003ae0 <ring_add+0x118>)
 8003a80:	701a      	strb	r2, [r3, #0]
 8003a82:	4b13      	ldr	r3, [pc, #76]	@ (8003ad0 <ring_add+0x108>)
 8003a84:	2201      	movs	r2, #1
 8003a86:	701a      	strb	r2, [r3, #0]
        /* minimal echo so IRQ stays quick */
        __io_putchar('\r'); __io_putchar('\n');
 8003a88:	200d      	movs	r0, #13
 8003a8a:	f7ff fef7 	bl	800387c <__io_putchar>
 8003a8e:	200a      	movs	r0, #10
 8003a90:	f7ff fef4 	bl	800387c <__io_putchar>
        return;
 8003a94:	e018      	b.n	8003ac8 <ring_add+0x100>
    }

    if (u >= 32u && u <= 126u){
 8003a96:	210f      	movs	r1, #15
 8003a98:	187b      	adds	r3, r7, r1
 8003a9a:	781b      	ldrb	r3, [r3, #0]
 8003a9c:	2b1f      	cmp	r3, #31
 8003a9e:	d913      	bls.n	8003ac8 <ring_add+0x100>
 8003aa0:	187b      	adds	r3, r7, r1
 8003aa2:	781b      	ldrb	r3, [r3, #0]
 8003aa4:	2b7e      	cmp	r3, #126	@ 0x7e
 8003aa6:	d80f      	bhi.n	8003ac8 <ring_add+0x100>
        last_was_cr=0u; push_byte((char)u);
 8003aa8:	4b09      	ldr	r3, [pc, #36]	@ (8003ad0 <ring_add+0x108>)
 8003aaa:	2200      	movs	r2, #0
 8003aac:	701a      	strb	r2, [r3, #0]
 8003aae:	000c      	movs	r4, r1
 8003ab0:	187b      	adds	r3, r7, r1
 8003ab2:	781b      	ldrb	r3, [r3, #0]
 8003ab4:	0018      	movs	r0, r3
 8003ab6:	f7ff ff53 	bl	8003960 <push_byte>
        __io_putchar((int)u);
 8003aba:	193b      	adds	r3, r7, r4
 8003abc:	781b      	ldrb	r3, [r3, #0]
 8003abe:	0018      	movs	r0, r3
 8003ac0:	f7ff fedc 	bl	800387c <__io_putchar>
 8003ac4:	e000      	b.n	8003ac8 <ring_add+0x100>
        return;
 8003ac6:	46c0      	nop			@ (mov r8, r8)
    }
}
 8003ac8:	46bd      	mov	sp, r7
 8003aca:	b004      	add	sp, #16
 8003acc:	bdb0      	pop	{r4, r5, r7, pc}
 8003ace:	46c0      	nop			@ (mov r8, r8)
 8003ad0:	20000364 	.word	0x20000364
 8003ad4:	20000362 	.word	0x20000362
 8003ad8:	20000360 	.word	0x20000360
 8003adc:	20000260 	.word	0x20000260
 8003ae0:	20000363 	.word	0x20000363

08003ae4 <ring_read_line>:

int ring_read_line(char *dst, size_t dstlen){
 8003ae4:	b590      	push	{r4, r7, lr}
 8003ae6:	b085      	sub	sp, #20
 8003ae8:	af00      	add	r7, sp, #0
 8003aea:	6078      	str	r0, [r7, #4]
 8003aec:	6039      	str	r1, [r7, #0]
    if (lines==0u || !dst || dstlen==0u) return 0;
 8003aee:	4b2f      	ldr	r3, [pc, #188]	@ (8003bac <ring_read_line+0xc8>)
 8003af0:	781b      	ldrb	r3, [r3, #0]
 8003af2:	2b00      	cmp	r3, #0
 8003af4:	d005      	beq.n	8003b02 <ring_read_line+0x1e>
 8003af6:	687b      	ldr	r3, [r7, #4]
 8003af8:	2b00      	cmp	r3, #0
 8003afa:	d002      	beq.n	8003b02 <ring_read_line+0x1e>
 8003afc:	683b      	ldr	r3, [r7, #0]
 8003afe:	2b00      	cmp	r3, #0
 8003b00:	d101      	bne.n	8003b06 <ring_read_line+0x22>
 8003b02:	2300      	movs	r3, #0
 8003b04:	e04d      	b.n	8003ba2 <ring_read_line+0xbe>
    size_t n=0;
 8003b06:	2300      	movs	r3, #0
 8003b08:	60fb      	str	r3, [r7, #12]
    while (count>0u){
 8003b0a:	e039      	b.n	8003b80 <ring_read_line+0x9c>
        char c=rb[tail]; tail=inc(tail); count--;
 8003b0c:	4b28      	ldr	r3, [pc, #160]	@ (8003bb0 <ring_read_line+0xcc>)
 8003b0e:	781b      	ldrb	r3, [r3, #0]
 8003b10:	0019      	movs	r1, r3
 8003b12:	240b      	movs	r4, #11
 8003b14:	193b      	adds	r3, r7, r4
 8003b16:	4a27      	ldr	r2, [pc, #156]	@ (8003bb4 <ring_read_line+0xd0>)
 8003b18:	5c52      	ldrb	r2, [r2, r1]
 8003b1a:	701a      	strb	r2, [r3, #0]
 8003b1c:	4b24      	ldr	r3, [pc, #144]	@ (8003bb0 <ring_read_line+0xcc>)
 8003b1e:	781b      	ldrb	r3, [r3, #0]
 8003b20:	0018      	movs	r0, r3
 8003b22:	f7ff febf 	bl	80038a4 <inc>
 8003b26:	0003      	movs	r3, r0
 8003b28:	001a      	movs	r2, r3
 8003b2a:	4b21      	ldr	r3, [pc, #132]	@ (8003bb0 <ring_read_line+0xcc>)
 8003b2c:	701a      	strb	r2, [r3, #0]
 8003b2e:	4b22      	ldr	r3, [pc, #136]	@ (8003bb8 <ring_read_line+0xd4>)
 8003b30:	781b      	ldrb	r3, [r3, #0]
 8003b32:	3b01      	subs	r3, #1
 8003b34:	b2da      	uxtb	r2, r3
 8003b36:	4b20      	ldr	r3, [pc, #128]	@ (8003bb8 <ring_read_line+0xd4>)
 8003b38:	701a      	strb	r2, [r3, #0]
        if (c=='\r'){ lines--; if (n<dstlen) dst[n]='\0'; return (int)n; }
 8003b3a:	193b      	adds	r3, r7, r4
 8003b3c:	781b      	ldrb	r3, [r3, #0]
 8003b3e:	2b0d      	cmp	r3, #13
 8003b40:	d110      	bne.n	8003b64 <ring_read_line+0x80>
 8003b42:	4b1a      	ldr	r3, [pc, #104]	@ (8003bac <ring_read_line+0xc8>)
 8003b44:	781b      	ldrb	r3, [r3, #0]
 8003b46:	3b01      	subs	r3, #1
 8003b48:	b2da      	uxtb	r2, r3
 8003b4a:	4b18      	ldr	r3, [pc, #96]	@ (8003bac <ring_read_line+0xc8>)
 8003b4c:	701a      	strb	r2, [r3, #0]
 8003b4e:	68fa      	ldr	r2, [r7, #12]
 8003b50:	683b      	ldr	r3, [r7, #0]
 8003b52:	429a      	cmp	r2, r3
 8003b54:	d204      	bcs.n	8003b60 <ring_read_line+0x7c>
 8003b56:	687a      	ldr	r2, [r7, #4]
 8003b58:	68fb      	ldr	r3, [r7, #12]
 8003b5a:	18d3      	adds	r3, r2, r3
 8003b5c:	2200      	movs	r2, #0
 8003b5e:	701a      	strb	r2, [r3, #0]
 8003b60:	68fb      	ldr	r3, [r7, #12]
 8003b62:	e01e      	b.n	8003ba2 <ring_read_line+0xbe>
        if (n+1<dstlen) dst[n++]=c;
 8003b64:	68fb      	ldr	r3, [r7, #12]
 8003b66:	3301      	adds	r3, #1
 8003b68:	683a      	ldr	r2, [r7, #0]
 8003b6a:	429a      	cmp	r2, r3
 8003b6c:	d908      	bls.n	8003b80 <ring_read_line+0x9c>
 8003b6e:	68fb      	ldr	r3, [r7, #12]
 8003b70:	1c5a      	adds	r2, r3, #1
 8003b72:	60fa      	str	r2, [r7, #12]
 8003b74:	687a      	ldr	r2, [r7, #4]
 8003b76:	18d3      	adds	r3, r2, r3
 8003b78:	220b      	movs	r2, #11
 8003b7a:	18ba      	adds	r2, r7, r2
 8003b7c:	7812      	ldrb	r2, [r2, #0]
 8003b7e:	701a      	strb	r2, [r3, #0]
    while (count>0u){
 8003b80:	4b0d      	ldr	r3, [pc, #52]	@ (8003bb8 <ring_read_line+0xd4>)
 8003b82:	781b      	ldrb	r3, [r3, #0]
 8003b84:	2b00      	cmp	r3, #0
 8003b86:	d1c1      	bne.n	8003b0c <ring_read_line+0x28>
    }
    lines=0u; if (n<dstlen) dst[n]='\0'; return (int)n;
 8003b88:	4b08      	ldr	r3, [pc, #32]	@ (8003bac <ring_read_line+0xc8>)
 8003b8a:	2200      	movs	r2, #0
 8003b8c:	701a      	strb	r2, [r3, #0]
 8003b8e:	68fa      	ldr	r2, [r7, #12]
 8003b90:	683b      	ldr	r3, [r7, #0]
 8003b92:	429a      	cmp	r2, r3
 8003b94:	d204      	bcs.n	8003ba0 <ring_read_line+0xbc>
 8003b96:	687a      	ldr	r2, [r7, #4]
 8003b98:	68fb      	ldr	r3, [r7, #12]
 8003b9a:	18d3      	adds	r3, r2, r3
 8003b9c:	2200      	movs	r2, #0
 8003b9e:	701a      	strb	r2, [r3, #0]
 8003ba0:	68fb      	ldr	r3, [r7, #12]
 8003ba2:	0018      	movs	r0, r3
 8003ba4:	46bd      	mov	sp, r7
 8003ba6:	b005      	add	sp, #20
 8003ba8:	bd90      	pop	{r4, r7, pc}
 8003baa:	46c0      	nop			@ (mov r8, r8)
 8003bac:	20000363 	.word	0x20000363
 8003bb0:	20000361 	.word	0x20000361
 8003bb4:	20000260 	.word	0x20000260
 8003bb8:	20000362 	.word	0x20000362

08003bbc <HAL_MspInit>:
/* USER CODE END 0 */
/**
  * Initializes the Global MSP.
  */
void HAL_MspInit(void)
{
 8003bbc:	b580      	push	{r7, lr}
 8003bbe:	b082      	sub	sp, #8
 8003bc0:	af00      	add	r7, sp, #0

  /* USER CODE BEGIN MspInit 0 */

  /* USER CODE END MspInit 0 */

  __HAL_RCC_SYSCFG_CLK_ENABLE();
 8003bc2:	4b0f      	ldr	r3, [pc, #60]	@ (8003c00 <HAL_MspInit+0x44>)
 8003bc4:	6c1a      	ldr	r2, [r3, #64]	@ 0x40
 8003bc6:	4b0e      	ldr	r3, [pc, #56]	@ (8003c00 <HAL_MspInit+0x44>)
 8003bc8:	2101      	movs	r1, #1
 8003bca:	430a      	orrs	r2, r1
 8003bcc:	641a      	str	r2, [r3, #64]	@ 0x40
 8003bce:	4b0c      	ldr	r3, [pc, #48]	@ (8003c00 <HAL_MspInit+0x44>)
 8003bd0:	6c1b      	ldr	r3, [r3, #64]	@ 0x40
 8003bd2:	2201      	movs	r2, #1
 8003bd4:	4013      	ands	r3, r2
 8003bd6:	607b      	str	r3, [r7, #4]
 8003bd8:	687b      	ldr	r3, [r7, #4]
  __HAL_RCC_PWR_CLK_ENABLE();
 8003bda:	4b09      	ldr	r3, [pc, #36]	@ (8003c00 <HAL_MspInit+0x44>)
 8003bdc:	6bda      	ldr	r2, [r3, #60]	@ 0x3c
 8003bde:	4b08      	ldr	r3, [pc, #32]	@ (8003c00 <HAL_MspInit+0x44>)
 8003be0:	2180      	movs	r1, #128	@ 0x80
 8003be2:	0549      	lsls	r1, r1, #21
 8003be4:	430a      	orrs	r2, r1
 8003be6:	63da      	str	r2, [r3, #60]	@ 0x3c
 8003be8:	4b05      	ldr	r3, [pc, #20]	@ (8003c00 <HAL_MspInit+0x44>)
 8003bea:	6bda      	ldr	r2, [r3, #60]	@ 0x3c
 8003bec:	2380      	movs	r3, #128	@ 0x80
 8003bee:	055b      	lsls	r3, r3, #21
 8003bf0:	4013      	ands	r3, r2
 8003bf2:	603b      	str	r3, [r7, #0]
 8003bf4:	683b      	ldr	r3, [r7, #0]
  /* System interrupt init*/

  /* USER CODE BEGIN MspInit 1 */

  /* USER CODE END MspInit 1 */
}
 8003bf6:	46c0      	nop			@ (mov r8, r8)
 8003bf8:	46bd      	mov	sp, r7
 8003bfa:	b002      	add	sp, #8
 8003bfc:	bd80      	pop	{r7, pc}
 8003bfe:	46c0      	nop			@ (mov r8, r8)
 8003c00:	40021000 	.word	0x40021000

08003c04 <HAL_SPI_MspInit>:
  * This function configures the hardware resources used in this example
  * @param hspi: SPI handle pointer
  * @retval None
  */
void HAL_SPI_MspInit(SPI_HandleTypeDef* hspi)
{
 8003c04:	b590      	push	{r4, r7, lr}
 8003c06:	b08b      	sub	sp, #44	@ 0x2c
 8003c08:	af00      	add	r7, sp, #0
 8003c0a:	6078      	str	r0, [r7, #4]
  GPIO_InitTypeDef GPIO_InitStruct = {0};
 8003c0c:	2414      	movs	r4, #20
 8003c0e:	193b      	adds	r3, r7, r4
 8003c10:	0018      	movs	r0, r3
 8003c12:	2314      	movs	r3, #20
 8003c14:	001a      	movs	r2, r3
 8003c16:	2100      	movs	r1, #0
 8003c18:	f003 ff84 	bl	8007b24 <memset>
  if(hspi->Instance==SPI1)
 8003c1c:	687b      	ldr	r3, [r7, #4]
 8003c1e:	681b      	ldr	r3, [r3, #0]
 8003c20:	4a2c      	ldr	r2, [pc, #176]	@ (8003cd4 <HAL_SPI_MspInit+0xd0>)
 8003c22:	4293      	cmp	r3, r2
 8003c24:	d151      	bne.n	8003cca <HAL_SPI_MspInit+0xc6>
  {
    /* USER CODE BEGIN SPI1_MspInit 0 */

    /* USER CODE END SPI1_MspInit 0 */
    /* Peripheral clock enable */
    __HAL_RCC_SPI1_CLK_ENABLE();
 8003c26:	4b2c      	ldr	r3, [pc, #176]	@ (8003cd8 <HAL_SPI_MspInit+0xd4>)
 8003c28:	6c1a      	ldr	r2, [r3, #64]	@ 0x40
 8003c2a:	4b2b      	ldr	r3, [pc, #172]	@ (8003cd8 <HAL_SPI_MspInit+0xd4>)
 8003c2c:	2180      	movs	r1, #128	@ 0x80
 8003c2e:	0149      	lsls	r1, r1, #5
 8003c30:	430a      	orrs	r2, r1
 8003c32:	641a      	str	r2, [r3, #64]	@ 0x40
 8003c34:	4b28      	ldr	r3, [pc, #160]	@ (8003cd8 <HAL_SPI_MspInit+0xd4>)
 8003c36:	6c1a      	ldr	r2, [r3, #64]	@ 0x40
 8003c38:	2380      	movs	r3, #128	@ 0x80
 8003c3a:	015b      	lsls	r3, r3, #5
 8003c3c:	4013      	ands	r3, r2
 8003c3e:	613b      	str	r3, [r7, #16]
 8003c40:	693b      	ldr	r3, [r7, #16]

    __HAL_RCC_GPIOA_CLK_ENABLE();
 8003c42:	4b25      	ldr	r3, [pc, #148]	@ (8003cd8 <HAL_SPI_MspInit+0xd4>)
 8003c44:	6b5a      	ldr	r2, [r3, #52]	@ 0x34
 8003c46:	4b24      	ldr	r3, [pc, #144]	@ (8003cd8 <HAL_SPI_MspInit+0xd4>)
 8003c48:	2101      	movs	r1, #1
 8003c4a:	430a      	orrs	r2, r1
 8003c4c:	635a      	str	r2, [r3, #52]	@ 0x34
 8003c4e:	4b22      	ldr	r3, [pc, #136]	@ (8003cd8 <HAL_SPI_MspInit+0xd4>)
 8003c50:	6b5b      	ldr	r3, [r3, #52]	@ 0x34
 8003c52:	2201      	movs	r2, #1
 8003c54:	4013      	ands	r3, r2
 8003c56:	60fb      	str	r3, [r7, #12]
 8003c58:	68fb      	ldr	r3, [r7, #12]
    __HAL_RCC_GPIOB_CLK_ENABLE();
 8003c5a:	4b1f      	ldr	r3, [pc, #124]	@ (8003cd8 <HAL_SPI_MspInit+0xd4>)
 8003c5c:	6b5a      	ldr	r2, [r3, #52]	@ 0x34
 8003c5e:	4b1e      	ldr	r3, [pc, #120]	@ (8003cd8 <HAL_SPI_MspInit+0xd4>)
 8003c60:	2102      	movs	r1, #2
 8003c62:	430a      	orrs	r2, r1
 8003c64:	635a      	str	r2, [r3, #52]	@ 0x34
 8003c66:	4b1c      	ldr	r3, [pc, #112]	@ (8003cd8 <HAL_SPI_MspInit+0xd4>)
 8003c68:	6b5b      	ldr	r3, [r3, #52]	@ 0x34
 8003c6a:	2202      	movs	r2, #2
 8003c6c:	4013      	ands	r3, r2
 8003c6e:	60bb      	str	r3, [r7, #8]
 8003c70:	68bb      	ldr	r3, [r7, #8]
    /**SPI1 GPIO Configuration
    PA6     ------> SPI1_MISO
    PA7     ------> SPI1_MOSI
    PB3     ------> SPI1_SCK
    */
    GPIO_InitStruct.Pin = GPIO_PIN_6|GPIO_PIN_7;
 8003c72:	193b      	adds	r3, r7, r4
 8003c74:	22c0      	movs	r2, #192	@ 0xc0
 8003c76:	601a      	str	r2, [r3, #0]
    GPIO_InitStruct.Mode = GPIO_MODE_AF_PP;
 8003c78:	193b      	adds	r3, r7, r4
 8003c7a:	2202      	movs	r2, #2
 8003c7c:	605a      	str	r2, [r3, #4]
    GPIO_InitStruct.Pull = GPIO_NOPULL;
 8003c7e:	193b      	adds	r3, r7, r4
 8003c80:	2200      	movs	r2, #0
 8003c82:	609a      	str	r2, [r3, #8]
    GPIO_InitStruct.Speed = GPIO_SPEED_FREQ_LOW;
 8003c84:	193b      	adds	r3, r7, r4
 8003c86:	2200      	movs	r2, #0
 8003c88:	60da      	str	r2, [r3, #12]
    GPIO_InitStruct.Alternate = GPIO_AF0_SPI1;
 8003c8a:	193b      	adds	r3, r7, r4
 8003c8c:	2200      	movs	r2, #0
 8003c8e:	611a      	str	r2, [r3, #16]
    HAL_GPIO_Init(GPIOA, &GPIO_InitStruct);
 8003c90:	193a      	adds	r2, r7, r4
 8003c92:	23a0      	movs	r3, #160	@ 0xa0
 8003c94:	05db      	lsls	r3, r3, #23
 8003c96:	0011      	movs	r1, r2
 8003c98:	0018      	movs	r0, r3
 8003c9a:	f000 fcc5 	bl	8004628 <HAL_GPIO_Init>

    GPIO_InitStruct.Pin = GPIO_PIN_3;
 8003c9e:	0021      	movs	r1, r4
 8003ca0:	187b      	adds	r3, r7, r1
 8003ca2:	2208      	movs	r2, #8
 8003ca4:	601a      	str	r2, [r3, #0]
    GPIO_InitStruct.Mode = GPIO_MODE_AF_PP;
 8003ca6:	187b      	adds	r3, r7, r1
 8003ca8:	2202      	movs	r2, #2
 8003caa:	605a      	str	r2, [r3, #4]
    GPIO_InitStruct.Pull = GPIO_NOPULL;
 8003cac:	187b      	adds	r3, r7, r1
 8003cae:	2200      	movs	r2, #0
 8003cb0:	609a      	str	r2, [r3, #8]
    GPIO_InitStruct.Speed = GPIO_SPEED_FREQ_LOW;
 8003cb2:	187b      	adds	r3, r7, r1
 8003cb4:	2200      	movs	r2, #0
 8003cb6:	60da      	str	r2, [r3, #12]
    GPIO_InitStruct.Alternate = GPIO_AF0_SPI1;
 8003cb8:	187b      	adds	r3, r7, r1
 8003cba:	2200      	movs	r2, #0
 8003cbc:	611a      	str	r2, [r3, #16]
    HAL_GPIO_Init(GPIOB, &GPIO_InitStruct);
 8003cbe:	187b      	adds	r3, r7, r1
 8003cc0:	4a06      	ldr	r2, [pc, #24]	@ (8003cdc <HAL_SPI_MspInit+0xd8>)
 8003cc2:	0019      	movs	r1, r3
 8003cc4:	0010      	movs	r0, r2
 8003cc6:	f000 fcaf 	bl	8004628 <HAL_GPIO_Init>

    /* USER CODE END SPI1_MspInit 1 */

  }

}
 8003cca:	46c0      	nop			@ (mov r8, r8)
 8003ccc:	46bd      	mov	sp, r7
 8003cce:	b00b      	add	sp, #44	@ 0x2c
 8003cd0:	bd90      	pop	{r4, r7, pc}
 8003cd2:	46c0      	nop			@ (mov r8, r8)
 8003cd4:	40013000 	.word	0x40013000
 8003cd8:	40021000 	.word	0x40021000
 8003cdc:	50000400 	.word	0x50000400

08003ce0 <HAL_UART_MspInit>:
  * This function configures the hardware resources used in this example
  * @param huart: UART handle pointer
  * @retval None
  */
void HAL_UART_MspInit(UART_HandleTypeDef* huart)
{
 8003ce0:	b590      	push	{r4, r7, lr}
 8003ce2:	b097      	sub	sp, #92	@ 0x5c
 8003ce4:	af00      	add	r7, sp, #0
 8003ce6:	6078      	str	r0, [r7, #4]
  GPIO_InitTypeDef GPIO_InitStruct = {0};
 8003ce8:	2344      	movs	r3, #68	@ 0x44
 8003cea:	18fb      	adds	r3, r7, r3
 8003cec:	0018      	movs	r0, r3
 8003cee:	2314      	movs	r3, #20
 8003cf0:	001a      	movs	r2, r3
 8003cf2:	2100      	movs	r1, #0
 8003cf4:	f003 ff16 	bl	8007b24 <memset>
  RCC_PeriphCLKInitTypeDef PeriphClkInit = {0};
 8003cf8:	2410      	movs	r4, #16
 8003cfa:	193b      	adds	r3, r7, r4
 8003cfc:	0018      	movs	r0, r3
 8003cfe:	2334      	movs	r3, #52	@ 0x34
 8003d00:	001a      	movs	r2, r3
 8003d02:	2100      	movs	r1, #0
 8003d04:	f003 ff0e 	bl	8007b24 <memset>
  if(huart->Instance==USART2)
 8003d08:	687b      	ldr	r3, [r7, #4]
 8003d0a:	681b      	ldr	r3, [r3, #0]
 8003d0c:	4a22      	ldr	r2, [pc, #136]	@ (8003d98 <HAL_UART_MspInit+0xb8>)
 8003d0e:	4293      	cmp	r3, r2
 8003d10:	d13e      	bne.n	8003d90 <HAL_UART_MspInit+0xb0>

    /* USER CODE END USART2_MspInit 0 */

  /** Initializes the peripherals clocks
  */
    PeriphClkInit.PeriphClockSelection = RCC_PERIPHCLK_USART2;
 8003d12:	193b      	adds	r3, r7, r4
 8003d14:	2202      	movs	r2, #2
 8003d16:	601a      	str	r2, [r3, #0]
    PeriphClkInit.Usart2ClockSelection = RCC_USART2CLKSOURCE_PCLK1;
 8003d18:	193b      	adds	r3, r7, r4
 8003d1a:	2200      	movs	r2, #0
 8003d1c:	609a      	str	r2, [r3, #8]
    if (HAL_RCCEx_PeriphCLKConfig(&PeriphClkInit) != HAL_OK)
 8003d1e:	193b      	adds	r3, r7, r4
 8003d20:	0018      	movs	r0, r3
 8003d22:	f000 feb1 	bl	8004a88 <HAL_RCCEx_PeriphCLKConfig>
 8003d26:	1e03      	subs	r3, r0, #0
 8003d28:	d001      	beq.n	8003d2e <HAL_UART_MspInit+0x4e>
    {
      Error_Handler();
 8003d2a:	f7ff fda1 	bl	8003870 <Error_Handler>
    }

    /* Peripheral clock enable */
    __HAL_RCC_USART2_CLK_ENABLE();
 8003d2e:	4b1b      	ldr	r3, [pc, #108]	@ (8003d9c <HAL_UART_MspInit+0xbc>)
 8003d30:	6bda      	ldr	r2, [r3, #60]	@ 0x3c
 8003d32:	4b1a      	ldr	r3, [pc, #104]	@ (8003d9c <HAL_UART_MspInit+0xbc>)
 8003d34:	2180      	movs	r1, #128	@ 0x80
 8003d36:	0289      	lsls	r1, r1, #10
 8003d38:	430a      	orrs	r2, r1
 8003d3a:	63da      	str	r2, [r3, #60]	@ 0x3c
 8003d3c:	4b17      	ldr	r3, [pc, #92]	@ (8003d9c <HAL_UART_MspInit+0xbc>)
 8003d3e:	6bda      	ldr	r2, [r3, #60]	@ 0x3c
 8003d40:	2380      	movs	r3, #128	@ 0x80
 8003d42:	029b      	lsls	r3, r3, #10
 8003d44:	4013      	ands	r3, r2
 8003d46:	60fb      	str	r3, [r7, #12]
 8003d48:	68fb      	ldr	r3, [r7, #12]

    __HAL_RCC_GPIOA_CLK_ENABLE();
 8003d4a:	4b14      	ldr	r3, [pc, #80]	@ (8003d9c <HAL_UART_MspInit+0xbc>)
 8003d4c:	6b5a      	ldr	r2, [r3, #52]	@ 0x34
 8003d4e:	4b13      	ldr	r3, [pc, #76]	@ (8003d9c <HAL_UART_MspInit+0xbc>)
 8003d50:	2101      	movs	r1, #1
 8003d52:	430a      	orrs	r2, r1
 8003d54:	635a      	str	r2, [r3, #52]	@ 0x34
 8003d56:	4b11      	ldr	r3, [pc, #68]	@ (8003d9c <HAL_UART_MspInit+0xbc>)
 8003d58:	6b5b      	ldr	r3, [r3, #52]	@ 0x34
 8003d5a:	2201      	movs	r2, #1
 8003d5c:	4013      	ands	r3, r2
 8003d5e:	60bb      	str	r3, [r7, #8]
 8003d60:	68bb      	ldr	r3, [r7, #8]
    /**USART2 GPIO Configuration
    PA2     ------> USART2_TX
    PA3     ------> USART2_RX
    */
    GPIO_InitStruct.Pin = USART2_TX_Pin|USART2_RX_Pin;
 8003d62:	2144      	movs	r1, #68	@ 0x44
 8003d64:	187b      	adds	r3, r7, r1
 8003d66:	220c      	movs	r2, #12
 8003d68:	601a      	str	r2, [r3, #0]
    GPIO_InitStruct.Mode = GPIO_MODE_AF_PP;
 8003d6a:	187b      	adds	r3, r7, r1
 8003d6c:	2202      	movs	r2, #2
 8003d6e:	605a      	str	r2, [r3, #4]
    GPIO_InitStruct.Pull = GPIO_PULLUP;
 8003d70:	187b      	adds	r3, r7, r1
 8003d72:	2201      	movs	r2, #1
 8003d74:	609a      	str	r2, [r3, #8]
    GPIO_InitStruct.Speed = GPIO_SPEED_FREQ_LOW;
 8003d76:	187b      	adds	r3, r7, r1
 8003d78:	2200      	movs	r2, #0
 8003d7a:	60da      	str	r2, [r3, #12]
    GPIO_InitStruct.Alternate = GPIO_AF1_USART2;
 8003d7c:	187b      	adds	r3, r7, r1
 8003d7e:	2201      	movs	r2, #1
 8003d80:	611a      	str	r2, [r3, #16]
    HAL_GPIO_Init(GPIOA, &GPIO_InitStruct);
 8003d82:	187a      	adds	r2, r7, r1
 8003d84:	23a0      	movs	r3, #160	@ 0xa0
 8003d86:	05db      	lsls	r3, r3, #23
 8003d88:	0011      	movs	r1, r2
 8003d8a:	0018      	movs	r0, r3
 8003d8c:	f000 fc4c 	bl	8004628 <HAL_GPIO_Init>

    /* USER CODE END USART2_MspInit 1 */

  }

}
 8003d90:	46c0      	nop			@ (mov r8, r8)
 8003d92:	46bd      	mov	sp, r7
 8003d94:	b017      	add	sp, #92	@ 0x5c
 8003d96:	bd90      	pop	{r4, r7, pc}
 8003d98:	40004400 	.word	0x40004400
 8003d9c:	40021000 	.word	0x40021000

08003da0 <NMI_Handler>:
/******************************************************************************/
/**
  * @brief This function handles Non maskable interrupt.
  */
void NMI_Handler(void)
{
 8003da0:	b580      	push	{r7, lr}
 8003da2:	af00      	add	r7, sp, #0
  /* USER CODE BEGIN NonMaskableInt_IRQn 0 */

  /* USER CODE END NonMaskableInt_IRQn 0 */
  /* USER CODE BEGIN NonMaskableInt_IRQn 1 */
   while (1)
 8003da4:	46c0      	nop			@ (mov r8, r8)
 8003da6:	e7fd      	b.n	8003da4 <NMI_Handler+0x4>

08003da8 <HardFault_Handler>:

/**
  * @brief This function handles Hard fault interrupt.
  */
void HardFault_Handler(void)
{
 8003da8:	b580      	push	{r7, lr}
 8003daa:	af00      	add	r7, sp, #0
  /* USER CODE BEGIN HardFault_IRQn 0 */

  /* USER CODE END HardFault_IRQn 0 */
  while (1)
 8003dac:	46c0      	nop			@ (mov r8, r8)
 8003dae:	e7fd      	b.n	8003dac <HardFault_Handler+0x4>

08003db0 <SVC_Handler>:

/**
  * @brief This function handles System service call via SWI instruction.
  */
void SVC_Handler(void)
{
 8003db0:	b580      	push	{r7, lr}
 8003db2:	af00      	add	r7, sp, #0

  /* USER CODE END SVC_IRQn 0 */
  /* USER CODE BEGIN SVC_IRQn 1 */

  /* USER CODE END SVC_IRQn 1 */
}
 8003db4:	46c0      	nop			@ (mov r8, r8)
 8003db6:	46bd      	mov	sp, r7
 8003db8:	bd80      	pop	{r7, pc}

08003dba <PendSV_Handler>:

/**
  * @brief This function handles Pendable request for system service.
  */
void PendSV_Handler(void)
{
 8003dba:	b580      	push	{r7, lr}
 8003dbc:	af00      	add	r7, sp, #0

  /* USER CODE END PendSV_IRQn 0 */
  /* USER CODE BEGIN PendSV_IRQn 1 */

  /* USER CODE END PendSV_IRQn 1 */
}
 8003dbe:	46c0      	nop			@ (mov r8, r8)
 8003dc0:	46bd      	mov	sp, r7
 8003dc2:	bd80      	pop	{r7, pc}

08003dc4 <SysTick_Handler>:

/**
  * @brief This function handles System tick timer.
  */
void SysTick_Handler(void)
{
 8003dc4:	b580      	push	{r7, lr}
 8003dc6:	af00      	add	r7, sp, #0
  /* USER CODE BEGIN SysTick_IRQn 0 */

  /* USER CODE END SysTick_IRQn 0 */
  HAL_IncTick();
 8003dc8:	f000 fa44 	bl	8004254 <HAL_IncTick>
  /* USER CODE BEGIN SysTick_IRQn 1 */

  /* USER CODE END SysTick_IRQn 1 */
}
 8003dcc:	46c0      	nop			@ (mov r8, r8)
 8003dce:	46bd      	mov	sp, r7
 8003dd0:	bd80      	pop	{r7, pc}

08003dd2 <_getpid>:
void initialise_monitor_handles()
{
}

int _getpid(void)
{
 8003dd2:	b580      	push	{r7, lr}
 8003dd4:	af00      	add	r7, sp, #0
  return 1;
 8003dd6:	2301      	movs	r3, #1
}
 8003dd8:	0018      	movs	r0, r3
 8003dda:	46bd      	mov	sp, r7
 8003ddc:	bd80      	pop	{r7, pc}

08003dde <_kill>:

int _kill(int pid, int sig)
{
 8003dde:	b580      	push	{r7, lr}
 8003de0:	b082      	sub	sp, #8
 8003de2:	af00      	add	r7, sp, #0
 8003de4:	6078      	str	r0, [r7, #4]
 8003de6:	6039      	str	r1, [r7, #0]
  (void)pid;
  (void)sig;
  errno = EINVAL;
 8003de8:	f003 fef6 	bl	8007bd8 <__errno>
 8003dec:	0003      	movs	r3, r0
 8003dee:	2216      	movs	r2, #22
 8003df0:	601a      	str	r2, [r3, #0]
  return -1;
 8003df2:	2301      	movs	r3, #1
 8003df4:	425b      	negs	r3, r3
}
 8003df6:	0018      	movs	r0, r3
 8003df8:	46bd      	mov	sp, r7
 8003dfa:	b002      	add	sp, #8
 8003dfc:	bd80      	pop	{r7, pc}

08003dfe <_exit>:

void _exit (int status)
{
 8003dfe:	b580      	push	{r7, lr}
 8003e00:	b082      	sub	sp, #8
 8003e02:	af00      	add	r7, sp, #0
 8003e04:	6078      	str	r0, [r7, #4]
  _kill(status, -1);
 8003e06:	2301      	movs	r3, #1
 8003e08:	425a      	negs	r2, r3
 8003e0a:	687b      	ldr	r3, [r7, #4]
 8003e0c:	0011      	movs	r1, r2
 8003e0e:	0018      	movs	r0, r3
 8003e10:	f7ff ffe5 	bl	8003dde <_kill>
  while (1) {}    /* Make sure we hang here */
 8003e14:	46c0      	nop			@ (mov r8, r8)
 8003e16:	e7fd      	b.n	8003e14 <_exit+0x16>

08003e18 <_read>:
}

__attribute__((weak)) int _read(int file, char *ptr, int len)
{
 8003e18:	b580      	push	{r7, lr}
 8003e1a:	b086      	sub	sp, #24
 8003e1c:	af00      	add	r7, sp, #0
 8003e1e:	60f8      	str	r0, [r7, #12]
 8003e20:	60b9      	str	r1, [r7, #8]
 8003e22:	607a      	str	r2, [r7, #4]
  (void)file;
  int DataIdx;

  for (DataIdx = 0; DataIdx < len; DataIdx++)
 8003e24:	2300      	movs	r3, #0
 8003e26:	617b      	str	r3, [r7, #20]
 8003e28:	e00a      	b.n	8003e40 <_read+0x28>
  {
    *ptr++ = __io_getchar();
 8003e2a:	e000      	b.n	8003e2e <_read+0x16>
 8003e2c:	bf00      	nop
 8003e2e:	0001      	movs	r1, r0
 8003e30:	68bb      	ldr	r3, [r7, #8]
 8003e32:	1c5a      	adds	r2, r3, #1
 8003e34:	60ba      	str	r2, [r7, #8]
 8003e36:	b2ca      	uxtb	r2, r1
 8003e38:	701a      	strb	r2, [r3, #0]
  for (DataIdx = 0; DataIdx < len; DataIdx++)
 8003e3a:	697b      	ldr	r3, [r7, #20]
 8003e3c:	3301      	adds	r3, #1
 8003e3e:	617b      	str	r3, [r7, #20]
 8003e40:	697a      	ldr	r2, [r7, #20]
 8003e42:	687b      	ldr	r3, [r7, #4]
 8003e44:	429a      	cmp	r2, r3
 8003e46:	dbf0      	blt.n	8003e2a <_read+0x12>
  }

  return len;
 8003e48:	687b      	ldr	r3, [r7, #4]
}
 8003e4a:	0018      	movs	r0, r3
 8003e4c:	46bd      	mov	sp, r7
 8003e4e:	b006      	add	sp, #24
 8003e50:	bd80      	pop	{r7, pc}

08003e52 <_write>:

__attribute__((weak)) int _write(int file, char *ptr, int len)
{
 8003e52:	b580      	push	{r7, lr}
 8003e54:	b086      	sub	sp, #24
 8003e56:	af00      	add	r7, sp, #0
 8003e58:	60f8      	str	r0, [r7, #12]
 8003e5a:	60b9      	str	r1, [r7, #8]
 8003e5c:	607a      	str	r2, [r7, #4]
  (void)file;
  int DataIdx;

  for (DataIdx = 0; DataIdx < len; DataIdx++)
 8003e5e:	2300      	movs	r3, #0
 8003e60:	617b      	str	r3, [r7, #20]
 8003e62:	e009      	b.n	8003e78 <_write+0x26>
  {
    __io_putchar(*ptr++);
 8003e64:	68bb      	ldr	r3, [r7, #8]
 8003e66:	1c5a      	adds	r2, r3, #1
 8003e68:	60ba      	str	r2, [r7, #8]
 8003e6a:	781b      	ldrb	r3, [r3, #0]
 8003e6c:	0018      	movs	r0, r3
 8003e6e:	f7ff fd05 	bl	800387c <__io_putchar>
  for (DataIdx = 0; DataIdx < len; DataIdx++)
 8003e72:	697b      	ldr	r3, [r7, #20]
 8003e74:	3301      	adds	r3, #1
 8003e76:	617b      	str	r3, [r7, #20]
 8003e78:	697a      	ldr	r2, [r7, #20]
 8003e7a:	687b      	ldr	r3, [r7, #4]
 8003e7c:	429a      	cmp	r2, r3
 8003e7e:	dbf1      	blt.n	8003e64 <_write+0x12>
  }
  return len;
 8003e80:	687b      	ldr	r3, [r7, #4]
}
 8003e82:	0018      	movs	r0, r3
 8003e84:	46bd      	mov	sp, r7
 8003e86:	b006      	add	sp, #24
 8003e88:	bd80      	pop	{r7, pc}

08003e8a <_close>:

int _close(int file)
{
 8003e8a:	b580      	push	{r7, lr}
 8003e8c:	b082      	sub	sp, #8
 8003e8e:	af00      	add	r7, sp, #0
 8003e90:	6078      	str	r0, [r7, #4]
  (void)file;
  return -1;
 8003e92:	2301      	movs	r3, #1
 8003e94:	425b      	negs	r3, r3
}
 8003e96:	0018      	movs	r0, r3
 8003e98:	46bd      	mov	sp, r7
 8003e9a:	b002      	add	sp, #8
 8003e9c:	bd80      	pop	{r7, pc}

08003e9e <_fstat>:


int _fstat(int file, struct stat *st)
{
 8003e9e:	b580      	push	{r7, lr}
 8003ea0:	b082      	sub	sp, #8
 8003ea2:	af00      	add	r7, sp, #0
 8003ea4:	6078      	str	r0, [r7, #4]
 8003ea6:	6039      	str	r1, [r7, #0]
  (void)file;
  st->st_mode = S_IFCHR;
 8003ea8:	683b      	ldr	r3, [r7, #0]
 8003eaa:	2280      	movs	r2, #128	@ 0x80
 8003eac:	0192      	lsls	r2, r2, #6
 8003eae:	605a      	str	r2, [r3, #4]
  return 0;
 8003eb0:	2300      	movs	r3, #0
}
 8003eb2:	0018      	movs	r0, r3
 8003eb4:	46bd      	mov	sp, r7
 8003eb6:	b002      	add	sp, #8
 8003eb8:	bd80      	pop	{r7, pc}

08003eba <_isatty>:

int _isatty(int file)
{
 8003eba:	b580      	push	{r7, lr}
 8003ebc:	b082      	sub	sp, #8
 8003ebe:	af00      	add	r7, sp, #0
 8003ec0:	6078      	str	r0, [r7, #4]
  (void)file;
  return 1;
 8003ec2:	2301      	movs	r3, #1
}
 8003ec4:	0018      	movs	r0, r3
 8003ec6:	46bd      	mov	sp, r7
 8003ec8:	b002      	add	sp, #8
 8003eca:	bd80      	pop	{r7, pc}

08003ecc <_lseek>:

int _lseek(int file, int ptr, int dir)
{
 8003ecc:	b580      	push	{r7, lr}
 8003ece:	b084      	sub	sp, #16
 8003ed0:	af00      	add	r7, sp, #0
 8003ed2:	60f8      	str	r0, [r7, #12]
 8003ed4:	60b9      	str	r1, [r7, #8]
 8003ed6:	607a      	str	r2, [r7, #4]
  (void)file;
  (void)ptr;
  (void)dir;
  return 0;
 8003ed8:	2300      	movs	r3, #0
}
 8003eda:	0018      	movs	r0, r3
 8003edc:	46bd      	mov	sp, r7
 8003ede:	b004      	add	sp, #16
 8003ee0:	bd80      	pop	{r7, pc}
	...

08003ee4 <_sbrk>:
 *
 * @param incr Memory size
 * @return Pointer to allocated memory
 */
void *_sbrk(ptrdiff_t incr)
{
 8003ee4:	b580      	push	{r7, lr}
 8003ee6:	b086      	sub	sp, #24
 8003ee8:	af00      	add	r7, sp, #0
 8003eea:	6078      	str	r0, [r7, #4]
  extern uint8_t _end; /* Symbol defined in the linker script */
  extern uint8_t _estack; /* Symbol defined in the linker script */
  extern uint32_t _Min_Stack_Size; /* Symbol defined in the linker script */
  const uint32_t stack_limit = (uint32_t)&_estack - (uint32_t)&_Min_Stack_Size;
 8003eec:	4a14      	ldr	r2, [pc, #80]	@ (8003f40 <_sbrk+0x5c>)
 8003eee:	4b15      	ldr	r3, [pc, #84]	@ (8003f44 <_sbrk+0x60>)
 8003ef0:	1ad3      	subs	r3, r2, r3
 8003ef2:	617b      	str	r3, [r7, #20]
  const uint8_t *max_heap = (uint8_t *)stack_limit;
 8003ef4:	697b      	ldr	r3, [r7, #20]
 8003ef6:	613b      	str	r3, [r7, #16]
  uint8_t *prev_heap_end;

  /* Initialize heap end at first call */
  if (NULL == __sbrk_heap_end)
 8003ef8:	4b13      	ldr	r3, [pc, #76]	@ (8003f48 <_sbrk+0x64>)
 8003efa:	681b      	ldr	r3, [r3, #0]
 8003efc:	2b00      	cmp	r3, #0
 8003efe:	d102      	bne.n	8003f06 <_sbrk+0x22>
  {
    __sbrk_heap_end = &_end;
 8003f00:	4b11      	ldr	r3, [pc, #68]	@ (8003f48 <_sbrk+0x64>)
 8003f02:	4a12      	ldr	r2, [pc, #72]	@ (8003f4c <_sbrk+0x68>)
 8003f04:	601a      	str	r2, [r3, #0]
  }

  /* Protect heap from growing into the reserved MSP stack */
  if (__sbrk_heap_end + incr > max_heap)
 8003f06:	4b10      	ldr	r3, [pc, #64]	@ (8003f48 <_sbrk+0x64>)
 8003f08:	681a      	ldr	r2, [r3, #0]
 8003f0a:	687b      	ldr	r3, [r7, #4]
 8003f0c:	18d3      	adds	r3, r2, r3
 8003f0e:	693a      	ldr	r2, [r7, #16]
 8003f10:	429a      	cmp	r2, r3
 8003f12:	d207      	bcs.n	8003f24 <_sbrk+0x40>
  {
    errno = ENOMEM;
 8003f14:	f003 fe60 	bl	8007bd8 <__errno>
 8003f18:	0003      	movs	r3, r0
 8003f1a:	220c      	movs	r2, #12
 8003f1c:	601a      	str	r2, [r3, #0]
    return (void *)-1;
 8003f1e:	2301      	movs	r3, #1
 8003f20:	425b      	negs	r3, r3
 8003f22:	e009      	b.n	8003f38 <_sbrk+0x54>
  }

  prev_heap_end = __sbrk_heap_end;
 8003f24:	4b08      	ldr	r3, [pc, #32]	@ (8003f48 <_sbrk+0x64>)
 8003f26:	681b      	ldr	r3, [r3, #0]
 8003f28:	60fb      	str	r3, [r7, #12]
  __sbrk_heap_end += incr;
 8003f2a:	4b07      	ldr	r3, [pc, #28]	@ (8003f48 <_sbrk+0x64>)
 8003f2c:	681a      	ldr	r2, [r3, #0]
 8003f2e:	687b      	ldr	r3, [r7, #4]
 8003f30:	18d2      	adds	r2, r2, r3
 8003f32:	4b05      	ldr	r3, [pc, #20]	@ (8003f48 <_sbrk+0x64>)
 8003f34:	601a      	str	r2, [r3, #0]

  return (void *)prev_heap_end;
 8003f36:	68fb      	ldr	r3, [r7, #12]
}
 8003f38:	0018      	movs	r0, r3
 8003f3a:	46bd      	mov	sp, r7
 8003f3c:	b006      	add	sp, #24
 8003f3e:	bd80      	pop	{r7, pc}
 8003f40:	20009000 	.word	0x20009000
 8003f44:	00000400 	.word	0x00000400
 8003f48:	20000368 	.word	0x20000368
 8003f4c:	20000550 	.word	0x20000550

08003f50 <SystemInit>:
  * @brief  Setup the microcontroller system.
  * @param  None
  * @retval None
  */
void SystemInit(void)
{
 8003f50:	b580      	push	{r7, lr}
 8003f52:	af00      	add	r7, sp, #0
  /* Configure the Vector Table location -------------------------------------*/
#if defined(USER_VECT_TAB_ADDRESS)
  SCB->VTOR = VECT_TAB_BASE_ADDRESS | VECT_TAB_OFFSET; /* Vector Table Relocation */
#endif /* USER_VECT_TAB_ADDRESS */
}
 8003f54:	46c0      	nop			@ (mov r8, r8)
 8003f56:	46bd      	mov	sp, r7
 8003f58:	bd80      	pop	{r7, pc}
	...

08003f5c <uart2_clear_rx_errors>:

UART_HandleTypeDef huart2;

/* --- Low-level helpers --------------------------------------------------- */
static inline void uart2_clear_rx_errors(void)
{
 8003f5c:	b580      	push	{r7, lr}
 8003f5e:	b082      	sub	sp, #8
 8003f60:	af00      	add	r7, sp, #0
    uint32_t isr = USART2->ISR;
 8003f62:	4b08      	ldr	r3, [pc, #32]	@ (8003f84 <uart2_clear_rx_errors+0x28>)
 8003f64:	69db      	ldr	r3, [r3, #28]
 8003f66:	607b      	str	r3, [r7, #4]
    if (isr & (USART_ISR_ORE | USART_ISR_FE | USART_ISR_NE | USART_ISR_PE)) {
 8003f68:	687b      	ldr	r3, [r7, #4]
 8003f6a:	220f      	movs	r2, #15
 8003f6c:	4013      	ands	r3, r2
 8003f6e:	d004      	beq.n	8003f7a <uart2_clear_rx_errors+0x1e>
        (void)USART2->RDR; /* read clears ORE */
 8003f70:	4b04      	ldr	r3, [pc, #16]	@ (8003f84 <uart2_clear_rx_errors+0x28>)
 8003f72:	6a5b      	ldr	r3, [r3, #36]	@ 0x24
        USART2->ICR = (USART_ICR_ORECF | USART_ICR_FECF | USART_ICR_NECF | USART_ICR_PECF);
 8003f74:	4b03      	ldr	r3, [pc, #12]	@ (8003f84 <uart2_clear_rx_errors+0x28>)
 8003f76:	220f      	movs	r2, #15
 8003f78:	621a      	str	r2, [r3, #32]
    }
}
 8003f7a:	46c0      	nop			@ (mov r8, r8)
 8003f7c:	46bd      	mov	sp, r7
 8003f7e:	b002      	add	sp, #8
 8003f80:	bd80      	pop	{r7, pc}
 8003f82:	46c0      	nop			@ (mov r8, r8)
 8003f84:	40004400 	.word	0x40004400

08003f88 <USR_USART2_WriteByte>:

/* Optional: direct TX putchar used by retarget.c */
void USR_USART2_WriteByte(uint8_t b)
{
 8003f88:	b580      	push	{r7, lr}
 8003f8a:	b082      	sub	sp, #8
 8003f8c:	af00      	add	r7, sp, #0
 8003f8e:	0002      	movs	r2, r0
 8003f90:	1dfb      	adds	r3, r7, #7
 8003f92:	701a      	strb	r2, [r3, #0]
#ifdef USART_ISR_TXE_TXFNF
    while (!(USART2->ISR & USART_ISR_TXE_TXFNF)) { }
 8003f94:	46c0      	nop			@ (mov r8, r8)
 8003f96:	4b06      	ldr	r3, [pc, #24]	@ (8003fb0 <USR_USART2_WriteByte+0x28>)
 8003f98:	69db      	ldr	r3, [r3, #28]
 8003f9a:	2280      	movs	r2, #128	@ 0x80
 8003f9c:	4013      	ands	r3, r2
 8003f9e:	d0fa      	beq.n	8003f96 <USR_USART2_WriteByte+0xe>
#else
    while (!(USART2->ISR & USART_ISR_TXE)) { }
#endif
    USART2->TDR = b;
 8003fa0:	4b03      	ldr	r3, [pc, #12]	@ (8003fb0 <USR_USART2_WriteByte+0x28>)
 8003fa2:	1dfa      	adds	r2, r7, #7
 8003fa4:	7812      	ldrb	r2, [r2, #0]
 8003fa6:	629a      	str	r2, [r3, #40]	@ 0x28
}
 8003fa8:	46c0      	nop			@ (mov r8, r8)
 8003faa:	46bd      	mov	sp, r7
 8003fac:	b002      	add	sp, #8
 8003fae:	bd80      	pop	{r7, pc}
 8003fb0:	40004400 	.word	0x40004400

08003fb4 <USR_USART2_UART_Init>:

/* --- Init ----------------------------------------------------------------- */
void USR_USART2_UART_Init(uint32_t baudrate)
{
 8003fb4:	b590      	push	{r4, r7, lr}
 8003fb6:	b08b      	sub	sp, #44	@ 0x2c
 8003fb8:	af00      	add	r7, sp, #0
 8003fba:	6078      	str	r0, [r7, #4]
    __HAL_RCC_GPIOA_CLK_ENABLE();
 8003fbc:	4b3d      	ldr	r3, [pc, #244]	@ (80040b4 <USR_USART2_UART_Init+0x100>)
 8003fbe:	6b5a      	ldr	r2, [r3, #52]	@ 0x34
 8003fc0:	4b3c      	ldr	r3, [pc, #240]	@ (80040b4 <USR_USART2_UART_Init+0x100>)
 8003fc2:	2101      	movs	r1, #1
 8003fc4:	430a      	orrs	r2, r1
 8003fc6:	635a      	str	r2, [r3, #52]	@ 0x34
 8003fc8:	4b3a      	ldr	r3, [pc, #232]	@ (80040b4 <USR_USART2_UART_Init+0x100>)
 8003fca:	6b5b      	ldr	r3, [r3, #52]	@ 0x34
 8003fcc:	2201      	movs	r2, #1
 8003fce:	4013      	ands	r3, r2
 8003fd0:	613b      	str	r3, [r7, #16]
 8003fd2:	693b      	ldr	r3, [r7, #16]
    __HAL_RCC_USART2_CLK_ENABLE();
 8003fd4:	4b37      	ldr	r3, [pc, #220]	@ (80040b4 <USR_USART2_UART_Init+0x100>)
 8003fd6:	6bda      	ldr	r2, [r3, #60]	@ 0x3c
 8003fd8:	4b36      	ldr	r3, [pc, #216]	@ (80040b4 <USR_USART2_UART_Init+0x100>)
 8003fda:	2180      	movs	r1, #128	@ 0x80
 8003fdc:	0289      	lsls	r1, r1, #10
 8003fde:	430a      	orrs	r2, r1
 8003fe0:	63da      	str	r2, [r3, #60]	@ 0x3c
 8003fe2:	4b34      	ldr	r3, [pc, #208]	@ (80040b4 <USR_USART2_UART_Init+0x100>)
 8003fe4:	6bda      	ldr	r2, [r3, #60]	@ 0x3c
 8003fe6:	2380      	movs	r3, #128	@ 0x80
 8003fe8:	029b      	lsls	r3, r3, #10
 8003fea:	4013      	ands	r3, r2
 8003fec:	60fb      	str	r3, [r7, #12]
 8003fee:	68fb      	ldr	r3, [r7, #12]

    /* PA2=TX, PA3=RX (AF1) */
    GPIO_InitTypeDef gpio = {0};
 8003ff0:	2414      	movs	r4, #20
 8003ff2:	193b      	adds	r3, r7, r4
 8003ff4:	0018      	movs	r0, r3
 8003ff6:	2314      	movs	r3, #20
 8003ff8:	001a      	movs	r2, r3
 8003ffa:	2100      	movs	r1, #0
 8003ffc:	f003 fd92 	bl	8007b24 <memset>
    gpio.Pin       = GPIO_PIN_2 | GPIO_PIN_3;
 8004000:	0021      	movs	r1, r4
 8004002:	187b      	adds	r3, r7, r1
 8004004:	220c      	movs	r2, #12
 8004006:	601a      	str	r2, [r3, #0]
    gpio.Mode      = GPIO_MODE_AF_PP;
 8004008:	187b      	adds	r3, r7, r1
 800400a:	2202      	movs	r2, #2
 800400c:	605a      	str	r2, [r3, #4]
    gpio.Pull      = GPIO_PULLUP;
 800400e:	187b      	adds	r3, r7, r1
 8004010:	2201      	movs	r2, #1
 8004012:	609a      	str	r2, [r3, #8]
    gpio.Speed     = GPIO_SPEED_FREQ_HIGH;
 8004014:	187b      	adds	r3, r7, r1
 8004016:	2202      	movs	r2, #2
 8004018:	60da      	str	r2, [r3, #12]
    gpio.Alternate = GPIO_AF1_USART2;
 800401a:	187b      	adds	r3, r7, r1
 800401c:	2201      	movs	r2, #1
 800401e:	611a      	str	r2, [r3, #16]
    HAL_GPIO_Init(GPIOA, &gpio);
 8004020:	187a      	adds	r2, r7, r1
 8004022:	23a0      	movs	r3, #160	@ 0xa0
 8004024:	05db      	lsls	r3, r3, #23
 8004026:	0011      	movs	r1, r2
 8004028:	0018      	movs	r0, r3
 800402a:	f000 fafd 	bl	8004628 <HAL_GPIO_Init>

    huart2.Instance            = USART2;
 800402e:	4b22      	ldr	r3, [pc, #136]	@ (80040b8 <USR_USART2_UART_Init+0x104>)
 8004030:	4a22      	ldr	r2, [pc, #136]	@ (80040bc <USR_USART2_UART_Init+0x108>)
 8004032:	601a      	str	r2, [r3, #0]
    huart2.Init.BaudRate       = baudrate ? baudrate : 115200u;
 8004034:	687b      	ldr	r3, [r7, #4]
 8004036:	2b00      	cmp	r3, #0
 8004038:	d001      	beq.n	800403e <USR_USART2_UART_Init+0x8a>
 800403a:	687a      	ldr	r2, [r7, #4]
 800403c:	e001      	b.n	8004042 <USR_USART2_UART_Init+0x8e>
 800403e:	23e1      	movs	r3, #225	@ 0xe1
 8004040:	025a      	lsls	r2, r3, #9
 8004042:	4b1d      	ldr	r3, [pc, #116]	@ (80040b8 <USR_USART2_UART_Init+0x104>)
 8004044:	605a      	str	r2, [r3, #4]
    huart2.Init.WordLength     = UART_WORDLENGTH_8B;
 8004046:	4b1c      	ldr	r3, [pc, #112]	@ (80040b8 <USR_USART2_UART_Init+0x104>)
 8004048:	2200      	movs	r2, #0
 800404a:	609a      	str	r2, [r3, #8]
    huart2.Init.StopBits       = UART_STOPBITS_1;
 800404c:	4b1a      	ldr	r3, [pc, #104]	@ (80040b8 <USR_USART2_UART_Init+0x104>)
 800404e:	2200      	movs	r2, #0
 8004050:	60da      	str	r2, [r3, #12]
    huart2.Init.Parity         = UART_PARITY_NONE;
 8004052:	4b19      	ldr	r3, [pc, #100]	@ (80040b8 <USR_USART2_UART_Init+0x104>)
 8004054:	2200      	movs	r2, #0
 8004056:	611a      	str	r2, [r3, #16]
    huart2.Init.Mode           = UART_MODE_TX_RX;
 8004058:	4b17      	ldr	r3, [pc, #92]	@ (80040b8 <USR_USART2_UART_Init+0x104>)
 800405a:	220c      	movs	r2, #12
 800405c:	615a      	str	r2, [r3, #20]
    huart2.Init.HwFlowCtl      = UART_HWCONTROL_NONE;
 800405e:	4b16      	ldr	r3, [pc, #88]	@ (80040b8 <USR_USART2_UART_Init+0x104>)
 8004060:	2200      	movs	r2, #0
 8004062:	619a      	str	r2, [r3, #24]
    huart2.Init.OverSampling   = UART_OVERSAMPLING_16;
 8004064:	4b14      	ldr	r3, [pc, #80]	@ (80040b8 <USR_USART2_UART_Init+0x104>)
 8004066:	2200      	movs	r2, #0
 8004068:	61da      	str	r2, [r3, #28]
#ifdef UART_ONE_BIT_SAMPLE_DISABLE
    huart2.Init.OneBitSampling = UART_ONE_BIT_SAMPLE_DISABLE;
 800406a:	4b13      	ldr	r3, [pc, #76]	@ (80040b8 <USR_USART2_UART_Init+0x104>)
 800406c:	2200      	movs	r2, #0
 800406e:	621a      	str	r2, [r3, #32]
#endif
    huart2.AdvancedInit.AdvFeatureInit = UART_ADVFEATURE_NO_INIT;
 8004070:	4b11      	ldr	r3, [pc, #68]	@ (80040b8 <USR_USART2_UART_Init+0x104>)
 8004072:	2200      	movs	r2, #0
 8004074:	629a      	str	r2, [r3, #40]	@ 0x28

    if (HAL_UART_Init(&huart2) != HAL_OK) {
 8004076:	4b10      	ldr	r3, [pc, #64]	@ (80040b8 <USR_USART2_UART_Init+0x104>)
 8004078:	0018      	movs	r0, r3
 800407a:	f001 fddd 	bl	8005c38 <HAL_UART_Init>
 800407e:	1e03      	subs	r3, r0, #0
 8004080:	d001      	beq.n	8004086 <USR_USART2_UART_Init+0xd2>
        Error_Handler();
 8004082:	f7ff fbf5 	bl	8003870 <Error_Handler>

    /* Enable RXNE/RXFNE interrupt so we never miss bytes */
#ifdef UART_IT_RXNE_RXFNE
    __HAL_UART_ENABLE_IT(&huart2, UART_IT_RXNE_RXFNE);
#else
    __HAL_UART_ENABLE_IT(&huart2, UART_IT_RXNE);
 8004086:	4b0c      	ldr	r3, [pc, #48]	@ (80040b8 <USR_USART2_UART_Init+0x104>)
 8004088:	681b      	ldr	r3, [r3, #0]
 800408a:	681a      	ldr	r2, [r3, #0]
 800408c:	4b0a      	ldr	r3, [pc, #40]	@ (80040b8 <USR_USART2_UART_Init+0x104>)
 800408e:	681b      	ldr	r3, [r3, #0]
 8004090:	2120      	movs	r1, #32
 8004092:	430a      	orrs	r2, r1
 8004094:	601a      	str	r2, [r3, #0]
    /* NVIC */
#ifdef USART2_LPUART2_IRQn
    HAL_NVIC_SetPriority(USART2_LPUART2_IRQn, 0, 0);
    HAL_NVIC_EnableIRQ(USART2_LPUART2_IRQn);
#else
    HAL_NVIC_SetPriority(USART2_IRQn, 0, 0);
 8004096:	2200      	movs	r2, #0
 8004098:	2100      	movs	r1, #0
 800409a:	201c      	movs	r0, #28
 800409c:	f000 f9c6 	bl	800442c <HAL_NVIC_SetPriority>
    HAL_NVIC_EnableIRQ(USART2_IRQn);
 80040a0:	201c      	movs	r0, #28
 80040a2:	f000 f9d8 	bl	8004456 <HAL_NVIC_EnableIRQ>
#endif

    uart2_clear_rx_errors();
 80040a6:	f7ff ff59 	bl	8003f5c <uart2_clear_rx_errors>
}
 80040aa:	46c0      	nop			@ (mov r8, r8)
 80040ac:	46bd      	mov	sp, r7
 80040ae:	b00b      	add	sp, #44	@ 0x2c
 80040b0:	bd90      	pop	{r4, r7, pc}
 80040b2:	46c0      	nop			@ (mov r8, r8)
 80040b4:	40021000 	.word	0x40021000
 80040b8:	2000036c 	.word	0x2000036c
 80040bc:	40004400 	.word	0x40004400

080040c0 <usart2_rx_drain>:

/* --- IRQ handler: drain RX FIFO fast and push to ring -------------------- */
static inline void usart2_rx_drain(void)
{
 80040c0:	b580      	push	{r7, lr}
 80040c2:	b082      	sub	sp, #8
 80040c4:	af00      	add	r7, sp, #0
    for (;;)
    {
#ifdef USART_ISR_RXNE_RXFNE
        if (!(USART2->ISR & USART_ISR_RXNE_RXFNE)) break;
 80040c6:	4b0a      	ldr	r3, [pc, #40]	@ (80040f0 <usart2_rx_drain+0x30>)
 80040c8:	69db      	ldr	r3, [r3, #28]
 80040ca:	2220      	movs	r2, #32
 80040cc:	4013      	ands	r3, r2
 80040ce:	d009      	beq.n	80040e4 <usart2_rx_drain+0x24>
#else
        if (!(USART2->ISR & USART_ISR_RXNE)) break;
#endif
        uint8_t b = (uint8_t)USART2->RDR;
 80040d0:	4b07      	ldr	r3, [pc, #28]	@ (80040f0 <usart2_rx_drain+0x30>)
 80040d2:	6a5a      	ldr	r2, [r3, #36]	@ 0x24
 80040d4:	1dfb      	adds	r3, r7, #7
 80040d6:	701a      	strb	r2, [r3, #0]
        ring_add((char)b);              /* push immediately; ring handles CR/LF/backspace */
 80040d8:	1dfb      	adds	r3, r7, #7
 80040da:	781b      	ldrb	r3, [r3, #0]
 80040dc:	0018      	movs	r0, r3
 80040de:	f7ff fc73 	bl	80039c8 <ring_add>
    {
 80040e2:	e7f0      	b.n	80040c6 <usart2_rx_drain+0x6>
        if (!(USART2->ISR & USART_ISR_RXNE_RXFNE)) break;
 80040e4:	46c0      	nop			@ (mov r8, r8)
    }
}
 80040e6:	46c0      	nop			@ (mov r8, r8)
 80040e8:	46bd      	mov	sp, r7
 80040ea:	b002      	add	sp, #8
 80040ec:	bd80      	pop	{r7, pc}
 80040ee:	46c0      	nop			@ (mov r8, r8)
 80040f0:	40004400 	.word	0x40004400

080040f4 <USART2_IRQHandler>:
#ifdef USART2_LPUART2_IRQn
void USART2_LPUART2_IRQHandler(void)
#else
void USART2_IRQHandler(void)
#endif
{
 80040f4:	b580      	push	{r7, lr}
 80040f6:	af00      	add	r7, sp, #0
    /* RX data ready? Drain all */
    usart2_rx_drain();
 80040f8:	f7ff ffe2 	bl	80040c0 <usart2_rx_drain>

    /* Errors? Clear and keep going */
    uart2_clear_rx_errors();
 80040fc:	f7ff ff2e 	bl	8003f5c <uart2_clear_rx_errors>

    /* Let HAL clear any other flags it expects */
    HAL_UART_IRQHandler(&huart2);
 8004100:	4b03      	ldr	r3, [pc, #12]	@ (8004110 <USART2_IRQHandler+0x1c>)
 8004102:	0018      	movs	r0, r3
 8004104:	f001 fdee 	bl	8005ce4 <HAL_UART_IRQHandler>
}
 8004108:	46c0      	nop			@ (mov r8, r8)
 800410a:	46bd      	mov	sp, r7
 800410c:	bd80      	pop	{r7, pc}
 800410e:	46c0      	nop			@ (mov r8, r8)
 8004110:	2000036c 	.word	0x2000036c

08004114 <MX_USART2_UART_Init>:

/* CubeMX-compat wrapper so main.c can call MX_USART2_UART_Init()
 * without depending on generated usart.c. This delegates to our
 * robust USR_USART2_UART_Init and sets up the ring retarget. */
void MX_USART2_UART_Init(void)
{
 8004114:	b580      	push	{r7, lr}
 8004116:	af00      	add	r7, sp, #0
    /* Ensure system clock is configured (optional if already done) */
    /* USR_SystemClock_Config(); */ /* leave to main if needed */
    USR_USART2_UART_Init(115200u);
 8004118:	23e1      	movs	r3, #225	@ 0xe1
 800411a:	025b      	lsls	r3, r3, #9
 800411c:	0018      	movs	r0, r3
 800411e:	f7ff ff49 	bl	8003fb4 <USR_USART2_UART_Init>
    ring_init();
 8004122:	f7ff fbdb 	bl	80038dc <ring_init>
}
 8004126:	46c0      	nop			@ (mov r8, r8)
 8004128:	46bd      	mov	sp, r7
 800412a:	bd80      	pop	{r7, pc}

0800412c <Reset_Handler>:

  .section .text.Reset_Handler
  .weak Reset_Handler
  .type Reset_Handler, %function
Reset_Handler:
  ldr   r0, =_estack
 800412c:	480d      	ldr	r0, [pc, #52]	@ (8004164 <LoopForever+0x2>)
  mov   sp, r0          /* set stack pointer */
 800412e:	4685      	mov	sp, r0

/* Call the clock system initialization function.*/
  bl  SystemInit
 8004130:	f7ff ff0e 	bl	8003f50 <SystemInit>

/* Copy the data segment initializers from flash to SRAM */
  ldr r0, =_sdata
 8004134:	480c      	ldr	r0, [pc, #48]	@ (8004168 <LoopForever+0x6>)
  ldr r1, =_edata
 8004136:	490d      	ldr	r1, [pc, #52]	@ (800416c <LoopForever+0xa>)
  ldr r2, =_sidata
 8004138:	4a0d      	ldr	r2, [pc, #52]	@ (8004170 <LoopForever+0xe>)
  movs r3, #0
 800413a:	2300      	movs	r3, #0
  b LoopCopyDataInit
 800413c:	e002      	b.n	8004144 <LoopCopyDataInit>

0800413e <CopyDataInit>:

CopyDataInit:
  ldr r4, [r2, r3]
 800413e:	58d4      	ldr	r4, [r2, r3]
  str r4, [r0, r3]
 8004140:	50c4      	str	r4, [r0, r3]
  adds r3, r3, #4
 8004142:	3304      	adds	r3, #4

08004144 <LoopCopyDataInit>:

LoopCopyDataInit:
  adds r4, r0, r3
 8004144:	18c4      	adds	r4, r0, r3
  cmp r4, r1
 8004146:	428c      	cmp	r4, r1
  bcc CopyDataInit
 8004148:	d3f9      	bcc.n	800413e <CopyDataInit>

/* Zero fill the bss segment. */
  ldr r2, =_sbss
 800414a:	4a0a      	ldr	r2, [pc, #40]	@ (8004174 <LoopForever+0x12>)
  ldr r4, =_ebss
 800414c:	4c0a      	ldr	r4, [pc, #40]	@ (8004178 <LoopForever+0x16>)
  movs r3, #0
 800414e:	2300      	movs	r3, #0
  b LoopFillZerobss
 8004150:	e001      	b.n	8004156 <LoopFillZerobss>

08004152 <FillZerobss>:

FillZerobss:
  str  r3, [r2]
 8004152:	6013      	str	r3, [r2, #0]
  adds r2, r2, #4
 8004154:	3204      	adds	r2, #4

08004156 <LoopFillZerobss>:

LoopFillZerobss:
  cmp r2, r4
 8004156:	42a2      	cmp	r2, r4
  bcc FillZerobss
 8004158:	d3fb      	bcc.n	8004152 <FillZerobss>

/* Call static constructors */
  bl __libc_init_array
 800415a:	f003 fd43 	bl	8007be4 <__libc_init_array>
/* Call the application s entry point.*/
  bl main
 800415e:	f7ff fabd 	bl	80036dc <main>

08004162 <LoopForever>:

LoopForever:
  b LoopForever
 8004162:	e7fe      	b.n	8004162 <LoopForever>
  ldr   r0, =_estack
 8004164:	20009000 	.word	0x20009000
  ldr r0, =_sdata
 8004168:	20000000 	.word	0x20000000
  ldr r1, =_edata
 800416c:	200001d8 	.word	0x200001d8
  ldr r2, =_sidata
 8004170:	08009fcc 	.word	0x08009fcc
  ldr r2, =_sbss
 8004174:	200001d8 	.word	0x200001d8
  ldr r4, =_ebss
 8004178:	20000550 	.word	0x20000550

0800417c <ADC1_COMP_IRQHandler>:
 * @retval None
*/
  .section .text.Default_Handler,"ax",%progbits
Default_Handler:
Infinite_Loop:
  b Infinite_Loop
 800417c:	e7fe      	b.n	800417c <ADC1_COMP_IRQHandler>
	...

08004180 <HAL_Init>:
  *         each 1ms in the SysTick_Handler() interrupt handler.
  *
  * @retval HAL status
  */
HAL_StatusTypeDef HAL_Init(void)
{
 8004180:	b580      	push	{r7, lr}
 8004182:	b082      	sub	sp, #8
 8004184:	af00      	add	r7, sp, #0
  HAL_StatusTypeDef  status = HAL_OK;
 8004186:	1dfb      	adds	r3, r7, #7
 8004188:	2200      	movs	r2, #0
 800418a:	701a      	strb	r2, [r3, #0]
#if (INSTRUCTION_CACHE_ENABLE == 0U)
  __HAL_FLASH_INSTRUCTION_CACHE_DISABLE();
#endif /* INSTRUCTION_CACHE_ENABLE */

#if (PREFETCH_ENABLE != 0U)
  __HAL_FLASH_PREFETCH_BUFFER_ENABLE();
 800418c:	4b0b      	ldr	r3, [pc, #44]	@ (80041bc <HAL_Init+0x3c>)
 800418e:	681a      	ldr	r2, [r3, #0]
 8004190:	4b0a      	ldr	r3, [pc, #40]	@ (80041bc <HAL_Init+0x3c>)
 8004192:	2180      	movs	r1, #128	@ 0x80
 8004194:	0049      	lsls	r1, r1, #1
 8004196:	430a      	orrs	r2, r1
 8004198:	601a      	str	r2, [r3, #0]
#endif /* PREFETCH_ENABLE */

  /* Use SysTick as time base source and configure 1ms tick (default clock after Reset is HSI) */
  if (HAL_InitTick(TICK_INT_PRIORITY) != HAL_OK)
 800419a:	2000      	movs	r0, #0
 800419c:	f000 f810 	bl	80041c0 <HAL_InitTick>
 80041a0:	1e03      	subs	r3, r0, #0
 80041a2:	d003      	beq.n	80041ac <HAL_Init+0x2c>
  {
    status = HAL_ERROR;
 80041a4:	1dfb      	adds	r3, r7, #7
 80041a6:	2201      	movs	r2, #1
 80041a8:	701a      	strb	r2, [r3, #0]
 80041aa:	e001      	b.n	80041b0 <HAL_Init+0x30>
  }
  else
  {
  /* Init the low level hardware */
  HAL_MspInit();
 80041ac:	f7ff fd06 	bl	8003bbc <HAL_MspInit>
  }

  /* Return function status */
  return status;
 80041b0:	1dfb      	adds	r3, r7, #7
 80041b2:	781b      	ldrb	r3, [r3, #0]
}
 80041b4:	0018      	movs	r0, r3
 80041b6:	46bd      	mov	sp, r7
 80041b8:	b002      	add	sp, #8
 80041ba:	bd80      	pop	{r7, pc}
 80041bc:	40022000 	.word	0x40022000

080041c0 <HAL_InitTick>:
  *       implementation  in user file.
  * @param TickPriority Tick interrupt priority.
  * @retval HAL status
  */
__weak HAL_StatusTypeDef HAL_InitTick(uint32_t TickPriority)
{
 80041c0:	b590      	push	{r4, r7, lr}
 80041c2:	b085      	sub	sp, #20
 80041c4:	af00      	add	r7, sp, #0
 80041c6:	6078      	str	r0, [r7, #4]
  HAL_StatusTypeDef  status = HAL_OK;
 80041c8:	230f      	movs	r3, #15
 80041ca:	18fb      	adds	r3, r7, r3
 80041cc:	2200      	movs	r2, #0
 80041ce:	701a      	strb	r2, [r3, #0]

  /* Check uwTickFreq for MisraC 2012 (even if uwTickFreq is a enum type that doesn't take the value zero)*/ 
  if ((uint32_t)uwTickFreq != 0U)
 80041d0:	4b1d      	ldr	r3, [pc, #116]	@ (8004248 <HAL_InitTick+0x88>)
 80041d2:	781b      	ldrb	r3, [r3, #0]
 80041d4:	2b00      	cmp	r3, #0
 80041d6:	d02b      	beq.n	8004230 <HAL_InitTick+0x70>
  {
    /*Configure the SysTick to have interrupt in 1ms time basis*/
    if (HAL_SYSTICK_Config(SystemCoreClock / (1000U /(uint32_t)uwTickFreq)) == 0U)
 80041d8:	4b1c      	ldr	r3, [pc, #112]	@ (800424c <HAL_InitTick+0x8c>)
 80041da:	681c      	ldr	r4, [r3, #0]
 80041dc:	4b1a      	ldr	r3, [pc, #104]	@ (8004248 <HAL_InitTick+0x88>)
 80041de:	781b      	ldrb	r3, [r3, #0]
 80041e0:	0019      	movs	r1, r3
 80041e2:	23fa      	movs	r3, #250	@ 0xfa
 80041e4:	0098      	lsls	r0, r3, #2
 80041e6:	f7fb ffb3 	bl	8000150 <__udivsi3>
 80041ea:	0003      	movs	r3, r0
 80041ec:	0019      	movs	r1, r3
 80041ee:	0020      	movs	r0, r4
 80041f0:	f7fb ffae 	bl	8000150 <__udivsi3>
 80041f4:	0003      	movs	r3, r0
 80041f6:	0018      	movs	r0, r3
 80041f8:	f000 f93d 	bl	8004476 <HAL_SYSTICK_Config>
 80041fc:	1e03      	subs	r3, r0, #0
 80041fe:	d112      	bne.n	8004226 <HAL_InitTick+0x66>
    {
      /* Configure the SysTick IRQ priority */
      if (TickPriority < (1UL << __NVIC_PRIO_BITS))
 8004200:	687b      	ldr	r3, [r7, #4]
 8004202:	2b03      	cmp	r3, #3
 8004204:	d80a      	bhi.n	800421c <HAL_InitTick+0x5c>
      {
        HAL_NVIC_SetPriority(SysTick_IRQn, TickPriority, 0U);
 8004206:	6879      	ldr	r1, [r7, #4]
 8004208:	2301      	movs	r3, #1
 800420a:	425b      	negs	r3, r3
 800420c:	2200      	movs	r2, #0
 800420e:	0018      	movs	r0, r3
 8004210:	f000 f90c 	bl	800442c <HAL_NVIC_SetPriority>
        uwTickPrio = TickPriority;
 8004214:	4b0e      	ldr	r3, [pc, #56]	@ (8004250 <HAL_InitTick+0x90>)
 8004216:	687a      	ldr	r2, [r7, #4]
 8004218:	601a      	str	r2, [r3, #0]
 800421a:	e00d      	b.n	8004238 <HAL_InitTick+0x78>
      }
      else
      {
        status = HAL_ERROR;
 800421c:	230f      	movs	r3, #15
 800421e:	18fb      	adds	r3, r7, r3
 8004220:	2201      	movs	r2, #1
 8004222:	701a      	strb	r2, [r3, #0]
 8004224:	e008      	b.n	8004238 <HAL_InitTick+0x78>
      }
    }
    else
    {
      status = HAL_ERROR;
 8004226:	230f      	movs	r3, #15
 8004228:	18fb      	adds	r3, r7, r3
 800422a:	2201      	movs	r2, #1
 800422c:	701a      	strb	r2, [r3, #0]
 800422e:	e003      	b.n	8004238 <HAL_InitTick+0x78>
    }
  }
  else
  {
    status = HAL_ERROR;
 8004230:	230f      	movs	r3, #15
 8004232:	18fb      	adds	r3, r7, r3
 8004234:	2201      	movs	r2, #1
 8004236:	701a      	strb	r2, [r3, #0]
  }

  /* Return function status */
  return status;
 8004238:	230f      	movs	r3, #15
 800423a:	18fb      	adds	r3, r7, r3
 800423c:	781b      	ldrb	r3, [r3, #0]
}
 800423e:	0018      	movs	r0, r3
 8004240:	46bd      	mov	sp, r7
 8004242:	b005      	add	sp, #20
 8004244:	bd90      	pop	{r4, r7, pc}
 8004246:	46c0      	nop			@ (mov r8, r8)
 8004248:	2000000c 	.word	0x2000000c
 800424c:	20000004 	.word	0x20000004
 8004250:	20000008 	.word	0x20000008

08004254 <HAL_IncTick>:
  * @note This function is declared as __weak to be overwritten in case of other
  *      implementations in user file.
  * @retval None
  */
__weak void HAL_IncTick(void)
{
 8004254:	b580      	push	{r7, lr}
 8004256:	af00      	add	r7, sp, #0
  uwTick += (uint32_t)uwTickFreq;
 8004258:	4b05      	ldr	r3, [pc, #20]	@ (8004270 <HAL_IncTick+0x1c>)
 800425a:	781b      	ldrb	r3, [r3, #0]
 800425c:	001a      	movs	r2, r3
 800425e:	4b05      	ldr	r3, [pc, #20]	@ (8004274 <HAL_IncTick+0x20>)
 8004260:	681b      	ldr	r3, [r3, #0]
 8004262:	18d2      	adds	r2, r2, r3
 8004264:	4b03      	ldr	r3, [pc, #12]	@ (8004274 <HAL_IncTick+0x20>)
 8004266:	601a      	str	r2, [r3, #0]
}
 8004268:	46c0      	nop			@ (mov r8, r8)
 800426a:	46bd      	mov	sp, r7
 800426c:	bd80      	pop	{r7, pc}
 800426e:	46c0      	nop			@ (mov r8, r8)
 8004270:	2000000c 	.word	0x2000000c
 8004274:	20000400 	.word	0x20000400

08004278 <HAL_GetTick>:
  * @note This function is declared as __weak to be overwritten in case of other
  *       implementations in user file.
  * @retval tick value
  */
__weak uint32_t HAL_GetTick(void)
{
 8004278:	b580      	push	{r7, lr}
 800427a:	af00      	add	r7, sp, #0
  return uwTick;
 800427c:	4b02      	ldr	r3, [pc, #8]	@ (8004288 <HAL_GetTick+0x10>)
 800427e:	681b      	ldr	r3, [r3, #0]
}
 8004280:	0018      	movs	r0, r3
 8004282:	46bd      	mov	sp, r7
 8004284:	bd80      	pop	{r7, pc}
 8004286:	46c0      	nop			@ (mov r8, r8)
 8004288:	20000400 	.word	0x20000400

0800428c <HAL_Delay>:
  *       implementations in user file.
  * @param Delay  specifies the delay time length, in milliseconds.
  * @retval None
  */
__weak void HAL_Delay(uint32_t Delay)
{
 800428c:	b580      	push	{r7, lr}
 800428e:	b084      	sub	sp, #16
 8004290:	af00      	add	r7, sp, #0
 8004292:	6078      	str	r0, [r7, #4]
  uint32_t tickstart = HAL_GetTick();
 8004294:	f7ff fff0 	bl	8004278 <HAL_GetTick>
 8004298:	0003      	movs	r3, r0
 800429a:	60bb      	str	r3, [r7, #8]
  uint32_t wait = Delay;
 800429c:	687b      	ldr	r3, [r7, #4]
 800429e:	60fb      	str	r3, [r7, #12]

  /* Add a freq to guarantee minimum wait */
  if (wait < HAL_MAX_DELAY)
 80042a0:	68fb      	ldr	r3, [r7, #12]
 80042a2:	3301      	adds	r3, #1
 80042a4:	d005      	beq.n	80042b2 <HAL_Delay+0x26>
  {
    wait += (uint32_t)(uwTickFreq);
 80042a6:	4b0a      	ldr	r3, [pc, #40]	@ (80042d0 <HAL_Delay+0x44>)
 80042a8:	781b      	ldrb	r3, [r3, #0]
 80042aa:	001a      	movs	r2, r3
 80042ac:	68fb      	ldr	r3, [r7, #12]
 80042ae:	189b      	adds	r3, r3, r2
 80042b0:	60fb      	str	r3, [r7, #12]
  }

  while ((HAL_GetTick() - tickstart) < wait)
 80042b2:	46c0      	nop			@ (mov r8, r8)
 80042b4:	f7ff ffe0 	bl	8004278 <HAL_GetTick>
 80042b8:	0002      	movs	r2, r0
 80042ba:	68bb      	ldr	r3, [r7, #8]
 80042bc:	1ad3      	subs	r3, r2, r3
 80042be:	68fa      	ldr	r2, [r7, #12]
 80042c0:	429a      	cmp	r2, r3
 80042c2:	d8f7      	bhi.n	80042b4 <HAL_Delay+0x28>
  {
  }
}
 80042c4:	46c0      	nop			@ (mov r8, r8)
 80042c6:	46c0      	nop			@ (mov r8, r8)
 80042c8:	46bd      	mov	sp, r7
 80042ca:	b004      	add	sp, #16
 80042cc:	bd80      	pop	{r7, pc}
 80042ce:	46c0      	nop			@ (mov r8, r8)
 80042d0:	2000000c 	.word	0x2000000c

080042d4 <__NVIC_EnableIRQ>:
  \details Enables a device specific interrupt in the NVIC interrupt controller.
  \param [in]      IRQn  Device specific interrupt number.
  \note    IRQn must not be negative.
 */
__STATIC_INLINE void __NVIC_EnableIRQ(IRQn_Type IRQn)
{
 80042d4:	b580      	push	{r7, lr}
 80042d6:	b082      	sub	sp, #8
 80042d8:	af00      	add	r7, sp, #0
 80042da:	0002      	movs	r2, r0
 80042dc:	1dfb      	adds	r3, r7, #7
 80042de:	701a      	strb	r2, [r3, #0]
  if ((int32_t)(IRQn) >= 0)
 80042e0:	1dfb      	adds	r3, r7, #7
 80042e2:	781b      	ldrb	r3, [r3, #0]
 80042e4:	2b7f      	cmp	r3, #127	@ 0x7f
 80042e6:	d809      	bhi.n	80042fc <__NVIC_EnableIRQ+0x28>
  {
    __COMPILER_BARRIER();
    NVIC->ISER[0U] = (uint32_t)(1UL << (((uint32_t)IRQn) & 0x1FUL));
 80042e8:	1dfb      	adds	r3, r7, #7
 80042ea:	781b      	ldrb	r3, [r3, #0]
 80042ec:	001a      	movs	r2, r3
 80042ee:	231f      	movs	r3, #31
 80042f0:	401a      	ands	r2, r3
 80042f2:	4b04      	ldr	r3, [pc, #16]	@ (8004304 <__NVIC_EnableIRQ+0x30>)
 80042f4:	2101      	movs	r1, #1
 80042f6:	4091      	lsls	r1, r2
 80042f8:	000a      	movs	r2, r1
 80042fa:	601a      	str	r2, [r3, #0]
    __COMPILER_BARRIER();
  }
}
 80042fc:	46c0      	nop			@ (mov r8, r8)
 80042fe:	46bd      	mov	sp, r7
 8004300:	b002      	add	sp, #8
 8004302:	bd80      	pop	{r7, pc}
 8004304:	e000e100 	.word	0xe000e100

08004308 <__NVIC_SetPriority>:
  \param [in]      IRQn  Interrupt number.
  \param [in]  priority  Priority to set.
  \note    The priority cannot be set for every processor exception.
 */
__STATIC_INLINE void __NVIC_SetPriority(IRQn_Type IRQn, uint32_t priority)
{
 8004308:	b590      	push	{r4, r7, lr}
 800430a:	b083      	sub	sp, #12
 800430c:	af00      	add	r7, sp, #0
 800430e:	0002      	movs	r2, r0
 8004310:	6039      	str	r1, [r7, #0]
 8004312:	1dfb      	adds	r3, r7, #7
 8004314:	701a      	strb	r2, [r3, #0]
  if ((int32_t)(IRQn) >= 0)
 8004316:	1dfb      	adds	r3, r7, #7
 8004318:	781b      	ldrb	r3, [r3, #0]
 800431a:	2b7f      	cmp	r3, #127	@ 0x7f
 800431c:	d828      	bhi.n	8004370 <__NVIC_SetPriority+0x68>
  {
    NVIC->IP[_IP_IDX(IRQn)]  = ((uint32_t)(NVIC->IP[_IP_IDX(IRQn)]  & ~(0xFFUL << _BIT_SHIFT(IRQn))) |
 800431e:	4a2f      	ldr	r2, [pc, #188]	@ (80043dc <__NVIC_SetPriority+0xd4>)
 8004320:	1dfb      	adds	r3, r7, #7
 8004322:	781b      	ldrb	r3, [r3, #0]
 8004324:	b25b      	sxtb	r3, r3
 8004326:	089b      	lsrs	r3, r3, #2
 8004328:	33c0      	adds	r3, #192	@ 0xc0
 800432a:	009b      	lsls	r3, r3, #2
 800432c:	589b      	ldr	r3, [r3, r2]
 800432e:	1dfa      	adds	r2, r7, #7
 8004330:	7812      	ldrb	r2, [r2, #0]
 8004332:	0011      	movs	r1, r2
 8004334:	2203      	movs	r2, #3
 8004336:	400a      	ands	r2, r1
 8004338:	00d2      	lsls	r2, r2, #3
 800433a:	21ff      	movs	r1, #255	@ 0xff
 800433c:	4091      	lsls	r1, r2
 800433e:	000a      	movs	r2, r1
 8004340:	43d2      	mvns	r2, r2
 8004342:	401a      	ands	r2, r3
 8004344:	0011      	movs	r1, r2
       (((priority << (8U - __NVIC_PRIO_BITS)) & (uint32_t)0xFFUL) << _BIT_SHIFT(IRQn)));
 8004346:	683b      	ldr	r3, [r7, #0]
 8004348:	019b      	lsls	r3, r3, #6
 800434a:	22ff      	movs	r2, #255	@ 0xff
 800434c:	401a      	ands	r2, r3
 800434e:	1dfb      	adds	r3, r7, #7
 8004350:	781b      	ldrb	r3, [r3, #0]
 8004352:	0018      	movs	r0, r3
 8004354:	2303      	movs	r3, #3
 8004356:	4003      	ands	r3, r0
 8004358:	00db      	lsls	r3, r3, #3
 800435a:	409a      	lsls	r2, r3
    NVIC->IP[_IP_IDX(IRQn)]  = ((uint32_t)(NVIC->IP[_IP_IDX(IRQn)]  & ~(0xFFUL << _BIT_SHIFT(IRQn))) |
 800435c:	481f      	ldr	r0, [pc, #124]	@ (80043dc <__NVIC_SetPriority+0xd4>)
 800435e:	1dfb      	adds	r3, r7, #7
 8004360:	781b      	ldrb	r3, [r3, #0]
 8004362:	b25b      	sxtb	r3, r3
 8004364:	089b      	lsrs	r3, r3, #2
 8004366:	430a      	orrs	r2, r1
 8004368:	33c0      	adds	r3, #192	@ 0xc0
 800436a:	009b      	lsls	r3, r3, #2
 800436c:	501a      	str	r2, [r3, r0]
  else
  {
    SCB->SHP[_SHP_IDX(IRQn)] = ((uint32_t)(SCB->SHP[_SHP_IDX(IRQn)] & ~(0xFFUL << _BIT_SHIFT(IRQn))) |
       (((priority << (8U - __NVIC_PRIO_BITS)) & (uint32_t)0xFFUL) << _BIT_SHIFT(IRQn)));
  }
}
 800436e:	e031      	b.n	80043d4 <__NVIC_SetPriority+0xcc>
    SCB->SHP[_SHP_IDX(IRQn)] = ((uint32_t)(SCB->SHP[_SHP_IDX(IRQn)] & ~(0xFFUL << _BIT_SHIFT(IRQn))) |
 8004370:	4a1b      	ldr	r2, [pc, #108]	@ (80043e0 <__NVIC_SetPriority+0xd8>)
 8004372:	1dfb      	adds	r3, r7, #7
 8004374:	781b      	ldrb	r3, [r3, #0]
 8004376:	0019      	movs	r1, r3
 8004378:	230f      	movs	r3, #15
 800437a:	400b      	ands	r3, r1
 800437c:	3b08      	subs	r3, #8
 800437e:	089b      	lsrs	r3, r3, #2
 8004380:	3306      	adds	r3, #6
 8004382:	009b      	lsls	r3, r3, #2
 8004384:	18d3      	adds	r3, r2, r3
 8004386:	3304      	adds	r3, #4
 8004388:	681b      	ldr	r3, [r3, #0]
 800438a:	1dfa      	adds	r2, r7, #7
 800438c:	7812      	ldrb	r2, [r2, #0]
 800438e:	0011      	movs	r1, r2
 8004390:	2203      	movs	r2, #3
 8004392:	400a      	ands	r2, r1
 8004394:	00d2      	lsls	r2, r2, #3
 8004396:	21ff      	movs	r1, #255	@ 0xff
 8004398:	4091      	lsls	r1, r2
 800439a:	000a      	movs	r2, r1
 800439c:	43d2      	mvns	r2, r2
 800439e:	401a      	ands	r2, r3
 80043a0:	0011      	movs	r1, r2
       (((priority << (8U - __NVIC_PRIO_BITS)) & (uint32_t)0xFFUL) << _BIT_SHIFT(IRQn)));
 80043a2:	683b      	ldr	r3, [r7, #0]
 80043a4:	019b      	lsls	r3, r3, #6
 80043a6:	22ff      	movs	r2, #255	@ 0xff
 80043a8:	401a      	ands	r2, r3
 80043aa:	1dfb      	adds	r3, r7, #7
 80043ac:	781b      	ldrb	r3, [r3, #0]
 80043ae:	0018      	movs	r0, r3
 80043b0:	2303      	movs	r3, #3
 80043b2:	4003      	ands	r3, r0
 80043b4:	00db      	lsls	r3, r3, #3
 80043b6:	409a      	lsls	r2, r3
    SCB->SHP[_SHP_IDX(IRQn)] = ((uint32_t)(SCB->SHP[_SHP_IDX(IRQn)] & ~(0xFFUL << _BIT_SHIFT(IRQn))) |
 80043b8:	4809      	ldr	r0, [pc, #36]	@ (80043e0 <__NVIC_SetPriority+0xd8>)
 80043ba:	1dfb      	adds	r3, r7, #7
 80043bc:	781b      	ldrb	r3, [r3, #0]
 80043be:	001c      	movs	r4, r3
 80043c0:	230f      	movs	r3, #15
 80043c2:	4023      	ands	r3, r4
 80043c4:	3b08      	subs	r3, #8
 80043c6:	089b      	lsrs	r3, r3, #2
 80043c8:	430a      	orrs	r2, r1
 80043ca:	3306      	adds	r3, #6
 80043cc:	009b      	lsls	r3, r3, #2
 80043ce:	18c3      	adds	r3, r0, r3
 80043d0:	3304      	adds	r3, #4
 80043d2:	601a      	str	r2, [r3, #0]
}
 80043d4:	46c0      	nop			@ (mov r8, r8)
 80043d6:	46bd      	mov	sp, r7
 80043d8:	b003      	add	sp, #12
 80043da:	bd90      	pop	{r4, r7, pc}
 80043dc:	e000e100 	.word	0xe000e100
 80043e0:	e000ed00 	.word	0xe000ed00

080043e4 <SysTick_Config>:
  \note    When the variable <b>__Vendor_SysTickConfig</b> is set to 1, then the
           function <b>SysTick_Config</b> is not included. In this case, the file <b><i>device</i>.h</b>
           must contain a vendor-specific implementation of this function.
 */
__STATIC_INLINE uint32_t SysTick_Config(uint32_t ticks)
{
 80043e4:	b580      	push	{r7, lr}
 80043e6:	b082      	sub	sp, #8
 80043e8:	af00      	add	r7, sp, #0
 80043ea:	6078      	str	r0, [r7, #4]
  if ((ticks - 1UL) > SysTick_LOAD_RELOAD_Msk)
 80043ec:	687b      	ldr	r3, [r7, #4]
 80043ee:	1e5a      	subs	r2, r3, #1
 80043f0:	2380      	movs	r3, #128	@ 0x80
 80043f2:	045b      	lsls	r3, r3, #17
 80043f4:	429a      	cmp	r2, r3
 80043f6:	d301      	bcc.n	80043fc <SysTick_Config+0x18>
  {
    return (1UL);                                                   /* Reload value impossible */
 80043f8:	2301      	movs	r3, #1
 80043fa:	e010      	b.n	800441e <SysTick_Config+0x3a>
  }

  SysTick->LOAD  = (uint32_t)(ticks - 1UL);                         /* set reload register */
 80043fc:	4b0a      	ldr	r3, [pc, #40]	@ (8004428 <SysTick_Config+0x44>)
 80043fe:	687a      	ldr	r2, [r7, #4]
 8004400:	3a01      	subs	r2, #1
 8004402:	605a      	str	r2, [r3, #4]
  NVIC_SetPriority (SysTick_IRQn, (1UL << __NVIC_PRIO_BITS) - 1UL); /* set Priority for Systick Interrupt */
 8004404:	2301      	movs	r3, #1
 8004406:	425b      	negs	r3, r3
 8004408:	2103      	movs	r1, #3
 800440a:	0018      	movs	r0, r3
 800440c:	f7ff ff7c 	bl	8004308 <__NVIC_SetPriority>
  SysTick->VAL   = 0UL;                                             /* Load the SysTick Counter Value */
 8004410:	4b05      	ldr	r3, [pc, #20]	@ (8004428 <SysTick_Config+0x44>)
 8004412:	2200      	movs	r2, #0
 8004414:	609a      	str	r2, [r3, #8]
  SysTick->CTRL  = SysTick_CTRL_CLKSOURCE_Msk |
 8004416:	4b04      	ldr	r3, [pc, #16]	@ (8004428 <SysTick_Config+0x44>)
 8004418:	2207      	movs	r2, #7
 800441a:	601a      	str	r2, [r3, #0]
                   SysTick_CTRL_TICKINT_Msk   |
                   SysTick_CTRL_ENABLE_Msk;                         /* Enable SysTick IRQ and SysTick Timer */
  return (0UL);                                                     /* Function successful */
 800441c:	2300      	movs	r3, #0
}
 800441e:	0018      	movs	r0, r3
 8004420:	46bd      	mov	sp, r7
 8004422:	b002      	add	sp, #8
 8004424:	bd80      	pop	{r7, pc}
 8004426:	46c0      	nop			@ (mov r8, r8)
 8004428:	e000e010 	.word	0xe000e010

0800442c <HAL_NVIC_SetPriority>:
  *         with stm32g0xx devices, this parameter is a dummy value and it is ignored, because
  *         no subpriority supported in Cortex M0+ based products.
  * @retval None
  */
void HAL_NVIC_SetPriority(IRQn_Type IRQn, uint32_t PreemptPriority, uint32_t SubPriority)
{
 800442c:	b580      	push	{r7, lr}
 800442e:	b084      	sub	sp, #16
 8004430:	af00      	add	r7, sp, #0
 8004432:	60b9      	str	r1, [r7, #8]
 8004434:	607a      	str	r2, [r7, #4]
 8004436:	210f      	movs	r1, #15
 8004438:	187b      	adds	r3, r7, r1
 800443a:	1c02      	adds	r2, r0, #0
 800443c:	701a      	strb	r2, [r3, #0]
  /* Prevent unused argument(s) compilation warning */
  UNUSED(SubPriority);

  /* Check the parameters */
  assert_param(IS_NVIC_PREEMPTION_PRIORITY(PreemptPriority));
  NVIC_SetPriority(IRQn, PreemptPriority);
 800443e:	68ba      	ldr	r2, [r7, #8]
 8004440:	187b      	adds	r3, r7, r1
 8004442:	781b      	ldrb	r3, [r3, #0]
 8004444:	b25b      	sxtb	r3, r3
 8004446:	0011      	movs	r1, r2
 8004448:	0018      	movs	r0, r3
 800444a:	f7ff ff5d 	bl	8004308 <__NVIC_SetPriority>
}
 800444e:	46c0      	nop			@ (mov r8, r8)
 8004450:	46bd      	mov	sp, r7
 8004452:	b004      	add	sp, #16
 8004454:	bd80      	pop	{r7, pc}

08004456 <HAL_NVIC_EnableIRQ>:
  *         This parameter can be an enumerator of IRQn_Type enumeration
  *         (For the complete STM32 Devices IRQ Channels list, please refer to the appropriate CMSIS device file (stm32g0xxxx.h))
  * @retval None
  */
void HAL_NVIC_EnableIRQ(IRQn_Type IRQn)
{
 8004456:	b580      	push	{r7, lr}
 8004458:	b082      	sub	sp, #8
 800445a:	af00      	add	r7, sp, #0
 800445c:	0002      	movs	r2, r0
 800445e:	1dfb      	adds	r3, r7, #7
 8004460:	701a      	strb	r2, [r3, #0]
  /* Check the parameters */
  assert_param(IS_NVIC_DEVICE_IRQ(IRQn));

  /* Enable interrupt */
  NVIC_EnableIRQ(IRQn);
 8004462:	1dfb      	adds	r3, r7, #7
 8004464:	781b      	ldrb	r3, [r3, #0]
 8004466:	b25b      	sxtb	r3, r3
 8004468:	0018      	movs	r0, r3
 800446a:	f7ff ff33 	bl	80042d4 <__NVIC_EnableIRQ>
}
 800446e:	46c0      	nop			@ (mov r8, r8)
 8004470:	46bd      	mov	sp, r7
 8004472:	b002      	add	sp, #8
 8004474:	bd80      	pop	{r7, pc}

08004476 <HAL_SYSTICK_Config>:
  * @param  TicksNumb Specifies the ticks Number of ticks between two interrupts.
  * @retval status:  - 0  Function succeeded.
  *                  - 1  Function failed.
  */
uint32_t HAL_SYSTICK_Config(uint32_t TicksNumb)
{
 8004476:	b580      	push	{r7, lr}
 8004478:	b082      	sub	sp, #8
 800447a:	af00      	add	r7, sp, #0
 800447c:	6078      	str	r0, [r7, #4]
  return SysTick_Config(TicksNumb);
 800447e:	687b      	ldr	r3, [r7, #4]
 8004480:	0018      	movs	r0, r3
 8004482:	f7ff ffaf 	bl	80043e4 <SysTick_Config>
 8004486:	0003      	movs	r3, r0
}
 8004488:	0018      	movs	r0, r3
 800448a:	46bd      	mov	sp, r7
 800448c:	b002      	add	sp, #8
 800448e:	bd80      	pop	{r7, pc}

08004490 <HAL_DMA_Abort>:
  * @param hdma Pointer to a DMA_HandleTypeDef structure that contains
  *             the configuration information for the specified DMA Channel.
  * @retval HAL status
  */
HAL_StatusTypeDef HAL_DMA_Abort(DMA_HandleTypeDef *hdma)
{
 8004490:	b580      	push	{r7, lr}
 8004492:	b082      	sub	sp, #8
 8004494:	af00      	add	r7, sp, #0
 8004496:	6078      	str	r0, [r7, #4]
  /* Check the DMA peripheral handle */
  if (NULL == hdma)
 8004498:	687b      	ldr	r3, [r7, #4]
 800449a:	2b00      	cmp	r3, #0
 800449c:	d101      	bne.n	80044a2 <HAL_DMA_Abort+0x12>
  {
    return HAL_ERROR;
 800449e:	2301      	movs	r3, #1
 80044a0:	e050      	b.n	8004544 <HAL_DMA_Abort+0xb4>
  }

  /* Check the DMA peripheral state */
  if (hdma->State != HAL_DMA_STATE_BUSY)
 80044a2:	687b      	ldr	r3, [r7, #4]
 80044a4:	2225      	movs	r2, #37	@ 0x25
 80044a6:	5c9b      	ldrb	r3, [r3, r2]
 80044a8:	b2db      	uxtb	r3, r3
 80044aa:	2b02      	cmp	r3, #2
 80044ac:	d008      	beq.n	80044c0 <HAL_DMA_Abort+0x30>
  {
    hdma->ErrorCode = HAL_DMA_ERROR_NO_XFER;
 80044ae:	687b      	ldr	r3, [r7, #4]
 80044b0:	2204      	movs	r2, #4
 80044b2:	63da      	str	r2, [r3, #60]	@ 0x3c

    /* Process Unlocked */
    __HAL_UNLOCK(hdma);
 80044b4:	687b      	ldr	r3, [r7, #4]
 80044b6:	2224      	movs	r2, #36	@ 0x24
 80044b8:	2100      	movs	r1, #0
 80044ba:	5499      	strb	r1, [r3, r2]

    return HAL_ERROR;
 80044bc:	2301      	movs	r3, #1
 80044be:	e041      	b.n	8004544 <HAL_DMA_Abort+0xb4>
  }
  else
  {
    /* Disable DMA IT */
    __HAL_DMA_DISABLE_IT(hdma, (DMA_IT_TC | DMA_IT_HT | DMA_IT_TE));
 80044c0:	687b      	ldr	r3, [r7, #4]
 80044c2:	681b      	ldr	r3, [r3, #0]
 80044c4:	681a      	ldr	r2, [r3, #0]
 80044c6:	687b      	ldr	r3, [r7, #4]
 80044c8:	681b      	ldr	r3, [r3, #0]
 80044ca:	210e      	movs	r1, #14
 80044cc:	438a      	bics	r2, r1
 80044ce:	601a      	str	r2, [r3, #0]

    /* disable the DMAMUX sync overrun IT*/
    hdma->DMAmuxChannel->CCR &= ~DMAMUX_CxCR_SOIE;
 80044d0:	687b      	ldr	r3, [r7, #4]
 80044d2:	6c5b      	ldr	r3, [r3, #68]	@ 0x44
 80044d4:	681a      	ldr	r2, [r3, #0]
 80044d6:	687b      	ldr	r3, [r7, #4]
 80044d8:	6c5b      	ldr	r3, [r3, #68]	@ 0x44
 80044da:	491c      	ldr	r1, [pc, #112]	@ (800454c <HAL_DMA_Abort+0xbc>)
 80044dc:	400a      	ands	r2, r1
 80044de:	601a      	str	r2, [r3, #0]

    /* Disable the channel */
    __HAL_DMA_DISABLE(hdma);
 80044e0:	687b      	ldr	r3, [r7, #4]
 80044e2:	681b      	ldr	r3, [r3, #0]
 80044e4:	681a      	ldr	r2, [r3, #0]
 80044e6:	687b      	ldr	r3, [r7, #4]
 80044e8:	681b      	ldr	r3, [r3, #0]
 80044ea:	2101      	movs	r1, #1
 80044ec:	438a      	bics	r2, r1
 80044ee:	601a      	str	r2, [r3, #0]

    /* Clear all flags */
#if defined(DMA2)
    hdma->DmaBaseAddress->IFCR = (DMA_ISR_GIF1 << (hdma->ChannelIndex & 0x1CU));
#else
    __HAL_DMA_CLEAR_FLAG(hdma, ((DMA_FLAG_GI1) << (hdma->ChannelIndex  & 0x1CU)));
 80044f0:	4b17      	ldr	r3, [pc, #92]	@ (8004550 <HAL_DMA_Abort+0xc0>)
 80044f2:	6859      	ldr	r1, [r3, #4]
 80044f4:	687b      	ldr	r3, [r7, #4]
 80044f6:	6c1b      	ldr	r3, [r3, #64]	@ 0x40
 80044f8:	221c      	movs	r2, #28
 80044fa:	4013      	ands	r3, r2
 80044fc:	2201      	movs	r2, #1
 80044fe:	409a      	lsls	r2, r3
 8004500:	4b13      	ldr	r3, [pc, #76]	@ (8004550 <HAL_DMA_Abort+0xc0>)
 8004502:	430a      	orrs	r2, r1
 8004504:	605a      	str	r2, [r3, #4]
#endif /* DMA2 */

    /* Clear the DMAMUX synchro overrun flag */
    hdma->DMAmuxChannelStatus->CFR = hdma->DMAmuxChannelStatusMask;
 8004506:	687b      	ldr	r3, [r7, #4]
 8004508:	6c9b      	ldr	r3, [r3, #72]	@ 0x48
 800450a:	687a      	ldr	r2, [r7, #4]
 800450c:	6cd2      	ldr	r2, [r2, #76]	@ 0x4c
 800450e:	605a      	str	r2, [r3, #4]

    if (hdma->DMAmuxRequestGen != 0U)
 8004510:	687b      	ldr	r3, [r7, #4]
 8004512:	6d1b      	ldr	r3, [r3, #80]	@ 0x50
 8004514:	2b00      	cmp	r3, #0
 8004516:	d00c      	beq.n	8004532 <HAL_DMA_Abort+0xa2>
    {
      /* if using DMAMUX request generator, disable the DMAMUX request generator overrun IT*/
      /* disable the request gen overrun IT*/
      hdma->DMAmuxRequestGen->RGCR &= ~DMAMUX_RGxCR_OIE;
 8004518:	687b      	ldr	r3, [r7, #4]
 800451a:	6d1b      	ldr	r3, [r3, #80]	@ 0x50
 800451c:	681a      	ldr	r2, [r3, #0]
 800451e:	687b      	ldr	r3, [r7, #4]
 8004520:	6d1b      	ldr	r3, [r3, #80]	@ 0x50
 8004522:	490a      	ldr	r1, [pc, #40]	@ (800454c <HAL_DMA_Abort+0xbc>)
 8004524:	400a      	ands	r2, r1
 8004526:	601a      	str	r2, [r3, #0]

      /* Clear the DMAMUX request generator overrun flag */
      hdma->DMAmuxRequestGenStatus->RGCFR = hdma->DMAmuxRequestGenStatusMask;
 8004528:	687b      	ldr	r3, [r7, #4]
 800452a:	6d5b      	ldr	r3, [r3, #84]	@ 0x54
 800452c:	687a      	ldr	r2, [r7, #4]
 800452e:	6d92      	ldr	r2, [r2, #88]	@ 0x58
 8004530:	605a      	str	r2, [r3, #4]
    }

    /* Change the DMA state */
    hdma->State = HAL_DMA_STATE_READY;
 8004532:	687b      	ldr	r3, [r7, #4]
 8004534:	2225      	movs	r2, #37	@ 0x25
 8004536:	2101      	movs	r1, #1
 8004538:	5499      	strb	r1, [r3, r2]

    /* Process Unlocked */
    __HAL_UNLOCK(hdma);
 800453a:	687b      	ldr	r3, [r7, #4]
 800453c:	2224      	movs	r2, #36	@ 0x24
 800453e:	2100      	movs	r1, #0
 8004540:	5499      	strb	r1, [r3, r2]
  }

  return HAL_OK;
 8004542:	2300      	movs	r3, #0
}
 8004544:	0018      	movs	r0, r3
 8004546:	46bd      	mov	sp, r7
 8004548:	b002      	add	sp, #8
 800454a:	bd80      	pop	{r7, pc}
 800454c:	fffffeff 	.word	0xfffffeff
 8004550:	40020000 	.word	0x40020000

08004554 <HAL_DMA_Abort_IT>:
  * @param hdma Pointer to a DMA_HandleTypeDef structure that contains
  *             the configuration information for the specified DMA Channel.
  * @retval HAL status
  */
HAL_StatusTypeDef HAL_DMA_Abort_IT(DMA_HandleTypeDef *hdma)
{
 8004554:	b580      	push	{r7, lr}
 8004556:	b084      	sub	sp, #16
 8004558:	af00      	add	r7, sp, #0
 800455a:	6078      	str	r0, [r7, #4]
  HAL_StatusTypeDef status = HAL_OK;
 800455c:	210f      	movs	r1, #15
 800455e:	187b      	adds	r3, r7, r1
 8004560:	2200      	movs	r2, #0
 8004562:	701a      	strb	r2, [r3, #0]

  if (hdma->State != HAL_DMA_STATE_BUSY)
 8004564:	687b      	ldr	r3, [r7, #4]
 8004566:	2225      	movs	r2, #37	@ 0x25
 8004568:	5c9b      	ldrb	r3, [r3, r2]
 800456a:	b2db      	uxtb	r3, r3
 800456c:	2b02      	cmp	r3, #2
 800456e:	d006      	beq.n	800457e <HAL_DMA_Abort_IT+0x2a>
  {
    /* no transfer ongoing */
    hdma->ErrorCode = HAL_DMA_ERROR_NO_XFER;
 8004570:	687b      	ldr	r3, [r7, #4]
 8004572:	2204      	movs	r2, #4
 8004574:	63da      	str	r2, [r3, #60]	@ 0x3c

    status = HAL_ERROR;
 8004576:	187b      	adds	r3, r7, r1
 8004578:	2201      	movs	r2, #1
 800457a:	701a      	strb	r2, [r3, #0]
 800457c:	e049      	b.n	8004612 <HAL_DMA_Abort_IT+0xbe>
  }
  else
  {
    /* Disable DMA IT */
    __HAL_DMA_DISABLE_IT(hdma, (DMA_IT_TC | DMA_IT_HT | DMA_IT_TE));
 800457e:	687b      	ldr	r3, [r7, #4]
 8004580:	681b      	ldr	r3, [r3, #0]
 8004582:	681a      	ldr	r2, [r3, #0]
 8004584:	687b      	ldr	r3, [r7, #4]
 8004586:	681b      	ldr	r3, [r3, #0]
 8004588:	210e      	movs	r1, #14
 800458a:	438a      	bics	r2, r1
 800458c:	601a      	str	r2, [r3, #0]

    /* Disable the channel */
    __HAL_DMA_DISABLE(hdma);
 800458e:	687b      	ldr	r3, [r7, #4]
 8004590:	681b      	ldr	r3, [r3, #0]
 8004592:	681a      	ldr	r2, [r3, #0]
 8004594:	687b      	ldr	r3, [r7, #4]
 8004596:	681b      	ldr	r3, [r3, #0]
 8004598:	2101      	movs	r1, #1
 800459a:	438a      	bics	r2, r1
 800459c:	601a      	str	r2, [r3, #0]

    /* disable the DMAMUX sync overrun IT*/
    hdma->DMAmuxChannel->CCR &= ~DMAMUX_CxCR_SOIE;
 800459e:	687b      	ldr	r3, [r7, #4]
 80045a0:	6c5b      	ldr	r3, [r3, #68]	@ 0x44
 80045a2:	681a      	ldr	r2, [r3, #0]
 80045a4:	687b      	ldr	r3, [r7, #4]
 80045a6:	6c5b      	ldr	r3, [r3, #68]	@ 0x44
 80045a8:	491d      	ldr	r1, [pc, #116]	@ (8004620 <HAL_DMA_Abort_IT+0xcc>)
 80045aa:	400a      	ands	r2, r1
 80045ac:	601a      	str	r2, [r3, #0]

    /* Clear all flags */
#if defined(DMA2)
    hdma->DmaBaseAddress->IFCR = (DMA_ISR_GIF1 << (hdma->ChannelIndex & 0x1CU));
#else
    __HAL_DMA_CLEAR_FLAG(hdma, ((DMA_FLAG_GI1) << (hdma->ChannelIndex & 0x1CU)));
 80045ae:	4b1d      	ldr	r3, [pc, #116]	@ (8004624 <HAL_DMA_Abort_IT+0xd0>)
 80045b0:	6859      	ldr	r1, [r3, #4]
 80045b2:	687b      	ldr	r3, [r7, #4]
 80045b4:	6c1b      	ldr	r3, [r3, #64]	@ 0x40
 80045b6:	221c      	movs	r2, #28
 80045b8:	4013      	ands	r3, r2
 80045ba:	2201      	movs	r2, #1
 80045bc:	409a      	lsls	r2, r3
 80045be:	4b19      	ldr	r3, [pc, #100]	@ (8004624 <HAL_DMA_Abort_IT+0xd0>)
 80045c0:	430a      	orrs	r2, r1
 80045c2:	605a      	str	r2, [r3, #4]
#endif /* DMA2 */

    /* Clear the DMAMUX synchro overrun flag */
    hdma->DMAmuxChannelStatus->CFR = hdma->DMAmuxChannelStatusMask;
 80045c4:	687b      	ldr	r3, [r7, #4]
 80045c6:	6c9b      	ldr	r3, [r3, #72]	@ 0x48
 80045c8:	687a      	ldr	r2, [r7, #4]
 80045ca:	6cd2      	ldr	r2, [r2, #76]	@ 0x4c
 80045cc:	605a      	str	r2, [r3, #4]

    if (hdma->DMAmuxRequestGen != 0U)
 80045ce:	687b      	ldr	r3, [r7, #4]
 80045d0:	6d1b      	ldr	r3, [r3, #80]	@ 0x50
 80045d2:	2b00      	cmp	r3, #0
 80045d4:	d00c      	beq.n	80045f0 <HAL_DMA_Abort_IT+0x9c>
    {
      /* if using DMAMUX request generator, disable the DMAMUX request generator overrun IT*/
      /* disable the request gen overrun IT*/
      hdma->DMAmuxRequestGen->RGCR &= ~DMAMUX_RGxCR_OIE;
 80045d6:	687b      	ldr	r3, [r7, #4]
 80045d8:	6d1b      	ldr	r3, [r3, #80]	@ 0x50
 80045da:	681a      	ldr	r2, [r3, #0]
 80045dc:	687b      	ldr	r3, [r7, #4]
 80045de:	6d1b      	ldr	r3, [r3, #80]	@ 0x50
 80045e0:	490f      	ldr	r1, [pc, #60]	@ (8004620 <HAL_DMA_Abort_IT+0xcc>)
 80045e2:	400a      	ands	r2, r1
 80045e4:	601a      	str	r2, [r3, #0]

      /* Clear the DMAMUX request generator overrun flag */
      hdma->DMAmuxRequestGenStatus->RGCFR = hdma->DMAmuxRequestGenStatusMask;
 80045e6:	687b      	ldr	r3, [r7, #4]
 80045e8:	6d5b      	ldr	r3, [r3, #84]	@ 0x54
 80045ea:	687a      	ldr	r2, [r7, #4]
 80045ec:	6d92      	ldr	r2, [r2, #88]	@ 0x58
 80045ee:	605a      	str	r2, [r3, #4]
    }

    /* Change the DMA state */
    hdma->State = HAL_DMA_STATE_READY;
 80045f0:	687b      	ldr	r3, [r7, #4]
 80045f2:	2225      	movs	r2, #37	@ 0x25
 80045f4:	2101      	movs	r1, #1
 80045f6:	5499      	strb	r1, [r3, r2]

    /* Process Unlocked */
    __HAL_UNLOCK(hdma);
 80045f8:	687b      	ldr	r3, [r7, #4]
 80045fa:	2224      	movs	r2, #36	@ 0x24
 80045fc:	2100      	movs	r1, #0
 80045fe:	5499      	strb	r1, [r3, r2]

    /* Call User Abort callback */
    if (hdma->XferAbortCallback != NULL)
 8004600:	687b      	ldr	r3, [r7, #4]
 8004602:	6b9b      	ldr	r3, [r3, #56]	@ 0x38
 8004604:	2b00      	cmp	r3, #0
 8004606:	d004      	beq.n	8004612 <HAL_DMA_Abort_IT+0xbe>
    {
      hdma->XferAbortCallback(hdma);
 8004608:	687b      	ldr	r3, [r7, #4]
 800460a:	6b9b      	ldr	r3, [r3, #56]	@ 0x38
 800460c:	687a      	ldr	r2, [r7, #4]
 800460e:	0010      	movs	r0, r2
 8004610:	4798      	blx	r3
    }
  }
  return status;
 8004612:	230f      	movs	r3, #15
 8004614:	18fb      	adds	r3, r7, r3
 8004616:	781b      	ldrb	r3, [r3, #0]
}
 8004618:	0018      	movs	r0, r3
 800461a:	46bd      	mov	sp, r7
 800461c:	b004      	add	sp, #16
 800461e:	bd80      	pop	{r7, pc}
 8004620:	fffffeff 	.word	0xfffffeff
 8004624:	40020000 	.word	0x40020000

08004628 <HAL_GPIO_Init>:
  * @param  GPIO_Init pointer to a GPIO_InitTypeDef structure that contains
  *         the configuration information for the specified GPIO peripheral.
  * @retval None
  */
void HAL_GPIO_Init(GPIO_TypeDef  *GPIOx, GPIO_InitTypeDef *GPIO_Init)
{
 8004628:	b580      	push	{r7, lr}
 800462a:	b086      	sub	sp, #24
 800462c:	af00      	add	r7, sp, #0
 800462e:	6078      	str	r0, [r7, #4]
 8004630:	6039      	str	r1, [r7, #0]
  uint32_t position = 0x00u;
 8004632:	2300      	movs	r3, #0
 8004634:	617b      	str	r3, [r7, #20]
  assert_param(IS_GPIO_ALL_INSTANCE(GPIOx));
  assert_param(IS_GPIO_PIN(GPIO_Init->Pin));
  assert_param(IS_GPIO_MODE(GPIO_Init->Mode));

  /* Configure the port pins */
  while (((GPIO_Init->Pin) >> position) != 0x00u)
 8004636:	e147      	b.n	80048c8 <HAL_GPIO_Init+0x2a0>
  {
    /* Get current io position */
    iocurrent = (GPIO_Init->Pin) & (1uL << position);
 8004638:	683b      	ldr	r3, [r7, #0]
 800463a:	681b      	ldr	r3, [r3, #0]
 800463c:	2101      	movs	r1, #1
 800463e:	697a      	ldr	r2, [r7, #20]
 8004640:	4091      	lsls	r1, r2
 8004642:	000a      	movs	r2, r1
 8004644:	4013      	ands	r3, r2
 8004646:	60fb      	str	r3, [r7, #12]

    if (iocurrent != 0x00u)
 8004648:	68fb      	ldr	r3, [r7, #12]
 800464a:	2b00      	cmp	r3, #0
 800464c:	d100      	bne.n	8004650 <HAL_GPIO_Init+0x28>
 800464e:	e138      	b.n	80048c2 <HAL_GPIO_Init+0x29a>
    {
      /*--------------------- GPIO Mode Configuration ------------------------*/
      /* In case of Output or Alternate function mode selection */
      if (((GPIO_Init->Mode & GPIO_MODE) == MODE_OUTPUT) || ((GPIO_Init->Mode & GPIO_MODE) == MODE_AF))
 8004650:	683b      	ldr	r3, [r7, #0]
 8004652:	685b      	ldr	r3, [r3, #4]
 8004654:	2203      	movs	r2, #3
 8004656:	4013      	ands	r3, r2
 8004658:	2b01      	cmp	r3, #1
 800465a:	d005      	beq.n	8004668 <HAL_GPIO_Init+0x40>
 800465c:	683b      	ldr	r3, [r7, #0]
 800465e:	685b      	ldr	r3, [r3, #4]
 8004660:	2203      	movs	r2, #3
 8004662:	4013      	ands	r3, r2
 8004664:	2b02      	cmp	r3, #2
 8004666:	d130      	bne.n	80046ca <HAL_GPIO_Init+0xa2>
      {
        /* Check the Speed parameter */
        assert_param(IS_GPIO_SPEED(GPIO_Init->Speed));

        /* Configure the IO Speed */
        temp = GPIOx->OSPEEDR;
 8004668:	687b      	ldr	r3, [r7, #4]
 800466a:	689b      	ldr	r3, [r3, #8]
 800466c:	613b      	str	r3, [r7, #16]
        temp &= ~(GPIO_OSPEEDR_OSPEED0 << (position * 2u));
 800466e:	697b      	ldr	r3, [r7, #20]
 8004670:	005b      	lsls	r3, r3, #1
 8004672:	2203      	movs	r2, #3
 8004674:	409a      	lsls	r2, r3
 8004676:	0013      	movs	r3, r2
 8004678:	43da      	mvns	r2, r3
 800467a:	693b      	ldr	r3, [r7, #16]
 800467c:	4013      	ands	r3, r2
 800467e:	613b      	str	r3, [r7, #16]
        temp |= (GPIO_Init->Speed << (position * 2u));
 8004680:	683b      	ldr	r3, [r7, #0]
 8004682:	68da      	ldr	r2, [r3, #12]
 8004684:	697b      	ldr	r3, [r7, #20]
 8004686:	005b      	lsls	r3, r3, #1
 8004688:	409a      	lsls	r2, r3
 800468a:	0013      	movs	r3, r2
 800468c:	693a      	ldr	r2, [r7, #16]
 800468e:	4313      	orrs	r3, r2
 8004690:	613b      	str	r3, [r7, #16]
        GPIOx->OSPEEDR = temp;
 8004692:	687b      	ldr	r3, [r7, #4]
 8004694:	693a      	ldr	r2, [r7, #16]
 8004696:	609a      	str	r2, [r3, #8]

        /* Configure the IO Output Type */
        temp = GPIOx->OTYPER;
 8004698:	687b      	ldr	r3, [r7, #4]
 800469a:	685b      	ldr	r3, [r3, #4]
 800469c:	613b      	str	r3, [r7, #16]
        temp &= ~(GPIO_OTYPER_OT0 << position) ;
 800469e:	2201      	movs	r2, #1
 80046a0:	697b      	ldr	r3, [r7, #20]
 80046a2:	409a      	lsls	r2, r3
 80046a4:	0013      	movs	r3, r2
 80046a6:	43da      	mvns	r2, r3
 80046a8:	693b      	ldr	r3, [r7, #16]
 80046aa:	4013      	ands	r3, r2
 80046ac:	613b      	str	r3, [r7, #16]
        temp |= (((GPIO_Init->Mode & OUTPUT_TYPE) >> OUTPUT_TYPE_Pos) << position);
 80046ae:	683b      	ldr	r3, [r7, #0]
 80046b0:	685b      	ldr	r3, [r3, #4]
 80046b2:	091b      	lsrs	r3, r3, #4
 80046b4:	2201      	movs	r2, #1
 80046b6:	401a      	ands	r2, r3
 80046b8:	697b      	ldr	r3, [r7, #20]
 80046ba:	409a      	lsls	r2, r3
 80046bc:	0013      	movs	r3, r2
 80046be:	693a      	ldr	r2, [r7, #16]
 80046c0:	4313      	orrs	r3, r2
 80046c2:	613b      	str	r3, [r7, #16]
        GPIOx->OTYPER = temp;
 80046c4:	687b      	ldr	r3, [r7, #4]
 80046c6:	693a      	ldr	r2, [r7, #16]
 80046c8:	605a      	str	r2, [r3, #4]
      }

      if ((GPIO_Init->Mode & GPIO_MODE) != MODE_ANALOG)
 80046ca:	683b      	ldr	r3, [r7, #0]
 80046cc:	685b      	ldr	r3, [r3, #4]
 80046ce:	2203      	movs	r2, #3
 80046d0:	4013      	ands	r3, r2
 80046d2:	2b03      	cmp	r3, #3
 80046d4:	d017      	beq.n	8004706 <HAL_GPIO_Init+0xde>
      {
        /* Check the Pull parameter */
        assert_param(IS_GPIO_PULL(GPIO_Init->Pull));

        /* Activate the Pull-up or Pull down resistor for the current IO */
        temp = GPIOx->PUPDR;
 80046d6:	687b      	ldr	r3, [r7, #4]
 80046d8:	68db      	ldr	r3, [r3, #12]
 80046da:	613b      	str	r3, [r7, #16]
        temp &= ~(GPIO_PUPDR_PUPD0 << (position * 2u));
 80046dc:	697b      	ldr	r3, [r7, #20]
 80046de:	005b      	lsls	r3, r3, #1
 80046e0:	2203      	movs	r2, #3
 80046e2:	409a      	lsls	r2, r3
 80046e4:	0013      	movs	r3, r2
 80046e6:	43da      	mvns	r2, r3
 80046e8:	693b      	ldr	r3, [r7, #16]
 80046ea:	4013      	ands	r3, r2
 80046ec:	613b      	str	r3, [r7, #16]
        temp |= ((GPIO_Init->Pull) << (position * 2u));
 80046ee:	683b      	ldr	r3, [r7, #0]
 80046f0:	689a      	ldr	r2, [r3, #8]
 80046f2:	697b      	ldr	r3, [r7, #20]
 80046f4:	005b      	lsls	r3, r3, #1
 80046f6:	409a      	lsls	r2, r3
 80046f8:	0013      	movs	r3, r2
 80046fa:	693a      	ldr	r2, [r7, #16]
 80046fc:	4313      	orrs	r3, r2
 80046fe:	613b      	str	r3, [r7, #16]
        GPIOx->PUPDR = temp;
 8004700:	687b      	ldr	r3, [r7, #4]
 8004702:	693a      	ldr	r2, [r7, #16]
 8004704:	60da      	str	r2, [r3, #12]
      }

      /* In case of Alternate function mode selection */
      if ((GPIO_Init->Mode & GPIO_MODE) == MODE_AF)
 8004706:	683b      	ldr	r3, [r7, #0]
 8004708:	685b      	ldr	r3, [r3, #4]
 800470a:	2203      	movs	r2, #3
 800470c:	4013      	ands	r3, r2
 800470e:	2b02      	cmp	r3, #2
 8004710:	d123      	bne.n	800475a <HAL_GPIO_Init+0x132>
        /* Check the Alternate function parameters */
        assert_param(IS_GPIO_AF_INSTANCE(GPIOx));
        assert_param(IS_GPIO_AF(GPIO_Init->Alternate));

        /* Configure Alternate function mapped with the current IO */
        temp = GPIOx->AFR[position >> 3u];
 8004712:	697b      	ldr	r3, [r7, #20]
 8004714:	08da      	lsrs	r2, r3, #3
 8004716:	687b      	ldr	r3, [r7, #4]
 8004718:	3208      	adds	r2, #8
 800471a:	0092      	lsls	r2, r2, #2
 800471c:	58d3      	ldr	r3, [r2, r3]
 800471e:	613b      	str	r3, [r7, #16]
        temp &= ~(0xFu << ((position & 0x07u) * 4u));
 8004720:	697b      	ldr	r3, [r7, #20]
 8004722:	2207      	movs	r2, #7
 8004724:	4013      	ands	r3, r2
 8004726:	009b      	lsls	r3, r3, #2
 8004728:	220f      	movs	r2, #15
 800472a:	409a      	lsls	r2, r3
 800472c:	0013      	movs	r3, r2
 800472e:	43da      	mvns	r2, r3
 8004730:	693b      	ldr	r3, [r7, #16]
 8004732:	4013      	ands	r3, r2
 8004734:	613b      	str	r3, [r7, #16]
        temp |= ((GPIO_Init->Alternate) << ((position & 0x07u) * 4u));
 8004736:	683b      	ldr	r3, [r7, #0]
 8004738:	691a      	ldr	r2, [r3, #16]
 800473a:	697b      	ldr	r3, [r7, #20]
 800473c:	2107      	movs	r1, #7
 800473e:	400b      	ands	r3, r1
 8004740:	009b      	lsls	r3, r3, #2
 8004742:	409a      	lsls	r2, r3
 8004744:	0013      	movs	r3, r2
 8004746:	693a      	ldr	r2, [r7, #16]
 8004748:	4313      	orrs	r3, r2
 800474a:	613b      	str	r3, [r7, #16]
        GPIOx->AFR[position >> 3u] = temp;
 800474c:	697b      	ldr	r3, [r7, #20]
 800474e:	08da      	lsrs	r2, r3, #3
 8004750:	687b      	ldr	r3, [r7, #4]
 8004752:	3208      	adds	r2, #8
 8004754:	0092      	lsls	r2, r2, #2
 8004756:	6939      	ldr	r1, [r7, #16]
 8004758:	50d1      	str	r1, [r2, r3]
      }

      /* Configure IO Direction mode (Input, Output, Alternate or Analog) */
      temp = GPIOx->MODER;
 800475a:	687b      	ldr	r3, [r7, #4]
 800475c:	681b      	ldr	r3, [r3, #0]
 800475e:	613b      	str	r3, [r7, #16]
      temp &= ~(GPIO_MODER_MODE0 << (position * 2u));
 8004760:	697b      	ldr	r3, [r7, #20]
 8004762:	005b      	lsls	r3, r3, #1
 8004764:	2203      	movs	r2, #3
 8004766:	409a      	lsls	r2, r3
 8004768:	0013      	movs	r3, r2
 800476a:	43da      	mvns	r2, r3
 800476c:	693b      	ldr	r3, [r7, #16]
 800476e:	4013      	ands	r3, r2
 8004770:	613b      	str	r3, [r7, #16]
      temp |= ((GPIO_Init->Mode & GPIO_MODE) << (position * 2u));
 8004772:	683b      	ldr	r3, [r7, #0]
 8004774:	685b      	ldr	r3, [r3, #4]
 8004776:	2203      	movs	r2, #3
 8004778:	401a      	ands	r2, r3
 800477a:	697b      	ldr	r3, [r7, #20]
 800477c:	005b      	lsls	r3, r3, #1
 800477e:	409a      	lsls	r2, r3
 8004780:	0013      	movs	r3, r2
 8004782:	693a      	ldr	r2, [r7, #16]
 8004784:	4313      	orrs	r3, r2
 8004786:	613b      	str	r3, [r7, #16]
      GPIOx->MODER = temp;
 8004788:	687b      	ldr	r3, [r7, #4]
 800478a:	693a      	ldr	r2, [r7, #16]
 800478c:	601a      	str	r2, [r3, #0]

      /*--------------------- EXTI Mode Configuration ------------------------*/
      /* Configure the External Interrupt or event for the current IO */
      if ((GPIO_Init->Mode & EXTI_MODE) != 0x00u)
 800478e:	683b      	ldr	r3, [r7, #0]
 8004790:	685a      	ldr	r2, [r3, #4]
 8004792:	23c0      	movs	r3, #192	@ 0xc0
 8004794:	029b      	lsls	r3, r3, #10
 8004796:	4013      	ands	r3, r2
 8004798:	d100      	bne.n	800479c <HAL_GPIO_Init+0x174>
 800479a:	e092      	b.n	80048c2 <HAL_GPIO_Init+0x29a>
      {
        temp = EXTI->EXTICR[position >> 2u];
 800479c:	4a50      	ldr	r2, [pc, #320]	@ (80048e0 <HAL_GPIO_Init+0x2b8>)
 800479e:	697b      	ldr	r3, [r7, #20]
 80047a0:	089b      	lsrs	r3, r3, #2
 80047a2:	3318      	adds	r3, #24
 80047a4:	009b      	lsls	r3, r3, #2
 80047a6:	589b      	ldr	r3, [r3, r2]
 80047a8:	613b      	str	r3, [r7, #16]
        temp &= ~(0x0FuL << (8u * (position & 0x03u)));
 80047aa:	697b      	ldr	r3, [r7, #20]
 80047ac:	2203      	movs	r2, #3
 80047ae:	4013      	ands	r3, r2
 80047b0:	00db      	lsls	r3, r3, #3
 80047b2:	220f      	movs	r2, #15
 80047b4:	409a      	lsls	r2, r3
 80047b6:	0013      	movs	r3, r2
 80047b8:	43da      	mvns	r2, r3
 80047ba:	693b      	ldr	r3, [r7, #16]
 80047bc:	4013      	ands	r3, r2
 80047be:	613b      	str	r3, [r7, #16]
        temp |= (GPIO_GET_INDEX(GPIOx) << (8u * (position & 0x03u)));
 80047c0:	687a      	ldr	r2, [r7, #4]
 80047c2:	23a0      	movs	r3, #160	@ 0xa0
 80047c4:	05db      	lsls	r3, r3, #23
 80047c6:	429a      	cmp	r2, r3
 80047c8:	d013      	beq.n	80047f2 <HAL_GPIO_Init+0x1ca>
 80047ca:	687b      	ldr	r3, [r7, #4]
 80047cc:	4a45      	ldr	r2, [pc, #276]	@ (80048e4 <HAL_GPIO_Init+0x2bc>)
 80047ce:	4293      	cmp	r3, r2
 80047d0:	d00d      	beq.n	80047ee <HAL_GPIO_Init+0x1c6>
 80047d2:	687b      	ldr	r3, [r7, #4]
 80047d4:	4a44      	ldr	r2, [pc, #272]	@ (80048e8 <HAL_GPIO_Init+0x2c0>)
 80047d6:	4293      	cmp	r3, r2
 80047d8:	d007      	beq.n	80047ea <HAL_GPIO_Init+0x1c2>
 80047da:	687b      	ldr	r3, [r7, #4]
 80047dc:	4a43      	ldr	r2, [pc, #268]	@ (80048ec <HAL_GPIO_Init+0x2c4>)
 80047de:	4293      	cmp	r3, r2
 80047e0:	d101      	bne.n	80047e6 <HAL_GPIO_Init+0x1be>
 80047e2:	2303      	movs	r3, #3
 80047e4:	e006      	b.n	80047f4 <HAL_GPIO_Init+0x1cc>
 80047e6:	2305      	movs	r3, #5
 80047e8:	e004      	b.n	80047f4 <HAL_GPIO_Init+0x1cc>
 80047ea:	2302      	movs	r3, #2
 80047ec:	e002      	b.n	80047f4 <HAL_GPIO_Init+0x1cc>
 80047ee:	2301      	movs	r3, #1
 80047f0:	e000      	b.n	80047f4 <HAL_GPIO_Init+0x1cc>
 80047f2:	2300      	movs	r3, #0
 80047f4:	697a      	ldr	r2, [r7, #20]
 80047f6:	2103      	movs	r1, #3
 80047f8:	400a      	ands	r2, r1
 80047fa:	00d2      	lsls	r2, r2, #3
 80047fc:	4093      	lsls	r3, r2
 80047fe:	693a      	ldr	r2, [r7, #16]
 8004800:	4313      	orrs	r3, r2
 8004802:	613b      	str	r3, [r7, #16]
        EXTI->EXTICR[position >> 2u] = temp;
 8004804:	4936      	ldr	r1, [pc, #216]	@ (80048e0 <HAL_GPIO_Init+0x2b8>)
 8004806:	697b      	ldr	r3, [r7, #20]
 8004808:	089b      	lsrs	r3, r3, #2
 800480a:	3318      	adds	r3, #24
 800480c:	009b      	lsls	r3, r3, #2
 800480e:	693a      	ldr	r2, [r7, #16]
 8004810:	505a      	str	r2, [r3, r1]

        /* Clear Rising Falling edge configuration */
        temp = EXTI->RTSR1;
 8004812:	4b33      	ldr	r3, [pc, #204]	@ (80048e0 <HAL_GPIO_Init+0x2b8>)
 8004814:	681b      	ldr	r3, [r3, #0]
 8004816:	613b      	str	r3, [r7, #16]
        temp &= ~(iocurrent);
 8004818:	68fb      	ldr	r3, [r7, #12]
 800481a:	43da      	mvns	r2, r3
 800481c:	693b      	ldr	r3, [r7, #16]
 800481e:	4013      	ands	r3, r2
 8004820:	613b      	str	r3, [r7, #16]
        if ((GPIO_Init->Mode & TRIGGER_RISING) != 0x00u)
 8004822:	683b      	ldr	r3, [r7, #0]
 8004824:	685a      	ldr	r2, [r3, #4]
 8004826:	2380      	movs	r3, #128	@ 0x80
 8004828:	035b      	lsls	r3, r3, #13
 800482a:	4013      	ands	r3, r2
 800482c:	d003      	beq.n	8004836 <HAL_GPIO_Init+0x20e>
        {
          temp |= iocurrent;
 800482e:	693a      	ldr	r2, [r7, #16]
 8004830:	68fb      	ldr	r3, [r7, #12]
 8004832:	4313      	orrs	r3, r2
 8004834:	613b      	str	r3, [r7, #16]
        }
        EXTI->RTSR1 = temp;
 8004836:	4b2a      	ldr	r3, [pc, #168]	@ (80048e0 <HAL_GPIO_Init+0x2b8>)
 8004838:	693a      	ldr	r2, [r7, #16]
 800483a:	601a      	str	r2, [r3, #0]

        temp = EXTI->FTSR1;
 800483c:	4b28      	ldr	r3, [pc, #160]	@ (80048e0 <HAL_GPIO_Init+0x2b8>)
 800483e:	685b      	ldr	r3, [r3, #4]
 8004840:	613b      	str	r3, [r7, #16]
        temp &= ~(iocurrent);
 8004842:	68fb      	ldr	r3, [r7, #12]
 8004844:	43da      	mvns	r2, r3
 8004846:	693b      	ldr	r3, [r7, #16]
 8004848:	4013      	ands	r3, r2
 800484a:	613b      	str	r3, [r7, #16]
        if ((GPIO_Init->Mode & TRIGGER_FALLING) != 0x00u)
 800484c:	683b      	ldr	r3, [r7, #0]
 800484e:	685a      	ldr	r2, [r3, #4]
 8004850:	2380      	movs	r3, #128	@ 0x80
 8004852:	039b      	lsls	r3, r3, #14
 8004854:	4013      	ands	r3, r2
 8004856:	d003      	beq.n	8004860 <HAL_GPIO_Init+0x238>
        {
          temp |= iocurrent;
 8004858:	693a      	ldr	r2, [r7, #16]
 800485a:	68fb      	ldr	r3, [r7, #12]
 800485c:	4313      	orrs	r3, r2
 800485e:	613b      	str	r3, [r7, #16]
        }
        EXTI->FTSR1 = temp;
 8004860:	4b1f      	ldr	r3, [pc, #124]	@ (80048e0 <HAL_GPIO_Init+0x2b8>)
 8004862:	693a      	ldr	r2, [r7, #16]
 8004864:	605a      	str	r2, [r3, #4]

        /* Clear EXTI line configuration */
        temp = EXTI->EMR1;
 8004866:	4a1e      	ldr	r2, [pc, #120]	@ (80048e0 <HAL_GPIO_Init+0x2b8>)
 8004868:	2384      	movs	r3, #132	@ 0x84
 800486a:	58d3      	ldr	r3, [r2, r3]
 800486c:	613b      	str	r3, [r7, #16]
        temp &= ~(iocurrent);
 800486e:	68fb      	ldr	r3, [r7, #12]
 8004870:	43da      	mvns	r2, r3
 8004872:	693b      	ldr	r3, [r7, #16]
 8004874:	4013      	ands	r3, r2
 8004876:	613b      	str	r3, [r7, #16]
        if ((GPIO_Init->Mode & EXTI_EVT) != 0x00u)
 8004878:	683b      	ldr	r3, [r7, #0]
 800487a:	685a      	ldr	r2, [r3, #4]
 800487c:	2380      	movs	r3, #128	@ 0x80
 800487e:	029b      	lsls	r3, r3, #10
 8004880:	4013      	ands	r3, r2
 8004882:	d003      	beq.n	800488c <HAL_GPIO_Init+0x264>
        {
          temp |= iocurrent;
 8004884:	693a      	ldr	r2, [r7, #16]
 8004886:	68fb      	ldr	r3, [r7, #12]
 8004888:	4313      	orrs	r3, r2
 800488a:	613b      	str	r3, [r7, #16]
        }
        EXTI->EMR1 = temp;
 800488c:	4914      	ldr	r1, [pc, #80]	@ (80048e0 <HAL_GPIO_Init+0x2b8>)
 800488e:	2284      	movs	r2, #132	@ 0x84
 8004890:	693b      	ldr	r3, [r7, #16]
 8004892:	508b      	str	r3, [r1, r2]

        temp = EXTI->IMR1;
 8004894:	4a12      	ldr	r2, [pc, #72]	@ (80048e0 <HAL_GPIO_Init+0x2b8>)
 8004896:	2380      	movs	r3, #128	@ 0x80
 8004898:	58d3      	ldr	r3, [r2, r3]
 800489a:	613b      	str	r3, [r7, #16]
        temp &= ~(iocurrent);
 800489c:	68fb      	ldr	r3, [r7, #12]
 800489e:	43da      	mvns	r2, r3
 80048a0:	693b      	ldr	r3, [r7, #16]
 80048a2:	4013      	ands	r3, r2
 80048a4:	613b      	str	r3, [r7, #16]
        if ((GPIO_Init->Mode & EXTI_IT) != 0x00u)
 80048a6:	683b      	ldr	r3, [r7, #0]
 80048a8:	685a      	ldr	r2, [r3, #4]
 80048aa:	2380      	movs	r3, #128	@ 0x80
 80048ac:	025b      	lsls	r3, r3, #9
 80048ae:	4013      	ands	r3, r2
 80048b0:	d003      	beq.n	80048ba <HAL_GPIO_Init+0x292>
        {
          temp |= iocurrent;
 80048b2:	693a      	ldr	r2, [r7, #16]
 80048b4:	68fb      	ldr	r3, [r7, #12]
 80048b6:	4313      	orrs	r3, r2
 80048b8:	613b      	str	r3, [r7, #16]
        }
        EXTI->IMR1 = temp;
 80048ba:	4909      	ldr	r1, [pc, #36]	@ (80048e0 <HAL_GPIO_Init+0x2b8>)
 80048bc:	2280      	movs	r2, #128	@ 0x80
 80048be:	693b      	ldr	r3, [r7, #16]
 80048c0:	508b      	str	r3, [r1, r2]
      }
    }

    position++;
 80048c2:	697b      	ldr	r3, [r7, #20]
 80048c4:	3301      	adds	r3, #1
 80048c6:	617b      	str	r3, [r7, #20]
  while (((GPIO_Init->Pin) >> position) != 0x00u)
 80048c8:	683b      	ldr	r3, [r7, #0]
 80048ca:	681a      	ldr	r2, [r3, #0]
 80048cc:	697b      	ldr	r3, [r7, #20]
 80048ce:	40da      	lsrs	r2, r3
 80048d0:	1e13      	subs	r3, r2, #0
 80048d2:	d000      	beq.n	80048d6 <HAL_GPIO_Init+0x2ae>
 80048d4:	e6b0      	b.n	8004638 <HAL_GPIO_Init+0x10>
  }
}
 80048d6:	46c0      	nop			@ (mov r8, r8)
 80048d8:	46c0      	nop			@ (mov r8, r8)
 80048da:	46bd      	mov	sp, r7
 80048dc:	b006      	add	sp, #24
 80048de:	bd80      	pop	{r7, pc}
 80048e0:	40021800 	.word	0x40021800
 80048e4:	50000400 	.word	0x50000400
 80048e8:	50000800 	.word	0x50000800
 80048ec:	50000c00 	.word	0x50000c00

080048f0 <HAL_GPIO_WritePin>:
  *            @arg GPIO_PIN_RESET: to clear the port pin
  *            @arg GPIO_PIN_SET: to set the port pin
  * @retval None
  */
void HAL_GPIO_WritePin(GPIO_TypeDef *GPIOx, uint16_t GPIO_Pin, GPIO_PinState PinState)
{
 80048f0:	b580      	push	{r7, lr}
 80048f2:	b082      	sub	sp, #8
 80048f4:	af00      	add	r7, sp, #0
 80048f6:	6078      	str	r0, [r7, #4]
 80048f8:	0008      	movs	r0, r1
 80048fa:	0011      	movs	r1, r2
 80048fc:	1cbb      	adds	r3, r7, #2
 80048fe:	1c02      	adds	r2, r0, #0
 8004900:	801a      	strh	r2, [r3, #0]
 8004902:	1c7b      	adds	r3, r7, #1
 8004904:	1c0a      	adds	r2, r1, #0
 8004906:	701a      	strb	r2, [r3, #0]
  /* Check the parameters */
  assert_param(IS_GPIO_PIN(GPIO_Pin));
  assert_param(IS_GPIO_PIN_ACTION(PinState));

  if (PinState != GPIO_PIN_RESET)
 8004908:	1c7b      	adds	r3, r7, #1
 800490a:	781b      	ldrb	r3, [r3, #0]
 800490c:	2b00      	cmp	r3, #0
 800490e:	d004      	beq.n	800491a <HAL_GPIO_WritePin+0x2a>
  {
    GPIOx->BSRR = (uint32_t)GPIO_Pin;
 8004910:	1cbb      	adds	r3, r7, #2
 8004912:	881a      	ldrh	r2, [r3, #0]
 8004914:	687b      	ldr	r3, [r7, #4]
 8004916:	619a      	str	r2, [r3, #24]
  }
  else
  {
    GPIOx->BRR = (uint32_t)GPIO_Pin;
  }
}
 8004918:	e003      	b.n	8004922 <HAL_GPIO_WritePin+0x32>
    GPIOx->BRR = (uint32_t)GPIO_Pin;
 800491a:	1cbb      	adds	r3, r7, #2
 800491c:	881a      	ldrh	r2, [r3, #0]
 800491e:	687b      	ldr	r3, [r7, #4]
 8004920:	629a      	str	r2, [r3, #40]	@ 0x28
}
 8004922:	46c0      	nop			@ (mov r8, r8)
 8004924:	46bd      	mov	sp, r7
 8004926:	b002      	add	sp, #8
 8004928:	bd80      	pop	{r7, pc}
	...

0800492c <LL_RCC_GetAPB1Prescaler>:
  *         @arg @ref LL_RCC_APB1_DIV_4
  *         @arg @ref LL_RCC_APB1_DIV_8
  *         @arg @ref LL_RCC_APB1_DIV_16
  */
__STATIC_INLINE uint32_t LL_RCC_GetAPB1Prescaler(void)
{
 800492c:	b580      	push	{r7, lr}
 800492e:	af00      	add	r7, sp, #0
  return (uint32_t)(READ_BIT(RCC->CFGR, RCC_CFGR_PPRE));
 8004930:	4b03      	ldr	r3, [pc, #12]	@ (8004940 <LL_RCC_GetAPB1Prescaler+0x14>)
 8004932:	689a      	ldr	r2, [r3, #8]
 8004934:	23e0      	movs	r3, #224	@ 0xe0
 8004936:	01db      	lsls	r3, r3, #7
 8004938:	4013      	ands	r3, r2
}
 800493a:	0018      	movs	r0, r3
 800493c:	46bd      	mov	sp, r7
 800493e:	bd80      	pop	{r7, pc}
 8004940:	40021000 	.word	0x40021000

08004944 <HAL_RCC_GetSysClockFreq>:
  *
  *
  * @retval SYSCLK frequency
  */
uint32_t HAL_RCC_GetSysClockFreq(void)
{
 8004944:	b580      	push	{r7, lr}
 8004946:	b086      	sub	sp, #24
 8004948:	af00      	add	r7, sp, #0
  uint32_t pllvco, pllsource, pllr, pllm, hsidiv;
  uint32_t sysclockfreq;

  if (__HAL_RCC_GET_SYSCLK_SOURCE() == RCC_SYSCLKSOURCE_STATUS_HSI)
 800494a:	4b3c      	ldr	r3, [pc, #240]	@ (8004a3c <HAL_RCC_GetSysClockFreq+0xf8>)
 800494c:	689b      	ldr	r3, [r3, #8]
 800494e:	2238      	movs	r2, #56	@ 0x38
 8004950:	4013      	ands	r3, r2
 8004952:	d10f      	bne.n	8004974 <HAL_RCC_GetSysClockFreq+0x30>
  {
    /* HSISYS can be derived for HSI16 */
    hsidiv = (1UL << ((READ_BIT(RCC->CR, RCC_CR_HSIDIV)) >> RCC_CR_HSIDIV_Pos));
 8004954:	4b39      	ldr	r3, [pc, #228]	@ (8004a3c <HAL_RCC_GetSysClockFreq+0xf8>)
 8004956:	681b      	ldr	r3, [r3, #0]
 8004958:	0adb      	lsrs	r3, r3, #11
 800495a:	2207      	movs	r2, #7
 800495c:	4013      	ands	r3, r2
 800495e:	2201      	movs	r2, #1
 8004960:	409a      	lsls	r2, r3
 8004962:	0013      	movs	r3, r2
 8004964:	603b      	str	r3, [r7, #0]

    /* HSI used as system clock source */
    sysclockfreq = (HSI_VALUE / hsidiv);
 8004966:	6839      	ldr	r1, [r7, #0]
 8004968:	4835      	ldr	r0, [pc, #212]	@ (8004a40 <HAL_RCC_GetSysClockFreq+0xfc>)
 800496a:	f7fb fbf1 	bl	8000150 <__udivsi3>
 800496e:	0003      	movs	r3, r0
 8004970:	613b      	str	r3, [r7, #16]
 8004972:	e05d      	b.n	8004a30 <HAL_RCC_GetSysClockFreq+0xec>
  }
  else if (__HAL_RCC_GET_SYSCLK_SOURCE() == RCC_SYSCLKSOURCE_STATUS_HSE)
 8004974:	4b31      	ldr	r3, [pc, #196]	@ (8004a3c <HAL_RCC_GetSysClockFreq+0xf8>)
 8004976:	689b      	ldr	r3, [r3, #8]
 8004978:	2238      	movs	r2, #56	@ 0x38
 800497a:	4013      	ands	r3, r2
 800497c:	2b08      	cmp	r3, #8
 800497e:	d102      	bne.n	8004986 <HAL_RCC_GetSysClockFreq+0x42>
  {
    /* HSE used as system clock source */
    sysclockfreq = HSE_VALUE;
 8004980:	4b30      	ldr	r3, [pc, #192]	@ (8004a44 <HAL_RCC_GetSysClockFreq+0x100>)
 8004982:	613b      	str	r3, [r7, #16]
 8004984:	e054      	b.n	8004a30 <HAL_RCC_GetSysClockFreq+0xec>
  }
  else if (__HAL_RCC_GET_SYSCLK_SOURCE() == RCC_SYSCLKSOURCE_STATUS_PLLCLK)
 8004986:	4b2d      	ldr	r3, [pc, #180]	@ (8004a3c <HAL_RCC_GetSysClockFreq+0xf8>)
 8004988:	689b      	ldr	r3, [r3, #8]
 800498a:	2238      	movs	r2, #56	@ 0x38
 800498c:	4013      	ands	r3, r2
 800498e:	2b10      	cmp	r3, #16
 8004990:	d138      	bne.n	8004a04 <HAL_RCC_GetSysClockFreq+0xc0>
    /* PLL used as system clock  source */

    /* PLL_VCO = ((HSE_VALUE or HSI_VALUE)/ PLLM) * PLLN
    SYSCLK = PLL_VCO / PLLR
    */
    pllsource = (RCC->PLLCFGR & RCC_PLLCFGR_PLLSRC);
 8004992:	4b2a      	ldr	r3, [pc, #168]	@ (8004a3c <HAL_RCC_GetSysClockFreq+0xf8>)
 8004994:	68db      	ldr	r3, [r3, #12]
 8004996:	2203      	movs	r2, #3
 8004998:	4013      	ands	r3, r2
 800499a:	60fb      	str	r3, [r7, #12]
    pllm = ((RCC->PLLCFGR & RCC_PLLCFGR_PLLM) >> RCC_PLLCFGR_PLLM_Pos) + 1U ;
 800499c:	4b27      	ldr	r3, [pc, #156]	@ (8004a3c <HAL_RCC_GetSysClockFreq+0xf8>)
 800499e:	68db      	ldr	r3, [r3, #12]
 80049a0:	091b      	lsrs	r3, r3, #4
 80049a2:	2207      	movs	r2, #7
 80049a4:	4013      	ands	r3, r2
 80049a6:	3301      	adds	r3, #1
 80049a8:	60bb      	str	r3, [r7, #8]

    switch (pllsource)
 80049aa:	68fb      	ldr	r3, [r7, #12]
 80049ac:	2b03      	cmp	r3, #3
 80049ae:	d10d      	bne.n	80049cc <HAL_RCC_GetSysClockFreq+0x88>
    {
      case RCC_PLLSOURCE_HSE:  /* HSE used as PLL clock source */
        pllvco = (HSE_VALUE / pllm) * ((RCC->PLLCFGR & RCC_PLLCFGR_PLLN) >> RCC_PLLCFGR_PLLN_Pos);
 80049b0:	68b9      	ldr	r1, [r7, #8]
 80049b2:	4824      	ldr	r0, [pc, #144]	@ (8004a44 <HAL_RCC_GetSysClockFreq+0x100>)
 80049b4:	f7fb fbcc 	bl	8000150 <__udivsi3>
 80049b8:	0003      	movs	r3, r0
 80049ba:	0019      	movs	r1, r3
 80049bc:	4b1f      	ldr	r3, [pc, #124]	@ (8004a3c <HAL_RCC_GetSysClockFreq+0xf8>)
 80049be:	68db      	ldr	r3, [r3, #12]
 80049c0:	0a1b      	lsrs	r3, r3, #8
 80049c2:	227f      	movs	r2, #127	@ 0x7f
 80049c4:	4013      	ands	r3, r2
 80049c6:	434b      	muls	r3, r1
 80049c8:	617b      	str	r3, [r7, #20]
        break;
 80049ca:	e00d      	b.n	80049e8 <HAL_RCC_GetSysClockFreq+0xa4>

      case RCC_PLLSOURCE_HSI:  /* HSI16 used as PLL clock source */
      default:                 /* HSI16 used as PLL clock source */
        pllvco = (HSI_VALUE / pllm) * ((RCC->PLLCFGR & RCC_PLLCFGR_PLLN) >> RCC_PLLCFGR_PLLN_Pos) ;
 80049cc:	68b9      	ldr	r1, [r7, #8]
 80049ce:	481c      	ldr	r0, [pc, #112]	@ (8004a40 <HAL_RCC_GetSysClockFreq+0xfc>)
 80049d0:	f7fb fbbe 	bl	8000150 <__udivsi3>
 80049d4:	0003      	movs	r3, r0
 80049d6:	0019      	movs	r1, r3
 80049d8:	4b18      	ldr	r3, [pc, #96]	@ (8004a3c <HAL_RCC_GetSysClockFreq+0xf8>)
 80049da:	68db      	ldr	r3, [r3, #12]
 80049dc:	0a1b      	lsrs	r3, r3, #8
 80049de:	227f      	movs	r2, #127	@ 0x7f
 80049e0:	4013      	ands	r3, r2
 80049e2:	434b      	muls	r3, r1
 80049e4:	617b      	str	r3, [r7, #20]
        break;
 80049e6:	46c0      	nop			@ (mov r8, r8)
    }
    pllr = (((RCC->PLLCFGR & RCC_PLLCFGR_PLLR) >> RCC_PLLCFGR_PLLR_Pos) + 1U);
 80049e8:	4b14      	ldr	r3, [pc, #80]	@ (8004a3c <HAL_RCC_GetSysClockFreq+0xf8>)
 80049ea:	68db      	ldr	r3, [r3, #12]
 80049ec:	0f5b      	lsrs	r3, r3, #29
 80049ee:	2207      	movs	r2, #7
 80049f0:	4013      	ands	r3, r2
 80049f2:	3301      	adds	r3, #1
 80049f4:	607b      	str	r3, [r7, #4]
    sysclockfreq = pllvco / pllr;
 80049f6:	6879      	ldr	r1, [r7, #4]
 80049f8:	6978      	ldr	r0, [r7, #20]
 80049fa:	f7fb fba9 	bl	8000150 <__udivsi3>
 80049fe:	0003      	movs	r3, r0
 8004a00:	613b      	str	r3, [r7, #16]
 8004a02:	e015      	b.n	8004a30 <HAL_RCC_GetSysClockFreq+0xec>
  }
  else if (__HAL_RCC_GET_SYSCLK_SOURCE() == RCC_SYSCLKSOURCE_STATUS_LSE)
 8004a04:	4b0d      	ldr	r3, [pc, #52]	@ (8004a3c <HAL_RCC_GetSysClockFreq+0xf8>)
 8004a06:	689b      	ldr	r3, [r3, #8]
 8004a08:	2238      	movs	r2, #56	@ 0x38
 8004a0a:	4013      	ands	r3, r2
 8004a0c:	2b20      	cmp	r3, #32
 8004a0e:	d103      	bne.n	8004a18 <HAL_RCC_GetSysClockFreq+0xd4>
  {
    /* LSE used as system clock source */
    sysclockfreq = LSE_VALUE;
 8004a10:	2380      	movs	r3, #128	@ 0x80
 8004a12:	021b      	lsls	r3, r3, #8
 8004a14:	613b      	str	r3, [r7, #16]
 8004a16:	e00b      	b.n	8004a30 <HAL_RCC_GetSysClockFreq+0xec>
  }
  else if (__HAL_RCC_GET_SYSCLK_SOURCE() == RCC_SYSCLKSOURCE_STATUS_LSI)
 8004a18:	4b08      	ldr	r3, [pc, #32]	@ (8004a3c <HAL_RCC_GetSysClockFreq+0xf8>)
 8004a1a:	689b      	ldr	r3, [r3, #8]
 8004a1c:	2238      	movs	r2, #56	@ 0x38
 8004a1e:	4013      	ands	r3, r2
 8004a20:	2b18      	cmp	r3, #24
 8004a22:	d103      	bne.n	8004a2c <HAL_RCC_GetSysClockFreq+0xe8>
  {
    /* LSI used as system clock source */
    sysclockfreq = LSI_VALUE;
 8004a24:	23fa      	movs	r3, #250	@ 0xfa
 8004a26:	01db      	lsls	r3, r3, #7
 8004a28:	613b      	str	r3, [r7, #16]
 8004a2a:	e001      	b.n	8004a30 <HAL_RCC_GetSysClockFreq+0xec>
  }
  else
  {
    sysclockfreq = 0U;
 8004a2c:	2300      	movs	r3, #0
 8004a2e:	613b      	str	r3, [r7, #16]
  }

  return sysclockfreq;
 8004a30:	693b      	ldr	r3, [r7, #16]
}
 8004a32:	0018      	movs	r0, r3
 8004a34:	46bd      	mov	sp, r7
 8004a36:	b006      	add	sp, #24
 8004a38:	bd80      	pop	{r7, pc}
 8004a3a:	46c0      	nop			@ (mov r8, r8)
 8004a3c:	40021000 	.word	0x40021000
 8004a40:	00f42400 	.word	0x00f42400
 8004a44:	007a1200 	.word	0x007a1200

08004a48 <HAL_RCC_GetHCLKFreq>:
  *
  * @note   The SystemCoreClock CMSIS variable is used to store System Clock Frequency.
  * @retval HCLK frequency in Hz
  */
uint32_t HAL_RCC_GetHCLKFreq(void)
{
 8004a48:	b580      	push	{r7, lr}
 8004a4a:	af00      	add	r7, sp, #0
  return SystemCoreClock;
 8004a4c:	4b02      	ldr	r3, [pc, #8]	@ (8004a58 <HAL_RCC_GetHCLKFreq+0x10>)
 8004a4e:	681b      	ldr	r3, [r3, #0]
}
 8004a50:	0018      	movs	r0, r3
 8004a52:	46bd      	mov	sp, r7
 8004a54:	bd80      	pop	{r7, pc}
 8004a56:	46c0      	nop			@ (mov r8, r8)
 8004a58:	20000004 	.word	0x20000004

08004a5c <HAL_RCC_GetPCLK1Freq>:
  * @note   Each time PCLK1 changes, this function must be called to update the
  *         right PCLK1 value. Otherwise, any configuration based on this function will be incorrect.
  * @retval PCLK1 frequency in Hz
  */
uint32_t HAL_RCC_GetPCLK1Freq(void)
{
 8004a5c:	b5b0      	push	{r4, r5, r7, lr}
 8004a5e:	af00      	add	r7, sp, #0
  /* Get HCLK source and Compute PCLK1 frequency ---------------------------*/
  return ((uint32_t)(__LL_RCC_CALC_PCLK1_FREQ(HAL_RCC_GetHCLKFreq(), LL_RCC_GetAPB1Prescaler())));
 8004a60:	f7ff fff2 	bl	8004a48 <HAL_RCC_GetHCLKFreq>
 8004a64:	0004      	movs	r4, r0
 8004a66:	f7ff ff61 	bl	800492c <LL_RCC_GetAPB1Prescaler>
 8004a6a:	0003      	movs	r3, r0
 8004a6c:	0b1a      	lsrs	r2, r3, #12
 8004a6e:	4b05      	ldr	r3, [pc, #20]	@ (8004a84 <HAL_RCC_GetPCLK1Freq+0x28>)
 8004a70:	0092      	lsls	r2, r2, #2
 8004a72:	58d3      	ldr	r3, [r2, r3]
 8004a74:	221f      	movs	r2, #31
 8004a76:	4013      	ands	r3, r2
 8004a78:	40dc      	lsrs	r4, r3
 8004a7a:	0023      	movs	r3, r4
}
 8004a7c:	0018      	movs	r0, r3
 8004a7e:	46bd      	mov	sp, r7
 8004a80:	bdb0      	pop	{r4, r5, r7, pc}
 8004a82:	46c0      	nop			@ (mov r8, r8)
 8004a84:	08009c0c 	.word	0x08009c0c

08004a88 <HAL_RCCEx_PeriphCLKConfig>:
  *         the RTC clock source: in this case the access to Backup domain is enabled.
  *
  * @retval HAL status
  */
HAL_StatusTypeDef HAL_RCCEx_PeriphCLKConfig(RCC_PeriphCLKInitTypeDef  *PeriphClkInit)
{
 8004a88:	b580      	push	{r7, lr}
 8004a8a:	b086      	sub	sp, #24
 8004a8c:	af00      	add	r7, sp, #0
 8004a8e:	6078      	str	r0, [r7, #4]
  uint32_t tmpregister;
  uint32_t tickstart;
  HAL_StatusTypeDef ret    = HAL_OK;   /* Intermediate status */
 8004a90:	2313      	movs	r3, #19
 8004a92:	18fb      	adds	r3, r7, r3
 8004a94:	2200      	movs	r2, #0
 8004a96:	701a      	strb	r2, [r3, #0]
  HAL_StatusTypeDef status = HAL_OK;   /* Final status */
 8004a98:	2312      	movs	r3, #18
 8004a9a:	18fb      	adds	r3, r7, r3
 8004a9c:	2200      	movs	r2, #0
 8004a9e:	701a      	strb	r2, [r3, #0]

  /* Check the parameters */
  assert_param(IS_RCC_PERIPHCLOCK(PeriphClkInit->PeriphClockSelection));

  /*-------------------------- RTC clock source configuration ----------------------*/
  if ((PeriphClkInit->PeriphClockSelection & RCC_PERIPHCLK_RTC) == RCC_PERIPHCLK_RTC)
 8004aa0:	687b      	ldr	r3, [r7, #4]
 8004aa2:	681a      	ldr	r2, [r3, #0]
 8004aa4:	2380      	movs	r3, #128	@ 0x80
 8004aa6:	029b      	lsls	r3, r3, #10
 8004aa8:	4013      	ands	r3, r2
 8004aaa:	d100      	bne.n	8004aae <HAL_RCCEx_PeriphCLKConfig+0x26>
 8004aac:	e0a3      	b.n	8004bf6 <HAL_RCCEx_PeriphCLKConfig+0x16e>
  {
    FlagStatus       pwrclkchanged = RESET;
 8004aae:	2011      	movs	r0, #17
 8004ab0:	183b      	adds	r3, r7, r0
 8004ab2:	2200      	movs	r2, #0
 8004ab4:	701a      	strb	r2, [r3, #0]

    /* Check for RTC Parameters used to output RTCCLK */
    assert_param(IS_RCC_RTCCLKSOURCE(PeriphClkInit->RTCClockSelection));

    /* Enable Power Clock */
    if (__HAL_RCC_PWR_IS_CLK_DISABLED())
 8004ab6:	4bc3      	ldr	r3, [pc, #780]	@ (8004dc4 <HAL_RCCEx_PeriphCLKConfig+0x33c>)
 8004ab8:	6bda      	ldr	r2, [r3, #60]	@ 0x3c
 8004aba:	2380      	movs	r3, #128	@ 0x80
 8004abc:	055b      	lsls	r3, r3, #21
 8004abe:	4013      	ands	r3, r2
 8004ac0:	d110      	bne.n	8004ae4 <HAL_RCCEx_PeriphCLKConfig+0x5c>
    {
      __HAL_RCC_PWR_CLK_ENABLE();
 8004ac2:	4bc0      	ldr	r3, [pc, #768]	@ (8004dc4 <HAL_RCCEx_PeriphCLKConfig+0x33c>)
 8004ac4:	6bda      	ldr	r2, [r3, #60]	@ 0x3c
 8004ac6:	4bbf      	ldr	r3, [pc, #764]	@ (8004dc4 <HAL_RCCEx_PeriphCLKConfig+0x33c>)
 8004ac8:	2180      	movs	r1, #128	@ 0x80
 8004aca:	0549      	lsls	r1, r1, #21
 8004acc:	430a      	orrs	r2, r1
 8004ace:	63da      	str	r2, [r3, #60]	@ 0x3c
 8004ad0:	4bbc      	ldr	r3, [pc, #752]	@ (8004dc4 <HAL_RCCEx_PeriphCLKConfig+0x33c>)
 8004ad2:	6bda      	ldr	r2, [r3, #60]	@ 0x3c
 8004ad4:	2380      	movs	r3, #128	@ 0x80
 8004ad6:	055b      	lsls	r3, r3, #21
 8004ad8:	4013      	ands	r3, r2
 8004ada:	60bb      	str	r3, [r7, #8]
 8004adc:	68bb      	ldr	r3, [r7, #8]
      pwrclkchanged = SET;
 8004ade:	183b      	adds	r3, r7, r0
 8004ae0:	2201      	movs	r2, #1
 8004ae2:	701a      	strb	r2, [r3, #0]
    }

    /* Enable write access to Backup domain */
    SET_BIT(PWR->CR1, PWR_CR1_DBP);
 8004ae4:	4bb8      	ldr	r3, [pc, #736]	@ (8004dc8 <HAL_RCCEx_PeriphCLKConfig+0x340>)
 8004ae6:	681a      	ldr	r2, [r3, #0]
 8004ae8:	4bb7      	ldr	r3, [pc, #732]	@ (8004dc8 <HAL_RCCEx_PeriphCLKConfig+0x340>)
 8004aea:	2180      	movs	r1, #128	@ 0x80
 8004aec:	0049      	lsls	r1, r1, #1
 8004aee:	430a      	orrs	r2, r1
 8004af0:	601a      	str	r2, [r3, #0]

    /* Wait for Backup domain Write protection disable */
    tickstart = HAL_GetTick();
 8004af2:	f7ff fbc1 	bl	8004278 <HAL_GetTick>
 8004af6:	0003      	movs	r3, r0
 8004af8:	60fb      	str	r3, [r7, #12]

    while ((PWR->CR1 & PWR_CR1_DBP) == 0U)
 8004afa:	e00b      	b.n	8004b14 <HAL_RCCEx_PeriphCLKConfig+0x8c>
    {
      if ((HAL_GetTick() - tickstart) > RCC_DBP_TIMEOUT_VALUE)
 8004afc:	f7ff fbbc 	bl	8004278 <HAL_GetTick>
 8004b00:	0002      	movs	r2, r0
 8004b02:	68fb      	ldr	r3, [r7, #12]
 8004b04:	1ad3      	subs	r3, r2, r3
 8004b06:	2b02      	cmp	r3, #2
 8004b08:	d904      	bls.n	8004b14 <HAL_RCCEx_PeriphCLKConfig+0x8c>
      {
        ret = HAL_TIMEOUT;
 8004b0a:	2313      	movs	r3, #19
 8004b0c:	18fb      	adds	r3, r7, r3
 8004b0e:	2203      	movs	r2, #3
 8004b10:	701a      	strb	r2, [r3, #0]
        break;
 8004b12:	e005      	b.n	8004b20 <HAL_RCCEx_PeriphCLKConfig+0x98>
    while ((PWR->CR1 & PWR_CR1_DBP) == 0U)
 8004b14:	4bac      	ldr	r3, [pc, #688]	@ (8004dc8 <HAL_RCCEx_PeriphCLKConfig+0x340>)
 8004b16:	681a      	ldr	r2, [r3, #0]
 8004b18:	2380      	movs	r3, #128	@ 0x80
 8004b1a:	005b      	lsls	r3, r3, #1
 8004b1c:	4013      	ands	r3, r2
 8004b1e:	d0ed      	beq.n	8004afc <HAL_RCCEx_PeriphCLKConfig+0x74>
      }
    }

    if (ret == HAL_OK)
 8004b20:	2313      	movs	r3, #19
 8004b22:	18fb      	adds	r3, r7, r3
 8004b24:	781b      	ldrb	r3, [r3, #0]
 8004b26:	2b00      	cmp	r3, #0
 8004b28:	d154      	bne.n	8004bd4 <HAL_RCCEx_PeriphCLKConfig+0x14c>
    {
      /* Reset the Backup domain only if the RTC Clock source selection is modified from default */
      tmpregister = READ_BIT(RCC->BDCR, RCC_BDCR_RTCSEL);
 8004b2a:	4ba6      	ldr	r3, [pc, #664]	@ (8004dc4 <HAL_RCCEx_PeriphCLKConfig+0x33c>)
 8004b2c:	6dda      	ldr	r2, [r3, #92]	@ 0x5c
 8004b2e:	23c0      	movs	r3, #192	@ 0xc0
 8004b30:	009b      	lsls	r3, r3, #2
 8004b32:	4013      	ands	r3, r2
 8004b34:	617b      	str	r3, [r7, #20]

      /* Reset the Backup domain only if the RTC Clock source selection is modified */
      if ((tmpregister != RCC_RTCCLKSOURCE_NONE) && (tmpregister != PeriphClkInit->RTCClockSelection))
 8004b36:	697b      	ldr	r3, [r7, #20]
 8004b38:	2b00      	cmp	r3, #0
 8004b3a:	d019      	beq.n	8004b70 <HAL_RCCEx_PeriphCLKConfig+0xe8>
 8004b3c:	687b      	ldr	r3, [r7, #4]
 8004b3e:	6b1b      	ldr	r3, [r3, #48]	@ 0x30
 8004b40:	697a      	ldr	r2, [r7, #20]
 8004b42:	429a      	cmp	r2, r3
 8004b44:	d014      	beq.n	8004b70 <HAL_RCCEx_PeriphCLKConfig+0xe8>
      {
        /* Store the content of BDCR register before the reset of Backup Domain */
        tmpregister = READ_BIT(RCC->BDCR, ~(RCC_BDCR_RTCSEL));
 8004b46:	4b9f      	ldr	r3, [pc, #636]	@ (8004dc4 <HAL_RCCEx_PeriphCLKConfig+0x33c>)
 8004b48:	6ddb      	ldr	r3, [r3, #92]	@ 0x5c
 8004b4a:	4aa0      	ldr	r2, [pc, #640]	@ (8004dcc <HAL_RCCEx_PeriphCLKConfig+0x344>)
 8004b4c:	4013      	ands	r3, r2
 8004b4e:	617b      	str	r3, [r7, #20]
        /* RTC Clock selection can be changed only if the Backup Domain is reset */
        __HAL_RCC_BACKUPRESET_FORCE();
 8004b50:	4b9c      	ldr	r3, [pc, #624]	@ (8004dc4 <HAL_RCCEx_PeriphCLKConfig+0x33c>)
 8004b52:	6dda      	ldr	r2, [r3, #92]	@ 0x5c
 8004b54:	4b9b      	ldr	r3, [pc, #620]	@ (8004dc4 <HAL_RCCEx_PeriphCLKConfig+0x33c>)
 8004b56:	2180      	movs	r1, #128	@ 0x80
 8004b58:	0249      	lsls	r1, r1, #9
 8004b5a:	430a      	orrs	r2, r1
 8004b5c:	65da      	str	r2, [r3, #92]	@ 0x5c
        __HAL_RCC_BACKUPRESET_RELEASE();
 8004b5e:	4b99      	ldr	r3, [pc, #612]	@ (8004dc4 <HAL_RCCEx_PeriphCLKConfig+0x33c>)
 8004b60:	6dda      	ldr	r2, [r3, #92]	@ 0x5c
 8004b62:	4b98      	ldr	r3, [pc, #608]	@ (8004dc4 <HAL_RCCEx_PeriphCLKConfig+0x33c>)
 8004b64:	499a      	ldr	r1, [pc, #616]	@ (8004dd0 <HAL_RCCEx_PeriphCLKConfig+0x348>)
 8004b66:	400a      	ands	r2, r1
 8004b68:	65da      	str	r2, [r3, #92]	@ 0x5c
        /* Restore the Content of BDCR register */
        RCC->BDCR = tmpregister;
 8004b6a:	4b96      	ldr	r3, [pc, #600]	@ (8004dc4 <HAL_RCCEx_PeriphCLKConfig+0x33c>)
 8004b6c:	697a      	ldr	r2, [r7, #20]
 8004b6e:	65da      	str	r2, [r3, #92]	@ 0x5c
      }

      /* Wait for LSE reactivation if LSE was enable prior to Backup Domain reset */
      if (HAL_IS_BIT_SET(tmpregister, RCC_BDCR_LSEON))
 8004b70:	697b      	ldr	r3, [r7, #20]
 8004b72:	2201      	movs	r2, #1
 8004b74:	4013      	ands	r3, r2
 8004b76:	d016      	beq.n	8004ba6 <HAL_RCCEx_PeriphCLKConfig+0x11e>
      {
        /* Get Start Tick*/
        tickstart = HAL_GetTick();
 8004b78:	f7ff fb7e 	bl	8004278 <HAL_GetTick>
 8004b7c:	0003      	movs	r3, r0
 8004b7e:	60fb      	str	r3, [r7, #12]

        /* Wait till LSE is ready */
        while (READ_BIT(RCC->BDCR, RCC_BDCR_LSERDY) == 0U)
 8004b80:	e00c      	b.n	8004b9c <HAL_RCCEx_PeriphCLKConfig+0x114>
        {
          if ((HAL_GetTick() - tickstart) > RCC_LSE_TIMEOUT_VALUE)
 8004b82:	f7ff fb79 	bl	8004278 <HAL_GetTick>
 8004b86:	0002      	movs	r2, r0
 8004b88:	68fb      	ldr	r3, [r7, #12]
 8004b8a:	1ad3      	subs	r3, r2, r3
 8004b8c:	4a91      	ldr	r2, [pc, #580]	@ (8004dd4 <HAL_RCCEx_PeriphCLKConfig+0x34c>)
 8004b8e:	4293      	cmp	r3, r2
 8004b90:	d904      	bls.n	8004b9c <HAL_RCCEx_PeriphCLKConfig+0x114>
          {
            ret = HAL_TIMEOUT;
 8004b92:	2313      	movs	r3, #19
 8004b94:	18fb      	adds	r3, r7, r3
 8004b96:	2203      	movs	r2, #3
 8004b98:	701a      	strb	r2, [r3, #0]
            break;
 8004b9a:	e004      	b.n	8004ba6 <HAL_RCCEx_PeriphCLKConfig+0x11e>
        while (READ_BIT(RCC->BDCR, RCC_BDCR_LSERDY) == 0U)
 8004b9c:	4b89      	ldr	r3, [pc, #548]	@ (8004dc4 <HAL_RCCEx_PeriphCLKConfig+0x33c>)
 8004b9e:	6ddb      	ldr	r3, [r3, #92]	@ 0x5c
 8004ba0:	2202      	movs	r2, #2
 8004ba2:	4013      	ands	r3, r2
 8004ba4:	d0ed      	beq.n	8004b82 <HAL_RCCEx_PeriphCLKConfig+0xfa>
          }
        }
      }

      if (ret == HAL_OK)
 8004ba6:	2313      	movs	r3, #19
 8004ba8:	18fb      	adds	r3, r7, r3
 8004baa:	781b      	ldrb	r3, [r3, #0]
 8004bac:	2b00      	cmp	r3, #0
 8004bae:	d10a      	bne.n	8004bc6 <HAL_RCCEx_PeriphCLKConfig+0x13e>
      {
        /* Apply new RTC clock source selection */
        __HAL_RCC_RTC_CONFIG(PeriphClkInit->RTCClockSelection);
 8004bb0:	4b84      	ldr	r3, [pc, #528]	@ (8004dc4 <HAL_RCCEx_PeriphCLKConfig+0x33c>)
 8004bb2:	6ddb      	ldr	r3, [r3, #92]	@ 0x5c
 8004bb4:	4a85      	ldr	r2, [pc, #532]	@ (8004dcc <HAL_RCCEx_PeriphCLKConfig+0x344>)
 8004bb6:	4013      	ands	r3, r2
 8004bb8:	0019      	movs	r1, r3
 8004bba:	687b      	ldr	r3, [r7, #4]
 8004bbc:	6b1a      	ldr	r2, [r3, #48]	@ 0x30
 8004bbe:	4b81      	ldr	r3, [pc, #516]	@ (8004dc4 <HAL_RCCEx_PeriphCLKConfig+0x33c>)
 8004bc0:	430a      	orrs	r2, r1
 8004bc2:	65da      	str	r2, [r3, #92]	@ 0x5c
 8004bc4:	e00c      	b.n	8004be0 <HAL_RCCEx_PeriphCLKConfig+0x158>
      }
      else
      {
        /* set overall return value */
        status = ret;
 8004bc6:	2312      	movs	r3, #18
 8004bc8:	18fb      	adds	r3, r7, r3
 8004bca:	2213      	movs	r2, #19
 8004bcc:	18ba      	adds	r2, r7, r2
 8004bce:	7812      	ldrb	r2, [r2, #0]
 8004bd0:	701a      	strb	r2, [r3, #0]
 8004bd2:	e005      	b.n	8004be0 <HAL_RCCEx_PeriphCLKConfig+0x158>
      }
    }
    else
    {
      /* set overall return value */
      status = ret;
 8004bd4:	2312      	movs	r3, #18
 8004bd6:	18fb      	adds	r3, r7, r3
 8004bd8:	2213      	movs	r2, #19
 8004bda:	18ba      	adds	r2, r7, r2
 8004bdc:	7812      	ldrb	r2, [r2, #0]
 8004bde:	701a      	strb	r2, [r3, #0]
    }

    /* Restore clock configuration if changed */
    if (pwrclkchanged == SET)
 8004be0:	2311      	movs	r3, #17
 8004be2:	18fb      	adds	r3, r7, r3
 8004be4:	781b      	ldrb	r3, [r3, #0]
 8004be6:	2b01      	cmp	r3, #1
 8004be8:	d105      	bne.n	8004bf6 <HAL_RCCEx_PeriphCLKConfig+0x16e>
    {
      __HAL_RCC_PWR_CLK_DISABLE();
 8004bea:	4b76      	ldr	r3, [pc, #472]	@ (8004dc4 <HAL_RCCEx_PeriphCLKConfig+0x33c>)
 8004bec:	6bda      	ldr	r2, [r3, #60]	@ 0x3c
 8004bee:	4b75      	ldr	r3, [pc, #468]	@ (8004dc4 <HAL_RCCEx_PeriphCLKConfig+0x33c>)
 8004bf0:	4979      	ldr	r1, [pc, #484]	@ (8004dd8 <HAL_RCCEx_PeriphCLKConfig+0x350>)
 8004bf2:	400a      	ands	r2, r1
 8004bf4:	63da      	str	r2, [r3, #60]	@ 0x3c
    }
  }

  /*-------------------------- USART1 clock source configuration -------------------*/
  if (((PeriphClkInit->PeriphClockSelection) & RCC_PERIPHCLK_USART1) == RCC_PERIPHCLK_USART1)
 8004bf6:	687b      	ldr	r3, [r7, #4]
 8004bf8:	681b      	ldr	r3, [r3, #0]
 8004bfa:	2201      	movs	r2, #1
 8004bfc:	4013      	ands	r3, r2
 8004bfe:	d009      	beq.n	8004c14 <HAL_RCCEx_PeriphCLKConfig+0x18c>
  {
    /* Check the parameters */
    assert_param(IS_RCC_USART1CLKSOURCE(PeriphClkInit->Usart1ClockSelection));

    /* Configure the USART1 clock source */
    __HAL_RCC_USART1_CONFIG(PeriphClkInit->Usart1ClockSelection);
 8004c00:	4b70      	ldr	r3, [pc, #448]	@ (8004dc4 <HAL_RCCEx_PeriphCLKConfig+0x33c>)
 8004c02:	6d5b      	ldr	r3, [r3, #84]	@ 0x54
 8004c04:	2203      	movs	r2, #3
 8004c06:	4393      	bics	r3, r2
 8004c08:	0019      	movs	r1, r3
 8004c0a:	687b      	ldr	r3, [r7, #4]
 8004c0c:	685a      	ldr	r2, [r3, #4]
 8004c0e:	4b6d      	ldr	r3, [pc, #436]	@ (8004dc4 <HAL_RCCEx_PeriphCLKConfig+0x33c>)
 8004c10:	430a      	orrs	r2, r1
 8004c12:	655a      	str	r2, [r3, #84]	@ 0x54
  }

#if defined(RCC_CCIPR_USART2SEL)
  /*-------------------------- USART2 clock source configuration -------------------*/
  if (((PeriphClkInit->PeriphClockSelection) & RCC_PERIPHCLK_USART2) == RCC_PERIPHCLK_USART2)
 8004c14:	687b      	ldr	r3, [r7, #4]
 8004c16:	681b      	ldr	r3, [r3, #0]
 8004c18:	2202      	movs	r2, #2
 8004c1a:	4013      	ands	r3, r2
 8004c1c:	d009      	beq.n	8004c32 <HAL_RCCEx_PeriphCLKConfig+0x1aa>
  {
    /* Check the parameters */
    assert_param(IS_RCC_USART2CLKSOURCE(PeriphClkInit->Usart2ClockSelection));

    /* Configure the USART2 clock source */
    __HAL_RCC_USART2_CONFIG(PeriphClkInit->Usart2ClockSelection);
 8004c1e:	4b69      	ldr	r3, [pc, #420]	@ (8004dc4 <HAL_RCCEx_PeriphCLKConfig+0x33c>)
 8004c20:	6d5b      	ldr	r3, [r3, #84]	@ 0x54
 8004c22:	220c      	movs	r2, #12
 8004c24:	4393      	bics	r3, r2
 8004c26:	0019      	movs	r1, r3
 8004c28:	687b      	ldr	r3, [r7, #4]
 8004c2a:	689a      	ldr	r2, [r3, #8]
 8004c2c:	4b65      	ldr	r3, [pc, #404]	@ (8004dc4 <HAL_RCCEx_PeriphCLKConfig+0x33c>)
 8004c2e:	430a      	orrs	r2, r1
 8004c30:	655a      	str	r2, [r3, #84]	@ 0x54
  }
#endif /* RCC_CCIPR_USART3SEL */

#if defined(LPUART1)
  /*-------------------------- LPUART1 clock source configuration ------------------*/
  if (((PeriphClkInit->PeriphClockSelection) & RCC_PERIPHCLK_LPUART1) == RCC_PERIPHCLK_LPUART1)
 8004c32:	687b      	ldr	r3, [r7, #4]
 8004c34:	681b      	ldr	r3, [r3, #0]
 8004c36:	2210      	movs	r2, #16
 8004c38:	4013      	ands	r3, r2
 8004c3a:	d009      	beq.n	8004c50 <HAL_RCCEx_PeriphCLKConfig+0x1c8>
  {
    /* Check the parameters */
    assert_param(IS_RCC_LPUART1CLKSOURCE(PeriphClkInit->Lpuart1ClockSelection));

    /* Configure the LPUART1 clock source */
    __HAL_RCC_LPUART1_CONFIG(PeriphClkInit->Lpuart1ClockSelection);
 8004c3c:	4b61      	ldr	r3, [pc, #388]	@ (8004dc4 <HAL_RCCEx_PeriphCLKConfig+0x33c>)
 8004c3e:	6d5b      	ldr	r3, [r3, #84]	@ 0x54
 8004c40:	4a66      	ldr	r2, [pc, #408]	@ (8004ddc <HAL_RCCEx_PeriphCLKConfig+0x354>)
 8004c42:	4013      	ands	r3, r2
 8004c44:	0019      	movs	r1, r3
 8004c46:	687b      	ldr	r3, [r7, #4]
 8004c48:	68da      	ldr	r2, [r3, #12]
 8004c4a:	4b5e      	ldr	r3, [pc, #376]	@ (8004dc4 <HAL_RCCEx_PeriphCLKConfig+0x33c>)
 8004c4c:	430a      	orrs	r2, r1
 8004c4e:	655a      	str	r2, [r3, #84]	@ 0x54
  }
#endif /* LPUART2 */

#if defined(RCC_CCIPR_LPTIM1SEL)
  /*-------------------------- LPTIM1 clock source configuration -------------------*/
  if (((PeriphClkInit->PeriphClockSelection) & RCC_PERIPHCLK_LPTIM1) == (RCC_PERIPHCLK_LPTIM1))
 8004c50:	687b      	ldr	r3, [r7, #4]
 8004c52:	681a      	ldr	r2, [r3, #0]
 8004c54:	2380      	movs	r3, #128	@ 0x80
 8004c56:	009b      	lsls	r3, r3, #2
 8004c58:	4013      	ands	r3, r2
 8004c5a:	d009      	beq.n	8004c70 <HAL_RCCEx_PeriphCLKConfig+0x1e8>
  {
    assert_param(IS_RCC_LPTIM1CLKSOURCE(PeriphClkInit->Lptim1ClockSelection));
    __HAL_RCC_LPTIM1_CONFIG(PeriphClkInit->Lptim1ClockSelection);
 8004c5c:	4b59      	ldr	r3, [pc, #356]	@ (8004dc4 <HAL_RCCEx_PeriphCLKConfig+0x33c>)
 8004c5e:	6d5b      	ldr	r3, [r3, #84]	@ 0x54
 8004c60:	4a5f      	ldr	r2, [pc, #380]	@ (8004de0 <HAL_RCCEx_PeriphCLKConfig+0x358>)
 8004c62:	4013      	ands	r3, r2
 8004c64:	0019      	movs	r1, r3
 8004c66:	687b      	ldr	r3, [r7, #4]
 8004c68:	699a      	ldr	r2, [r3, #24]
 8004c6a:	4b56      	ldr	r3, [pc, #344]	@ (8004dc4 <HAL_RCCEx_PeriphCLKConfig+0x33c>)
 8004c6c:	430a      	orrs	r2, r1
 8004c6e:	655a      	str	r2, [r3, #84]	@ 0x54
  }
#endif /* RCC_CCIPR_LPTIM1SEL */

#if defined(RCC_CCIPR_LPTIM2SEL)
  /*-------------------------- LPTIM2 clock source configuration -------------------*/
  if (((PeriphClkInit->PeriphClockSelection) & RCC_PERIPHCLK_LPTIM2) == (RCC_PERIPHCLK_LPTIM2))
 8004c70:	687b      	ldr	r3, [r7, #4]
 8004c72:	681a      	ldr	r2, [r3, #0]
 8004c74:	2380      	movs	r3, #128	@ 0x80
 8004c76:	00db      	lsls	r3, r3, #3
 8004c78:	4013      	ands	r3, r2
 8004c7a:	d009      	beq.n	8004c90 <HAL_RCCEx_PeriphCLKConfig+0x208>
  {
    assert_param(IS_RCC_LPTIM2CLKSOURCE(PeriphClkInit->Lptim2ClockSelection));
    __HAL_RCC_LPTIM2_CONFIG(PeriphClkInit->Lptim2ClockSelection);
 8004c7c:	4b51      	ldr	r3, [pc, #324]	@ (8004dc4 <HAL_RCCEx_PeriphCLKConfig+0x33c>)
 8004c7e:	6d5b      	ldr	r3, [r3, #84]	@ 0x54
 8004c80:	4a58      	ldr	r2, [pc, #352]	@ (8004de4 <HAL_RCCEx_PeriphCLKConfig+0x35c>)
 8004c82:	4013      	ands	r3, r2
 8004c84:	0019      	movs	r1, r3
 8004c86:	687b      	ldr	r3, [r7, #4]
 8004c88:	69da      	ldr	r2, [r3, #28]
 8004c8a:	4b4e      	ldr	r3, [pc, #312]	@ (8004dc4 <HAL_RCCEx_PeriphCLKConfig+0x33c>)
 8004c8c:	430a      	orrs	r2, r1
 8004c8e:	655a      	str	r2, [r3, #84]	@ 0x54
  }
#endif /* RCC_CCIPR_LPTIM2SEL */

  /*-------------------------- I2C1 clock source configuration ---------------------*/
  if (((PeriphClkInit->PeriphClockSelection) & RCC_PERIPHCLK_I2C1) == RCC_PERIPHCLK_I2C1)
 8004c90:	687b      	ldr	r3, [r7, #4]
 8004c92:	681b      	ldr	r3, [r3, #0]
 8004c94:	2220      	movs	r2, #32
 8004c96:	4013      	ands	r3, r2
 8004c98:	d009      	beq.n	8004cae <HAL_RCCEx_PeriphCLKConfig+0x226>
  {
    /* Check the parameters */
    assert_param(IS_RCC_I2C1CLKSOURCE(PeriphClkInit->I2c1ClockSelection));

    /* Configure the I2C1 clock source */
    __HAL_RCC_I2C1_CONFIG(PeriphClkInit->I2c1ClockSelection);
 8004c9a:	4b4a      	ldr	r3, [pc, #296]	@ (8004dc4 <HAL_RCCEx_PeriphCLKConfig+0x33c>)
 8004c9c:	6d5b      	ldr	r3, [r3, #84]	@ 0x54
 8004c9e:	4a52      	ldr	r2, [pc, #328]	@ (8004de8 <HAL_RCCEx_PeriphCLKConfig+0x360>)
 8004ca0:	4013      	ands	r3, r2
 8004ca2:	0019      	movs	r1, r3
 8004ca4:	687b      	ldr	r3, [r7, #4]
 8004ca6:	691a      	ldr	r2, [r3, #16]
 8004ca8:	4b46      	ldr	r3, [pc, #280]	@ (8004dc4 <HAL_RCCEx_PeriphCLKConfig+0x33c>)
 8004caa:	430a      	orrs	r2, r1
 8004cac:	655a      	str	r2, [r3, #84]	@ 0x54
      __HAL_RCC_PLLCLKOUT_ENABLE(RCC_PLLQCLK);
    }
  }
#endif /* RNG */
  /*-------------------------- ADC clock source configuration ----------------------*/
  if (((PeriphClkInit->PeriphClockSelection) & RCC_PERIPHCLK_ADC) == RCC_PERIPHCLK_ADC)
 8004cae:	687b      	ldr	r3, [r7, #4]
 8004cb0:	681a      	ldr	r2, [r3, #0]
 8004cb2:	2380      	movs	r3, #128	@ 0x80
 8004cb4:	01db      	lsls	r3, r3, #7
 8004cb6:	4013      	ands	r3, r2
 8004cb8:	d015      	beq.n	8004ce6 <HAL_RCCEx_PeriphCLKConfig+0x25e>
  {
    /* Check the parameters */
    assert_param(IS_RCC_ADCCLKSOURCE(PeriphClkInit->AdcClockSelection));

    /* Configure the ADC interface clock source */
    __HAL_RCC_ADC_CONFIG(PeriphClkInit->AdcClockSelection);
 8004cba:	4b42      	ldr	r3, [pc, #264]	@ (8004dc4 <HAL_RCCEx_PeriphCLKConfig+0x33c>)
 8004cbc:	6d5b      	ldr	r3, [r3, #84]	@ 0x54
 8004cbe:	009b      	lsls	r3, r3, #2
 8004cc0:	0899      	lsrs	r1, r3, #2
 8004cc2:	687b      	ldr	r3, [r7, #4]
 8004cc4:	6a1a      	ldr	r2, [r3, #32]
 8004cc6:	4b3f      	ldr	r3, [pc, #252]	@ (8004dc4 <HAL_RCCEx_PeriphCLKConfig+0x33c>)
 8004cc8:	430a      	orrs	r2, r1
 8004cca:	655a      	str	r2, [r3, #84]	@ 0x54

    if (PeriphClkInit->AdcClockSelection == RCC_ADCCLKSOURCE_PLLADC)
 8004ccc:	687b      	ldr	r3, [r7, #4]
 8004cce:	6a1a      	ldr	r2, [r3, #32]
 8004cd0:	2380      	movs	r3, #128	@ 0x80
 8004cd2:	05db      	lsls	r3, r3, #23
 8004cd4:	429a      	cmp	r2, r3
 8004cd6:	d106      	bne.n	8004ce6 <HAL_RCCEx_PeriphCLKConfig+0x25e>
    {
      /* Enable PLLPCLK output */
      __HAL_RCC_PLLCLKOUT_ENABLE(RCC_PLLPCLK);
 8004cd8:	4b3a      	ldr	r3, [pc, #232]	@ (8004dc4 <HAL_RCCEx_PeriphCLKConfig+0x33c>)
 8004cda:	68da      	ldr	r2, [r3, #12]
 8004cdc:	4b39      	ldr	r3, [pc, #228]	@ (8004dc4 <HAL_RCCEx_PeriphCLKConfig+0x33c>)
 8004cde:	2180      	movs	r1, #128	@ 0x80
 8004ce0:	0249      	lsls	r1, r1, #9
 8004ce2:	430a      	orrs	r2, r1
 8004ce4:	60da      	str	r2, [r3, #12]
    }
  }

#if defined(CEC)
  /*-------------------------- CEC clock source configuration ---------------------*/
  if (((PeriphClkInit->PeriphClockSelection) & RCC_PERIPHCLK_CEC) == RCC_PERIPHCLK_CEC)
 8004ce6:	687b      	ldr	r3, [r7, #4]
 8004ce8:	681a      	ldr	r2, [r3, #0]
 8004cea:	2380      	movs	r3, #128	@ 0x80
 8004cec:	031b      	lsls	r3, r3, #12
 8004cee:	4013      	ands	r3, r2
 8004cf0:	d009      	beq.n	8004d06 <HAL_RCCEx_PeriphCLKConfig+0x27e>
  {
    /* Check the parameters */
    assert_param(IS_RCC_CECCLKSOURCE(PeriphClkInit->CecClockSelection));

    /* Configure the CEC clock source */
    __HAL_RCC_CEC_CONFIG(PeriphClkInit->CecClockSelection);
 8004cf2:	4b34      	ldr	r3, [pc, #208]	@ (8004dc4 <HAL_RCCEx_PeriphCLKConfig+0x33c>)
 8004cf4:	6d5b      	ldr	r3, [r3, #84]	@ 0x54
 8004cf6:	2240      	movs	r2, #64	@ 0x40
 8004cf8:	4393      	bics	r3, r2
 8004cfa:	0019      	movs	r1, r3
 8004cfc:	687b      	ldr	r3, [r7, #4]
 8004cfe:	6a5a      	ldr	r2, [r3, #36]	@ 0x24
 8004d00:	4b30      	ldr	r3, [pc, #192]	@ (8004dc4 <HAL_RCCEx_PeriphCLKConfig+0x33c>)
 8004d02:	430a      	orrs	r2, r1
 8004d04:	655a      	str	r2, [r3, #84]	@ 0x54
  }
#endif /* CEC */

#if defined(RCC_CCIPR_TIM1SEL)
  /*-------------------------- TIM1 clock source configuration ---------------------*/
  if (((PeriphClkInit->PeriphClockSelection) & RCC_PERIPHCLK_TIM1) == RCC_PERIPHCLK_TIM1)
 8004d06:	687b      	ldr	r3, [r7, #4]
 8004d08:	681a      	ldr	r2, [r3, #0]
 8004d0a:	2380      	movs	r3, #128	@ 0x80
 8004d0c:	039b      	lsls	r3, r3, #14
 8004d0e:	4013      	ands	r3, r2
 8004d10:	d016      	beq.n	8004d40 <HAL_RCCEx_PeriphCLKConfig+0x2b8>
  {
    /* Check the parameters */
    assert_param(IS_RCC_TIM1CLKSOURCE(PeriphClkInit->Tim1ClockSelection));

    /* Configure the TIM1 clock source */
    __HAL_RCC_TIM1_CONFIG(PeriphClkInit->Tim1ClockSelection);
 8004d12:	4b2c      	ldr	r3, [pc, #176]	@ (8004dc4 <HAL_RCCEx_PeriphCLKConfig+0x33c>)
 8004d14:	6d5b      	ldr	r3, [r3, #84]	@ 0x54
 8004d16:	4a35      	ldr	r2, [pc, #212]	@ (8004dec <HAL_RCCEx_PeriphCLKConfig+0x364>)
 8004d18:	4013      	ands	r3, r2
 8004d1a:	0019      	movs	r1, r3
 8004d1c:	687b      	ldr	r3, [r7, #4]
 8004d1e:	6a9a      	ldr	r2, [r3, #40]	@ 0x28
 8004d20:	4b28      	ldr	r3, [pc, #160]	@ (8004dc4 <HAL_RCCEx_PeriphCLKConfig+0x33c>)
 8004d22:	430a      	orrs	r2, r1
 8004d24:	655a      	str	r2, [r3, #84]	@ 0x54

    if (PeriphClkInit->Tim1ClockSelection == RCC_TIM1CLKSOURCE_PLL)
 8004d26:	687b      	ldr	r3, [r7, #4]
 8004d28:	6a9a      	ldr	r2, [r3, #40]	@ 0x28
 8004d2a:	2380      	movs	r3, #128	@ 0x80
 8004d2c:	03db      	lsls	r3, r3, #15
 8004d2e:	429a      	cmp	r2, r3
 8004d30:	d106      	bne.n	8004d40 <HAL_RCCEx_PeriphCLKConfig+0x2b8>
    {
      /* Enable PLLQCLK output */
      __HAL_RCC_PLLCLKOUT_ENABLE(RCC_PLLQCLK);
 8004d32:	4b24      	ldr	r3, [pc, #144]	@ (8004dc4 <HAL_RCCEx_PeriphCLKConfig+0x33c>)
 8004d34:	68da      	ldr	r2, [r3, #12]
 8004d36:	4b23      	ldr	r3, [pc, #140]	@ (8004dc4 <HAL_RCCEx_PeriphCLKConfig+0x33c>)
 8004d38:	2180      	movs	r1, #128	@ 0x80
 8004d3a:	0449      	lsls	r1, r1, #17
 8004d3c:	430a      	orrs	r2, r1
 8004d3e:	60da      	str	r2, [r3, #12]
  }
#endif /* RCC_CCIPR_TIM1SEL */

#if defined(RCC_CCIPR_TIM15SEL)
  /*-------------------------- TIM15 clock source configuration ---------------------*/
  if (((PeriphClkInit->PeriphClockSelection) & RCC_PERIPHCLK_TIM15) == RCC_PERIPHCLK_TIM15)
 8004d40:	687b      	ldr	r3, [r7, #4]
 8004d42:	681a      	ldr	r2, [r3, #0]
 8004d44:	2380      	movs	r3, #128	@ 0x80
 8004d46:	03db      	lsls	r3, r3, #15
 8004d48:	4013      	ands	r3, r2
 8004d4a:	d016      	beq.n	8004d7a <HAL_RCCEx_PeriphCLKConfig+0x2f2>
  {
    /* Check the parameters */
    assert_param(IS_RCC_TIM15CLKSOURCE(PeriphClkInit->Tim15ClockSelection));

    /* Configure the TIM15 clock source */
    __HAL_RCC_TIM15_CONFIG(PeriphClkInit->Tim15ClockSelection);
 8004d4c:	4b1d      	ldr	r3, [pc, #116]	@ (8004dc4 <HAL_RCCEx_PeriphCLKConfig+0x33c>)
 8004d4e:	6d5b      	ldr	r3, [r3, #84]	@ 0x54
 8004d50:	4a27      	ldr	r2, [pc, #156]	@ (8004df0 <HAL_RCCEx_PeriphCLKConfig+0x368>)
 8004d52:	4013      	ands	r3, r2
 8004d54:	0019      	movs	r1, r3
 8004d56:	687b      	ldr	r3, [r7, #4]
 8004d58:	6ada      	ldr	r2, [r3, #44]	@ 0x2c
 8004d5a:	4b1a      	ldr	r3, [pc, #104]	@ (8004dc4 <HAL_RCCEx_PeriphCLKConfig+0x33c>)
 8004d5c:	430a      	orrs	r2, r1
 8004d5e:	655a      	str	r2, [r3, #84]	@ 0x54

    if (PeriphClkInit->Tim15ClockSelection == RCC_TIM15CLKSOURCE_PLL)
 8004d60:	687b      	ldr	r3, [r7, #4]
 8004d62:	6ada      	ldr	r2, [r3, #44]	@ 0x2c
 8004d64:	2380      	movs	r3, #128	@ 0x80
 8004d66:	045b      	lsls	r3, r3, #17
 8004d68:	429a      	cmp	r2, r3
 8004d6a:	d106      	bne.n	8004d7a <HAL_RCCEx_PeriphCLKConfig+0x2f2>
    {
      /* Enable PLLQCLK output */
      __HAL_RCC_PLLCLKOUT_ENABLE(RCC_PLLQCLK);
 8004d6c:	4b15      	ldr	r3, [pc, #84]	@ (8004dc4 <HAL_RCCEx_PeriphCLKConfig+0x33c>)
 8004d6e:	68da      	ldr	r2, [r3, #12]
 8004d70:	4b14      	ldr	r3, [pc, #80]	@ (8004dc4 <HAL_RCCEx_PeriphCLKConfig+0x33c>)
 8004d72:	2180      	movs	r1, #128	@ 0x80
 8004d74:	0449      	lsls	r1, r1, #17
 8004d76:	430a      	orrs	r2, r1
 8004d78:	60da      	str	r2, [r3, #12]
    }
  }
#endif /* RCC_CCIPR_TIM15SEL */

  /*-------------------------- I2S1 clock source configuration ---------------------*/
  if (((PeriphClkInit->PeriphClockSelection) & RCC_PERIPHCLK_I2S1) == RCC_PERIPHCLK_I2S1)
 8004d7a:	687b      	ldr	r3, [r7, #4]
 8004d7c:	681a      	ldr	r2, [r3, #0]
 8004d7e:	2380      	movs	r3, #128	@ 0x80
 8004d80:	011b      	lsls	r3, r3, #4
 8004d82:	4013      	ands	r3, r2
 8004d84:	d016      	beq.n	8004db4 <HAL_RCCEx_PeriphCLKConfig+0x32c>
  {
    /* Check the parameters */
    assert_param(IS_RCC_I2S1CLKSOURCE(PeriphClkInit->I2s1ClockSelection));

    /* Configure the I2S1 clock source */
    __HAL_RCC_I2S1_CONFIG(PeriphClkInit->I2s1ClockSelection);
 8004d86:	4b0f      	ldr	r3, [pc, #60]	@ (8004dc4 <HAL_RCCEx_PeriphCLKConfig+0x33c>)
 8004d88:	6d5b      	ldr	r3, [r3, #84]	@ 0x54
 8004d8a:	4a1a      	ldr	r2, [pc, #104]	@ (8004df4 <HAL_RCCEx_PeriphCLKConfig+0x36c>)
 8004d8c:	4013      	ands	r3, r2
 8004d8e:	0019      	movs	r1, r3
 8004d90:	687b      	ldr	r3, [r7, #4]
 8004d92:	695a      	ldr	r2, [r3, #20]
 8004d94:	4b0b      	ldr	r3, [pc, #44]	@ (8004dc4 <HAL_RCCEx_PeriphCLKConfig+0x33c>)
 8004d96:	430a      	orrs	r2, r1
 8004d98:	655a      	str	r2, [r3, #84]	@ 0x54

    if (PeriphClkInit->I2s1ClockSelection == RCC_I2S1CLKSOURCE_PLL)
 8004d9a:	687b      	ldr	r3, [r7, #4]
 8004d9c:	695a      	ldr	r2, [r3, #20]
 8004d9e:	2380      	movs	r3, #128	@ 0x80
 8004da0:	01db      	lsls	r3, r3, #7
 8004da2:	429a      	cmp	r2, r3
 8004da4:	d106      	bne.n	8004db4 <HAL_RCCEx_PeriphCLKConfig+0x32c>
    {
      /* Enable PLLPCLK output */
      __HAL_RCC_PLLCLKOUT_ENABLE(RCC_PLLPCLK);
 8004da6:	4b07      	ldr	r3, [pc, #28]	@ (8004dc4 <HAL_RCCEx_PeriphCLKConfig+0x33c>)
 8004da8:	68da      	ldr	r2, [r3, #12]
 8004daa:	4b06      	ldr	r3, [pc, #24]	@ (8004dc4 <HAL_RCCEx_PeriphCLKConfig+0x33c>)
 8004dac:	2180      	movs	r1, #128	@ 0x80
 8004dae:	0249      	lsls	r1, r1, #9
 8004db0:	430a      	orrs	r2, r1
 8004db2:	60da      	str	r2, [r3, #12]
      __HAL_RCC_PLLCLKOUT_ENABLE(RCC_PLLQCLK);
    }
  }
#endif /* FDCAN1 || FDCAN2 */

  return status;
 8004db4:	2312      	movs	r3, #18
 8004db6:	18fb      	adds	r3, r7, r3
 8004db8:	781b      	ldrb	r3, [r3, #0]
}
 8004dba:	0018      	movs	r0, r3
 8004dbc:	46bd      	mov	sp, r7
 8004dbe:	b006      	add	sp, #24
 8004dc0:	bd80      	pop	{r7, pc}
 8004dc2:	46c0      	nop			@ (mov r8, r8)
 8004dc4:	40021000 	.word	0x40021000
 8004dc8:	40007000 	.word	0x40007000
 8004dcc:	fffffcff 	.word	0xfffffcff
 8004dd0:	fffeffff 	.word	0xfffeffff
 8004dd4:	00001388 	.word	0x00001388
 8004dd8:	efffffff 	.word	0xefffffff
 8004ddc:	fffff3ff 	.word	0xfffff3ff
 8004de0:	fff3ffff 	.word	0xfff3ffff
 8004de4:	ffcfffff 	.word	0xffcfffff
 8004de8:	ffffcfff 	.word	0xffffcfff
 8004dec:	ffbfffff 	.word	0xffbfffff
 8004df0:	feffffff 	.word	0xfeffffff
 8004df4:	ffff3fff 	.word	0xffff3fff

08004df8 <HAL_SPI_Init>:
  * @param  hspi pointer to a SPI_HandleTypeDef structure that contains
  *               the configuration information for SPI module.
  * @retval HAL status
  */
HAL_StatusTypeDef HAL_SPI_Init(SPI_HandleTypeDef *hspi)
{
 8004df8:	b580      	push	{r7, lr}
 8004dfa:	b084      	sub	sp, #16
 8004dfc:	af00      	add	r7, sp, #0
 8004dfe:	6078      	str	r0, [r7, #4]
  uint32_t frxth;

  /* Check the SPI handle allocation */
  if (hspi == NULL)
 8004e00:	687b      	ldr	r3, [r7, #4]
 8004e02:	2b00      	cmp	r3, #0
 8004e04:	d101      	bne.n	8004e0a <HAL_SPI_Init+0x12>
  {
    return HAL_ERROR;
 8004e06:	2301      	movs	r3, #1
 8004e08:	e0a8      	b.n	8004f5c <HAL_SPI_Init+0x164>
  assert_param(IS_SPI_NSS(hspi->Init.NSS));
  assert_param(IS_SPI_NSSP(hspi->Init.NSSPMode));
  assert_param(IS_SPI_BAUDRATE_PRESCALER(hspi->Init.BaudRatePrescaler));
  assert_param(IS_SPI_FIRST_BIT(hspi->Init.FirstBit));
  assert_param(IS_SPI_TIMODE(hspi->Init.TIMode));
  if (hspi->Init.TIMode == SPI_TIMODE_DISABLE)
 8004e0a:	687b      	ldr	r3, [r7, #4]
 8004e0c:	6a5b      	ldr	r3, [r3, #36]	@ 0x24
 8004e0e:	2b00      	cmp	r3, #0
 8004e10:	d109      	bne.n	8004e26 <HAL_SPI_Init+0x2e>
  {
    assert_param(IS_SPI_CPOL(hspi->Init.CLKPolarity));
    assert_param(IS_SPI_CPHA(hspi->Init.CLKPhase));

    if (hspi->Init.Mode == SPI_MODE_MASTER)
 8004e12:	687b      	ldr	r3, [r7, #4]
 8004e14:	685a      	ldr	r2, [r3, #4]
 8004e16:	2382      	movs	r3, #130	@ 0x82
 8004e18:	005b      	lsls	r3, r3, #1
 8004e1a:	429a      	cmp	r2, r3
 8004e1c:	d009      	beq.n	8004e32 <HAL_SPI_Init+0x3a>
      assert_param(IS_SPI_BAUDRATE_PRESCALER(hspi->Init.BaudRatePrescaler));
    }
    else
    {
      /* Baudrate prescaler not use in Motoraola Slave mode. force to default value */
      hspi->Init.BaudRatePrescaler = SPI_BAUDRATEPRESCALER_2;
 8004e1e:	687b      	ldr	r3, [r7, #4]
 8004e20:	2200      	movs	r2, #0
 8004e22:	61da      	str	r2, [r3, #28]
 8004e24:	e005      	b.n	8004e32 <HAL_SPI_Init+0x3a>
  else
  {
    assert_param(IS_SPI_BAUDRATE_PRESCALER(hspi->Init.BaudRatePrescaler));

    /* Force polarity and phase to TI protocaol requirements */
    hspi->Init.CLKPolarity = SPI_POLARITY_LOW;
 8004e26:	687b      	ldr	r3, [r7, #4]
 8004e28:	2200      	movs	r2, #0
 8004e2a:	611a      	str	r2, [r3, #16]
    hspi->Init.CLKPhase    = SPI_PHASE_1EDGE;
 8004e2c:	687b      	ldr	r3, [r7, #4]
 8004e2e:	2200      	movs	r2, #0
 8004e30:	615a      	str	r2, [r3, #20]
  {
    assert_param(IS_SPI_CRC_POLYNOMIAL(hspi->Init.CRCPolynomial));
    assert_param(IS_SPI_CRC_LENGTH(hspi->Init.CRCLength));
  }
#else
  hspi->Init.CRCCalculation = SPI_CRCCALCULATION_DISABLE;
 8004e32:	687b      	ldr	r3, [r7, #4]
 8004e34:	2200      	movs	r2, #0
 8004e36:	629a      	str	r2, [r3, #40]	@ 0x28
#endif /* USE_SPI_CRC */

  if (hspi->State == HAL_SPI_STATE_RESET)
 8004e38:	687b      	ldr	r3, [r7, #4]
 8004e3a:	225d      	movs	r2, #93	@ 0x5d
 8004e3c:	5c9b      	ldrb	r3, [r3, r2]
 8004e3e:	b2db      	uxtb	r3, r3
 8004e40:	2b00      	cmp	r3, #0
 8004e42:	d107      	bne.n	8004e54 <HAL_SPI_Init+0x5c>
  {
    /* Allocate lock resource and initialize it */
    hspi->Lock = HAL_UNLOCKED;
 8004e44:	687b      	ldr	r3, [r7, #4]
 8004e46:	225c      	movs	r2, #92	@ 0x5c
 8004e48:	2100      	movs	r1, #0
 8004e4a:	5499      	strb	r1, [r3, r2]

    /* Init the low level hardware : GPIO, CLOCK, NVIC... */
    hspi->MspInitCallback(hspi);
#else
    /* Init the low level hardware : GPIO, CLOCK, NVIC... */
    HAL_SPI_MspInit(hspi);
 8004e4c:	687b      	ldr	r3, [r7, #4]
 8004e4e:	0018      	movs	r0, r3
 8004e50:	f7fe fed8 	bl	8003c04 <HAL_SPI_MspInit>
#endif /* USE_HAL_SPI_REGISTER_CALLBACKS */
  }

  hspi->State = HAL_SPI_STATE_BUSY;
 8004e54:	687b      	ldr	r3, [r7, #4]
 8004e56:	225d      	movs	r2, #93	@ 0x5d
 8004e58:	2102      	movs	r1, #2
 8004e5a:	5499      	strb	r1, [r3, r2]

  /* Disable the selected SPI peripheral */
  __HAL_SPI_DISABLE(hspi);
 8004e5c:	687b      	ldr	r3, [r7, #4]
 8004e5e:	681b      	ldr	r3, [r3, #0]
 8004e60:	681a      	ldr	r2, [r3, #0]
 8004e62:	687b      	ldr	r3, [r7, #4]
 8004e64:	681b      	ldr	r3, [r3, #0]
 8004e66:	2140      	movs	r1, #64	@ 0x40
 8004e68:	438a      	bics	r2, r1
 8004e6a:	601a      	str	r2, [r3, #0]

  /* Align by default the rs fifo threshold on the data size */
  if (hspi->Init.DataSize > SPI_DATASIZE_8BIT)
 8004e6c:	687b      	ldr	r3, [r7, #4]
 8004e6e:	68da      	ldr	r2, [r3, #12]
 8004e70:	23e0      	movs	r3, #224	@ 0xe0
 8004e72:	00db      	lsls	r3, r3, #3
 8004e74:	429a      	cmp	r2, r3
 8004e76:	d902      	bls.n	8004e7e <HAL_SPI_Init+0x86>
  {
    frxth = SPI_RXFIFO_THRESHOLD_HF;
 8004e78:	2300      	movs	r3, #0
 8004e7a:	60fb      	str	r3, [r7, #12]
 8004e7c:	e002      	b.n	8004e84 <HAL_SPI_Init+0x8c>
  }
  else
  {
    frxth = SPI_RXFIFO_THRESHOLD_QF;
 8004e7e:	2380      	movs	r3, #128	@ 0x80
 8004e80:	015b      	lsls	r3, r3, #5
 8004e82:	60fb      	str	r3, [r7, #12]
  }

  /* CRC calculation is valid only for 16Bit and 8 Bit */
  if ((hspi->Init.DataSize != SPI_DATASIZE_16BIT) && (hspi->Init.DataSize != SPI_DATASIZE_8BIT))
 8004e84:	687b      	ldr	r3, [r7, #4]
 8004e86:	68da      	ldr	r2, [r3, #12]
 8004e88:	23f0      	movs	r3, #240	@ 0xf0
 8004e8a:	011b      	lsls	r3, r3, #4
 8004e8c:	429a      	cmp	r2, r3
 8004e8e:	d008      	beq.n	8004ea2 <HAL_SPI_Init+0xaa>
 8004e90:	687b      	ldr	r3, [r7, #4]
 8004e92:	68da      	ldr	r2, [r3, #12]
 8004e94:	23e0      	movs	r3, #224	@ 0xe0
 8004e96:	00db      	lsls	r3, r3, #3
 8004e98:	429a      	cmp	r2, r3
 8004e9a:	d002      	beq.n	8004ea2 <HAL_SPI_Init+0xaa>
  {
    /* CRC must be disabled */
    hspi->Init.CRCCalculation = SPI_CRCCALCULATION_DISABLE;
 8004e9c:	687b      	ldr	r3, [r7, #4]
 8004e9e:	2200      	movs	r2, #0
 8004ea0:	629a      	str	r2, [r3, #40]	@ 0x28
  }

  /*----------------------- SPIx CR1 & CR2 Configuration ---------------------*/
  /* Configure : SPI Mode, Communication Mode, Clock polarity and phase, NSS management,
  Communication speed, First bit and CRC calculation state */
  WRITE_REG(hspi->Instance->CR1, ((hspi->Init.Mode & (SPI_CR1_MSTR | SPI_CR1_SSI)) |
 8004ea2:	687b      	ldr	r3, [r7, #4]
 8004ea4:	685a      	ldr	r2, [r3, #4]
 8004ea6:	2382      	movs	r3, #130	@ 0x82
 8004ea8:	005b      	lsls	r3, r3, #1
 8004eaa:	401a      	ands	r2, r3
 8004eac:	687b      	ldr	r3, [r7, #4]
 8004eae:	6899      	ldr	r1, [r3, #8]
 8004eb0:	2384      	movs	r3, #132	@ 0x84
 8004eb2:	021b      	lsls	r3, r3, #8
 8004eb4:	400b      	ands	r3, r1
 8004eb6:	431a      	orrs	r2, r3
 8004eb8:	687b      	ldr	r3, [r7, #4]
 8004eba:	691b      	ldr	r3, [r3, #16]
 8004ebc:	2102      	movs	r1, #2
 8004ebe:	400b      	ands	r3, r1
 8004ec0:	431a      	orrs	r2, r3
 8004ec2:	687b      	ldr	r3, [r7, #4]
 8004ec4:	695b      	ldr	r3, [r3, #20]
 8004ec6:	2101      	movs	r1, #1
 8004ec8:	400b      	ands	r3, r1
 8004eca:	431a      	orrs	r2, r3
 8004ecc:	687b      	ldr	r3, [r7, #4]
 8004ece:	6999      	ldr	r1, [r3, #24]
 8004ed0:	2380      	movs	r3, #128	@ 0x80
 8004ed2:	009b      	lsls	r3, r3, #2
 8004ed4:	400b      	ands	r3, r1
 8004ed6:	431a      	orrs	r2, r3
 8004ed8:	687b      	ldr	r3, [r7, #4]
 8004eda:	69db      	ldr	r3, [r3, #28]
 8004edc:	2138      	movs	r1, #56	@ 0x38
 8004ede:	400b      	ands	r3, r1
 8004ee0:	431a      	orrs	r2, r3
 8004ee2:	687b      	ldr	r3, [r7, #4]
 8004ee4:	6a1b      	ldr	r3, [r3, #32]
 8004ee6:	2180      	movs	r1, #128	@ 0x80
 8004ee8:	400b      	ands	r3, r1
 8004eea:	431a      	orrs	r2, r3
 8004eec:	0011      	movs	r1, r2
 8004eee:	687b      	ldr	r3, [r7, #4]
 8004ef0:	6a9a      	ldr	r2, [r3, #40]	@ 0x28
 8004ef2:	2380      	movs	r3, #128	@ 0x80
 8004ef4:	019b      	lsls	r3, r3, #6
 8004ef6:	401a      	ands	r2, r3
 8004ef8:	687b      	ldr	r3, [r7, #4]
 8004efa:	681b      	ldr	r3, [r3, #0]
 8004efc:	430a      	orrs	r2, r1
 8004efe:	601a      	str	r2, [r3, #0]
    }
  }
#endif /* USE_SPI_CRC */

  /* Configure : NSS management, TI Mode, NSS Pulse, Data size and Rx Fifo threshold */
  WRITE_REG(hspi->Instance->CR2, (((hspi->Init.NSS >> 16U) & SPI_CR2_SSOE) |
 8004f00:	687b      	ldr	r3, [r7, #4]
 8004f02:	699b      	ldr	r3, [r3, #24]
 8004f04:	0c1b      	lsrs	r3, r3, #16
 8004f06:	2204      	movs	r2, #4
 8004f08:	401a      	ands	r2, r3
 8004f0a:	687b      	ldr	r3, [r7, #4]
 8004f0c:	6a5b      	ldr	r3, [r3, #36]	@ 0x24
 8004f0e:	2110      	movs	r1, #16
 8004f10:	400b      	ands	r3, r1
 8004f12:	431a      	orrs	r2, r3
 8004f14:	687b      	ldr	r3, [r7, #4]
 8004f16:	6b5b      	ldr	r3, [r3, #52]	@ 0x34
 8004f18:	2108      	movs	r1, #8
 8004f1a:	400b      	ands	r3, r1
 8004f1c:	431a      	orrs	r2, r3
 8004f1e:	687b      	ldr	r3, [r7, #4]
 8004f20:	68d9      	ldr	r1, [r3, #12]
 8004f22:	23f0      	movs	r3, #240	@ 0xf0
 8004f24:	011b      	lsls	r3, r3, #4
 8004f26:	400b      	ands	r3, r1
 8004f28:	431a      	orrs	r2, r3
 8004f2a:	0011      	movs	r1, r2
 8004f2c:	68fa      	ldr	r2, [r7, #12]
 8004f2e:	2380      	movs	r3, #128	@ 0x80
 8004f30:	015b      	lsls	r3, r3, #5
 8004f32:	401a      	ands	r2, r3
 8004f34:	687b      	ldr	r3, [r7, #4]
 8004f36:	681b      	ldr	r3, [r3, #0]
 8004f38:	430a      	orrs	r2, r1
 8004f3a:	605a      	str	r2, [r3, #4]
  }
#endif /* USE_SPI_CRC */

#if defined(SPI_I2SCFGR_I2SMOD)
  /* Activate the SPI mode (Make sure that I2SMOD bit in I2SCFGR register is reset) */
  CLEAR_BIT(hspi->Instance->I2SCFGR, SPI_I2SCFGR_I2SMOD);
 8004f3c:	687b      	ldr	r3, [r7, #4]
 8004f3e:	681b      	ldr	r3, [r3, #0]
 8004f40:	69da      	ldr	r2, [r3, #28]
 8004f42:	687b      	ldr	r3, [r7, #4]
 8004f44:	681b      	ldr	r3, [r3, #0]
 8004f46:	4907      	ldr	r1, [pc, #28]	@ (8004f64 <HAL_SPI_Init+0x16c>)
 8004f48:	400a      	ands	r2, r1
 8004f4a:	61da      	str	r2, [r3, #28]
#endif /* SPI_I2SCFGR_I2SMOD */

  hspi->ErrorCode = HAL_SPI_ERROR_NONE;
 8004f4c:	687b      	ldr	r3, [r7, #4]
 8004f4e:	2200      	movs	r2, #0
 8004f50:	661a      	str	r2, [r3, #96]	@ 0x60
  hspi->State     = HAL_SPI_STATE_READY;
 8004f52:	687b      	ldr	r3, [r7, #4]
 8004f54:	225d      	movs	r2, #93	@ 0x5d
 8004f56:	2101      	movs	r1, #1
 8004f58:	5499      	strb	r1, [r3, r2]

  return HAL_OK;
 8004f5a:	2300      	movs	r3, #0
}
 8004f5c:	0018      	movs	r0, r3
 8004f5e:	46bd      	mov	sp, r7
 8004f60:	b004      	add	sp, #16
 8004f62:	bd80      	pop	{r7, pc}
 8004f64:	fffff7ff 	.word	0xfffff7ff

08004f68 <HAL_SPI_Transmit>:
  * @param  Size amount of data to be sent
  * @param  Timeout Timeout duration
  * @retval HAL status
  */
HAL_StatusTypeDef HAL_SPI_Transmit(SPI_HandleTypeDef *hspi, uint8_t *pData, uint16_t Size, uint32_t Timeout)
{
 8004f68:	b580      	push	{r7, lr}
 8004f6a:	b088      	sub	sp, #32
 8004f6c:	af00      	add	r7, sp, #0
 8004f6e:	60f8      	str	r0, [r7, #12]
 8004f70:	60b9      	str	r1, [r7, #8]
 8004f72:	603b      	str	r3, [r7, #0]
 8004f74:	1dbb      	adds	r3, r7, #6
 8004f76:	801a      	strh	r2, [r3, #0]
  uint32_t tickstart;
  HAL_StatusTypeDef errorcode = HAL_OK;
 8004f78:	231f      	movs	r3, #31
 8004f7a:	18fb      	adds	r3, r7, r3
 8004f7c:	2200      	movs	r2, #0
 8004f7e:	701a      	strb	r2, [r3, #0]

  /* Check Direction parameter */
  assert_param(IS_SPI_DIRECTION_2LINES_OR_1LINE(hspi->Init.Direction));

  /* Process Locked */
  __HAL_LOCK(hspi);
 8004f80:	68fb      	ldr	r3, [r7, #12]
 8004f82:	225c      	movs	r2, #92	@ 0x5c
 8004f84:	5c9b      	ldrb	r3, [r3, r2]
 8004f86:	2b01      	cmp	r3, #1
 8004f88:	d101      	bne.n	8004f8e <HAL_SPI_Transmit+0x26>
 8004f8a:	2302      	movs	r3, #2
 8004f8c:	e147      	b.n	800521e <HAL_SPI_Transmit+0x2b6>
 8004f8e:	68fb      	ldr	r3, [r7, #12]
 8004f90:	225c      	movs	r2, #92	@ 0x5c
 8004f92:	2101      	movs	r1, #1
 8004f94:	5499      	strb	r1, [r3, r2]

  /* Init tickstart for timeout management*/
  tickstart = HAL_GetTick();
 8004f96:	f7ff f96f 	bl	8004278 <HAL_GetTick>
 8004f9a:	0003      	movs	r3, r0
 8004f9c:	61bb      	str	r3, [r7, #24]
  initial_TxXferCount = Size;
 8004f9e:	2316      	movs	r3, #22
 8004fa0:	18fb      	adds	r3, r7, r3
 8004fa2:	1dba      	adds	r2, r7, #6
 8004fa4:	8812      	ldrh	r2, [r2, #0]
 8004fa6:	801a      	strh	r2, [r3, #0]

  if (hspi->State != HAL_SPI_STATE_READY)
 8004fa8:	68fb      	ldr	r3, [r7, #12]
 8004faa:	225d      	movs	r2, #93	@ 0x5d
 8004fac:	5c9b      	ldrb	r3, [r3, r2]
 8004fae:	b2db      	uxtb	r3, r3
 8004fb0:	2b01      	cmp	r3, #1
 8004fb2:	d004      	beq.n	8004fbe <HAL_SPI_Transmit+0x56>
  {
    errorcode = HAL_BUSY;
 8004fb4:	231f      	movs	r3, #31
 8004fb6:	18fb      	adds	r3, r7, r3
 8004fb8:	2202      	movs	r2, #2
 8004fba:	701a      	strb	r2, [r3, #0]
    goto error;
 8004fbc:	e128      	b.n	8005210 <HAL_SPI_Transmit+0x2a8>
  }

  if ((pData == NULL) || (Size == 0U))
 8004fbe:	68bb      	ldr	r3, [r7, #8]
 8004fc0:	2b00      	cmp	r3, #0
 8004fc2:	d003      	beq.n	8004fcc <HAL_SPI_Transmit+0x64>
 8004fc4:	1dbb      	adds	r3, r7, #6
 8004fc6:	881b      	ldrh	r3, [r3, #0]
 8004fc8:	2b00      	cmp	r3, #0
 8004fca:	d104      	bne.n	8004fd6 <HAL_SPI_Transmit+0x6e>
  {
    errorcode = HAL_ERROR;
 8004fcc:	231f      	movs	r3, #31
 8004fce:	18fb      	adds	r3, r7, r3
 8004fd0:	2201      	movs	r2, #1
 8004fd2:	701a      	strb	r2, [r3, #0]
    goto error;
 8004fd4:	e11c      	b.n	8005210 <HAL_SPI_Transmit+0x2a8>
  }

  /* Set the transaction information */
  hspi->State       = HAL_SPI_STATE_BUSY_TX;
 8004fd6:	68fb      	ldr	r3, [r7, #12]
 8004fd8:	225d      	movs	r2, #93	@ 0x5d
 8004fda:	2103      	movs	r1, #3
 8004fdc:	5499      	strb	r1, [r3, r2]
  hspi->ErrorCode   = HAL_SPI_ERROR_NONE;
 8004fde:	68fb      	ldr	r3, [r7, #12]
 8004fe0:	2200      	movs	r2, #0
 8004fe2:	661a      	str	r2, [r3, #96]	@ 0x60
  hspi->pTxBuffPtr  = (uint8_t *)pData;
 8004fe4:	68fb      	ldr	r3, [r7, #12]
 8004fe6:	68ba      	ldr	r2, [r7, #8]
 8004fe8:	639a      	str	r2, [r3, #56]	@ 0x38
  hspi->TxXferSize  = Size;
 8004fea:	68fb      	ldr	r3, [r7, #12]
 8004fec:	1dba      	adds	r2, r7, #6
 8004fee:	8812      	ldrh	r2, [r2, #0]
 8004ff0:	879a      	strh	r2, [r3, #60]	@ 0x3c
  hspi->TxXferCount = Size;
 8004ff2:	68fb      	ldr	r3, [r7, #12]
 8004ff4:	1dba      	adds	r2, r7, #6
 8004ff6:	8812      	ldrh	r2, [r2, #0]
 8004ff8:	87da      	strh	r2, [r3, #62]	@ 0x3e

  /*Init field not used in handle to zero */
  hspi->pRxBuffPtr  = (uint8_t *)NULL;
 8004ffa:	68fb      	ldr	r3, [r7, #12]
 8004ffc:	2200      	movs	r2, #0
 8004ffe:	641a      	str	r2, [r3, #64]	@ 0x40
  hspi->RxXferSize  = 0U;
 8005000:	68fb      	ldr	r3, [r7, #12]
 8005002:	2244      	movs	r2, #68	@ 0x44
 8005004:	2100      	movs	r1, #0
 8005006:	5299      	strh	r1, [r3, r2]
  hspi->RxXferCount = 0U;
 8005008:	68fb      	ldr	r3, [r7, #12]
 800500a:	2246      	movs	r2, #70	@ 0x46
 800500c:	2100      	movs	r1, #0
 800500e:	5299      	strh	r1, [r3, r2]
  hspi->TxISR       = NULL;
 8005010:	68fb      	ldr	r3, [r7, #12]
 8005012:	2200      	movs	r2, #0
 8005014:	651a      	str	r2, [r3, #80]	@ 0x50
  hspi->RxISR       = NULL;
 8005016:	68fb      	ldr	r3, [r7, #12]
 8005018:	2200      	movs	r2, #0
 800501a:	64da      	str	r2, [r3, #76]	@ 0x4c

  /* Configure communication direction : 1Line */
  if (hspi->Init.Direction == SPI_DIRECTION_1LINE)
 800501c:	68fb      	ldr	r3, [r7, #12]
 800501e:	689a      	ldr	r2, [r3, #8]
 8005020:	2380      	movs	r3, #128	@ 0x80
 8005022:	021b      	lsls	r3, r3, #8
 8005024:	429a      	cmp	r2, r3
 8005026:	d110      	bne.n	800504a <HAL_SPI_Transmit+0xe2>
  {
    /* Disable SPI Peripheral before set 1Line direction (BIDIOE bit) */
    __HAL_SPI_DISABLE(hspi);
 8005028:	68fb      	ldr	r3, [r7, #12]
 800502a:	681b      	ldr	r3, [r3, #0]
 800502c:	681a      	ldr	r2, [r3, #0]
 800502e:	68fb      	ldr	r3, [r7, #12]
 8005030:	681b      	ldr	r3, [r3, #0]
 8005032:	2140      	movs	r1, #64	@ 0x40
 8005034:	438a      	bics	r2, r1
 8005036:	601a      	str	r2, [r3, #0]
    SPI_1LINE_TX(hspi);
 8005038:	68fb      	ldr	r3, [r7, #12]
 800503a:	681b      	ldr	r3, [r3, #0]
 800503c:	681a      	ldr	r2, [r3, #0]
 800503e:	68fb      	ldr	r3, [r7, #12]
 8005040:	681b      	ldr	r3, [r3, #0]
 8005042:	2180      	movs	r1, #128	@ 0x80
 8005044:	01c9      	lsls	r1, r1, #7
 8005046:	430a      	orrs	r2, r1
 8005048:	601a      	str	r2, [r3, #0]
    SPI_RESET_CRC(hspi);
  }
#endif /* USE_SPI_CRC */

  /* Check if the SPI is already enabled */
  if ((hspi->Instance->CR1 & SPI_CR1_SPE) != SPI_CR1_SPE)
 800504a:	68fb      	ldr	r3, [r7, #12]
 800504c:	681b      	ldr	r3, [r3, #0]
 800504e:	681b      	ldr	r3, [r3, #0]
 8005050:	2240      	movs	r2, #64	@ 0x40
 8005052:	4013      	ands	r3, r2
 8005054:	2b40      	cmp	r3, #64	@ 0x40
 8005056:	d007      	beq.n	8005068 <HAL_SPI_Transmit+0x100>
  {
    /* Enable SPI peripheral */
    __HAL_SPI_ENABLE(hspi);
 8005058:	68fb      	ldr	r3, [r7, #12]
 800505a:	681b      	ldr	r3, [r3, #0]
 800505c:	681a      	ldr	r2, [r3, #0]
 800505e:	68fb      	ldr	r3, [r7, #12]
 8005060:	681b      	ldr	r3, [r3, #0]
 8005062:	2140      	movs	r1, #64	@ 0x40
 8005064:	430a      	orrs	r2, r1
 8005066:	601a      	str	r2, [r3, #0]
  }

  /* Transmit data in 16 Bit mode */
  if (hspi->Init.DataSize > SPI_DATASIZE_8BIT)
 8005068:	68fb      	ldr	r3, [r7, #12]
 800506a:	68da      	ldr	r2, [r3, #12]
 800506c:	23e0      	movs	r3, #224	@ 0xe0
 800506e:	00db      	lsls	r3, r3, #3
 8005070:	429a      	cmp	r2, r3
 8005072:	d952      	bls.n	800511a <HAL_SPI_Transmit+0x1b2>
  {
    if ((hspi->Init.Mode == SPI_MODE_SLAVE) || (initial_TxXferCount == 0x01U))
 8005074:	68fb      	ldr	r3, [r7, #12]
 8005076:	685b      	ldr	r3, [r3, #4]
 8005078:	2b00      	cmp	r3, #0
 800507a:	d004      	beq.n	8005086 <HAL_SPI_Transmit+0x11e>
 800507c:	2316      	movs	r3, #22
 800507e:	18fb      	adds	r3, r7, r3
 8005080:	881b      	ldrh	r3, [r3, #0]
 8005082:	2b01      	cmp	r3, #1
 8005084:	d143      	bne.n	800510e <HAL_SPI_Transmit+0x1a6>
    {
      hspi->Instance->DR = *((uint16_t *)hspi->pTxBuffPtr);
 8005086:	68fb      	ldr	r3, [r7, #12]
 8005088:	6b9b      	ldr	r3, [r3, #56]	@ 0x38
 800508a:	881a      	ldrh	r2, [r3, #0]
 800508c:	68fb      	ldr	r3, [r7, #12]
 800508e:	681b      	ldr	r3, [r3, #0]
 8005090:	60da      	str	r2, [r3, #12]
      hspi->pTxBuffPtr += sizeof(uint16_t);
 8005092:	68fb      	ldr	r3, [r7, #12]
 8005094:	6b9b      	ldr	r3, [r3, #56]	@ 0x38
 8005096:	1c9a      	adds	r2, r3, #2
 8005098:	68fb      	ldr	r3, [r7, #12]
 800509a:	639a      	str	r2, [r3, #56]	@ 0x38
      hspi->TxXferCount--;
 800509c:	68fb      	ldr	r3, [r7, #12]
 800509e:	8fdb      	ldrh	r3, [r3, #62]	@ 0x3e
 80050a0:	b29b      	uxth	r3, r3
 80050a2:	3b01      	subs	r3, #1
 80050a4:	b29a      	uxth	r2, r3
 80050a6:	68fb      	ldr	r3, [r7, #12]
 80050a8:	87da      	strh	r2, [r3, #62]	@ 0x3e
    }
    /* Transmit data in 16 Bit mode */
    while (hspi->TxXferCount > 0U)
 80050aa:	e030      	b.n	800510e <HAL_SPI_Transmit+0x1a6>
    {
      /* Wait until TXE flag is set to send data */
      if (__HAL_SPI_GET_FLAG(hspi, SPI_FLAG_TXE))
 80050ac:	68fb      	ldr	r3, [r7, #12]
 80050ae:	681b      	ldr	r3, [r3, #0]
 80050b0:	689b      	ldr	r3, [r3, #8]
 80050b2:	2202      	movs	r2, #2
 80050b4:	4013      	ands	r3, r2
 80050b6:	2b02      	cmp	r3, #2
 80050b8:	d112      	bne.n	80050e0 <HAL_SPI_Transmit+0x178>
      {
        hspi->Instance->DR = *((uint16_t *)hspi->pTxBuffPtr);
 80050ba:	68fb      	ldr	r3, [r7, #12]
 80050bc:	6b9b      	ldr	r3, [r3, #56]	@ 0x38
 80050be:	881a      	ldrh	r2, [r3, #0]
 80050c0:	68fb      	ldr	r3, [r7, #12]
 80050c2:	681b      	ldr	r3, [r3, #0]
 80050c4:	60da      	str	r2, [r3, #12]
        hspi->pTxBuffPtr += sizeof(uint16_t);
 80050c6:	68fb      	ldr	r3, [r7, #12]
 80050c8:	6b9b      	ldr	r3, [r3, #56]	@ 0x38
 80050ca:	1c9a      	adds	r2, r3, #2
 80050cc:	68fb      	ldr	r3, [r7, #12]
 80050ce:	639a      	str	r2, [r3, #56]	@ 0x38
        hspi->TxXferCount--;
 80050d0:	68fb      	ldr	r3, [r7, #12]
 80050d2:	8fdb      	ldrh	r3, [r3, #62]	@ 0x3e
 80050d4:	b29b      	uxth	r3, r3
 80050d6:	3b01      	subs	r3, #1
 80050d8:	b29a      	uxth	r2, r3
 80050da:	68fb      	ldr	r3, [r7, #12]
 80050dc:	87da      	strh	r2, [r3, #62]	@ 0x3e
 80050de:	e016      	b.n	800510e <HAL_SPI_Transmit+0x1a6>
      }
      else
      {
        /* Timeout management */
        if ((((HAL_GetTick() - tickstart) >=  Timeout) && (Timeout != HAL_MAX_DELAY)) || (Timeout == 0U))
 80050e0:	f7ff f8ca 	bl	8004278 <HAL_GetTick>
 80050e4:	0002      	movs	r2, r0
 80050e6:	69bb      	ldr	r3, [r7, #24]
 80050e8:	1ad3      	subs	r3, r2, r3
 80050ea:	683a      	ldr	r2, [r7, #0]
 80050ec:	429a      	cmp	r2, r3
 80050ee:	d802      	bhi.n	80050f6 <HAL_SPI_Transmit+0x18e>
 80050f0:	683b      	ldr	r3, [r7, #0]
 80050f2:	3301      	adds	r3, #1
 80050f4:	d102      	bne.n	80050fc <HAL_SPI_Transmit+0x194>
 80050f6:	683b      	ldr	r3, [r7, #0]
 80050f8:	2b00      	cmp	r3, #0
 80050fa:	d108      	bne.n	800510e <HAL_SPI_Transmit+0x1a6>
        {
          errorcode = HAL_TIMEOUT;
 80050fc:	231f      	movs	r3, #31
 80050fe:	18fb      	adds	r3, r7, r3
 8005100:	2203      	movs	r2, #3
 8005102:	701a      	strb	r2, [r3, #0]
          hspi->State = HAL_SPI_STATE_READY;
 8005104:	68fb      	ldr	r3, [r7, #12]
 8005106:	225d      	movs	r2, #93	@ 0x5d
 8005108:	2101      	movs	r1, #1
 800510a:	5499      	strb	r1, [r3, r2]
          goto error;
 800510c:	e080      	b.n	8005210 <HAL_SPI_Transmit+0x2a8>
    while (hspi->TxXferCount > 0U)
 800510e:	68fb      	ldr	r3, [r7, #12]
 8005110:	8fdb      	ldrh	r3, [r3, #62]	@ 0x3e
 8005112:	b29b      	uxth	r3, r3
 8005114:	2b00      	cmp	r3, #0
 8005116:	d1c9      	bne.n	80050ac <HAL_SPI_Transmit+0x144>
 8005118:	e053      	b.n	80051c2 <HAL_SPI_Transmit+0x25a>
    }
  }
  /* Transmit data in 8 Bit mode */
  else
  {
    if ((hspi->Init.Mode == SPI_MODE_SLAVE) || (initial_TxXferCount == 0x01U))
 800511a:	68fb      	ldr	r3, [r7, #12]
 800511c:	685b      	ldr	r3, [r3, #4]
 800511e:	2b00      	cmp	r3, #0
 8005120:	d004      	beq.n	800512c <HAL_SPI_Transmit+0x1c4>
 8005122:	2316      	movs	r3, #22
 8005124:	18fb      	adds	r3, r7, r3
 8005126:	881b      	ldrh	r3, [r3, #0]
 8005128:	2b01      	cmp	r3, #1
 800512a:	d145      	bne.n	80051b8 <HAL_SPI_Transmit+0x250>
    {
      *((__IO uint8_t *)&hspi->Instance->DR) = (*hspi->pTxBuffPtr);
 800512c:	68fb      	ldr	r3, [r7, #12]
 800512e:	6b9a      	ldr	r2, [r3, #56]	@ 0x38
 8005130:	68fb      	ldr	r3, [r7, #12]
 8005132:	681b      	ldr	r3, [r3, #0]
 8005134:	330c      	adds	r3, #12
 8005136:	7812      	ldrb	r2, [r2, #0]
 8005138:	701a      	strb	r2, [r3, #0]
      hspi->pTxBuffPtr += sizeof(uint8_t);
 800513a:	68fb      	ldr	r3, [r7, #12]
 800513c:	6b9b      	ldr	r3, [r3, #56]	@ 0x38
 800513e:	1c5a      	adds	r2, r3, #1
 8005140:	68fb      	ldr	r3, [r7, #12]
 8005142:	639a      	str	r2, [r3, #56]	@ 0x38
      hspi->TxXferCount--;
 8005144:	68fb      	ldr	r3, [r7, #12]
 8005146:	8fdb      	ldrh	r3, [r3, #62]	@ 0x3e
 8005148:	b29b      	uxth	r3, r3
 800514a:	3b01      	subs	r3, #1
 800514c:	b29a      	uxth	r2, r3
 800514e:	68fb      	ldr	r3, [r7, #12]
 8005150:	87da      	strh	r2, [r3, #62]	@ 0x3e
    }
    while (hspi->TxXferCount > 0U)
 8005152:	e031      	b.n	80051b8 <HAL_SPI_Transmit+0x250>
    {
      /* Wait until TXE flag is set to send data */
      if (__HAL_SPI_GET_FLAG(hspi, SPI_FLAG_TXE))
 8005154:	68fb      	ldr	r3, [r7, #12]
 8005156:	681b      	ldr	r3, [r3, #0]
 8005158:	689b      	ldr	r3, [r3, #8]
 800515a:	2202      	movs	r2, #2
 800515c:	4013      	ands	r3, r2
 800515e:	2b02      	cmp	r3, #2
 8005160:	d113      	bne.n	800518a <HAL_SPI_Transmit+0x222>
      {
        *((__IO uint8_t *)&hspi->Instance->DR) = (*hspi->pTxBuffPtr);
 8005162:	68fb      	ldr	r3, [r7, #12]
 8005164:	6b9a      	ldr	r2, [r3, #56]	@ 0x38
 8005166:	68fb      	ldr	r3, [r7, #12]
 8005168:	681b      	ldr	r3, [r3, #0]
 800516a:	330c      	adds	r3, #12
 800516c:	7812      	ldrb	r2, [r2, #0]
 800516e:	701a      	strb	r2, [r3, #0]
        hspi->pTxBuffPtr += sizeof(uint8_t);
 8005170:	68fb      	ldr	r3, [r7, #12]
 8005172:	6b9b      	ldr	r3, [r3, #56]	@ 0x38
 8005174:	1c5a      	adds	r2, r3, #1
 8005176:	68fb      	ldr	r3, [r7, #12]
 8005178:	639a      	str	r2, [r3, #56]	@ 0x38
        hspi->TxXferCount--;
 800517a:	68fb      	ldr	r3, [r7, #12]
 800517c:	8fdb      	ldrh	r3, [r3, #62]	@ 0x3e
 800517e:	b29b      	uxth	r3, r3
 8005180:	3b01      	subs	r3, #1
 8005182:	b29a      	uxth	r2, r3
 8005184:	68fb      	ldr	r3, [r7, #12]
 8005186:	87da      	strh	r2, [r3, #62]	@ 0x3e
 8005188:	e016      	b.n	80051b8 <HAL_SPI_Transmit+0x250>
      }
      else
      {
        /* Timeout management */
        if ((((HAL_GetTick() - tickstart) >=  Timeout) && (Timeout != HAL_MAX_DELAY)) || (Timeout == 0U))
 800518a:	f7ff f875 	bl	8004278 <HAL_GetTick>
 800518e:	0002      	movs	r2, r0
 8005190:	69bb      	ldr	r3, [r7, #24]
 8005192:	1ad3      	subs	r3, r2, r3
 8005194:	683a      	ldr	r2, [r7, #0]
 8005196:	429a      	cmp	r2, r3
 8005198:	d802      	bhi.n	80051a0 <HAL_SPI_Transmit+0x238>
 800519a:	683b      	ldr	r3, [r7, #0]
 800519c:	3301      	adds	r3, #1
 800519e:	d102      	bne.n	80051a6 <HAL_SPI_Transmit+0x23e>
 80051a0:	683b      	ldr	r3, [r7, #0]
 80051a2:	2b00      	cmp	r3, #0
 80051a4:	d108      	bne.n	80051b8 <HAL_SPI_Transmit+0x250>
        {
          errorcode = HAL_TIMEOUT;
 80051a6:	231f      	movs	r3, #31
 80051a8:	18fb      	adds	r3, r7, r3
 80051aa:	2203      	movs	r2, #3
 80051ac:	701a      	strb	r2, [r3, #0]
          hspi->State = HAL_SPI_STATE_READY;
 80051ae:	68fb      	ldr	r3, [r7, #12]
 80051b0:	225d      	movs	r2, #93	@ 0x5d
 80051b2:	2101      	movs	r1, #1
 80051b4:	5499      	strb	r1, [r3, r2]
          goto error;
 80051b6:	e02b      	b.n	8005210 <HAL_SPI_Transmit+0x2a8>
    while (hspi->TxXferCount > 0U)
 80051b8:	68fb      	ldr	r3, [r7, #12]
 80051ba:	8fdb      	ldrh	r3, [r3, #62]	@ 0x3e
 80051bc:	b29b      	uxth	r3, r3
 80051be:	2b00      	cmp	r3, #0
 80051c0:	d1c8      	bne.n	8005154 <HAL_SPI_Transmit+0x1ec>
    SET_BIT(hspi->Instance->CR1, SPI_CR1_CRCNEXT);
  }
#endif /* USE_SPI_CRC */

  /* Check the end of the transaction */
  if (SPI_EndRxTxTransaction(hspi, Timeout, tickstart) != HAL_OK)
 80051c2:	69ba      	ldr	r2, [r7, #24]
 80051c4:	6839      	ldr	r1, [r7, #0]
 80051c6:	68fb      	ldr	r3, [r7, #12]
 80051c8:	0018      	movs	r0, r3
 80051ca:	f000 fcef 	bl	8005bac <SPI_EndRxTxTransaction>
 80051ce:	1e03      	subs	r3, r0, #0
 80051d0:	d002      	beq.n	80051d8 <HAL_SPI_Transmit+0x270>
  {
    hspi->ErrorCode = HAL_SPI_ERROR_FLAG;
 80051d2:	68fb      	ldr	r3, [r7, #12]
 80051d4:	2220      	movs	r2, #32
 80051d6:	661a      	str	r2, [r3, #96]	@ 0x60
  }

  /* Clear overrun flag in 2 Lines communication mode because received is not read */
  if (hspi->Init.Direction == SPI_DIRECTION_2LINES)
 80051d8:	68fb      	ldr	r3, [r7, #12]
 80051da:	689b      	ldr	r3, [r3, #8]
 80051dc:	2b00      	cmp	r3, #0
 80051de:	d10a      	bne.n	80051f6 <HAL_SPI_Transmit+0x28e>
  {
    __HAL_SPI_CLEAR_OVRFLAG(hspi);
 80051e0:	2300      	movs	r3, #0
 80051e2:	613b      	str	r3, [r7, #16]
 80051e4:	68fb      	ldr	r3, [r7, #12]
 80051e6:	681b      	ldr	r3, [r3, #0]
 80051e8:	68db      	ldr	r3, [r3, #12]
 80051ea:	613b      	str	r3, [r7, #16]
 80051ec:	68fb      	ldr	r3, [r7, #12]
 80051ee:	681b      	ldr	r3, [r3, #0]
 80051f0:	689b      	ldr	r3, [r3, #8]
 80051f2:	613b      	str	r3, [r7, #16]
 80051f4:	693b      	ldr	r3, [r7, #16]
  }

  if (hspi->ErrorCode != HAL_SPI_ERROR_NONE)
 80051f6:	68fb      	ldr	r3, [r7, #12]
 80051f8:	6e1b      	ldr	r3, [r3, #96]	@ 0x60
 80051fa:	2b00      	cmp	r3, #0
 80051fc:	d004      	beq.n	8005208 <HAL_SPI_Transmit+0x2a0>
  {
    errorcode = HAL_ERROR;
 80051fe:	231f      	movs	r3, #31
 8005200:	18fb      	adds	r3, r7, r3
 8005202:	2201      	movs	r2, #1
 8005204:	701a      	strb	r2, [r3, #0]
 8005206:	e003      	b.n	8005210 <HAL_SPI_Transmit+0x2a8>
  }
  else
  {
    hspi->State = HAL_SPI_STATE_READY;
 8005208:	68fb      	ldr	r3, [r7, #12]
 800520a:	225d      	movs	r2, #93	@ 0x5d
 800520c:	2101      	movs	r1, #1
 800520e:	5499      	strb	r1, [r3, r2]
  }

error:
  /* Process Unlocked */
  __HAL_UNLOCK(hspi);
 8005210:	68fb      	ldr	r3, [r7, #12]
 8005212:	225c      	movs	r2, #92	@ 0x5c
 8005214:	2100      	movs	r1, #0
 8005216:	5499      	strb	r1, [r3, r2]
  return errorcode;
 8005218:	231f      	movs	r3, #31
 800521a:	18fb      	adds	r3, r7, r3
 800521c:	781b      	ldrb	r3, [r3, #0]
}
 800521e:	0018      	movs	r0, r3
 8005220:	46bd      	mov	sp, r7
 8005222:	b008      	add	sp, #32
 8005224:	bd80      	pop	{r7, pc}
	...

08005228 <HAL_SPI_Receive>:
  * @param  Size amount of data to be received
  * @param  Timeout Timeout duration
  * @retval HAL status
  */
HAL_StatusTypeDef HAL_SPI_Receive(SPI_HandleTypeDef *hspi, uint8_t *pData, uint16_t Size, uint32_t Timeout)
{
 8005228:	b590      	push	{r4, r7, lr}
 800522a:	b089      	sub	sp, #36	@ 0x24
 800522c:	af02      	add	r7, sp, #8
 800522e:	60f8      	str	r0, [r7, #12]
 8005230:	60b9      	str	r1, [r7, #8]
 8005232:	603b      	str	r3, [r7, #0]
 8005234:	1dbb      	adds	r3, r7, #6
 8005236:	801a      	strh	r2, [r3, #0]
  __IO uint32_t tmpreg = 0U;
  __IO uint8_t  *ptmpreg8;
  __IO uint8_t  tmpreg8 = 0;
#endif /* USE_SPI_CRC */
  uint32_t tickstart;
  HAL_StatusTypeDef errorcode = HAL_OK;
 8005238:	2117      	movs	r1, #23
 800523a:	187b      	adds	r3, r7, r1
 800523c:	2200      	movs	r2, #0
 800523e:	701a      	strb	r2, [r3, #0]

  if (hspi->State != HAL_SPI_STATE_READY)
 8005240:	68fb      	ldr	r3, [r7, #12]
 8005242:	225d      	movs	r2, #93	@ 0x5d
 8005244:	5c9b      	ldrb	r3, [r3, r2]
 8005246:	b2db      	uxtb	r3, r3
 8005248:	2b01      	cmp	r3, #1
 800524a:	d003      	beq.n	8005254 <HAL_SPI_Receive+0x2c>
  {
    errorcode = HAL_BUSY;
 800524c:	187b      	adds	r3, r7, r1
 800524e:	2202      	movs	r2, #2
 8005250:	701a      	strb	r2, [r3, #0]
    goto error;
 8005252:	e12b      	b.n	80054ac <HAL_SPI_Receive+0x284>
  }

  if ((hspi->Init.Mode == SPI_MODE_MASTER) && (hspi->Init.Direction == SPI_DIRECTION_2LINES))
 8005254:	68fb      	ldr	r3, [r7, #12]
 8005256:	685a      	ldr	r2, [r3, #4]
 8005258:	2382      	movs	r3, #130	@ 0x82
 800525a:	005b      	lsls	r3, r3, #1
 800525c:	429a      	cmp	r2, r3
 800525e:	d113      	bne.n	8005288 <HAL_SPI_Receive+0x60>
 8005260:	68fb      	ldr	r3, [r7, #12]
 8005262:	689b      	ldr	r3, [r3, #8]
 8005264:	2b00      	cmp	r3, #0
 8005266:	d10f      	bne.n	8005288 <HAL_SPI_Receive+0x60>
  {
    hspi->State = HAL_SPI_STATE_BUSY_RX;
 8005268:	68fb      	ldr	r3, [r7, #12]
 800526a:	225d      	movs	r2, #93	@ 0x5d
 800526c:	2104      	movs	r1, #4
 800526e:	5499      	strb	r1, [r3, r2]
    /* Call transmit-receive function to send Dummy data on Tx line and generate clock on CLK line */
    return HAL_SPI_TransmitReceive(hspi, pData, pData, Size, Timeout);
 8005270:	1dbb      	adds	r3, r7, #6
 8005272:	881c      	ldrh	r4, [r3, #0]
 8005274:	68ba      	ldr	r2, [r7, #8]
 8005276:	68b9      	ldr	r1, [r7, #8]
 8005278:	68f8      	ldr	r0, [r7, #12]
 800527a:	683b      	ldr	r3, [r7, #0]
 800527c:	9300      	str	r3, [sp, #0]
 800527e:	0023      	movs	r3, r4
 8005280:	f000 f924 	bl	80054cc <HAL_SPI_TransmitReceive>
 8005284:	0003      	movs	r3, r0
 8005286:	e118      	b.n	80054ba <HAL_SPI_Receive+0x292>
  }

  /* Process Locked */
  __HAL_LOCK(hspi);
 8005288:	68fb      	ldr	r3, [r7, #12]
 800528a:	225c      	movs	r2, #92	@ 0x5c
 800528c:	5c9b      	ldrb	r3, [r3, r2]
 800528e:	2b01      	cmp	r3, #1
 8005290:	d101      	bne.n	8005296 <HAL_SPI_Receive+0x6e>
 8005292:	2302      	movs	r3, #2
 8005294:	e111      	b.n	80054ba <HAL_SPI_Receive+0x292>
 8005296:	68fb      	ldr	r3, [r7, #12]
 8005298:	225c      	movs	r2, #92	@ 0x5c
 800529a:	2101      	movs	r1, #1
 800529c:	5499      	strb	r1, [r3, r2]

  /* Init tickstart for timeout management*/
  tickstart = HAL_GetTick();
 800529e:	f7fe ffeb 	bl	8004278 <HAL_GetTick>
 80052a2:	0003      	movs	r3, r0
 80052a4:	613b      	str	r3, [r7, #16]

  if ((pData == NULL) || (Size == 0U))
 80052a6:	68bb      	ldr	r3, [r7, #8]
 80052a8:	2b00      	cmp	r3, #0
 80052aa:	d003      	beq.n	80052b4 <HAL_SPI_Receive+0x8c>
 80052ac:	1dbb      	adds	r3, r7, #6
 80052ae:	881b      	ldrh	r3, [r3, #0]
 80052b0:	2b00      	cmp	r3, #0
 80052b2:	d104      	bne.n	80052be <HAL_SPI_Receive+0x96>
  {
    errorcode = HAL_ERROR;
 80052b4:	2317      	movs	r3, #23
 80052b6:	18fb      	adds	r3, r7, r3
 80052b8:	2201      	movs	r2, #1
 80052ba:	701a      	strb	r2, [r3, #0]
    goto error;
 80052bc:	e0f6      	b.n	80054ac <HAL_SPI_Receive+0x284>
  }

  /* Set the transaction information */
  hspi->State       = HAL_SPI_STATE_BUSY_RX;
 80052be:	68fb      	ldr	r3, [r7, #12]
 80052c0:	225d      	movs	r2, #93	@ 0x5d
 80052c2:	2104      	movs	r1, #4
 80052c4:	5499      	strb	r1, [r3, r2]
  hspi->ErrorCode   = HAL_SPI_ERROR_NONE;
 80052c6:	68fb      	ldr	r3, [r7, #12]
 80052c8:	2200      	movs	r2, #0
 80052ca:	661a      	str	r2, [r3, #96]	@ 0x60
  hspi->pRxBuffPtr  = (uint8_t *)pData;
 80052cc:	68fb      	ldr	r3, [r7, #12]
 80052ce:	68ba      	ldr	r2, [r7, #8]
 80052d0:	641a      	str	r2, [r3, #64]	@ 0x40
  hspi->RxXferSize  = Size;
 80052d2:	68fb      	ldr	r3, [r7, #12]
 80052d4:	1dba      	adds	r2, r7, #6
 80052d6:	2144      	movs	r1, #68	@ 0x44
 80052d8:	8812      	ldrh	r2, [r2, #0]
 80052da:	525a      	strh	r2, [r3, r1]
  hspi->RxXferCount = Size;
 80052dc:	68fb      	ldr	r3, [r7, #12]
 80052de:	1dba      	adds	r2, r7, #6
 80052e0:	2146      	movs	r1, #70	@ 0x46
 80052e2:	8812      	ldrh	r2, [r2, #0]
 80052e4:	525a      	strh	r2, [r3, r1]

  /*Init field not used in handle to zero */
  hspi->pTxBuffPtr  = (uint8_t *)NULL;
 80052e6:	68fb      	ldr	r3, [r7, #12]
 80052e8:	2200      	movs	r2, #0
 80052ea:	639a      	str	r2, [r3, #56]	@ 0x38
  hspi->TxXferSize  = 0U;
 80052ec:	68fb      	ldr	r3, [r7, #12]
 80052ee:	2200      	movs	r2, #0
 80052f0:	879a      	strh	r2, [r3, #60]	@ 0x3c
  hspi->TxXferCount = 0U;
 80052f2:	68fb      	ldr	r3, [r7, #12]
 80052f4:	2200      	movs	r2, #0
 80052f6:	87da      	strh	r2, [r3, #62]	@ 0x3e
  hspi->RxISR       = NULL;
 80052f8:	68fb      	ldr	r3, [r7, #12]
 80052fa:	2200      	movs	r2, #0
 80052fc:	64da      	str	r2, [r3, #76]	@ 0x4c
  hspi->TxISR       = NULL;
 80052fe:	68fb      	ldr	r3, [r7, #12]
 8005300:	2200      	movs	r2, #0
 8005302:	651a      	str	r2, [r3, #80]	@ 0x50
    hspi->RxXferCount--;
  }
#endif /* USE_SPI_CRC */

  /* Set the Rx Fifo threshold */
  if (hspi->Init.DataSize > SPI_DATASIZE_8BIT)
 8005304:	68fb      	ldr	r3, [r7, #12]
 8005306:	68da      	ldr	r2, [r3, #12]
 8005308:	23e0      	movs	r3, #224	@ 0xe0
 800530a:	00db      	lsls	r3, r3, #3
 800530c:	429a      	cmp	r2, r3
 800530e:	d908      	bls.n	8005322 <HAL_SPI_Receive+0xfa>
  {
    /* Set RX Fifo threshold according the reception data length: 16bit */
    CLEAR_BIT(hspi->Instance->CR2, SPI_RXFIFO_THRESHOLD);
 8005310:	68fb      	ldr	r3, [r7, #12]
 8005312:	681b      	ldr	r3, [r3, #0]
 8005314:	685a      	ldr	r2, [r3, #4]
 8005316:	68fb      	ldr	r3, [r7, #12]
 8005318:	681b      	ldr	r3, [r3, #0]
 800531a:	496a      	ldr	r1, [pc, #424]	@ (80054c4 <HAL_SPI_Receive+0x29c>)
 800531c:	400a      	ands	r2, r1
 800531e:	605a      	str	r2, [r3, #4]
 8005320:	e008      	b.n	8005334 <HAL_SPI_Receive+0x10c>
  }
  else
  {
    /* Set RX Fifo threshold according the reception data length: 8bit */
    SET_BIT(hspi->Instance->CR2, SPI_RXFIFO_THRESHOLD);
 8005322:	68fb      	ldr	r3, [r7, #12]
 8005324:	681b      	ldr	r3, [r3, #0]
 8005326:	685a      	ldr	r2, [r3, #4]
 8005328:	68fb      	ldr	r3, [r7, #12]
 800532a:	681b      	ldr	r3, [r3, #0]
 800532c:	2180      	movs	r1, #128	@ 0x80
 800532e:	0149      	lsls	r1, r1, #5
 8005330:	430a      	orrs	r2, r1
 8005332:	605a      	str	r2, [r3, #4]
  }

  /* Configure communication direction: 1Line */
  if (hspi->Init.Direction == SPI_DIRECTION_1LINE)
 8005334:	68fb      	ldr	r3, [r7, #12]
 8005336:	689a      	ldr	r2, [r3, #8]
 8005338:	2380      	movs	r3, #128	@ 0x80
 800533a:	021b      	lsls	r3, r3, #8
 800533c:	429a      	cmp	r2, r3
 800533e:	d10f      	bne.n	8005360 <HAL_SPI_Receive+0x138>
  {
    /* Disable SPI Peripheral before set 1Line direction (BIDIOE bit) */
    __HAL_SPI_DISABLE(hspi);
 8005340:	68fb      	ldr	r3, [r7, #12]
 8005342:	681b      	ldr	r3, [r3, #0]
 8005344:	681a      	ldr	r2, [r3, #0]
 8005346:	68fb      	ldr	r3, [r7, #12]
 8005348:	681b      	ldr	r3, [r3, #0]
 800534a:	2140      	movs	r1, #64	@ 0x40
 800534c:	438a      	bics	r2, r1
 800534e:	601a      	str	r2, [r3, #0]
    SPI_1LINE_RX(hspi);
 8005350:	68fb      	ldr	r3, [r7, #12]
 8005352:	681b      	ldr	r3, [r3, #0]
 8005354:	681a      	ldr	r2, [r3, #0]
 8005356:	68fb      	ldr	r3, [r7, #12]
 8005358:	681b      	ldr	r3, [r3, #0]
 800535a:	495b      	ldr	r1, [pc, #364]	@ (80054c8 <HAL_SPI_Receive+0x2a0>)
 800535c:	400a      	ands	r2, r1
 800535e:	601a      	str	r2, [r3, #0]
  }

  /* Check if the SPI is already enabled */
  if ((hspi->Instance->CR1 & SPI_CR1_SPE) != SPI_CR1_SPE)
 8005360:	68fb      	ldr	r3, [r7, #12]
 8005362:	681b      	ldr	r3, [r3, #0]
 8005364:	681b      	ldr	r3, [r3, #0]
 8005366:	2240      	movs	r2, #64	@ 0x40
 8005368:	4013      	ands	r3, r2
 800536a:	2b40      	cmp	r3, #64	@ 0x40
 800536c:	d007      	beq.n	800537e <HAL_SPI_Receive+0x156>
  {
    /* Enable SPI peripheral */
    __HAL_SPI_ENABLE(hspi);
 800536e:	68fb      	ldr	r3, [r7, #12]
 8005370:	681b      	ldr	r3, [r3, #0]
 8005372:	681a      	ldr	r2, [r3, #0]
 8005374:	68fb      	ldr	r3, [r7, #12]
 8005376:	681b      	ldr	r3, [r3, #0]
 8005378:	2140      	movs	r1, #64	@ 0x40
 800537a:	430a      	orrs	r2, r1
 800537c:	601a      	str	r2, [r3, #0]
  }

  /* Receive data in 8 Bit mode */
  if (hspi->Init.DataSize <= SPI_DATASIZE_8BIT)
 800537e:	68fb      	ldr	r3, [r7, #12]
 8005380:	68da      	ldr	r2, [r3, #12]
 8005382:	23e0      	movs	r3, #224	@ 0xe0
 8005384:	00db      	lsls	r3, r3, #3
 8005386:	429a      	cmp	r2, r3
 8005388:	d900      	bls.n	800538c <HAL_SPI_Receive+0x164>
 800538a:	e071      	b.n	8005470 <HAL_SPI_Receive+0x248>
  {
    /* Transfer loop */
    while (hspi->RxXferCount > 0U)
 800538c:	e035      	b.n	80053fa <HAL_SPI_Receive+0x1d2>
    {
      /* Check the RXNE flag */
      if (__HAL_SPI_GET_FLAG(hspi, SPI_FLAG_RXNE))
 800538e:	68fb      	ldr	r3, [r7, #12]
 8005390:	681b      	ldr	r3, [r3, #0]
 8005392:	689b      	ldr	r3, [r3, #8]
 8005394:	2201      	movs	r2, #1
 8005396:	4013      	ands	r3, r2
 8005398:	2b01      	cmp	r3, #1
 800539a:	d117      	bne.n	80053cc <HAL_SPI_Receive+0x1a4>
      {
        /* read the received data */
        (* (uint8_t *)hspi->pRxBuffPtr) = *(__IO uint8_t *)&hspi->Instance->DR;
 800539c:	68fb      	ldr	r3, [r7, #12]
 800539e:	681b      	ldr	r3, [r3, #0]
 80053a0:	330c      	adds	r3, #12
 80053a2:	001a      	movs	r2, r3
 80053a4:	68fb      	ldr	r3, [r7, #12]
 80053a6:	6c1b      	ldr	r3, [r3, #64]	@ 0x40
 80053a8:	7812      	ldrb	r2, [r2, #0]
 80053aa:	b2d2      	uxtb	r2, r2
 80053ac:	701a      	strb	r2, [r3, #0]
        hspi->pRxBuffPtr += sizeof(uint8_t);
 80053ae:	68fb      	ldr	r3, [r7, #12]
 80053b0:	6c1b      	ldr	r3, [r3, #64]	@ 0x40
 80053b2:	1c5a      	adds	r2, r3, #1
 80053b4:	68fb      	ldr	r3, [r7, #12]
 80053b6:	641a      	str	r2, [r3, #64]	@ 0x40
        hspi->RxXferCount--;
 80053b8:	68fb      	ldr	r3, [r7, #12]
 80053ba:	2246      	movs	r2, #70	@ 0x46
 80053bc:	5a9b      	ldrh	r3, [r3, r2]
 80053be:	b29b      	uxth	r3, r3
 80053c0:	3b01      	subs	r3, #1
 80053c2:	b299      	uxth	r1, r3
 80053c4:	68fb      	ldr	r3, [r7, #12]
 80053c6:	2246      	movs	r2, #70	@ 0x46
 80053c8:	5299      	strh	r1, [r3, r2]
 80053ca:	e016      	b.n	80053fa <HAL_SPI_Receive+0x1d2>
      }
      else
      {
        /* Timeout management */
        if ((((HAL_GetTick() - tickstart) >=  Timeout) && (Timeout != HAL_MAX_DELAY)) || (Timeout == 0U))
 80053cc:	f7fe ff54 	bl	8004278 <HAL_GetTick>
 80053d0:	0002      	movs	r2, r0
 80053d2:	693b      	ldr	r3, [r7, #16]
 80053d4:	1ad3      	subs	r3, r2, r3
 80053d6:	683a      	ldr	r2, [r7, #0]
 80053d8:	429a      	cmp	r2, r3
 80053da:	d802      	bhi.n	80053e2 <HAL_SPI_Receive+0x1ba>
 80053dc:	683b      	ldr	r3, [r7, #0]
 80053de:	3301      	adds	r3, #1
 80053e0:	d102      	bne.n	80053e8 <HAL_SPI_Receive+0x1c0>
 80053e2:	683b      	ldr	r3, [r7, #0]
 80053e4:	2b00      	cmp	r3, #0
 80053e6:	d108      	bne.n	80053fa <HAL_SPI_Receive+0x1d2>
        {
          errorcode = HAL_TIMEOUT;
 80053e8:	2317      	movs	r3, #23
 80053ea:	18fb      	adds	r3, r7, r3
 80053ec:	2203      	movs	r2, #3
 80053ee:	701a      	strb	r2, [r3, #0]
          hspi->State = HAL_SPI_STATE_READY;
 80053f0:	68fb      	ldr	r3, [r7, #12]
 80053f2:	225d      	movs	r2, #93	@ 0x5d
 80053f4:	2101      	movs	r1, #1
 80053f6:	5499      	strb	r1, [r3, r2]
          goto error;
 80053f8:	e058      	b.n	80054ac <HAL_SPI_Receive+0x284>
    while (hspi->RxXferCount > 0U)
 80053fa:	68fb      	ldr	r3, [r7, #12]
 80053fc:	2246      	movs	r2, #70	@ 0x46
 80053fe:	5a9b      	ldrh	r3, [r3, r2]
 8005400:	b29b      	uxth	r3, r3
 8005402:	2b00      	cmp	r3, #0
 8005404:	d1c3      	bne.n	800538e <HAL_SPI_Receive+0x166>
 8005406:	e039      	b.n	800547c <HAL_SPI_Receive+0x254>
  {
    /* Transfer loop */
    while (hspi->RxXferCount > 0U)
    {
      /* Check the RXNE flag */
      if (__HAL_SPI_GET_FLAG(hspi, SPI_FLAG_RXNE))
 8005408:	68fb      	ldr	r3, [r7, #12]
 800540a:	681b      	ldr	r3, [r3, #0]
 800540c:	689b      	ldr	r3, [r3, #8]
 800540e:	2201      	movs	r2, #1
 8005410:	4013      	ands	r3, r2
 8005412:	2b01      	cmp	r3, #1
 8005414:	d115      	bne.n	8005442 <HAL_SPI_Receive+0x21a>
      {
        *((uint16_t *)hspi->pRxBuffPtr) = (uint16_t)hspi->Instance->DR;
 8005416:	68fb      	ldr	r3, [r7, #12]
 8005418:	681b      	ldr	r3, [r3, #0]
 800541a:	68da      	ldr	r2, [r3, #12]
 800541c:	68fb      	ldr	r3, [r7, #12]
 800541e:	6c1b      	ldr	r3, [r3, #64]	@ 0x40
 8005420:	b292      	uxth	r2, r2
 8005422:	801a      	strh	r2, [r3, #0]
        hspi->pRxBuffPtr += sizeof(uint16_t);
 8005424:	68fb      	ldr	r3, [r7, #12]
 8005426:	6c1b      	ldr	r3, [r3, #64]	@ 0x40
 8005428:	1c9a      	adds	r2, r3, #2
 800542a:	68fb      	ldr	r3, [r7, #12]
 800542c:	641a      	str	r2, [r3, #64]	@ 0x40
        hspi->RxXferCount--;
 800542e:	68fb      	ldr	r3, [r7, #12]
 8005430:	2246      	movs	r2, #70	@ 0x46
 8005432:	5a9b      	ldrh	r3, [r3, r2]
 8005434:	b29b      	uxth	r3, r3
 8005436:	3b01      	subs	r3, #1
 8005438:	b299      	uxth	r1, r3
 800543a:	68fb      	ldr	r3, [r7, #12]
 800543c:	2246      	movs	r2, #70	@ 0x46
 800543e:	5299      	strh	r1, [r3, r2]
 8005440:	e016      	b.n	8005470 <HAL_SPI_Receive+0x248>
      }
      else
      {
        /* Timeout management */
        if ((((HAL_GetTick() - tickstart) >=  Timeout) && (Timeout != HAL_MAX_DELAY)) || (Timeout == 0U))
 8005442:	f7fe ff19 	bl	8004278 <HAL_GetTick>
 8005446:	0002      	movs	r2, r0
 8005448:	693b      	ldr	r3, [r7, #16]
 800544a:	1ad3      	subs	r3, r2, r3
 800544c:	683a      	ldr	r2, [r7, #0]
 800544e:	429a      	cmp	r2, r3
 8005450:	d802      	bhi.n	8005458 <HAL_SPI_Receive+0x230>
 8005452:	683b      	ldr	r3, [r7, #0]
 8005454:	3301      	adds	r3, #1
 8005456:	d102      	bne.n	800545e <HAL_SPI_Receive+0x236>
 8005458:	683b      	ldr	r3, [r7, #0]
 800545a:	2b00      	cmp	r3, #0
 800545c:	d108      	bne.n	8005470 <HAL_SPI_Receive+0x248>
        {
          errorcode = HAL_TIMEOUT;
 800545e:	2317      	movs	r3, #23
 8005460:	18fb      	adds	r3, r7, r3
 8005462:	2203      	movs	r2, #3
 8005464:	701a      	strb	r2, [r3, #0]
          hspi->State = HAL_SPI_STATE_READY;
 8005466:	68fb      	ldr	r3, [r7, #12]
 8005468:	225d      	movs	r2, #93	@ 0x5d
 800546a:	2101      	movs	r1, #1
 800546c:	5499      	strb	r1, [r3, r2]
          goto error;
 800546e:	e01d      	b.n	80054ac <HAL_SPI_Receive+0x284>
    while (hspi->RxXferCount > 0U)
 8005470:	68fb      	ldr	r3, [r7, #12]
 8005472:	2246      	movs	r2, #70	@ 0x46
 8005474:	5a9b      	ldrh	r3, [r3, r2]
 8005476:	b29b      	uxth	r3, r3
 8005478:	2b00      	cmp	r3, #0
 800547a:	d1c5      	bne.n	8005408 <HAL_SPI_Receive+0x1e0>
    }
  }
#endif /* USE_SPI_CRC */

  /* Check the end of the transaction */
  if (SPI_EndRxTransaction(hspi, Timeout, tickstart) != HAL_OK)
 800547c:	693a      	ldr	r2, [r7, #16]
 800547e:	6839      	ldr	r1, [r7, #0]
 8005480:	68fb      	ldr	r3, [r7, #12]
 8005482:	0018      	movs	r0, r3
 8005484:	f000 fb34 	bl	8005af0 <SPI_EndRxTransaction>
 8005488:	1e03      	subs	r3, r0, #0
 800548a:	d002      	beq.n	8005492 <HAL_SPI_Receive+0x26a>
  {
    hspi->ErrorCode = HAL_SPI_ERROR_FLAG;
 800548c:	68fb      	ldr	r3, [r7, #12]
 800548e:	2220      	movs	r2, #32
 8005490:	661a      	str	r2, [r3, #96]	@ 0x60
    SET_BIT(hspi->ErrorCode, HAL_SPI_ERROR_CRC);
    __HAL_SPI_CLEAR_CRCERRFLAG(hspi);
  }
#endif /* USE_SPI_CRC */

  if (hspi->ErrorCode != HAL_SPI_ERROR_NONE)
 8005492:	68fb      	ldr	r3, [r7, #12]
 8005494:	6e1b      	ldr	r3, [r3, #96]	@ 0x60
 8005496:	2b00      	cmp	r3, #0
 8005498:	d004      	beq.n	80054a4 <HAL_SPI_Receive+0x27c>
  {
    errorcode = HAL_ERROR;
 800549a:	2317      	movs	r3, #23
 800549c:	18fb      	adds	r3, r7, r3
 800549e:	2201      	movs	r2, #1
 80054a0:	701a      	strb	r2, [r3, #0]
 80054a2:	e003      	b.n	80054ac <HAL_SPI_Receive+0x284>
  }
  else
  {
    hspi->State = HAL_SPI_STATE_READY;
 80054a4:	68fb      	ldr	r3, [r7, #12]
 80054a6:	225d      	movs	r2, #93	@ 0x5d
 80054a8:	2101      	movs	r1, #1
 80054aa:	5499      	strb	r1, [r3, r2]
  }

error :
  __HAL_UNLOCK(hspi);
 80054ac:	68fb      	ldr	r3, [r7, #12]
 80054ae:	225c      	movs	r2, #92	@ 0x5c
 80054b0:	2100      	movs	r1, #0
 80054b2:	5499      	strb	r1, [r3, r2]
  return errorcode;
 80054b4:	2317      	movs	r3, #23
 80054b6:	18fb      	adds	r3, r7, r3
 80054b8:	781b      	ldrb	r3, [r3, #0]
}
 80054ba:	0018      	movs	r0, r3
 80054bc:	46bd      	mov	sp, r7
 80054be:	b007      	add	sp, #28
 80054c0:	bd90      	pop	{r4, r7, pc}
 80054c2:	46c0      	nop			@ (mov r8, r8)
 80054c4:	ffffefff 	.word	0xffffefff
 80054c8:	ffffbfff 	.word	0xffffbfff

080054cc <HAL_SPI_TransmitReceive>:
  * @param  Timeout Timeout duration
  * @retval HAL status
  */
HAL_StatusTypeDef HAL_SPI_TransmitReceive(SPI_HandleTypeDef *hspi, uint8_t *pTxData, uint8_t *pRxData, uint16_t Size,
                                          uint32_t Timeout)
{
 80054cc:	b580      	push	{r7, lr}
 80054ce:	b08a      	sub	sp, #40	@ 0x28
 80054d0:	af00      	add	r7, sp, #0
 80054d2:	60f8      	str	r0, [r7, #12]
 80054d4:	60b9      	str	r1, [r7, #8]
 80054d6:	607a      	str	r2, [r7, #4]
 80054d8:	001a      	movs	r2, r3
 80054da:	1cbb      	adds	r3, r7, #2
 80054dc:	801a      	strh	r2, [r3, #0]
  __IO uint8_t  *ptmpreg8;
  __IO uint8_t  tmpreg8 = 0;
#endif /* USE_SPI_CRC */

  /* Variable used to alternate Rx and Tx during transfer */
  uint32_t             txallowed = 1U;
 80054de:	2301      	movs	r3, #1
 80054e0:	627b      	str	r3, [r7, #36]	@ 0x24
  HAL_StatusTypeDef    errorcode = HAL_OK;
 80054e2:	2323      	movs	r3, #35	@ 0x23
 80054e4:	18fb      	adds	r3, r7, r3
 80054e6:	2200      	movs	r2, #0
 80054e8:	701a      	strb	r2, [r3, #0]

  /* Check Direction parameter */
  assert_param(IS_SPI_DIRECTION_2LINES(hspi->Init.Direction));

  /* Process Locked */
  __HAL_LOCK(hspi);
 80054ea:	68fb      	ldr	r3, [r7, #12]
 80054ec:	225c      	movs	r2, #92	@ 0x5c
 80054ee:	5c9b      	ldrb	r3, [r3, r2]
 80054f0:	2b01      	cmp	r3, #1
 80054f2:	d101      	bne.n	80054f8 <HAL_SPI_TransmitReceive+0x2c>
 80054f4:	2302      	movs	r3, #2
 80054f6:	e1c4      	b.n	8005882 <HAL_SPI_TransmitReceive+0x3b6>
 80054f8:	68fb      	ldr	r3, [r7, #12]
 80054fa:	225c      	movs	r2, #92	@ 0x5c
 80054fc:	2101      	movs	r1, #1
 80054fe:	5499      	strb	r1, [r3, r2]

  /* Init tickstart for timeout management*/
  tickstart = HAL_GetTick();
 8005500:	f7fe feba 	bl	8004278 <HAL_GetTick>
 8005504:	0003      	movs	r3, r0
 8005506:	61fb      	str	r3, [r7, #28]

  /* Init temporary variables */
  tmp_state           = hspi->State;
 8005508:	201b      	movs	r0, #27
 800550a:	183b      	adds	r3, r7, r0
 800550c:	68fa      	ldr	r2, [r7, #12]
 800550e:	215d      	movs	r1, #93	@ 0x5d
 8005510:	5c52      	ldrb	r2, [r2, r1]
 8005512:	701a      	strb	r2, [r3, #0]
  tmp_mode            = hspi->Init.Mode;
 8005514:	68fb      	ldr	r3, [r7, #12]
 8005516:	685b      	ldr	r3, [r3, #4]
 8005518:	617b      	str	r3, [r7, #20]
  initial_TxXferCount = Size;
 800551a:	2312      	movs	r3, #18
 800551c:	18fb      	adds	r3, r7, r3
 800551e:	1cba      	adds	r2, r7, #2
 8005520:	8812      	ldrh	r2, [r2, #0]
 8005522:	801a      	strh	r2, [r3, #0]
#if (USE_SPI_CRC != 0U)
  spi_cr1             = READ_REG(hspi->Instance->CR1);
  spi_cr2             = READ_REG(hspi->Instance->CR2);
#endif /* USE_SPI_CRC */

  if (!((tmp_state == HAL_SPI_STATE_READY) || \
 8005524:	183b      	adds	r3, r7, r0
 8005526:	781b      	ldrb	r3, [r3, #0]
 8005528:	2b01      	cmp	r3, #1
 800552a:	d011      	beq.n	8005550 <HAL_SPI_TransmitReceive+0x84>
 800552c:	697a      	ldr	r2, [r7, #20]
 800552e:	2382      	movs	r3, #130	@ 0x82
 8005530:	005b      	lsls	r3, r3, #1
 8005532:	429a      	cmp	r2, r3
 8005534:	d107      	bne.n	8005546 <HAL_SPI_TransmitReceive+0x7a>
        ((tmp_mode == SPI_MODE_MASTER) && (hspi->Init.Direction == SPI_DIRECTION_2LINES) && (tmp_state == HAL_SPI_STATE_BUSY_RX))))
 8005536:	68fb      	ldr	r3, [r7, #12]
 8005538:	689b      	ldr	r3, [r3, #8]
 800553a:	2b00      	cmp	r3, #0
 800553c:	d103      	bne.n	8005546 <HAL_SPI_TransmitReceive+0x7a>
 800553e:	183b      	adds	r3, r7, r0
 8005540:	781b      	ldrb	r3, [r3, #0]
 8005542:	2b04      	cmp	r3, #4
 8005544:	d004      	beq.n	8005550 <HAL_SPI_TransmitReceive+0x84>
  {
    errorcode = HAL_BUSY;
 8005546:	2323      	movs	r3, #35	@ 0x23
 8005548:	18fb      	adds	r3, r7, r3
 800554a:	2202      	movs	r2, #2
 800554c:	701a      	strb	r2, [r3, #0]
    goto error;
 800554e:	e191      	b.n	8005874 <HAL_SPI_TransmitReceive+0x3a8>
  }

  if ((pTxData == NULL) || (pRxData == NULL) || (Size == 0U))
 8005550:	68bb      	ldr	r3, [r7, #8]
 8005552:	2b00      	cmp	r3, #0
 8005554:	d006      	beq.n	8005564 <HAL_SPI_TransmitReceive+0x98>
 8005556:	687b      	ldr	r3, [r7, #4]
 8005558:	2b00      	cmp	r3, #0
 800555a:	d003      	beq.n	8005564 <HAL_SPI_TransmitReceive+0x98>
 800555c:	1cbb      	adds	r3, r7, #2
 800555e:	881b      	ldrh	r3, [r3, #0]
 8005560:	2b00      	cmp	r3, #0
 8005562:	d104      	bne.n	800556e <HAL_SPI_TransmitReceive+0xa2>
  {
    errorcode = HAL_ERROR;
 8005564:	2323      	movs	r3, #35	@ 0x23
 8005566:	18fb      	adds	r3, r7, r3
 8005568:	2201      	movs	r2, #1
 800556a:	701a      	strb	r2, [r3, #0]
    goto error;
 800556c:	e182      	b.n	8005874 <HAL_SPI_TransmitReceive+0x3a8>
  }

  /* Don't overwrite in case of HAL_SPI_STATE_BUSY_RX */
  if (hspi->State != HAL_SPI_STATE_BUSY_RX)
 800556e:	68fb      	ldr	r3, [r7, #12]
 8005570:	225d      	movs	r2, #93	@ 0x5d
 8005572:	5c9b      	ldrb	r3, [r3, r2]
 8005574:	b2db      	uxtb	r3, r3
 8005576:	2b04      	cmp	r3, #4
 8005578:	d003      	beq.n	8005582 <HAL_SPI_TransmitReceive+0xb6>
  {
    hspi->State = HAL_SPI_STATE_BUSY_TX_RX;
 800557a:	68fb      	ldr	r3, [r7, #12]
 800557c:	225d      	movs	r2, #93	@ 0x5d
 800557e:	2105      	movs	r1, #5
 8005580:	5499      	strb	r1, [r3, r2]
  }

  /* Set the transaction information */
  hspi->ErrorCode   = HAL_SPI_ERROR_NONE;
 8005582:	68fb      	ldr	r3, [r7, #12]
 8005584:	2200      	movs	r2, #0
 8005586:	661a      	str	r2, [r3, #96]	@ 0x60
  hspi->pRxBuffPtr  = (uint8_t *)pRxData;
 8005588:	68fb      	ldr	r3, [r7, #12]
 800558a:	687a      	ldr	r2, [r7, #4]
 800558c:	641a      	str	r2, [r3, #64]	@ 0x40
  hspi->RxXferCount = Size;
 800558e:	68fb      	ldr	r3, [r7, #12]
 8005590:	1cba      	adds	r2, r7, #2
 8005592:	2146      	movs	r1, #70	@ 0x46
 8005594:	8812      	ldrh	r2, [r2, #0]
 8005596:	525a      	strh	r2, [r3, r1]
  hspi->RxXferSize  = Size;
 8005598:	68fb      	ldr	r3, [r7, #12]
 800559a:	1cba      	adds	r2, r7, #2
 800559c:	2144      	movs	r1, #68	@ 0x44
 800559e:	8812      	ldrh	r2, [r2, #0]
 80055a0:	525a      	strh	r2, [r3, r1]
  hspi->pTxBuffPtr  = (uint8_t *)pTxData;
 80055a2:	68fb      	ldr	r3, [r7, #12]
 80055a4:	68ba      	ldr	r2, [r7, #8]
 80055a6:	639a      	str	r2, [r3, #56]	@ 0x38
  hspi->TxXferCount = Size;
 80055a8:	68fb      	ldr	r3, [r7, #12]
 80055aa:	1cba      	adds	r2, r7, #2
 80055ac:	8812      	ldrh	r2, [r2, #0]
 80055ae:	87da      	strh	r2, [r3, #62]	@ 0x3e
  hspi->TxXferSize  = Size;
 80055b0:	68fb      	ldr	r3, [r7, #12]
 80055b2:	1cba      	adds	r2, r7, #2
 80055b4:	8812      	ldrh	r2, [r2, #0]
 80055b6:	879a      	strh	r2, [r3, #60]	@ 0x3c

  /*Init field not used in handle to zero */
  hspi->RxISR       = NULL;
 80055b8:	68fb      	ldr	r3, [r7, #12]
 80055ba:	2200      	movs	r2, #0
 80055bc:	64da      	str	r2, [r3, #76]	@ 0x4c
  hspi->TxISR       = NULL;
 80055be:	68fb      	ldr	r3, [r7, #12]
 80055c0:	2200      	movs	r2, #0
 80055c2:	651a      	str	r2, [r3, #80]	@ 0x50
    SPI_RESET_CRC(hspi);
  }
#endif /* USE_SPI_CRC */

  /* Set the Rx Fifo threshold */
  if (hspi->Init.DataSize > SPI_DATASIZE_8BIT)
 80055c4:	68fb      	ldr	r3, [r7, #12]
 80055c6:	68da      	ldr	r2, [r3, #12]
 80055c8:	23e0      	movs	r3, #224	@ 0xe0
 80055ca:	00db      	lsls	r3, r3, #3
 80055cc:	429a      	cmp	r2, r3
 80055ce:	d908      	bls.n	80055e2 <HAL_SPI_TransmitReceive+0x116>
  {
    /* Set fiforxthreshold according the reception data length: 16bit */
    CLEAR_BIT(hspi->Instance->CR2, SPI_RXFIFO_THRESHOLD);
 80055d0:	68fb      	ldr	r3, [r7, #12]
 80055d2:	681b      	ldr	r3, [r3, #0]
 80055d4:	685a      	ldr	r2, [r3, #4]
 80055d6:	68fb      	ldr	r3, [r7, #12]
 80055d8:	681b      	ldr	r3, [r3, #0]
 80055da:	49ac      	ldr	r1, [pc, #688]	@ (800588c <HAL_SPI_TransmitReceive+0x3c0>)
 80055dc:	400a      	ands	r2, r1
 80055de:	605a      	str	r2, [r3, #4]
 80055e0:	e008      	b.n	80055f4 <HAL_SPI_TransmitReceive+0x128>
  }
  else
  {
    /* Set fiforxthreshold according the reception data length: 8bit */
    SET_BIT(hspi->Instance->CR2, SPI_RXFIFO_THRESHOLD);
 80055e2:	68fb      	ldr	r3, [r7, #12]
 80055e4:	681b      	ldr	r3, [r3, #0]
 80055e6:	685a      	ldr	r2, [r3, #4]
 80055e8:	68fb      	ldr	r3, [r7, #12]
 80055ea:	681b      	ldr	r3, [r3, #0]
 80055ec:	2180      	movs	r1, #128	@ 0x80
 80055ee:	0149      	lsls	r1, r1, #5
 80055f0:	430a      	orrs	r2, r1
 80055f2:	605a      	str	r2, [r3, #4]
  }

  /* Check if the SPI is already enabled */
  if ((hspi->Instance->CR1 & SPI_CR1_SPE) != SPI_CR1_SPE)
 80055f4:	68fb      	ldr	r3, [r7, #12]
 80055f6:	681b      	ldr	r3, [r3, #0]
 80055f8:	681b      	ldr	r3, [r3, #0]
 80055fa:	2240      	movs	r2, #64	@ 0x40
 80055fc:	4013      	ands	r3, r2
 80055fe:	2b40      	cmp	r3, #64	@ 0x40
 8005600:	d007      	beq.n	8005612 <HAL_SPI_TransmitReceive+0x146>
  {
    /* Enable SPI peripheral */
    __HAL_SPI_ENABLE(hspi);
 8005602:	68fb      	ldr	r3, [r7, #12]
 8005604:	681b      	ldr	r3, [r3, #0]
 8005606:	681a      	ldr	r2, [r3, #0]
 8005608:	68fb      	ldr	r3, [r7, #12]
 800560a:	681b      	ldr	r3, [r3, #0]
 800560c:	2140      	movs	r1, #64	@ 0x40
 800560e:	430a      	orrs	r2, r1
 8005610:	601a      	str	r2, [r3, #0]
  }

  /* Transmit and Receive data in 16 Bit mode */
  if (hspi->Init.DataSize > SPI_DATASIZE_8BIT)
 8005612:	68fb      	ldr	r3, [r7, #12]
 8005614:	68da      	ldr	r2, [r3, #12]
 8005616:	23e0      	movs	r3, #224	@ 0xe0
 8005618:	00db      	lsls	r3, r3, #3
 800561a:	429a      	cmp	r2, r3
 800561c:	d800      	bhi.n	8005620 <HAL_SPI_TransmitReceive+0x154>
 800561e:	e083      	b.n	8005728 <HAL_SPI_TransmitReceive+0x25c>
  {
    if ((hspi->Init.Mode == SPI_MODE_SLAVE) || (initial_TxXferCount == 0x01U))
 8005620:	68fb      	ldr	r3, [r7, #12]
 8005622:	685b      	ldr	r3, [r3, #4]
 8005624:	2b00      	cmp	r3, #0
 8005626:	d005      	beq.n	8005634 <HAL_SPI_TransmitReceive+0x168>
 8005628:	2312      	movs	r3, #18
 800562a:	18fb      	adds	r3, r7, r3
 800562c:	881b      	ldrh	r3, [r3, #0]
 800562e:	2b01      	cmp	r3, #1
 8005630:	d000      	beq.n	8005634 <HAL_SPI_TransmitReceive+0x168>
 8005632:	e06d      	b.n	8005710 <HAL_SPI_TransmitReceive+0x244>
    {
      hspi->Instance->DR = *((uint16_t *)hspi->pTxBuffPtr);
 8005634:	68fb      	ldr	r3, [r7, #12]
 8005636:	6b9b      	ldr	r3, [r3, #56]	@ 0x38
 8005638:	881a      	ldrh	r2, [r3, #0]
 800563a:	68fb      	ldr	r3, [r7, #12]
 800563c:	681b      	ldr	r3, [r3, #0]
 800563e:	60da      	str	r2, [r3, #12]
      hspi->pTxBuffPtr += sizeof(uint16_t);
 8005640:	68fb      	ldr	r3, [r7, #12]
 8005642:	6b9b      	ldr	r3, [r3, #56]	@ 0x38
 8005644:	1c9a      	adds	r2, r3, #2
 8005646:	68fb      	ldr	r3, [r7, #12]
 8005648:	639a      	str	r2, [r3, #56]	@ 0x38
      hspi->TxXferCount--;
 800564a:	68fb      	ldr	r3, [r7, #12]
 800564c:	8fdb      	ldrh	r3, [r3, #62]	@ 0x3e
 800564e:	b29b      	uxth	r3, r3
 8005650:	3b01      	subs	r3, #1
 8005652:	b29a      	uxth	r2, r3
 8005654:	68fb      	ldr	r3, [r7, #12]
 8005656:	87da      	strh	r2, [r3, #62]	@ 0x3e
        SET_BIT(hspi->Instance->CR1, SPI_CR1_CRCNEXT);
      }
#endif /* USE_SPI_CRC */

    }
    while ((hspi->TxXferCount > 0U) || (hspi->RxXferCount > 0U))
 8005658:	e05a      	b.n	8005710 <HAL_SPI_TransmitReceive+0x244>
    {
      /* Check TXE flag */
      if ((__HAL_SPI_GET_FLAG(hspi, SPI_FLAG_TXE)) && (hspi->TxXferCount > 0U) && (txallowed == 1U))
 800565a:	68fb      	ldr	r3, [r7, #12]
 800565c:	681b      	ldr	r3, [r3, #0]
 800565e:	689b      	ldr	r3, [r3, #8]
 8005660:	2202      	movs	r2, #2
 8005662:	4013      	ands	r3, r2
 8005664:	2b02      	cmp	r3, #2
 8005666:	d11b      	bne.n	80056a0 <HAL_SPI_TransmitReceive+0x1d4>
 8005668:	68fb      	ldr	r3, [r7, #12]
 800566a:	8fdb      	ldrh	r3, [r3, #62]	@ 0x3e
 800566c:	b29b      	uxth	r3, r3
 800566e:	2b00      	cmp	r3, #0
 8005670:	d016      	beq.n	80056a0 <HAL_SPI_TransmitReceive+0x1d4>
 8005672:	6a7b      	ldr	r3, [r7, #36]	@ 0x24
 8005674:	2b01      	cmp	r3, #1
 8005676:	d113      	bne.n	80056a0 <HAL_SPI_TransmitReceive+0x1d4>
      {
        hspi->Instance->DR = *((uint16_t *)hspi->pTxBuffPtr);
 8005678:	68fb      	ldr	r3, [r7, #12]
 800567a:	6b9b      	ldr	r3, [r3, #56]	@ 0x38
 800567c:	881a      	ldrh	r2, [r3, #0]
 800567e:	68fb      	ldr	r3, [r7, #12]
 8005680:	681b      	ldr	r3, [r3, #0]
 8005682:	60da      	str	r2, [r3, #12]
        hspi->pTxBuffPtr += sizeof(uint16_t);
 8005684:	68fb      	ldr	r3, [r7, #12]
 8005686:	6b9b      	ldr	r3, [r3, #56]	@ 0x38
 8005688:	1c9a      	adds	r2, r3, #2
 800568a:	68fb      	ldr	r3, [r7, #12]
 800568c:	639a      	str	r2, [r3, #56]	@ 0x38
        hspi->TxXferCount--;
 800568e:	68fb      	ldr	r3, [r7, #12]
 8005690:	8fdb      	ldrh	r3, [r3, #62]	@ 0x3e
 8005692:	b29b      	uxth	r3, r3
 8005694:	3b01      	subs	r3, #1
 8005696:	b29a      	uxth	r2, r3
 8005698:	68fb      	ldr	r3, [r7, #12]
 800569a:	87da      	strh	r2, [r3, #62]	@ 0x3e
        /* Next Data is a reception (Rx). Tx not allowed */
        txallowed = 0U;
 800569c:	2300      	movs	r3, #0
 800569e:	627b      	str	r3, [r7, #36]	@ 0x24
        }
#endif /* USE_SPI_CRC */
      }

      /* Check RXNE flag */
      if ((__HAL_SPI_GET_FLAG(hspi, SPI_FLAG_RXNE)) && (hspi->RxXferCount > 0U))
 80056a0:	68fb      	ldr	r3, [r7, #12]
 80056a2:	681b      	ldr	r3, [r3, #0]
 80056a4:	689b      	ldr	r3, [r3, #8]
 80056a6:	2201      	movs	r2, #1
 80056a8:	4013      	ands	r3, r2
 80056aa:	2b01      	cmp	r3, #1
 80056ac:	d11c      	bne.n	80056e8 <HAL_SPI_TransmitReceive+0x21c>
 80056ae:	68fb      	ldr	r3, [r7, #12]
 80056b0:	2246      	movs	r2, #70	@ 0x46
 80056b2:	5a9b      	ldrh	r3, [r3, r2]
 80056b4:	b29b      	uxth	r3, r3
 80056b6:	2b00      	cmp	r3, #0
 80056b8:	d016      	beq.n	80056e8 <HAL_SPI_TransmitReceive+0x21c>
      {
        *((uint16_t *)hspi->pRxBuffPtr) = (uint16_t)hspi->Instance->DR;
 80056ba:	68fb      	ldr	r3, [r7, #12]
 80056bc:	681b      	ldr	r3, [r3, #0]
 80056be:	68da      	ldr	r2, [r3, #12]
 80056c0:	68fb      	ldr	r3, [r7, #12]
 80056c2:	6c1b      	ldr	r3, [r3, #64]	@ 0x40
 80056c4:	b292      	uxth	r2, r2
 80056c6:	801a      	strh	r2, [r3, #0]
        hspi->pRxBuffPtr += sizeof(uint16_t);
 80056c8:	68fb      	ldr	r3, [r7, #12]
 80056ca:	6c1b      	ldr	r3, [r3, #64]	@ 0x40
 80056cc:	1c9a      	adds	r2, r3, #2
 80056ce:	68fb      	ldr	r3, [r7, #12]
 80056d0:	641a      	str	r2, [r3, #64]	@ 0x40
        hspi->RxXferCount--;
 80056d2:	68fb      	ldr	r3, [r7, #12]
 80056d4:	2246      	movs	r2, #70	@ 0x46
 80056d6:	5a9b      	ldrh	r3, [r3, r2]
 80056d8:	b29b      	uxth	r3, r3
 80056da:	3b01      	subs	r3, #1
 80056dc:	b299      	uxth	r1, r3
 80056de:	68fb      	ldr	r3, [r7, #12]
 80056e0:	2246      	movs	r2, #70	@ 0x46
 80056e2:	5299      	strh	r1, [r3, r2]
        /* Next Data is a Transmission (Tx). Tx is allowed */
        txallowed = 1U;
 80056e4:	2301      	movs	r3, #1
 80056e6:	627b      	str	r3, [r7, #36]	@ 0x24
      }
      if (((HAL_GetTick() - tickstart) >=  Timeout) && (Timeout != HAL_MAX_DELAY))
 80056e8:	f7fe fdc6 	bl	8004278 <HAL_GetTick>
 80056ec:	0002      	movs	r2, r0
 80056ee:	69fb      	ldr	r3, [r7, #28]
 80056f0:	1ad3      	subs	r3, r2, r3
 80056f2:	6b3a      	ldr	r2, [r7, #48]	@ 0x30
 80056f4:	429a      	cmp	r2, r3
 80056f6:	d80b      	bhi.n	8005710 <HAL_SPI_TransmitReceive+0x244>
 80056f8:	6b3b      	ldr	r3, [r7, #48]	@ 0x30
 80056fa:	3301      	adds	r3, #1
 80056fc:	d008      	beq.n	8005710 <HAL_SPI_TransmitReceive+0x244>
      {
        errorcode = HAL_TIMEOUT;
 80056fe:	2323      	movs	r3, #35	@ 0x23
 8005700:	18fb      	adds	r3, r7, r3
 8005702:	2203      	movs	r2, #3
 8005704:	701a      	strb	r2, [r3, #0]
        hspi->State = HAL_SPI_STATE_READY;
 8005706:	68fb      	ldr	r3, [r7, #12]
 8005708:	225d      	movs	r2, #93	@ 0x5d
 800570a:	2101      	movs	r1, #1
 800570c:	5499      	strb	r1, [r3, r2]
        goto error;
 800570e:	e0b1      	b.n	8005874 <HAL_SPI_TransmitReceive+0x3a8>
    while ((hspi->TxXferCount > 0U) || (hspi->RxXferCount > 0U))
 8005710:	68fb      	ldr	r3, [r7, #12]
 8005712:	8fdb      	ldrh	r3, [r3, #62]	@ 0x3e
 8005714:	b29b      	uxth	r3, r3
 8005716:	2b00      	cmp	r3, #0
 8005718:	d19f      	bne.n	800565a <HAL_SPI_TransmitReceive+0x18e>
 800571a:	68fb      	ldr	r3, [r7, #12]
 800571c:	2246      	movs	r2, #70	@ 0x46
 800571e:	5a9b      	ldrh	r3, [r3, r2]
 8005720:	b29b      	uxth	r3, r3
 8005722:	2b00      	cmp	r3, #0
 8005724:	d199      	bne.n	800565a <HAL_SPI_TransmitReceive+0x18e>
 8005726:	e089      	b.n	800583c <HAL_SPI_TransmitReceive+0x370>
    }
  }
  /* Transmit and Receive data in 8 Bit mode */
  else
  {
    if ((hspi->Init.Mode == SPI_MODE_SLAVE) || (initial_TxXferCount == 0x01U))
 8005728:	68fb      	ldr	r3, [r7, #12]
 800572a:	685b      	ldr	r3, [r3, #4]
 800572c:	2b00      	cmp	r3, #0
 800572e:	d005      	beq.n	800573c <HAL_SPI_TransmitReceive+0x270>
 8005730:	2312      	movs	r3, #18
 8005732:	18fb      	adds	r3, r7, r3
 8005734:	881b      	ldrh	r3, [r3, #0]
 8005736:	2b01      	cmp	r3, #1
 8005738:	d000      	beq.n	800573c <HAL_SPI_TransmitReceive+0x270>
 800573a:	e074      	b.n	8005826 <HAL_SPI_TransmitReceive+0x35a>
    {
      *((__IO uint8_t *)&hspi->Instance->DR) = (*hspi->pTxBuffPtr);
 800573c:	68fb      	ldr	r3, [r7, #12]
 800573e:	6b9a      	ldr	r2, [r3, #56]	@ 0x38
 8005740:	68fb      	ldr	r3, [r7, #12]
 8005742:	681b      	ldr	r3, [r3, #0]
 8005744:	330c      	adds	r3, #12
 8005746:	7812      	ldrb	r2, [r2, #0]
 8005748:	701a      	strb	r2, [r3, #0]
      hspi->pTxBuffPtr += sizeof(uint8_t);
 800574a:	68fb      	ldr	r3, [r7, #12]
 800574c:	6b9b      	ldr	r3, [r3, #56]	@ 0x38
 800574e:	1c5a      	adds	r2, r3, #1
 8005750:	68fb      	ldr	r3, [r7, #12]
 8005752:	639a      	str	r2, [r3, #56]	@ 0x38
      hspi->TxXferCount--;
 8005754:	68fb      	ldr	r3, [r7, #12]
 8005756:	8fdb      	ldrh	r3, [r3, #62]	@ 0x3e
 8005758:	b29b      	uxth	r3, r3
 800575a:	3b01      	subs	r3, #1
 800575c:	b29a      	uxth	r2, r3
 800575e:	68fb      	ldr	r3, [r7, #12]
 8005760:	87da      	strh	r2, [r3, #62]	@ 0x3e
        }
        SET_BIT(hspi->Instance->CR1, SPI_CR1_CRCNEXT);
      }
#endif /* USE_SPI_CRC */
    }
    while ((hspi->TxXferCount > 0U) || (hspi->RxXferCount > 0U))
 8005762:	e060      	b.n	8005826 <HAL_SPI_TransmitReceive+0x35a>
    {
      /* Check TXE flag */
      if ((__HAL_SPI_GET_FLAG(hspi, SPI_FLAG_TXE)) && (hspi->TxXferCount > 0U) && (txallowed == 1U))
 8005764:	68fb      	ldr	r3, [r7, #12]
 8005766:	681b      	ldr	r3, [r3, #0]
 8005768:	689b      	ldr	r3, [r3, #8]
 800576a:	2202      	movs	r2, #2
 800576c:	4013      	ands	r3, r2
 800576e:	2b02      	cmp	r3, #2
 8005770:	d11c      	bne.n	80057ac <HAL_SPI_TransmitReceive+0x2e0>
 8005772:	68fb      	ldr	r3, [r7, #12]
 8005774:	8fdb      	ldrh	r3, [r3, #62]	@ 0x3e
 8005776:	b29b      	uxth	r3, r3
 8005778:	2b00      	cmp	r3, #0
 800577a:	d017      	beq.n	80057ac <HAL_SPI_TransmitReceive+0x2e0>
 800577c:	6a7b      	ldr	r3, [r7, #36]	@ 0x24
 800577e:	2b01      	cmp	r3, #1
 8005780:	d114      	bne.n	80057ac <HAL_SPI_TransmitReceive+0x2e0>
      {
        *(__IO uint8_t *)&hspi->Instance->DR = (*hspi->pTxBuffPtr);
 8005782:	68fb      	ldr	r3, [r7, #12]
 8005784:	6b9a      	ldr	r2, [r3, #56]	@ 0x38
 8005786:	68fb      	ldr	r3, [r7, #12]
 8005788:	681b      	ldr	r3, [r3, #0]
 800578a:	330c      	adds	r3, #12
 800578c:	7812      	ldrb	r2, [r2, #0]
 800578e:	701a      	strb	r2, [r3, #0]
        hspi->pTxBuffPtr++;
 8005790:	68fb      	ldr	r3, [r7, #12]
 8005792:	6b9b      	ldr	r3, [r3, #56]	@ 0x38
 8005794:	1c5a      	adds	r2, r3, #1
 8005796:	68fb      	ldr	r3, [r7, #12]
 8005798:	639a      	str	r2, [r3, #56]	@ 0x38
        hspi->TxXferCount--;
 800579a:	68fb      	ldr	r3, [r7, #12]
 800579c:	8fdb      	ldrh	r3, [r3, #62]	@ 0x3e
 800579e:	b29b      	uxth	r3, r3
 80057a0:	3b01      	subs	r3, #1
 80057a2:	b29a      	uxth	r2, r3
 80057a4:	68fb      	ldr	r3, [r7, #12]
 80057a6:	87da      	strh	r2, [r3, #62]	@ 0x3e
        /* Next Data is a reception (Rx). Tx not allowed */
        txallowed = 0U;
 80057a8:	2300      	movs	r3, #0
 80057aa:	627b      	str	r3, [r7, #36]	@ 0x24
        }
#endif /* USE_SPI_CRC */
      }

      /* Wait until RXNE flag is reset */
      if ((__HAL_SPI_GET_FLAG(hspi, SPI_FLAG_RXNE)) && (hspi->RxXferCount > 0U))
 80057ac:	68fb      	ldr	r3, [r7, #12]
 80057ae:	681b      	ldr	r3, [r3, #0]
 80057b0:	689b      	ldr	r3, [r3, #8]
 80057b2:	2201      	movs	r2, #1
 80057b4:	4013      	ands	r3, r2
 80057b6:	2b01      	cmp	r3, #1
 80057b8:	d11e      	bne.n	80057f8 <HAL_SPI_TransmitReceive+0x32c>
 80057ba:	68fb      	ldr	r3, [r7, #12]
 80057bc:	2246      	movs	r2, #70	@ 0x46
 80057be:	5a9b      	ldrh	r3, [r3, r2]
 80057c0:	b29b      	uxth	r3, r3
 80057c2:	2b00      	cmp	r3, #0
 80057c4:	d018      	beq.n	80057f8 <HAL_SPI_TransmitReceive+0x32c>
      {
        (*(uint8_t *)hspi->pRxBuffPtr) = *(__IO uint8_t *)&hspi->Instance->DR;
 80057c6:	68fb      	ldr	r3, [r7, #12]
 80057c8:	681b      	ldr	r3, [r3, #0]
 80057ca:	330c      	adds	r3, #12
 80057cc:	001a      	movs	r2, r3
 80057ce:	68fb      	ldr	r3, [r7, #12]
 80057d0:	6c1b      	ldr	r3, [r3, #64]	@ 0x40
 80057d2:	7812      	ldrb	r2, [r2, #0]
 80057d4:	b2d2      	uxtb	r2, r2
 80057d6:	701a      	strb	r2, [r3, #0]
        hspi->pRxBuffPtr++;
 80057d8:	68fb      	ldr	r3, [r7, #12]
 80057da:	6c1b      	ldr	r3, [r3, #64]	@ 0x40
 80057dc:	1c5a      	adds	r2, r3, #1
 80057de:	68fb      	ldr	r3, [r7, #12]
 80057e0:	641a      	str	r2, [r3, #64]	@ 0x40
        hspi->RxXferCount--;
 80057e2:	68fb      	ldr	r3, [r7, #12]
 80057e4:	2246      	movs	r2, #70	@ 0x46
 80057e6:	5a9b      	ldrh	r3, [r3, r2]
 80057e8:	b29b      	uxth	r3, r3
 80057ea:	3b01      	subs	r3, #1
 80057ec:	b299      	uxth	r1, r3
 80057ee:	68fb      	ldr	r3, [r7, #12]
 80057f0:	2246      	movs	r2, #70	@ 0x46
 80057f2:	5299      	strh	r1, [r3, r2]
        /* Next Data is a Transmission (Tx). Tx is allowed */
        txallowed = 1U;
 80057f4:	2301      	movs	r3, #1
 80057f6:	627b      	str	r3, [r7, #36]	@ 0x24
      }
      if ((((HAL_GetTick() - tickstart) >=  Timeout) && ((Timeout != HAL_MAX_DELAY))) || (Timeout == 0U))
 80057f8:	f7fe fd3e 	bl	8004278 <HAL_GetTick>
 80057fc:	0002      	movs	r2, r0
 80057fe:	69fb      	ldr	r3, [r7, #28]
 8005800:	1ad3      	subs	r3, r2, r3
 8005802:	6b3a      	ldr	r2, [r7, #48]	@ 0x30
 8005804:	429a      	cmp	r2, r3
 8005806:	d802      	bhi.n	800580e <HAL_SPI_TransmitReceive+0x342>
 8005808:	6b3b      	ldr	r3, [r7, #48]	@ 0x30
 800580a:	3301      	adds	r3, #1
 800580c:	d102      	bne.n	8005814 <HAL_SPI_TransmitReceive+0x348>
 800580e:	6b3b      	ldr	r3, [r7, #48]	@ 0x30
 8005810:	2b00      	cmp	r3, #0
 8005812:	d108      	bne.n	8005826 <HAL_SPI_TransmitReceive+0x35a>
      {
        errorcode = HAL_TIMEOUT;
 8005814:	2323      	movs	r3, #35	@ 0x23
 8005816:	18fb      	adds	r3, r7, r3
 8005818:	2203      	movs	r2, #3
 800581a:	701a      	strb	r2, [r3, #0]
        hspi->State = HAL_SPI_STATE_READY;
 800581c:	68fb      	ldr	r3, [r7, #12]
 800581e:	225d      	movs	r2, #93	@ 0x5d
 8005820:	2101      	movs	r1, #1
 8005822:	5499      	strb	r1, [r3, r2]
        goto error;
 8005824:	e026      	b.n	8005874 <HAL_SPI_TransmitReceive+0x3a8>
    while ((hspi->TxXferCount > 0U) || (hspi->RxXferCount > 0U))
 8005826:	68fb      	ldr	r3, [r7, #12]
 8005828:	8fdb      	ldrh	r3, [r3, #62]	@ 0x3e
 800582a:	b29b      	uxth	r3, r3
 800582c:	2b00      	cmp	r3, #0
 800582e:	d199      	bne.n	8005764 <HAL_SPI_TransmitReceive+0x298>
 8005830:	68fb      	ldr	r3, [r7, #12]
 8005832:	2246      	movs	r2, #70	@ 0x46
 8005834:	5a9b      	ldrh	r3, [r3, r2]
 8005836:	b29b      	uxth	r3, r3
 8005838:	2b00      	cmp	r3, #0
 800583a:	d193      	bne.n	8005764 <HAL_SPI_TransmitReceive+0x298>
    errorcode = HAL_ERROR;
  }
#endif /* USE_SPI_CRC */

  /* Check the end of the transaction */
  if (SPI_EndRxTxTransaction(hspi, Timeout, tickstart) != HAL_OK)
 800583c:	69fa      	ldr	r2, [r7, #28]
 800583e:	6b39      	ldr	r1, [r7, #48]	@ 0x30
 8005840:	68fb      	ldr	r3, [r7, #12]
 8005842:	0018      	movs	r0, r3
 8005844:	f000 f9b2 	bl	8005bac <SPI_EndRxTxTransaction>
 8005848:	1e03      	subs	r3, r0, #0
 800584a:	d006      	beq.n	800585a <HAL_SPI_TransmitReceive+0x38e>
  {
    errorcode = HAL_ERROR;
 800584c:	2323      	movs	r3, #35	@ 0x23
 800584e:	18fb      	adds	r3, r7, r3
 8005850:	2201      	movs	r2, #1
 8005852:	701a      	strb	r2, [r3, #0]
    hspi->ErrorCode = HAL_SPI_ERROR_FLAG;
 8005854:	68fb      	ldr	r3, [r7, #12]
 8005856:	2220      	movs	r2, #32
 8005858:	661a      	str	r2, [r3, #96]	@ 0x60
  }

  if (hspi->ErrorCode != HAL_SPI_ERROR_NONE)
 800585a:	68fb      	ldr	r3, [r7, #12]
 800585c:	6e1b      	ldr	r3, [r3, #96]	@ 0x60
 800585e:	2b00      	cmp	r3, #0
 8005860:	d004      	beq.n	800586c <HAL_SPI_TransmitReceive+0x3a0>
  {
    errorcode = HAL_ERROR;
 8005862:	2323      	movs	r3, #35	@ 0x23
 8005864:	18fb      	adds	r3, r7, r3
 8005866:	2201      	movs	r2, #1
 8005868:	701a      	strb	r2, [r3, #0]
 800586a:	e003      	b.n	8005874 <HAL_SPI_TransmitReceive+0x3a8>
  }
  else
  {
    hspi->State = HAL_SPI_STATE_READY;
 800586c:	68fb      	ldr	r3, [r7, #12]
 800586e:	225d      	movs	r2, #93	@ 0x5d
 8005870:	2101      	movs	r1, #1
 8005872:	5499      	strb	r1, [r3, r2]
  }
  
error :
  __HAL_UNLOCK(hspi);
 8005874:	68fb      	ldr	r3, [r7, #12]
 8005876:	225c      	movs	r2, #92	@ 0x5c
 8005878:	2100      	movs	r1, #0
 800587a:	5499      	strb	r1, [r3, r2]
  return errorcode;
 800587c:	2323      	movs	r3, #35	@ 0x23
 800587e:	18fb      	adds	r3, r7, r3
 8005880:	781b      	ldrb	r3, [r3, #0]
}
 8005882:	0018      	movs	r0, r3
 8005884:	46bd      	mov	sp, r7
 8005886:	b00a      	add	sp, #40	@ 0x28
 8005888:	bd80      	pop	{r7, pc}
 800588a:	46c0      	nop			@ (mov r8, r8)
 800588c:	ffffefff 	.word	0xffffefff

08005890 <SPI_WaitFlagStateUntilTimeout>:
  * @param  Tickstart tick start value
  * @retval HAL status
  */
static HAL_StatusTypeDef SPI_WaitFlagStateUntilTimeout(SPI_HandleTypeDef *hspi, uint32_t Flag, FlagStatus State,
                                                       uint32_t Timeout, uint32_t Tickstart)
{
 8005890:	b580      	push	{r7, lr}
 8005892:	b088      	sub	sp, #32
 8005894:	af00      	add	r7, sp, #0
 8005896:	60f8      	str	r0, [r7, #12]
 8005898:	60b9      	str	r1, [r7, #8]
 800589a:	603b      	str	r3, [r7, #0]
 800589c:	1dfb      	adds	r3, r7, #7
 800589e:	701a      	strb	r2, [r3, #0]
  __IO uint32_t count;
  uint32_t tmp_timeout;
  uint32_t tmp_tickstart;

  /* Adjust Timeout value  in case of end of transfer */
  tmp_timeout   = Timeout - (HAL_GetTick() - Tickstart);
 80058a0:	f7fe fcea 	bl	8004278 <HAL_GetTick>
 80058a4:	0002      	movs	r2, r0
 80058a6:	6abb      	ldr	r3, [r7, #40]	@ 0x28
 80058a8:	1a9b      	subs	r3, r3, r2
 80058aa:	683a      	ldr	r2, [r7, #0]
 80058ac:	18d3      	adds	r3, r2, r3
 80058ae:	61fb      	str	r3, [r7, #28]
  tmp_tickstart = HAL_GetTick();
 80058b0:	f7fe fce2 	bl	8004278 <HAL_GetTick>
 80058b4:	0003      	movs	r3, r0
 80058b6:	61bb      	str	r3, [r7, #24]

  /* Calculate Timeout based on a software loop to avoid blocking issue if Systick is disabled */
  count = tmp_timeout * ((SystemCoreClock * 32U) >> 20U);
 80058b8:	4b3a      	ldr	r3, [pc, #232]	@ (80059a4 <SPI_WaitFlagStateUntilTimeout+0x114>)
 80058ba:	681b      	ldr	r3, [r3, #0]
 80058bc:	015b      	lsls	r3, r3, #5
 80058be:	0d1b      	lsrs	r3, r3, #20
 80058c0:	69fa      	ldr	r2, [r7, #28]
 80058c2:	4353      	muls	r3, r2
 80058c4:	617b      	str	r3, [r7, #20]

  while ((__HAL_SPI_GET_FLAG(hspi, Flag) ? SET : RESET) != State)
 80058c6:	e058      	b.n	800597a <SPI_WaitFlagStateUntilTimeout+0xea>
  {
    if (Timeout != HAL_MAX_DELAY)
 80058c8:	683b      	ldr	r3, [r7, #0]
 80058ca:	3301      	adds	r3, #1
 80058cc:	d055      	beq.n	800597a <SPI_WaitFlagStateUntilTimeout+0xea>
    {
      if (((HAL_GetTick() - tmp_tickstart) >= tmp_timeout) || (tmp_timeout == 0U))
 80058ce:	f7fe fcd3 	bl	8004278 <HAL_GetTick>
 80058d2:	0002      	movs	r2, r0
 80058d4:	69bb      	ldr	r3, [r7, #24]
 80058d6:	1ad3      	subs	r3, r2, r3
 80058d8:	69fa      	ldr	r2, [r7, #28]
 80058da:	429a      	cmp	r2, r3
 80058dc:	d902      	bls.n	80058e4 <SPI_WaitFlagStateUntilTimeout+0x54>
 80058de:	69fb      	ldr	r3, [r7, #28]
 80058e0:	2b00      	cmp	r3, #0
 80058e2:	d142      	bne.n	800596a <SPI_WaitFlagStateUntilTimeout+0xda>
        /* Disable the SPI and reset the CRC: the CRC value should be cleared
           on both master and slave sides in order to resynchronize the master
           and slave for their respective CRC calculation */

        /* Disable TXE, RXNE and ERR interrupts for the interrupt process */
        __HAL_SPI_DISABLE_IT(hspi, (SPI_IT_TXE | SPI_IT_RXNE | SPI_IT_ERR));
 80058e4:	68fb      	ldr	r3, [r7, #12]
 80058e6:	681b      	ldr	r3, [r3, #0]
 80058e8:	685a      	ldr	r2, [r3, #4]
 80058ea:	68fb      	ldr	r3, [r7, #12]
 80058ec:	681b      	ldr	r3, [r3, #0]
 80058ee:	21e0      	movs	r1, #224	@ 0xe0
 80058f0:	438a      	bics	r2, r1
 80058f2:	605a      	str	r2, [r3, #4]

        if ((hspi->Init.Mode == SPI_MODE_MASTER) && ((hspi->Init.Direction == SPI_DIRECTION_1LINE)
 80058f4:	68fb      	ldr	r3, [r7, #12]
 80058f6:	685a      	ldr	r2, [r3, #4]
 80058f8:	2382      	movs	r3, #130	@ 0x82
 80058fa:	005b      	lsls	r3, r3, #1
 80058fc:	429a      	cmp	r2, r3
 80058fe:	d113      	bne.n	8005928 <SPI_WaitFlagStateUntilTimeout+0x98>
 8005900:	68fb      	ldr	r3, [r7, #12]
 8005902:	689a      	ldr	r2, [r3, #8]
 8005904:	2380      	movs	r3, #128	@ 0x80
 8005906:	021b      	lsls	r3, r3, #8
 8005908:	429a      	cmp	r2, r3
 800590a:	d005      	beq.n	8005918 <SPI_WaitFlagStateUntilTimeout+0x88>
                                                     || (hspi->Init.Direction == SPI_DIRECTION_2LINES_RXONLY)))
 800590c:	68fb      	ldr	r3, [r7, #12]
 800590e:	689a      	ldr	r2, [r3, #8]
 8005910:	2380      	movs	r3, #128	@ 0x80
 8005912:	00db      	lsls	r3, r3, #3
 8005914:	429a      	cmp	r2, r3
 8005916:	d107      	bne.n	8005928 <SPI_WaitFlagStateUntilTimeout+0x98>
        {
          /* Disable SPI peripheral */
          __HAL_SPI_DISABLE(hspi);
 8005918:	68fb      	ldr	r3, [r7, #12]
 800591a:	681b      	ldr	r3, [r3, #0]
 800591c:	681a      	ldr	r2, [r3, #0]
 800591e:	68fb      	ldr	r3, [r7, #12]
 8005920:	681b      	ldr	r3, [r3, #0]
 8005922:	2140      	movs	r1, #64	@ 0x40
 8005924:	438a      	bics	r2, r1
 8005926:	601a      	str	r2, [r3, #0]
        }

        /* Reset CRC Calculation */
        if (hspi->Init.CRCCalculation == SPI_CRCCALCULATION_ENABLE)
 8005928:	68fb      	ldr	r3, [r7, #12]
 800592a:	6a9a      	ldr	r2, [r3, #40]	@ 0x28
 800592c:	2380      	movs	r3, #128	@ 0x80
 800592e:	019b      	lsls	r3, r3, #6
 8005930:	429a      	cmp	r2, r3
 8005932:	d110      	bne.n	8005956 <SPI_WaitFlagStateUntilTimeout+0xc6>
        {
          SPI_RESET_CRC(hspi);
 8005934:	68fb      	ldr	r3, [r7, #12]
 8005936:	681b      	ldr	r3, [r3, #0]
 8005938:	681a      	ldr	r2, [r3, #0]
 800593a:	68fb      	ldr	r3, [r7, #12]
 800593c:	681b      	ldr	r3, [r3, #0]
 800593e:	491a      	ldr	r1, [pc, #104]	@ (80059a8 <SPI_WaitFlagStateUntilTimeout+0x118>)
 8005940:	400a      	ands	r2, r1
 8005942:	601a      	str	r2, [r3, #0]
 8005944:	68fb      	ldr	r3, [r7, #12]
 8005946:	681b      	ldr	r3, [r3, #0]
 8005948:	681a      	ldr	r2, [r3, #0]
 800594a:	68fb      	ldr	r3, [r7, #12]
 800594c:	681b      	ldr	r3, [r3, #0]
 800594e:	2180      	movs	r1, #128	@ 0x80
 8005950:	0189      	lsls	r1, r1, #6
 8005952:	430a      	orrs	r2, r1
 8005954:	601a      	str	r2, [r3, #0]
        }

        hspi->State = HAL_SPI_STATE_READY;
 8005956:	68fb      	ldr	r3, [r7, #12]
 8005958:	225d      	movs	r2, #93	@ 0x5d
 800595a:	2101      	movs	r1, #1
 800595c:	5499      	strb	r1, [r3, r2]

        /* Process Unlocked */
        __HAL_UNLOCK(hspi);
 800595e:	68fb      	ldr	r3, [r7, #12]
 8005960:	225c      	movs	r2, #92	@ 0x5c
 8005962:	2100      	movs	r1, #0
 8005964:	5499      	strb	r1, [r3, r2]

        return HAL_TIMEOUT;
 8005966:	2303      	movs	r3, #3
 8005968:	e017      	b.n	800599a <SPI_WaitFlagStateUntilTimeout+0x10a>
      }
      /* If Systick is disabled or not incremented, deactivate timeout to go in disable loop procedure */
      if (count == 0U)
 800596a:	697b      	ldr	r3, [r7, #20]
 800596c:	2b00      	cmp	r3, #0
 800596e:	d101      	bne.n	8005974 <SPI_WaitFlagStateUntilTimeout+0xe4>
      {
        tmp_timeout = 0U;
 8005970:	2300      	movs	r3, #0
 8005972:	61fb      	str	r3, [r7, #28]
      }
      count--;
 8005974:	697b      	ldr	r3, [r7, #20]
 8005976:	3b01      	subs	r3, #1
 8005978:	617b      	str	r3, [r7, #20]
  while ((__HAL_SPI_GET_FLAG(hspi, Flag) ? SET : RESET) != State)
 800597a:	68fb      	ldr	r3, [r7, #12]
 800597c:	681b      	ldr	r3, [r3, #0]
 800597e:	689b      	ldr	r3, [r3, #8]
 8005980:	68ba      	ldr	r2, [r7, #8]
 8005982:	4013      	ands	r3, r2
 8005984:	68ba      	ldr	r2, [r7, #8]
 8005986:	1ad3      	subs	r3, r2, r3
 8005988:	425a      	negs	r2, r3
 800598a:	4153      	adcs	r3, r2
 800598c:	b2db      	uxtb	r3, r3
 800598e:	001a      	movs	r2, r3
 8005990:	1dfb      	adds	r3, r7, #7
 8005992:	781b      	ldrb	r3, [r3, #0]
 8005994:	429a      	cmp	r2, r3
 8005996:	d197      	bne.n	80058c8 <SPI_WaitFlagStateUntilTimeout+0x38>
    }
  }

  return HAL_OK;
 8005998:	2300      	movs	r3, #0
}
 800599a:	0018      	movs	r0, r3
 800599c:	46bd      	mov	sp, r7
 800599e:	b008      	add	sp, #32
 80059a0:	bd80      	pop	{r7, pc}
 80059a2:	46c0      	nop			@ (mov r8, r8)
 80059a4:	20000004 	.word	0x20000004
 80059a8:	ffffdfff 	.word	0xffffdfff

080059ac <SPI_WaitFifoStateUntilTimeout>:
  * @param  Tickstart tick start value
  * @retval HAL status
  */
static HAL_StatusTypeDef SPI_WaitFifoStateUntilTimeout(SPI_HandleTypeDef *hspi, uint32_t Fifo, uint32_t State,
                                                       uint32_t Timeout, uint32_t Tickstart)
{
 80059ac:	b580      	push	{r7, lr}
 80059ae:	b08a      	sub	sp, #40	@ 0x28
 80059b0:	af00      	add	r7, sp, #0
 80059b2:	60f8      	str	r0, [r7, #12]
 80059b4:	60b9      	str	r1, [r7, #8]
 80059b6:	607a      	str	r2, [r7, #4]
 80059b8:	603b      	str	r3, [r7, #0]
  __IO uint32_t count;
  uint32_t tmp_timeout;
  uint32_t tmp_tickstart;
  __IO uint8_t  *ptmpreg8;
  __IO uint8_t  tmpreg8 = 0;
 80059ba:	2317      	movs	r3, #23
 80059bc:	18fb      	adds	r3, r7, r3
 80059be:	2200      	movs	r2, #0
 80059c0:	701a      	strb	r2, [r3, #0]

  /* Adjust Timeout value  in case of end of transfer */
  tmp_timeout = Timeout - (HAL_GetTick() - Tickstart);
 80059c2:	f7fe fc59 	bl	8004278 <HAL_GetTick>
 80059c6:	0002      	movs	r2, r0
 80059c8:	6b3b      	ldr	r3, [r7, #48]	@ 0x30
 80059ca:	1a9b      	subs	r3, r3, r2
 80059cc:	683a      	ldr	r2, [r7, #0]
 80059ce:	18d3      	adds	r3, r2, r3
 80059d0:	627b      	str	r3, [r7, #36]	@ 0x24
  tmp_tickstart = HAL_GetTick();
 80059d2:	f7fe fc51 	bl	8004278 <HAL_GetTick>
 80059d6:	0003      	movs	r3, r0
 80059d8:	623b      	str	r3, [r7, #32]

  /* Initialize the 8bit temporary pointer */
  ptmpreg8 = (__IO uint8_t *)&hspi->Instance->DR;
 80059da:	68fb      	ldr	r3, [r7, #12]
 80059dc:	681b      	ldr	r3, [r3, #0]
 80059de:	330c      	adds	r3, #12
 80059e0:	61fb      	str	r3, [r7, #28]

  /* Calculate Timeout based on a software loop to avoid blocking issue if Systick is disabled */
  count = tmp_timeout * ((SystemCoreClock * 35U) >> 20U);
 80059e2:	4b41      	ldr	r3, [pc, #260]	@ (8005ae8 <SPI_WaitFifoStateUntilTimeout+0x13c>)
 80059e4:	681a      	ldr	r2, [r3, #0]
 80059e6:	0013      	movs	r3, r2
 80059e8:	009b      	lsls	r3, r3, #2
 80059ea:	189b      	adds	r3, r3, r2
 80059ec:	00da      	lsls	r2, r3, #3
 80059ee:	1ad3      	subs	r3, r2, r3
 80059f0:	0d1b      	lsrs	r3, r3, #20
 80059f2:	6a7a      	ldr	r2, [r7, #36]	@ 0x24
 80059f4:	4353      	muls	r3, r2
 80059f6:	61bb      	str	r3, [r7, #24]

  while ((hspi->Instance->SR & Fifo) != State)
 80059f8:	e068      	b.n	8005acc <SPI_WaitFifoStateUntilTimeout+0x120>
  {
    if ((Fifo == SPI_SR_FRLVL) && (State == SPI_FRLVL_EMPTY))
 80059fa:	68ba      	ldr	r2, [r7, #8]
 80059fc:	23c0      	movs	r3, #192	@ 0xc0
 80059fe:	00db      	lsls	r3, r3, #3
 8005a00:	429a      	cmp	r2, r3
 8005a02:	d10a      	bne.n	8005a1a <SPI_WaitFifoStateUntilTimeout+0x6e>
 8005a04:	687b      	ldr	r3, [r7, #4]
 8005a06:	2b00      	cmp	r3, #0
 8005a08:	d107      	bne.n	8005a1a <SPI_WaitFifoStateUntilTimeout+0x6e>
    {
      /* Flush Data Register by a blank read */
      tmpreg8 = *ptmpreg8;
 8005a0a:	69fb      	ldr	r3, [r7, #28]
 8005a0c:	781b      	ldrb	r3, [r3, #0]
 8005a0e:	b2da      	uxtb	r2, r3
 8005a10:	2117      	movs	r1, #23
 8005a12:	187b      	adds	r3, r7, r1
 8005a14:	701a      	strb	r2, [r3, #0]
      /* To avoid GCC warning */
      UNUSED(tmpreg8);
 8005a16:	187b      	adds	r3, r7, r1
 8005a18:	781b      	ldrb	r3, [r3, #0]
    }

    if (Timeout != HAL_MAX_DELAY)
 8005a1a:	683b      	ldr	r3, [r7, #0]
 8005a1c:	3301      	adds	r3, #1
 8005a1e:	d055      	beq.n	8005acc <SPI_WaitFifoStateUntilTimeout+0x120>
    {
      if (((HAL_GetTick() - tmp_tickstart) >= tmp_timeout) || (tmp_timeout == 0U))
 8005a20:	f7fe fc2a 	bl	8004278 <HAL_GetTick>
 8005a24:	0002      	movs	r2, r0
 8005a26:	6a3b      	ldr	r3, [r7, #32]
 8005a28:	1ad3      	subs	r3, r2, r3
 8005a2a:	6a7a      	ldr	r2, [r7, #36]	@ 0x24
 8005a2c:	429a      	cmp	r2, r3
 8005a2e:	d902      	bls.n	8005a36 <SPI_WaitFifoStateUntilTimeout+0x8a>
 8005a30:	6a7b      	ldr	r3, [r7, #36]	@ 0x24
 8005a32:	2b00      	cmp	r3, #0
 8005a34:	d142      	bne.n	8005abc <SPI_WaitFifoStateUntilTimeout+0x110>
        /* Disable the SPI and reset the CRC: the CRC value should be cleared
           on both master and slave sides in order to resynchronize the master
           and slave for their respective CRC calculation */

        /* Disable TXE, RXNE and ERR interrupts for the interrupt process */
        __HAL_SPI_DISABLE_IT(hspi, (SPI_IT_TXE | SPI_IT_RXNE | SPI_IT_ERR));
 8005a36:	68fb      	ldr	r3, [r7, #12]
 8005a38:	681b      	ldr	r3, [r3, #0]
 8005a3a:	685a      	ldr	r2, [r3, #4]
 8005a3c:	68fb      	ldr	r3, [r7, #12]
 8005a3e:	681b      	ldr	r3, [r3, #0]
 8005a40:	21e0      	movs	r1, #224	@ 0xe0
 8005a42:	438a      	bics	r2, r1
 8005a44:	605a      	str	r2, [r3, #4]

        if ((hspi->Init.Mode == SPI_MODE_MASTER) && ((hspi->Init.Direction == SPI_DIRECTION_1LINE)
 8005a46:	68fb      	ldr	r3, [r7, #12]
 8005a48:	685a      	ldr	r2, [r3, #4]
 8005a4a:	2382      	movs	r3, #130	@ 0x82
 8005a4c:	005b      	lsls	r3, r3, #1
 8005a4e:	429a      	cmp	r2, r3
 8005a50:	d113      	bne.n	8005a7a <SPI_WaitFifoStateUntilTimeout+0xce>
 8005a52:	68fb      	ldr	r3, [r7, #12]
 8005a54:	689a      	ldr	r2, [r3, #8]
 8005a56:	2380      	movs	r3, #128	@ 0x80
 8005a58:	021b      	lsls	r3, r3, #8
 8005a5a:	429a      	cmp	r2, r3
 8005a5c:	d005      	beq.n	8005a6a <SPI_WaitFifoStateUntilTimeout+0xbe>
                                                     || (hspi->Init.Direction == SPI_DIRECTION_2LINES_RXONLY)))
 8005a5e:	68fb      	ldr	r3, [r7, #12]
 8005a60:	689a      	ldr	r2, [r3, #8]
 8005a62:	2380      	movs	r3, #128	@ 0x80
 8005a64:	00db      	lsls	r3, r3, #3
 8005a66:	429a      	cmp	r2, r3
 8005a68:	d107      	bne.n	8005a7a <SPI_WaitFifoStateUntilTimeout+0xce>
        {
          /* Disable SPI peripheral */
          __HAL_SPI_DISABLE(hspi);
 8005a6a:	68fb      	ldr	r3, [r7, #12]
 8005a6c:	681b      	ldr	r3, [r3, #0]
 8005a6e:	681a      	ldr	r2, [r3, #0]
 8005a70:	68fb      	ldr	r3, [r7, #12]
 8005a72:	681b      	ldr	r3, [r3, #0]
 8005a74:	2140      	movs	r1, #64	@ 0x40
 8005a76:	438a      	bics	r2, r1
 8005a78:	601a      	str	r2, [r3, #0]
        }

        /* Reset CRC Calculation */
        if (hspi->Init.CRCCalculation == SPI_CRCCALCULATION_ENABLE)
 8005a7a:	68fb      	ldr	r3, [r7, #12]
 8005a7c:	6a9a      	ldr	r2, [r3, #40]	@ 0x28
 8005a7e:	2380      	movs	r3, #128	@ 0x80
 8005a80:	019b      	lsls	r3, r3, #6
 8005a82:	429a      	cmp	r2, r3
 8005a84:	d110      	bne.n	8005aa8 <SPI_WaitFifoStateUntilTimeout+0xfc>
        {
          SPI_RESET_CRC(hspi);
 8005a86:	68fb      	ldr	r3, [r7, #12]
 8005a88:	681b      	ldr	r3, [r3, #0]
 8005a8a:	681a      	ldr	r2, [r3, #0]
 8005a8c:	68fb      	ldr	r3, [r7, #12]
 8005a8e:	681b      	ldr	r3, [r3, #0]
 8005a90:	4916      	ldr	r1, [pc, #88]	@ (8005aec <SPI_WaitFifoStateUntilTimeout+0x140>)
 8005a92:	400a      	ands	r2, r1
 8005a94:	601a      	str	r2, [r3, #0]
 8005a96:	68fb      	ldr	r3, [r7, #12]
 8005a98:	681b      	ldr	r3, [r3, #0]
 8005a9a:	681a      	ldr	r2, [r3, #0]
 8005a9c:	68fb      	ldr	r3, [r7, #12]
 8005a9e:	681b      	ldr	r3, [r3, #0]
 8005aa0:	2180      	movs	r1, #128	@ 0x80
 8005aa2:	0189      	lsls	r1, r1, #6
 8005aa4:	430a      	orrs	r2, r1
 8005aa6:	601a      	str	r2, [r3, #0]
        }

        hspi->State = HAL_SPI_STATE_READY;
 8005aa8:	68fb      	ldr	r3, [r7, #12]
 8005aaa:	225d      	movs	r2, #93	@ 0x5d
 8005aac:	2101      	movs	r1, #1
 8005aae:	5499      	strb	r1, [r3, r2]

        /* Process Unlocked */
        __HAL_UNLOCK(hspi);
 8005ab0:	68fb      	ldr	r3, [r7, #12]
 8005ab2:	225c      	movs	r2, #92	@ 0x5c
 8005ab4:	2100      	movs	r1, #0
 8005ab6:	5499      	strb	r1, [r3, r2]

        return HAL_TIMEOUT;
 8005ab8:	2303      	movs	r3, #3
 8005aba:	e010      	b.n	8005ade <SPI_WaitFifoStateUntilTimeout+0x132>
      }
      /* If Systick is disabled or not incremented, deactivate timeout to go in disable loop procedure */
      if (count == 0U)
 8005abc:	69bb      	ldr	r3, [r7, #24]
 8005abe:	2b00      	cmp	r3, #0
 8005ac0:	d101      	bne.n	8005ac6 <SPI_WaitFifoStateUntilTimeout+0x11a>
      {
        tmp_timeout = 0U;
 8005ac2:	2300      	movs	r3, #0
 8005ac4:	627b      	str	r3, [r7, #36]	@ 0x24
      }
      count--;
 8005ac6:	69bb      	ldr	r3, [r7, #24]
 8005ac8:	3b01      	subs	r3, #1
 8005aca:	61bb      	str	r3, [r7, #24]
  while ((hspi->Instance->SR & Fifo) != State)
 8005acc:	68fb      	ldr	r3, [r7, #12]
 8005ace:	681b      	ldr	r3, [r3, #0]
 8005ad0:	689b      	ldr	r3, [r3, #8]
 8005ad2:	68ba      	ldr	r2, [r7, #8]
 8005ad4:	4013      	ands	r3, r2
 8005ad6:	687a      	ldr	r2, [r7, #4]
 8005ad8:	429a      	cmp	r2, r3
 8005ada:	d18e      	bne.n	80059fa <SPI_WaitFifoStateUntilTimeout+0x4e>
    }
  }

  return HAL_OK;
 8005adc:	2300      	movs	r3, #0
}
 8005ade:	0018      	movs	r0, r3
 8005ae0:	46bd      	mov	sp, r7
 8005ae2:	b00a      	add	sp, #40	@ 0x28
 8005ae4:	bd80      	pop	{r7, pc}
 8005ae6:	46c0      	nop			@ (mov r8, r8)
 8005ae8:	20000004 	.word	0x20000004
 8005aec:	ffffdfff 	.word	0xffffdfff

08005af0 <SPI_EndRxTransaction>:
  * @param  Timeout Timeout duration
  * @param  Tickstart tick start value
  * @retval HAL status
  */
static HAL_StatusTypeDef SPI_EndRxTransaction(SPI_HandleTypeDef *hspi,  uint32_t Timeout, uint32_t Tickstart)
{
 8005af0:	b580      	push	{r7, lr}
 8005af2:	b086      	sub	sp, #24
 8005af4:	af02      	add	r7, sp, #8
 8005af6:	60f8      	str	r0, [r7, #12]
 8005af8:	60b9      	str	r1, [r7, #8]
 8005afa:	607a      	str	r2, [r7, #4]
  if ((hspi->Init.Mode == SPI_MODE_MASTER) && ((hspi->Init.Direction == SPI_DIRECTION_1LINE)
 8005afc:	68fb      	ldr	r3, [r7, #12]
 8005afe:	685a      	ldr	r2, [r3, #4]
 8005b00:	2382      	movs	r3, #130	@ 0x82
 8005b02:	005b      	lsls	r3, r3, #1
 8005b04:	429a      	cmp	r2, r3
 8005b06:	d113      	bne.n	8005b30 <SPI_EndRxTransaction+0x40>
 8005b08:	68fb      	ldr	r3, [r7, #12]
 8005b0a:	689a      	ldr	r2, [r3, #8]
 8005b0c:	2380      	movs	r3, #128	@ 0x80
 8005b0e:	021b      	lsls	r3, r3, #8
 8005b10:	429a      	cmp	r2, r3
 8005b12:	d005      	beq.n	8005b20 <SPI_EndRxTransaction+0x30>
                                               || (hspi->Init.Direction == SPI_DIRECTION_2LINES_RXONLY)))
 8005b14:	68fb      	ldr	r3, [r7, #12]
 8005b16:	689a      	ldr	r2, [r3, #8]
 8005b18:	2380      	movs	r3, #128	@ 0x80
 8005b1a:	00db      	lsls	r3, r3, #3
 8005b1c:	429a      	cmp	r2, r3
 8005b1e:	d107      	bne.n	8005b30 <SPI_EndRxTransaction+0x40>
  {
    /* Disable SPI peripheral */
    __HAL_SPI_DISABLE(hspi);
 8005b20:	68fb      	ldr	r3, [r7, #12]
 8005b22:	681b      	ldr	r3, [r3, #0]
 8005b24:	681a      	ldr	r2, [r3, #0]
 8005b26:	68fb      	ldr	r3, [r7, #12]
 8005b28:	681b      	ldr	r3, [r3, #0]
 8005b2a:	2140      	movs	r1, #64	@ 0x40
 8005b2c:	438a      	bics	r2, r1
 8005b2e:	601a      	str	r2, [r3, #0]
  }

  /* Control the BSY flag */
  if (SPI_WaitFlagStateUntilTimeout(hspi, SPI_FLAG_BSY, RESET, Timeout, Tickstart) != HAL_OK)
 8005b30:	68ba      	ldr	r2, [r7, #8]
 8005b32:	68f8      	ldr	r0, [r7, #12]
 8005b34:	687b      	ldr	r3, [r7, #4]
 8005b36:	9300      	str	r3, [sp, #0]
 8005b38:	0013      	movs	r3, r2
 8005b3a:	2200      	movs	r2, #0
 8005b3c:	2180      	movs	r1, #128	@ 0x80
 8005b3e:	f7ff fea7 	bl	8005890 <SPI_WaitFlagStateUntilTimeout>
 8005b42:	1e03      	subs	r3, r0, #0
 8005b44:	d007      	beq.n	8005b56 <SPI_EndRxTransaction+0x66>
  {
    SET_BIT(hspi->ErrorCode, HAL_SPI_ERROR_FLAG);
 8005b46:	68fb      	ldr	r3, [r7, #12]
 8005b48:	6e1b      	ldr	r3, [r3, #96]	@ 0x60
 8005b4a:	2220      	movs	r2, #32
 8005b4c:	431a      	orrs	r2, r3
 8005b4e:	68fb      	ldr	r3, [r7, #12]
 8005b50:	661a      	str	r2, [r3, #96]	@ 0x60
    return HAL_TIMEOUT;
 8005b52:	2303      	movs	r3, #3
 8005b54:	e026      	b.n	8005ba4 <SPI_EndRxTransaction+0xb4>
  }

  if ((hspi->Init.Mode == SPI_MODE_MASTER) && ((hspi->Init.Direction == SPI_DIRECTION_1LINE)
 8005b56:	68fb      	ldr	r3, [r7, #12]
 8005b58:	685a      	ldr	r2, [r3, #4]
 8005b5a:	2382      	movs	r3, #130	@ 0x82
 8005b5c:	005b      	lsls	r3, r3, #1
 8005b5e:	429a      	cmp	r2, r3
 8005b60:	d11f      	bne.n	8005ba2 <SPI_EndRxTransaction+0xb2>
 8005b62:	68fb      	ldr	r3, [r7, #12]
 8005b64:	689a      	ldr	r2, [r3, #8]
 8005b66:	2380      	movs	r3, #128	@ 0x80
 8005b68:	021b      	lsls	r3, r3, #8
 8005b6a:	429a      	cmp	r2, r3
 8005b6c:	d005      	beq.n	8005b7a <SPI_EndRxTransaction+0x8a>
                                               || (hspi->Init.Direction == SPI_DIRECTION_2LINES_RXONLY)))
 8005b6e:	68fb      	ldr	r3, [r7, #12]
 8005b70:	689a      	ldr	r2, [r3, #8]
 8005b72:	2380      	movs	r3, #128	@ 0x80
 8005b74:	00db      	lsls	r3, r3, #3
 8005b76:	429a      	cmp	r2, r3
 8005b78:	d113      	bne.n	8005ba2 <SPI_EndRxTransaction+0xb2>
  {
    /* Empty the FRLVL fifo */
    if (SPI_WaitFifoStateUntilTimeout(hspi, SPI_FLAG_FRLVL, SPI_FRLVL_EMPTY, Timeout, Tickstart) != HAL_OK)
 8005b7a:	68ba      	ldr	r2, [r7, #8]
 8005b7c:	23c0      	movs	r3, #192	@ 0xc0
 8005b7e:	00d9      	lsls	r1, r3, #3
 8005b80:	68f8      	ldr	r0, [r7, #12]
 8005b82:	687b      	ldr	r3, [r7, #4]
 8005b84:	9300      	str	r3, [sp, #0]
 8005b86:	0013      	movs	r3, r2
 8005b88:	2200      	movs	r2, #0
 8005b8a:	f7ff ff0f 	bl	80059ac <SPI_WaitFifoStateUntilTimeout>
 8005b8e:	1e03      	subs	r3, r0, #0
 8005b90:	d007      	beq.n	8005ba2 <SPI_EndRxTransaction+0xb2>
    {
      SET_BIT(hspi->ErrorCode, HAL_SPI_ERROR_FLAG);
 8005b92:	68fb      	ldr	r3, [r7, #12]
 8005b94:	6e1b      	ldr	r3, [r3, #96]	@ 0x60
 8005b96:	2220      	movs	r2, #32
 8005b98:	431a      	orrs	r2, r3
 8005b9a:	68fb      	ldr	r3, [r7, #12]
 8005b9c:	661a      	str	r2, [r3, #96]	@ 0x60
      return HAL_TIMEOUT;
 8005b9e:	2303      	movs	r3, #3
 8005ba0:	e000      	b.n	8005ba4 <SPI_EndRxTransaction+0xb4>
    }
  }
  return HAL_OK;
 8005ba2:	2300      	movs	r3, #0
}
 8005ba4:	0018      	movs	r0, r3
 8005ba6:	46bd      	mov	sp, r7
 8005ba8:	b004      	add	sp, #16
 8005baa:	bd80      	pop	{r7, pc}

08005bac <SPI_EndRxTxTransaction>:
  * @param  Timeout Timeout duration
  * @param  Tickstart tick start value
  * @retval HAL status
  */
static HAL_StatusTypeDef SPI_EndRxTxTransaction(SPI_HandleTypeDef *hspi, uint32_t Timeout, uint32_t Tickstart)
{
 8005bac:	b580      	push	{r7, lr}
 8005bae:	b086      	sub	sp, #24
 8005bb0:	af02      	add	r7, sp, #8
 8005bb2:	60f8      	str	r0, [r7, #12]
 8005bb4:	60b9      	str	r1, [r7, #8]
 8005bb6:	607a      	str	r2, [r7, #4]
  /* Control if the TX fifo is empty */
  if (SPI_WaitFifoStateUntilTimeout(hspi, SPI_FLAG_FTLVL, SPI_FTLVL_EMPTY, Timeout, Tickstart) != HAL_OK)
 8005bb8:	68ba      	ldr	r2, [r7, #8]
 8005bba:	23c0      	movs	r3, #192	@ 0xc0
 8005bbc:	0159      	lsls	r1, r3, #5
 8005bbe:	68f8      	ldr	r0, [r7, #12]
 8005bc0:	687b      	ldr	r3, [r7, #4]
 8005bc2:	9300      	str	r3, [sp, #0]
 8005bc4:	0013      	movs	r3, r2
 8005bc6:	2200      	movs	r2, #0
 8005bc8:	f7ff fef0 	bl	80059ac <SPI_WaitFifoStateUntilTimeout>
 8005bcc:	1e03      	subs	r3, r0, #0
 8005bce:	d007      	beq.n	8005be0 <SPI_EndRxTxTransaction+0x34>
  {
    SET_BIT(hspi->ErrorCode, HAL_SPI_ERROR_FLAG);
 8005bd0:	68fb      	ldr	r3, [r7, #12]
 8005bd2:	6e1b      	ldr	r3, [r3, #96]	@ 0x60
 8005bd4:	2220      	movs	r2, #32
 8005bd6:	431a      	orrs	r2, r3
 8005bd8:	68fb      	ldr	r3, [r7, #12]
 8005bda:	661a      	str	r2, [r3, #96]	@ 0x60
    return HAL_TIMEOUT;
 8005bdc:	2303      	movs	r3, #3
 8005bde:	e027      	b.n	8005c30 <SPI_EndRxTxTransaction+0x84>
  }

  /* Control the BSY flag */
  if (SPI_WaitFlagStateUntilTimeout(hspi, SPI_FLAG_BSY, RESET, Timeout, Tickstart) != HAL_OK)
 8005be0:	68ba      	ldr	r2, [r7, #8]
 8005be2:	68f8      	ldr	r0, [r7, #12]
 8005be4:	687b      	ldr	r3, [r7, #4]
 8005be6:	9300      	str	r3, [sp, #0]
 8005be8:	0013      	movs	r3, r2
 8005bea:	2200      	movs	r2, #0
 8005bec:	2180      	movs	r1, #128	@ 0x80
 8005bee:	f7ff fe4f 	bl	8005890 <SPI_WaitFlagStateUntilTimeout>
 8005bf2:	1e03      	subs	r3, r0, #0
 8005bf4:	d007      	beq.n	8005c06 <SPI_EndRxTxTransaction+0x5a>
  {
    SET_BIT(hspi->ErrorCode, HAL_SPI_ERROR_FLAG);
 8005bf6:	68fb      	ldr	r3, [r7, #12]
 8005bf8:	6e1b      	ldr	r3, [r3, #96]	@ 0x60
 8005bfa:	2220      	movs	r2, #32
 8005bfc:	431a      	orrs	r2, r3
 8005bfe:	68fb      	ldr	r3, [r7, #12]
 8005c00:	661a      	str	r2, [r3, #96]	@ 0x60
    return HAL_TIMEOUT;
 8005c02:	2303      	movs	r3, #3
 8005c04:	e014      	b.n	8005c30 <SPI_EndRxTxTransaction+0x84>
  }

  /* Control if the RX fifo is empty */
  if (SPI_WaitFifoStateUntilTimeout(hspi, SPI_FLAG_FRLVL, SPI_FRLVL_EMPTY, Timeout, Tickstart) != HAL_OK)
 8005c06:	68ba      	ldr	r2, [r7, #8]
 8005c08:	23c0      	movs	r3, #192	@ 0xc0
 8005c0a:	00d9      	lsls	r1, r3, #3
 8005c0c:	68f8      	ldr	r0, [r7, #12]
 8005c0e:	687b      	ldr	r3, [r7, #4]
 8005c10:	9300      	str	r3, [sp, #0]
 8005c12:	0013      	movs	r3, r2
 8005c14:	2200      	movs	r2, #0
 8005c16:	f7ff fec9 	bl	80059ac <SPI_WaitFifoStateUntilTimeout>
 8005c1a:	1e03      	subs	r3, r0, #0
 8005c1c:	d007      	beq.n	8005c2e <SPI_EndRxTxTransaction+0x82>
  {
    SET_BIT(hspi->ErrorCode, HAL_SPI_ERROR_FLAG);
 8005c1e:	68fb      	ldr	r3, [r7, #12]
 8005c20:	6e1b      	ldr	r3, [r3, #96]	@ 0x60
 8005c22:	2220      	movs	r2, #32
 8005c24:	431a      	orrs	r2, r3
 8005c26:	68fb      	ldr	r3, [r7, #12]
 8005c28:	661a      	str	r2, [r3, #96]	@ 0x60
    return HAL_TIMEOUT;
 8005c2a:	2303      	movs	r3, #3
 8005c2c:	e000      	b.n	8005c30 <SPI_EndRxTxTransaction+0x84>
  }

  return HAL_OK;
 8005c2e:	2300      	movs	r3, #0
}
 8005c30:	0018      	movs	r0, r3
 8005c32:	46bd      	mov	sp, r7
 8005c34:	b004      	add	sp, #16
 8005c36:	bd80      	pop	{r7, pc}

08005c38 <HAL_UART_Init>:
  *        parameters in the UART_InitTypeDef and initialize the associated handle.
  * @param huart UART handle.
  * @retval HAL status
  */
HAL_StatusTypeDef HAL_UART_Init(UART_HandleTypeDef *huart)
{
 8005c38:	b580      	push	{r7, lr}
 8005c3a:	b082      	sub	sp, #8
 8005c3c:	af00      	add	r7, sp, #0
 8005c3e:	6078      	str	r0, [r7, #4]
  /* Check the UART handle allocation */
  if (huart == NULL)
 8005c40:	687b      	ldr	r3, [r7, #4]
 8005c42:	2b00      	cmp	r3, #0
 8005c44:	d101      	bne.n	8005c4a <HAL_UART_Init+0x12>
  {
    return HAL_ERROR;
 8005c46:	2301      	movs	r3, #1
 8005c48:	e046      	b.n	8005cd8 <HAL_UART_Init+0xa0>
  {
    /* Check the parameters */
    assert_param((IS_UART_INSTANCE(huart->Instance)) || (IS_LPUART_INSTANCE(huart->Instance)));
  }

  if (huart->gState == HAL_UART_STATE_RESET)
 8005c4a:	687b      	ldr	r3, [r7, #4]
 8005c4c:	2288      	movs	r2, #136	@ 0x88
 8005c4e:	589b      	ldr	r3, [r3, r2]
 8005c50:	2b00      	cmp	r3, #0
 8005c52:	d107      	bne.n	8005c64 <HAL_UART_Init+0x2c>
  {
    /* Allocate lock resource and initialize it */
    huart->Lock = HAL_UNLOCKED;
 8005c54:	687b      	ldr	r3, [r7, #4]
 8005c56:	2284      	movs	r2, #132	@ 0x84
 8005c58:	2100      	movs	r1, #0
 8005c5a:	5499      	strb	r1, [r3, r2]

    /* Init the low level hardware */
    huart->MspInitCallback(huart);
#else
    /* Init the low level hardware : GPIO, CLOCK */
    HAL_UART_MspInit(huart);
 8005c5c:	687b      	ldr	r3, [r7, #4]
 8005c5e:	0018      	movs	r0, r3
 8005c60:	f7fe f83e 	bl	8003ce0 <HAL_UART_MspInit>
#endif /* (USE_HAL_UART_REGISTER_CALLBACKS) */
  }

  huart->gState = HAL_UART_STATE_BUSY;
 8005c64:	687b      	ldr	r3, [r7, #4]
 8005c66:	2288      	movs	r2, #136	@ 0x88
 8005c68:	2124      	movs	r1, #36	@ 0x24
 8005c6a:	5099      	str	r1, [r3, r2]

  __HAL_UART_DISABLE(huart);
 8005c6c:	687b      	ldr	r3, [r7, #4]
 8005c6e:	681b      	ldr	r3, [r3, #0]
 8005c70:	681a      	ldr	r2, [r3, #0]
 8005c72:	687b      	ldr	r3, [r7, #4]
 8005c74:	681b      	ldr	r3, [r3, #0]
 8005c76:	2101      	movs	r1, #1
 8005c78:	438a      	bics	r2, r1
 8005c7a:	601a      	str	r2, [r3, #0]

  /* Perform advanced settings configuration */
  /* For some items, configuration requires to be done prior TE and RE bits are set */
  if (huart->AdvancedInit.AdvFeatureInit != UART_ADVFEATURE_NO_INIT)
 8005c7c:	687b      	ldr	r3, [r7, #4]
 8005c7e:	6a9b      	ldr	r3, [r3, #40]	@ 0x28
 8005c80:	2b00      	cmp	r3, #0
 8005c82:	d003      	beq.n	8005c8c <HAL_UART_Init+0x54>
  {
    UART_AdvFeatureConfig(huart);
 8005c84:	687b      	ldr	r3, [r7, #4]
 8005c86:	0018      	movs	r0, r3
 8005c88:	f000 fe2c 	bl	80068e4 <UART_AdvFeatureConfig>
  }

  /* Set the UART Communication parameters */
  if (UART_SetConfig(huart) == HAL_ERROR)
 8005c8c:	687b      	ldr	r3, [r7, #4]
 8005c8e:	0018      	movs	r0, r3
 8005c90:	f000 fb6a 	bl	8006368 <UART_SetConfig>
 8005c94:	0003      	movs	r3, r0
 8005c96:	2b01      	cmp	r3, #1
 8005c98:	d101      	bne.n	8005c9e <HAL_UART_Init+0x66>
  {
    return HAL_ERROR;
 8005c9a:	2301      	movs	r3, #1
 8005c9c:	e01c      	b.n	8005cd8 <HAL_UART_Init+0xa0>
  }

  /* In asynchronous mode, the following bits must be kept cleared:
  - LINEN and CLKEN bits in the USART_CR2 register,
  - SCEN, HDSEL and IREN  bits in the USART_CR3 register.*/
  CLEAR_BIT(huart->Instance->CR2, (USART_CR2_LINEN | USART_CR2_CLKEN));
 8005c9e:	687b      	ldr	r3, [r7, #4]
 8005ca0:	681b      	ldr	r3, [r3, #0]
 8005ca2:	685a      	ldr	r2, [r3, #4]
 8005ca4:	687b      	ldr	r3, [r7, #4]
 8005ca6:	681b      	ldr	r3, [r3, #0]
 8005ca8:	490d      	ldr	r1, [pc, #52]	@ (8005ce0 <HAL_UART_Init+0xa8>)
 8005caa:	400a      	ands	r2, r1
 8005cac:	605a      	str	r2, [r3, #4]
  CLEAR_BIT(huart->Instance->CR3, (USART_CR3_SCEN | USART_CR3_HDSEL | USART_CR3_IREN));
 8005cae:	687b      	ldr	r3, [r7, #4]
 8005cb0:	681b      	ldr	r3, [r3, #0]
 8005cb2:	689a      	ldr	r2, [r3, #8]
 8005cb4:	687b      	ldr	r3, [r7, #4]
 8005cb6:	681b      	ldr	r3, [r3, #0]
 8005cb8:	212a      	movs	r1, #42	@ 0x2a
 8005cba:	438a      	bics	r2, r1
 8005cbc:	609a      	str	r2, [r3, #8]

  __HAL_UART_ENABLE(huart);
 8005cbe:	687b      	ldr	r3, [r7, #4]
 8005cc0:	681b      	ldr	r3, [r3, #0]
 8005cc2:	681a      	ldr	r2, [r3, #0]
 8005cc4:	687b      	ldr	r3, [r7, #4]
 8005cc6:	681b      	ldr	r3, [r3, #0]
 8005cc8:	2101      	movs	r1, #1
 8005cca:	430a      	orrs	r2, r1
 8005ccc:	601a      	str	r2, [r3, #0]

  /* TEACK and/or REACK to check before moving huart->gState and huart->RxState to Ready */
  return (UART_CheckIdleState(huart));
 8005cce:	687b      	ldr	r3, [r7, #4]
 8005cd0:	0018      	movs	r0, r3
 8005cd2:	f000 febb 	bl	8006a4c <UART_CheckIdleState>
 8005cd6:	0003      	movs	r3, r0
}
 8005cd8:	0018      	movs	r0, r3
 8005cda:	46bd      	mov	sp, r7
 8005cdc:	b002      	add	sp, #8
 8005cde:	bd80      	pop	{r7, pc}
 8005ce0:	ffffb7ff 	.word	0xffffb7ff

08005ce4 <HAL_UART_IRQHandler>:
  * @brief Handle UART interrupt request.
  * @param huart UART handle.
  * @retval None
  */
void HAL_UART_IRQHandler(UART_HandleTypeDef *huart)
{
 8005ce4:	b5b0      	push	{r4, r5, r7, lr}
 8005ce6:	b0aa      	sub	sp, #168	@ 0xa8
 8005ce8:	af00      	add	r7, sp, #0
 8005cea:	6078      	str	r0, [r7, #4]
  uint32_t isrflags   = READ_REG(huart->Instance->ISR);
 8005cec:	687b      	ldr	r3, [r7, #4]
 8005cee:	681b      	ldr	r3, [r3, #0]
 8005cf0:	69db      	ldr	r3, [r3, #28]
 8005cf2:	22a4      	movs	r2, #164	@ 0xa4
 8005cf4:	18b9      	adds	r1, r7, r2
 8005cf6:	600b      	str	r3, [r1, #0]
  uint32_t cr1its     = READ_REG(huart->Instance->CR1);
 8005cf8:	687b      	ldr	r3, [r7, #4]
 8005cfa:	681b      	ldr	r3, [r3, #0]
 8005cfc:	681b      	ldr	r3, [r3, #0]
 8005cfe:	20a0      	movs	r0, #160	@ 0xa0
 8005d00:	1839      	adds	r1, r7, r0
 8005d02:	600b      	str	r3, [r1, #0]
  uint32_t cr3its     = READ_REG(huart->Instance->CR3);
 8005d04:	687b      	ldr	r3, [r7, #4]
 8005d06:	681b      	ldr	r3, [r3, #0]
 8005d08:	689b      	ldr	r3, [r3, #8]
 8005d0a:	249c      	movs	r4, #156	@ 0x9c
 8005d0c:	1939      	adds	r1, r7, r4
 8005d0e:	600b      	str	r3, [r1, #0]

  uint32_t errorflags;
  uint32_t errorcode;

  /* If no error occurs */
  errorflags = (isrflags & (uint32_t)(USART_ISR_PE | USART_ISR_FE | USART_ISR_ORE | USART_ISR_NE | USART_ISR_RTOF));
 8005d10:	0011      	movs	r1, r2
 8005d12:	18bb      	adds	r3, r7, r2
 8005d14:	681b      	ldr	r3, [r3, #0]
 8005d16:	4aa2      	ldr	r2, [pc, #648]	@ (8005fa0 <HAL_UART_IRQHandler+0x2bc>)
 8005d18:	4013      	ands	r3, r2
 8005d1a:	2298      	movs	r2, #152	@ 0x98
 8005d1c:	18bd      	adds	r5, r7, r2
 8005d1e:	602b      	str	r3, [r5, #0]
  if (errorflags == 0U)
 8005d20:	18bb      	adds	r3, r7, r2
 8005d22:	681b      	ldr	r3, [r3, #0]
 8005d24:	2b00      	cmp	r3, #0
 8005d26:	d11a      	bne.n	8005d5e <HAL_UART_IRQHandler+0x7a>
  {
    /* UART in mode Receiver ---------------------------------------------------*/
    if (((isrflags & USART_ISR_RXNE_RXFNE) != 0U)
 8005d28:	187b      	adds	r3, r7, r1
 8005d2a:	681b      	ldr	r3, [r3, #0]
 8005d2c:	2220      	movs	r2, #32
 8005d2e:	4013      	ands	r3, r2
 8005d30:	d015      	beq.n	8005d5e <HAL_UART_IRQHandler+0x7a>
        && (((cr1its & USART_CR1_RXNEIE_RXFNEIE) != 0U)
 8005d32:	183b      	adds	r3, r7, r0
 8005d34:	681b      	ldr	r3, [r3, #0]
 8005d36:	2220      	movs	r2, #32
 8005d38:	4013      	ands	r3, r2
 8005d3a:	d105      	bne.n	8005d48 <HAL_UART_IRQHandler+0x64>
            || ((cr3its & USART_CR3_RXFTIE) != 0U)))
 8005d3c:	193b      	adds	r3, r7, r4
 8005d3e:	681a      	ldr	r2, [r3, #0]
 8005d40:	2380      	movs	r3, #128	@ 0x80
 8005d42:	055b      	lsls	r3, r3, #21
 8005d44:	4013      	ands	r3, r2
 8005d46:	d00a      	beq.n	8005d5e <HAL_UART_IRQHandler+0x7a>
    {
      if (huart->RxISR != NULL)
 8005d48:	687b      	ldr	r3, [r7, #4]
 8005d4a:	6f5b      	ldr	r3, [r3, #116]	@ 0x74
 8005d4c:	2b00      	cmp	r3, #0
 8005d4e:	d100      	bne.n	8005d52 <HAL_UART_IRQHandler+0x6e>
 8005d50:	e2dc      	b.n	800630c <HAL_UART_IRQHandler+0x628>
      {
        huart->RxISR(huart);
 8005d52:	687b      	ldr	r3, [r7, #4]
 8005d54:	6f5b      	ldr	r3, [r3, #116]	@ 0x74
 8005d56:	687a      	ldr	r2, [r7, #4]
 8005d58:	0010      	movs	r0, r2
 8005d5a:	4798      	blx	r3
      }
      return;
 8005d5c:	e2d6      	b.n	800630c <HAL_UART_IRQHandler+0x628>
    }
  }

  /* If some errors occur */
  if ((errorflags != 0U)
 8005d5e:	2398      	movs	r3, #152	@ 0x98
 8005d60:	18fb      	adds	r3, r7, r3
 8005d62:	681b      	ldr	r3, [r3, #0]
 8005d64:	2b00      	cmp	r3, #0
 8005d66:	d100      	bne.n	8005d6a <HAL_UART_IRQHandler+0x86>
 8005d68:	e122      	b.n	8005fb0 <HAL_UART_IRQHandler+0x2cc>
      && ((((cr3its & (USART_CR3_RXFTIE | USART_CR3_EIE)) != 0U)
 8005d6a:	239c      	movs	r3, #156	@ 0x9c
 8005d6c:	18fb      	adds	r3, r7, r3
 8005d6e:	681b      	ldr	r3, [r3, #0]
 8005d70:	4a8c      	ldr	r2, [pc, #560]	@ (8005fa4 <HAL_UART_IRQHandler+0x2c0>)
 8005d72:	4013      	ands	r3, r2
 8005d74:	d106      	bne.n	8005d84 <HAL_UART_IRQHandler+0xa0>
           || ((cr1its & (USART_CR1_RXNEIE_RXFNEIE | USART_CR1_PEIE | USART_CR1_RTOIE)) != 0U))))
 8005d76:	23a0      	movs	r3, #160	@ 0xa0
 8005d78:	18fb      	adds	r3, r7, r3
 8005d7a:	681b      	ldr	r3, [r3, #0]
 8005d7c:	4a8a      	ldr	r2, [pc, #552]	@ (8005fa8 <HAL_UART_IRQHandler+0x2c4>)
 8005d7e:	4013      	ands	r3, r2
 8005d80:	d100      	bne.n	8005d84 <HAL_UART_IRQHandler+0xa0>
 8005d82:	e115      	b.n	8005fb0 <HAL_UART_IRQHandler+0x2cc>
  {
    /* UART parity error interrupt occurred -------------------------------------*/
    if (((isrflags & USART_ISR_PE) != 0U) && ((cr1its & USART_CR1_PEIE) != 0U))
 8005d84:	23a4      	movs	r3, #164	@ 0xa4
 8005d86:	18fb      	adds	r3, r7, r3
 8005d88:	681b      	ldr	r3, [r3, #0]
 8005d8a:	2201      	movs	r2, #1
 8005d8c:	4013      	ands	r3, r2
 8005d8e:	d012      	beq.n	8005db6 <HAL_UART_IRQHandler+0xd2>
 8005d90:	23a0      	movs	r3, #160	@ 0xa0
 8005d92:	18fb      	adds	r3, r7, r3
 8005d94:	681a      	ldr	r2, [r3, #0]
 8005d96:	2380      	movs	r3, #128	@ 0x80
 8005d98:	005b      	lsls	r3, r3, #1
 8005d9a:	4013      	ands	r3, r2
 8005d9c:	d00b      	beq.n	8005db6 <HAL_UART_IRQHandler+0xd2>
    {
      __HAL_UART_CLEAR_FLAG(huart, UART_CLEAR_PEF);
 8005d9e:	687b      	ldr	r3, [r7, #4]
 8005da0:	681b      	ldr	r3, [r3, #0]
 8005da2:	2201      	movs	r2, #1
 8005da4:	621a      	str	r2, [r3, #32]

      huart->ErrorCode |= HAL_UART_ERROR_PE;
 8005da6:	687b      	ldr	r3, [r7, #4]
 8005da8:	2290      	movs	r2, #144	@ 0x90
 8005daa:	589b      	ldr	r3, [r3, r2]
 8005dac:	2201      	movs	r2, #1
 8005dae:	431a      	orrs	r2, r3
 8005db0:	687b      	ldr	r3, [r7, #4]
 8005db2:	2190      	movs	r1, #144	@ 0x90
 8005db4:	505a      	str	r2, [r3, r1]
    }

    /* UART frame error interrupt occurred --------------------------------------*/
    if (((isrflags & USART_ISR_FE) != 0U) && ((cr3its & USART_CR3_EIE) != 0U))
 8005db6:	23a4      	movs	r3, #164	@ 0xa4
 8005db8:	18fb      	adds	r3, r7, r3
 8005dba:	681b      	ldr	r3, [r3, #0]
 8005dbc:	2202      	movs	r2, #2
 8005dbe:	4013      	ands	r3, r2
 8005dc0:	d011      	beq.n	8005de6 <HAL_UART_IRQHandler+0x102>
 8005dc2:	239c      	movs	r3, #156	@ 0x9c
 8005dc4:	18fb      	adds	r3, r7, r3
 8005dc6:	681b      	ldr	r3, [r3, #0]
 8005dc8:	2201      	movs	r2, #1
 8005dca:	4013      	ands	r3, r2
 8005dcc:	d00b      	beq.n	8005de6 <HAL_UART_IRQHandler+0x102>
    {
      __HAL_UART_CLEAR_FLAG(huart, UART_CLEAR_FEF);
 8005dce:	687b      	ldr	r3, [r7, #4]
 8005dd0:	681b      	ldr	r3, [r3, #0]
 8005dd2:	2202      	movs	r2, #2
 8005dd4:	621a      	str	r2, [r3, #32]

      huart->ErrorCode |= HAL_UART_ERROR_FE;
 8005dd6:	687b      	ldr	r3, [r7, #4]
 8005dd8:	2290      	movs	r2, #144	@ 0x90
 8005dda:	589b      	ldr	r3, [r3, r2]
 8005ddc:	2204      	movs	r2, #4
 8005dde:	431a      	orrs	r2, r3
 8005de0:	687b      	ldr	r3, [r7, #4]
 8005de2:	2190      	movs	r1, #144	@ 0x90
 8005de4:	505a      	str	r2, [r3, r1]
    }

    /* UART noise error interrupt occurred --------------------------------------*/
    if (((isrflags & USART_ISR_NE) != 0U) && ((cr3its & USART_CR3_EIE) != 0U))
 8005de6:	23a4      	movs	r3, #164	@ 0xa4
 8005de8:	18fb      	adds	r3, r7, r3
 8005dea:	681b      	ldr	r3, [r3, #0]
 8005dec:	2204      	movs	r2, #4
 8005dee:	4013      	ands	r3, r2
 8005df0:	d011      	beq.n	8005e16 <HAL_UART_IRQHandler+0x132>
 8005df2:	239c      	movs	r3, #156	@ 0x9c
 8005df4:	18fb      	adds	r3, r7, r3
 8005df6:	681b      	ldr	r3, [r3, #0]
 8005df8:	2201      	movs	r2, #1
 8005dfa:	4013      	ands	r3, r2
 8005dfc:	d00b      	beq.n	8005e16 <HAL_UART_IRQHandler+0x132>
    {
      __HAL_UART_CLEAR_FLAG(huart, UART_CLEAR_NEF);
 8005dfe:	687b      	ldr	r3, [r7, #4]
 8005e00:	681b      	ldr	r3, [r3, #0]
 8005e02:	2204      	movs	r2, #4
 8005e04:	621a      	str	r2, [r3, #32]

      huart->ErrorCode |= HAL_UART_ERROR_NE;
 8005e06:	687b      	ldr	r3, [r7, #4]
 8005e08:	2290      	movs	r2, #144	@ 0x90
 8005e0a:	589b      	ldr	r3, [r3, r2]
 8005e0c:	2202      	movs	r2, #2
 8005e0e:	431a      	orrs	r2, r3
 8005e10:	687b      	ldr	r3, [r7, #4]
 8005e12:	2190      	movs	r1, #144	@ 0x90
 8005e14:	505a      	str	r2, [r3, r1]
    }

    /* UART Over-Run interrupt occurred -----------------------------------------*/
    if (((isrflags & USART_ISR_ORE) != 0U)
 8005e16:	23a4      	movs	r3, #164	@ 0xa4
 8005e18:	18fb      	adds	r3, r7, r3
 8005e1a:	681b      	ldr	r3, [r3, #0]
 8005e1c:	2208      	movs	r2, #8
 8005e1e:	4013      	ands	r3, r2
 8005e20:	d017      	beq.n	8005e52 <HAL_UART_IRQHandler+0x16e>
        && (((cr1its & USART_CR1_RXNEIE_RXFNEIE) != 0U) ||
 8005e22:	23a0      	movs	r3, #160	@ 0xa0
 8005e24:	18fb      	adds	r3, r7, r3
 8005e26:	681b      	ldr	r3, [r3, #0]
 8005e28:	2220      	movs	r2, #32
 8005e2a:	4013      	ands	r3, r2
 8005e2c:	d105      	bne.n	8005e3a <HAL_UART_IRQHandler+0x156>
            ((cr3its & (USART_CR3_RXFTIE | USART_CR3_EIE)) != 0U)))
 8005e2e:	239c      	movs	r3, #156	@ 0x9c
 8005e30:	18fb      	adds	r3, r7, r3
 8005e32:	681b      	ldr	r3, [r3, #0]
 8005e34:	4a5b      	ldr	r2, [pc, #364]	@ (8005fa4 <HAL_UART_IRQHandler+0x2c0>)
 8005e36:	4013      	ands	r3, r2
        && (((cr1its & USART_CR1_RXNEIE_RXFNEIE) != 0U) ||
 8005e38:	d00b      	beq.n	8005e52 <HAL_UART_IRQHandler+0x16e>
    {
      __HAL_UART_CLEAR_FLAG(huart, UART_CLEAR_OREF);
 8005e3a:	687b      	ldr	r3, [r7, #4]
 8005e3c:	681b      	ldr	r3, [r3, #0]
 8005e3e:	2208      	movs	r2, #8
 8005e40:	621a      	str	r2, [r3, #32]

      huart->ErrorCode |= HAL_UART_ERROR_ORE;
 8005e42:	687b      	ldr	r3, [r7, #4]
 8005e44:	2290      	movs	r2, #144	@ 0x90
 8005e46:	589b      	ldr	r3, [r3, r2]
 8005e48:	2208      	movs	r2, #8
 8005e4a:	431a      	orrs	r2, r3
 8005e4c:	687b      	ldr	r3, [r7, #4]
 8005e4e:	2190      	movs	r1, #144	@ 0x90
 8005e50:	505a      	str	r2, [r3, r1]
    }

    /* UART Receiver Timeout interrupt occurred ---------------------------------*/
    if (((isrflags & USART_ISR_RTOF) != 0U) && ((cr1its & USART_CR1_RTOIE) != 0U))
 8005e52:	23a4      	movs	r3, #164	@ 0xa4
 8005e54:	18fb      	adds	r3, r7, r3
 8005e56:	681a      	ldr	r2, [r3, #0]
 8005e58:	2380      	movs	r3, #128	@ 0x80
 8005e5a:	011b      	lsls	r3, r3, #4
 8005e5c:	4013      	ands	r3, r2
 8005e5e:	d013      	beq.n	8005e88 <HAL_UART_IRQHandler+0x1a4>
 8005e60:	23a0      	movs	r3, #160	@ 0xa0
 8005e62:	18fb      	adds	r3, r7, r3
 8005e64:	681a      	ldr	r2, [r3, #0]
 8005e66:	2380      	movs	r3, #128	@ 0x80
 8005e68:	04db      	lsls	r3, r3, #19
 8005e6a:	4013      	ands	r3, r2
 8005e6c:	d00c      	beq.n	8005e88 <HAL_UART_IRQHandler+0x1a4>
    {
      __HAL_UART_CLEAR_FLAG(huart, UART_CLEAR_RTOF);
 8005e6e:	687b      	ldr	r3, [r7, #4]
 8005e70:	681b      	ldr	r3, [r3, #0]
 8005e72:	2280      	movs	r2, #128	@ 0x80
 8005e74:	0112      	lsls	r2, r2, #4
 8005e76:	621a      	str	r2, [r3, #32]

      huart->ErrorCode |= HAL_UART_ERROR_RTO;
 8005e78:	687b      	ldr	r3, [r7, #4]
 8005e7a:	2290      	movs	r2, #144	@ 0x90
 8005e7c:	589b      	ldr	r3, [r3, r2]
 8005e7e:	2220      	movs	r2, #32
 8005e80:	431a      	orrs	r2, r3
 8005e82:	687b      	ldr	r3, [r7, #4]
 8005e84:	2190      	movs	r1, #144	@ 0x90
 8005e86:	505a      	str	r2, [r3, r1]
    }

    /* Call UART Error Call back function if need be ----------------------------*/
    if (huart->ErrorCode != HAL_UART_ERROR_NONE)
 8005e88:	687b      	ldr	r3, [r7, #4]
 8005e8a:	2290      	movs	r2, #144	@ 0x90
 8005e8c:	589b      	ldr	r3, [r3, r2]
 8005e8e:	2b00      	cmp	r3, #0
 8005e90:	d100      	bne.n	8005e94 <HAL_UART_IRQHandler+0x1b0>
 8005e92:	e23d      	b.n	8006310 <HAL_UART_IRQHandler+0x62c>
    {
      /* UART in mode Receiver --------------------------------------------------*/
      if (((isrflags & USART_ISR_RXNE_RXFNE) != 0U)
 8005e94:	23a4      	movs	r3, #164	@ 0xa4
 8005e96:	18fb      	adds	r3, r7, r3
 8005e98:	681b      	ldr	r3, [r3, #0]
 8005e9a:	2220      	movs	r2, #32
 8005e9c:	4013      	ands	r3, r2
 8005e9e:	d015      	beq.n	8005ecc <HAL_UART_IRQHandler+0x1e8>
          && (((cr1its & USART_CR1_RXNEIE_RXFNEIE) != 0U)
 8005ea0:	23a0      	movs	r3, #160	@ 0xa0
 8005ea2:	18fb      	adds	r3, r7, r3
 8005ea4:	681b      	ldr	r3, [r3, #0]
 8005ea6:	2220      	movs	r2, #32
 8005ea8:	4013      	ands	r3, r2
 8005eaa:	d106      	bne.n	8005eba <HAL_UART_IRQHandler+0x1d6>
              || ((cr3its & USART_CR3_RXFTIE) != 0U)))
 8005eac:	239c      	movs	r3, #156	@ 0x9c
 8005eae:	18fb      	adds	r3, r7, r3
 8005eb0:	681a      	ldr	r2, [r3, #0]
 8005eb2:	2380      	movs	r3, #128	@ 0x80
 8005eb4:	055b      	lsls	r3, r3, #21
 8005eb6:	4013      	ands	r3, r2
 8005eb8:	d008      	beq.n	8005ecc <HAL_UART_IRQHandler+0x1e8>
      {
        if (huart->RxISR != NULL)
 8005eba:	687b      	ldr	r3, [r7, #4]
 8005ebc:	6f5b      	ldr	r3, [r3, #116]	@ 0x74
 8005ebe:	2b00      	cmp	r3, #0
 8005ec0:	d004      	beq.n	8005ecc <HAL_UART_IRQHandler+0x1e8>
        {
          huart->RxISR(huart);
 8005ec2:	687b      	ldr	r3, [r7, #4]
 8005ec4:	6f5b      	ldr	r3, [r3, #116]	@ 0x74
 8005ec6:	687a      	ldr	r2, [r7, #4]
 8005ec8:	0010      	movs	r0, r2
 8005eca:	4798      	blx	r3
      /* If Error is to be considered as blocking :
          - Receiver Timeout error in Reception
          - Overrun error in Reception
          - any error occurs in DMA mode reception
      */
      errorcode = huart->ErrorCode;
 8005ecc:	687b      	ldr	r3, [r7, #4]
 8005ece:	2290      	movs	r2, #144	@ 0x90
 8005ed0:	589b      	ldr	r3, [r3, r2]
 8005ed2:	2194      	movs	r1, #148	@ 0x94
 8005ed4:	187a      	adds	r2, r7, r1
 8005ed6:	6013      	str	r3, [r2, #0]
      if ((HAL_IS_BIT_SET(huart->Instance->CR3, USART_CR3_DMAR)) ||
 8005ed8:	687b      	ldr	r3, [r7, #4]
 8005eda:	681b      	ldr	r3, [r3, #0]
 8005edc:	689b      	ldr	r3, [r3, #8]
 8005ede:	2240      	movs	r2, #64	@ 0x40
 8005ee0:	4013      	ands	r3, r2
 8005ee2:	2b40      	cmp	r3, #64	@ 0x40
 8005ee4:	d004      	beq.n	8005ef0 <HAL_UART_IRQHandler+0x20c>
          ((errorcode & (HAL_UART_ERROR_RTO | HAL_UART_ERROR_ORE)) != 0U))
 8005ee6:	187b      	adds	r3, r7, r1
 8005ee8:	681b      	ldr	r3, [r3, #0]
 8005eea:	2228      	movs	r2, #40	@ 0x28
 8005eec:	4013      	ands	r3, r2
      if ((HAL_IS_BIT_SET(huart->Instance->CR3, USART_CR3_DMAR)) ||
 8005eee:	d04c      	beq.n	8005f8a <HAL_UART_IRQHandler+0x2a6>
      {
        /* Blocking error : transfer is aborted
           Set the UART state ready to be able to start again the process,
           Disable Rx Interrupts, and disable Rx DMA request, if ongoing */
        UART_EndRxTransfer(huart);
 8005ef0:	687b      	ldr	r3, [r7, #4]
 8005ef2:	0018      	movs	r0, r3
 8005ef4:	f000 fec4 	bl	8006c80 <UART_EndRxTransfer>

        /* Abort the UART DMA Rx channel if enabled */
        if (HAL_IS_BIT_SET(huart->Instance->CR3, USART_CR3_DMAR))
 8005ef8:	687b      	ldr	r3, [r7, #4]
 8005efa:	681b      	ldr	r3, [r3, #0]
 8005efc:	689b      	ldr	r3, [r3, #8]
 8005efe:	2240      	movs	r2, #64	@ 0x40
 8005f00:	4013      	ands	r3, r2
 8005f02:	2b40      	cmp	r3, #64	@ 0x40
 8005f04:	d13c      	bne.n	8005f80 <HAL_UART_IRQHandler+0x29c>
 */
__STATIC_FORCEINLINE uint32_t __get_PRIMASK(void)
{
  uint32_t result;

  __ASM volatile ("MRS %0, primask" : "=r" (result) :: "memory");
 8005f06:	f3ef 8310 	mrs	r3, PRIMASK
 8005f0a:	663b      	str	r3, [r7, #96]	@ 0x60
  return(result);
 8005f0c:	6e3b      	ldr	r3, [r7, #96]	@ 0x60
        {
          /* Disable the UART DMA Rx request if enabled */
          ATOMIC_CLEAR_BIT(huart->Instance->CR3, USART_CR3_DMAR);
 8005f0e:	2090      	movs	r0, #144	@ 0x90
 8005f10:	183a      	adds	r2, r7, r0
 8005f12:	6013      	str	r3, [r2, #0]
 8005f14:	2301      	movs	r3, #1
 8005f16:	667b      	str	r3, [r7, #100]	@ 0x64
  \details Assigns the given value to the Priority Mask Register.
  \param [in]    priMask  Priority Mask
 */
__STATIC_FORCEINLINE void __set_PRIMASK(uint32_t priMask)
{
  __ASM volatile ("MSR primask, %0" : : "r" (priMask) : "memory");
 8005f18:	6e7b      	ldr	r3, [r7, #100]	@ 0x64
 8005f1a:	f383 8810 	msr	PRIMASK, r3
}
 8005f1e:	46c0      	nop			@ (mov r8, r8)
 8005f20:	687b      	ldr	r3, [r7, #4]
 8005f22:	681b      	ldr	r3, [r3, #0]
 8005f24:	689a      	ldr	r2, [r3, #8]
 8005f26:	687b      	ldr	r3, [r7, #4]
 8005f28:	681b      	ldr	r3, [r3, #0]
 8005f2a:	2140      	movs	r1, #64	@ 0x40
 8005f2c:	438a      	bics	r2, r1
 8005f2e:	609a      	str	r2, [r3, #8]
 8005f30:	183b      	adds	r3, r7, r0
 8005f32:	681b      	ldr	r3, [r3, #0]
 8005f34:	66bb      	str	r3, [r7, #104]	@ 0x68
  __ASM volatile ("MSR primask, %0" : : "r" (priMask) : "memory");
 8005f36:	6ebb      	ldr	r3, [r7, #104]	@ 0x68
 8005f38:	f383 8810 	msr	PRIMASK, r3
}
 8005f3c:	46c0      	nop			@ (mov r8, r8)

          /* Abort the UART DMA Rx channel */
          if (huart->hdmarx != NULL)
 8005f3e:	687b      	ldr	r3, [r7, #4]
 8005f40:	2280      	movs	r2, #128	@ 0x80
 8005f42:	589b      	ldr	r3, [r3, r2]
 8005f44:	2b00      	cmp	r3, #0
 8005f46:	d016      	beq.n	8005f76 <HAL_UART_IRQHandler+0x292>
          {
            /* Set the UART DMA Abort callback :
               will lead to call HAL_UART_ErrorCallback() at end of DMA abort procedure */
            huart->hdmarx->XferAbortCallback = UART_DMAAbortOnError;
 8005f48:	687b      	ldr	r3, [r7, #4]
 8005f4a:	2280      	movs	r2, #128	@ 0x80
 8005f4c:	589b      	ldr	r3, [r3, r2]
 8005f4e:	4a17      	ldr	r2, [pc, #92]	@ (8005fac <HAL_UART_IRQHandler+0x2c8>)
 8005f50:	639a      	str	r2, [r3, #56]	@ 0x38

            /* Abort DMA RX */
            if (HAL_DMA_Abort_IT(huart->hdmarx) != HAL_OK)
 8005f52:	687b      	ldr	r3, [r7, #4]
 8005f54:	2280      	movs	r2, #128	@ 0x80
 8005f56:	589b      	ldr	r3, [r3, r2]
 8005f58:	0018      	movs	r0, r3
 8005f5a:	f7fe fafb 	bl	8004554 <HAL_DMA_Abort_IT>
 8005f5e:	1e03      	subs	r3, r0, #0
 8005f60:	d01c      	beq.n	8005f9c <HAL_UART_IRQHandler+0x2b8>
            {
              /* Call Directly huart->hdmarx->XferAbortCallback function in case of error */
              huart->hdmarx->XferAbortCallback(huart->hdmarx);
 8005f62:	687b      	ldr	r3, [r7, #4]
 8005f64:	2280      	movs	r2, #128	@ 0x80
 8005f66:	589b      	ldr	r3, [r3, r2]
 8005f68:	6b9b      	ldr	r3, [r3, #56]	@ 0x38
 8005f6a:	687a      	ldr	r2, [r7, #4]
 8005f6c:	2180      	movs	r1, #128	@ 0x80
 8005f6e:	5852      	ldr	r2, [r2, r1]
 8005f70:	0010      	movs	r0, r2
 8005f72:	4798      	blx	r3
        if (HAL_IS_BIT_SET(huart->Instance->CR3, USART_CR3_DMAR))
 8005f74:	e012      	b.n	8005f9c <HAL_UART_IRQHandler+0x2b8>
#if (USE_HAL_UART_REGISTER_CALLBACKS == 1)
            /*Call registered error callback*/
            huart->ErrorCallback(huart);
#else
            /*Call legacy weak error callback*/
            HAL_UART_ErrorCallback(huart);
 8005f76:	687b      	ldr	r3, [r7, #4]
 8005f78:	0018      	movs	r0, r3
 8005f7a:	f000 f9e1 	bl	8006340 <HAL_UART_ErrorCallback>
        if (HAL_IS_BIT_SET(huart->Instance->CR3, USART_CR3_DMAR))
 8005f7e:	e00d      	b.n	8005f9c <HAL_UART_IRQHandler+0x2b8>
#if (USE_HAL_UART_REGISTER_CALLBACKS == 1)
          /*Call registered error callback*/
          huart->ErrorCallback(huart);
#else
          /*Call legacy weak error callback*/
          HAL_UART_ErrorCallback(huart);
 8005f80:	687b      	ldr	r3, [r7, #4]
 8005f82:	0018      	movs	r0, r3
 8005f84:	f000 f9dc 	bl	8006340 <HAL_UART_ErrorCallback>
        if (HAL_IS_BIT_SET(huart->Instance->CR3, USART_CR3_DMAR))
 8005f88:	e008      	b.n	8005f9c <HAL_UART_IRQHandler+0x2b8>
#if (USE_HAL_UART_REGISTER_CALLBACKS == 1)
        /*Call registered error callback*/
        huart->ErrorCallback(huart);
#else
        /*Call legacy weak error callback*/
        HAL_UART_ErrorCallback(huart);
 8005f8a:	687b      	ldr	r3, [r7, #4]
 8005f8c:	0018      	movs	r0, r3
 8005f8e:	f000 f9d7 	bl	8006340 <HAL_UART_ErrorCallback>
#endif /* USE_HAL_UART_REGISTER_CALLBACKS */
        huart->ErrorCode = HAL_UART_ERROR_NONE;
 8005f92:	687b      	ldr	r3, [r7, #4]
 8005f94:	2290      	movs	r2, #144	@ 0x90
 8005f96:	2100      	movs	r1, #0
 8005f98:	5099      	str	r1, [r3, r2]
      }
    }
    return;
 8005f9a:	e1b9      	b.n	8006310 <HAL_UART_IRQHandler+0x62c>
        if (HAL_IS_BIT_SET(huart->Instance->CR3, USART_CR3_DMAR))
 8005f9c:	46c0      	nop			@ (mov r8, r8)
    return;
 8005f9e:	e1b7      	b.n	8006310 <HAL_UART_IRQHandler+0x62c>
 8005fa0:	0000080f 	.word	0x0000080f
 8005fa4:	10000001 	.word	0x10000001
 8005fa8:	04000120 	.word	0x04000120
 8005fac:	08006d4d 	.word	0x08006d4d

  } /* End if some error occurs */

  /* Check current reception Mode :
     If Reception till IDLE event has been selected : */
  if ((huart->ReceptionType == HAL_UART_RECEPTION_TOIDLE)
 8005fb0:	687b      	ldr	r3, [r7, #4]
 8005fb2:	6edb      	ldr	r3, [r3, #108]	@ 0x6c
 8005fb4:	2b01      	cmp	r3, #1
 8005fb6:	d000      	beq.n	8005fba <HAL_UART_IRQHandler+0x2d6>
 8005fb8:	e13e      	b.n	8006238 <HAL_UART_IRQHandler+0x554>
      && ((isrflags & USART_ISR_IDLE) != 0U)
 8005fba:	23a4      	movs	r3, #164	@ 0xa4
 8005fbc:	18fb      	adds	r3, r7, r3
 8005fbe:	681b      	ldr	r3, [r3, #0]
 8005fc0:	2210      	movs	r2, #16
 8005fc2:	4013      	ands	r3, r2
 8005fc4:	d100      	bne.n	8005fc8 <HAL_UART_IRQHandler+0x2e4>
 8005fc6:	e137      	b.n	8006238 <HAL_UART_IRQHandler+0x554>
      && ((cr1its & USART_ISR_IDLE) != 0U))
 8005fc8:	23a0      	movs	r3, #160	@ 0xa0
 8005fca:	18fb      	adds	r3, r7, r3
 8005fcc:	681b      	ldr	r3, [r3, #0]
 8005fce:	2210      	movs	r2, #16
 8005fd0:	4013      	ands	r3, r2
 8005fd2:	d100      	bne.n	8005fd6 <HAL_UART_IRQHandler+0x2f2>
 8005fd4:	e130      	b.n	8006238 <HAL_UART_IRQHandler+0x554>
  {
    __HAL_UART_CLEAR_FLAG(huart, UART_CLEAR_IDLEF);
 8005fd6:	687b      	ldr	r3, [r7, #4]
 8005fd8:	681b      	ldr	r3, [r3, #0]
 8005fda:	2210      	movs	r2, #16
 8005fdc:	621a      	str	r2, [r3, #32]

    /* Check if DMA mode is enabled in UART */
    if (HAL_IS_BIT_SET(huart->Instance->CR3, USART_CR3_DMAR))
 8005fde:	687b      	ldr	r3, [r7, #4]
 8005fe0:	681b      	ldr	r3, [r3, #0]
 8005fe2:	689b      	ldr	r3, [r3, #8]
 8005fe4:	2240      	movs	r2, #64	@ 0x40
 8005fe6:	4013      	ands	r3, r2
 8005fe8:	2b40      	cmp	r3, #64	@ 0x40
 8005fea:	d000      	beq.n	8005fee <HAL_UART_IRQHandler+0x30a>
 8005fec:	e0a4      	b.n	8006138 <HAL_UART_IRQHandler+0x454>
    {
      /* DMA mode enabled */
      /* Check received length : If all expected data are received, do nothing,
         (DMA cplt callback will be called).
         Otherwise, if at least one data has already been received, IDLE event is to be notified to user */
      uint16_t nb_remaining_rx_data = (uint16_t) __HAL_DMA_GET_COUNTER(huart->hdmarx);
 8005fee:	687b      	ldr	r3, [r7, #4]
 8005ff0:	2280      	movs	r2, #128	@ 0x80
 8005ff2:	589b      	ldr	r3, [r3, r2]
 8005ff4:	681b      	ldr	r3, [r3, #0]
 8005ff6:	685a      	ldr	r2, [r3, #4]
 8005ff8:	217e      	movs	r1, #126	@ 0x7e
 8005ffa:	187b      	adds	r3, r7, r1
 8005ffc:	801a      	strh	r2, [r3, #0]
      if ((nb_remaining_rx_data > 0U)
 8005ffe:	187b      	adds	r3, r7, r1
 8006000:	881b      	ldrh	r3, [r3, #0]
 8006002:	2b00      	cmp	r3, #0
 8006004:	d100      	bne.n	8006008 <HAL_UART_IRQHandler+0x324>
 8006006:	e185      	b.n	8006314 <HAL_UART_IRQHandler+0x630>
          && (nb_remaining_rx_data < huart->RxXferSize))
 8006008:	687b      	ldr	r3, [r7, #4]
 800600a:	225c      	movs	r2, #92	@ 0x5c
 800600c:	5a9b      	ldrh	r3, [r3, r2]
 800600e:	187a      	adds	r2, r7, r1
 8006010:	8812      	ldrh	r2, [r2, #0]
 8006012:	429a      	cmp	r2, r3
 8006014:	d300      	bcc.n	8006018 <HAL_UART_IRQHandler+0x334>
 8006016:	e17d      	b.n	8006314 <HAL_UART_IRQHandler+0x630>
      {
        /* Reception is not complete */
        huart->RxXferCount = nb_remaining_rx_data;
 8006018:	687b      	ldr	r3, [r7, #4]
 800601a:	187a      	adds	r2, r7, r1
 800601c:	215e      	movs	r1, #94	@ 0x5e
 800601e:	8812      	ldrh	r2, [r2, #0]
 8006020:	525a      	strh	r2, [r3, r1]

        /* In Normal mode, end DMA xfer and HAL UART Rx process*/
        if (HAL_IS_BIT_CLR(huart->hdmarx->Instance->CCR, DMA_CCR_CIRC))
 8006022:	687b      	ldr	r3, [r7, #4]
 8006024:	2280      	movs	r2, #128	@ 0x80
 8006026:	589b      	ldr	r3, [r3, r2]
 8006028:	681b      	ldr	r3, [r3, #0]
 800602a:	681b      	ldr	r3, [r3, #0]
 800602c:	2220      	movs	r2, #32
 800602e:	4013      	ands	r3, r2
 8006030:	d170      	bne.n	8006114 <HAL_UART_IRQHandler+0x430>
  __ASM volatile ("MRS %0, primask" : "=r" (result) :: "memory");
 8006032:	f3ef 8310 	mrs	r3, PRIMASK
 8006036:	633b      	str	r3, [r7, #48]	@ 0x30
  return(result);
 8006038:	6b3b      	ldr	r3, [r7, #48]	@ 0x30
        {
          /* Disable PE and ERR (Frame error, noise error, overrun error) interrupts */
          ATOMIC_CLEAR_BIT(huart->Instance->CR1, USART_CR1_PEIE);
 800603a:	67bb      	str	r3, [r7, #120]	@ 0x78
 800603c:	2301      	movs	r3, #1
 800603e:	637b      	str	r3, [r7, #52]	@ 0x34
  __ASM volatile ("MSR primask, %0" : : "r" (priMask) : "memory");
 8006040:	6b7b      	ldr	r3, [r7, #52]	@ 0x34
 8006042:	f383 8810 	msr	PRIMASK, r3
}
 8006046:	46c0      	nop			@ (mov r8, r8)
 8006048:	687b      	ldr	r3, [r7, #4]
 800604a:	681b      	ldr	r3, [r3, #0]
 800604c:	681a      	ldr	r2, [r3, #0]
 800604e:	687b      	ldr	r3, [r7, #4]
 8006050:	681b      	ldr	r3, [r3, #0]
 8006052:	49b4      	ldr	r1, [pc, #720]	@ (8006324 <HAL_UART_IRQHandler+0x640>)
 8006054:	400a      	ands	r2, r1
 8006056:	601a      	str	r2, [r3, #0]
 8006058:	6fbb      	ldr	r3, [r7, #120]	@ 0x78
 800605a:	63bb      	str	r3, [r7, #56]	@ 0x38
  __ASM volatile ("MSR primask, %0" : : "r" (priMask) : "memory");
 800605c:	6bbb      	ldr	r3, [r7, #56]	@ 0x38
 800605e:	f383 8810 	msr	PRIMASK, r3
}
 8006062:	46c0      	nop			@ (mov r8, r8)
  __ASM volatile ("MRS %0, primask" : "=r" (result) :: "memory");
 8006064:	f3ef 8310 	mrs	r3, PRIMASK
 8006068:	63fb      	str	r3, [r7, #60]	@ 0x3c
  return(result);
 800606a:	6bfb      	ldr	r3, [r7, #60]	@ 0x3c
          ATOMIC_CLEAR_BIT(huart->Instance->CR3, USART_CR3_EIE);
 800606c:	677b      	str	r3, [r7, #116]	@ 0x74
 800606e:	2301      	movs	r3, #1
 8006070:	643b      	str	r3, [r7, #64]	@ 0x40
  __ASM volatile ("MSR primask, %0" : : "r" (priMask) : "memory");
 8006072:	6c3b      	ldr	r3, [r7, #64]	@ 0x40
 8006074:	f383 8810 	msr	PRIMASK, r3
}
 8006078:	46c0      	nop			@ (mov r8, r8)
 800607a:	687b      	ldr	r3, [r7, #4]
 800607c:	681b      	ldr	r3, [r3, #0]
 800607e:	689a      	ldr	r2, [r3, #8]
 8006080:	687b      	ldr	r3, [r7, #4]
 8006082:	681b      	ldr	r3, [r3, #0]
 8006084:	2101      	movs	r1, #1
 8006086:	438a      	bics	r2, r1
 8006088:	609a      	str	r2, [r3, #8]
 800608a:	6f7b      	ldr	r3, [r7, #116]	@ 0x74
 800608c:	647b      	str	r3, [r7, #68]	@ 0x44
  __ASM volatile ("MSR primask, %0" : : "r" (priMask) : "memory");
 800608e:	6c7b      	ldr	r3, [r7, #68]	@ 0x44
 8006090:	f383 8810 	msr	PRIMASK, r3
}
 8006094:	46c0      	nop			@ (mov r8, r8)
  __ASM volatile ("MRS %0, primask" : "=r" (result) :: "memory");
 8006096:	f3ef 8310 	mrs	r3, PRIMASK
 800609a:	64bb      	str	r3, [r7, #72]	@ 0x48
  return(result);
 800609c:	6cbb      	ldr	r3, [r7, #72]	@ 0x48

          /* Disable the DMA transfer for the receiver request by resetting the DMAR bit
             in the UART CR3 register */
          ATOMIC_CLEAR_BIT(huart->Instance->CR3, USART_CR3_DMAR);
 800609e:	673b      	str	r3, [r7, #112]	@ 0x70
 80060a0:	2301      	movs	r3, #1
 80060a2:	64fb      	str	r3, [r7, #76]	@ 0x4c
  __ASM volatile ("MSR primask, %0" : : "r" (priMask) : "memory");
 80060a4:	6cfb      	ldr	r3, [r7, #76]	@ 0x4c
 80060a6:	f383 8810 	msr	PRIMASK, r3
}
 80060aa:	46c0      	nop			@ (mov r8, r8)
 80060ac:	687b      	ldr	r3, [r7, #4]
 80060ae:	681b      	ldr	r3, [r3, #0]
 80060b0:	689a      	ldr	r2, [r3, #8]
 80060b2:	687b      	ldr	r3, [r7, #4]
 80060b4:	681b      	ldr	r3, [r3, #0]
 80060b6:	2140      	movs	r1, #64	@ 0x40
 80060b8:	438a      	bics	r2, r1
 80060ba:	609a      	str	r2, [r3, #8]
 80060bc:	6f3b      	ldr	r3, [r7, #112]	@ 0x70
 80060be:	653b      	str	r3, [r7, #80]	@ 0x50
  __ASM volatile ("MSR primask, %0" : : "r" (priMask) : "memory");
 80060c0:	6d3b      	ldr	r3, [r7, #80]	@ 0x50
 80060c2:	f383 8810 	msr	PRIMASK, r3
}
 80060c6:	46c0      	nop			@ (mov r8, r8)

          /* At end of Rx process, restore huart->RxState to Ready */
          huart->RxState = HAL_UART_STATE_READY;
 80060c8:	687b      	ldr	r3, [r7, #4]
 80060ca:	228c      	movs	r2, #140	@ 0x8c
 80060cc:	2120      	movs	r1, #32
 80060ce:	5099      	str	r1, [r3, r2]
          huart->ReceptionType = HAL_UART_RECEPTION_STANDARD;
 80060d0:	687b      	ldr	r3, [r7, #4]
 80060d2:	2200      	movs	r2, #0
 80060d4:	66da      	str	r2, [r3, #108]	@ 0x6c
  __ASM volatile ("MRS %0, primask" : "=r" (result) :: "memory");
 80060d6:	f3ef 8310 	mrs	r3, PRIMASK
 80060da:	657b      	str	r3, [r7, #84]	@ 0x54
  return(result);
 80060dc:	6d7b      	ldr	r3, [r7, #84]	@ 0x54

          ATOMIC_CLEAR_BIT(huart->Instance->CR1, USART_CR1_IDLEIE);
 80060de:	66fb      	str	r3, [r7, #108]	@ 0x6c
 80060e0:	2301      	movs	r3, #1
 80060e2:	65bb      	str	r3, [r7, #88]	@ 0x58
  __ASM volatile ("MSR primask, %0" : : "r" (priMask) : "memory");
 80060e4:	6dbb      	ldr	r3, [r7, #88]	@ 0x58
 80060e6:	f383 8810 	msr	PRIMASK, r3
}
 80060ea:	46c0      	nop			@ (mov r8, r8)
 80060ec:	687b      	ldr	r3, [r7, #4]
 80060ee:	681b      	ldr	r3, [r3, #0]
 80060f0:	681a      	ldr	r2, [r3, #0]
 80060f2:	687b      	ldr	r3, [r7, #4]
 80060f4:	681b      	ldr	r3, [r3, #0]
 80060f6:	2110      	movs	r1, #16
 80060f8:	438a      	bics	r2, r1
 80060fa:	601a      	str	r2, [r3, #0]
 80060fc:	6efb      	ldr	r3, [r7, #108]	@ 0x6c
 80060fe:	65fb      	str	r3, [r7, #92]	@ 0x5c
  __ASM volatile ("MSR primask, %0" : : "r" (priMask) : "memory");
 8006100:	6dfb      	ldr	r3, [r7, #92]	@ 0x5c
 8006102:	f383 8810 	msr	PRIMASK, r3
}
 8006106:	46c0      	nop			@ (mov r8, r8)

          /* Last bytes received, so no need as the abort is immediate */
          (void)HAL_DMA_Abort(huart->hdmarx);
 8006108:	687b      	ldr	r3, [r7, #4]
 800610a:	2280      	movs	r2, #128	@ 0x80
 800610c:	589b      	ldr	r3, [r3, r2]
 800610e:	0018      	movs	r0, r3
 8006110:	f7fe f9be 	bl	8004490 <HAL_DMA_Abort>
        }

        /* Initialize type of RxEvent that correspond to RxEvent callback execution;
           In this case, Rx Event type is Idle Event */
        huart->RxEventType = HAL_UART_RXEVENT_IDLE;
 8006114:	687b      	ldr	r3, [r7, #4]
 8006116:	2202      	movs	r2, #2
 8006118:	671a      	str	r2, [r3, #112]	@ 0x70
#if (USE_HAL_UART_REGISTER_CALLBACKS == 1)
        /*Call registered Rx Event callback*/
        huart->RxEventCallback(huart, (huart->RxXferSize - huart->RxXferCount));
#else
        /*Call legacy weak Rx Event callback*/
        HAL_UARTEx_RxEventCallback(huart, (huart->RxXferSize - huart->RxXferCount));
 800611a:	687b      	ldr	r3, [r7, #4]
 800611c:	225c      	movs	r2, #92	@ 0x5c
 800611e:	5a9a      	ldrh	r2, [r3, r2]
 8006120:	687b      	ldr	r3, [r7, #4]
 8006122:	215e      	movs	r1, #94	@ 0x5e
 8006124:	5a5b      	ldrh	r3, [r3, r1]
 8006126:	b29b      	uxth	r3, r3
 8006128:	1ad3      	subs	r3, r2, r3
 800612a:	b29a      	uxth	r2, r3
 800612c:	687b      	ldr	r3, [r7, #4]
 800612e:	0011      	movs	r1, r2
 8006130:	0018      	movs	r0, r3
 8006132:	f000 f90d 	bl	8006350 <HAL_UARTEx_RxEventCallback>
#endif /* (USE_HAL_UART_REGISTER_CALLBACKS) */
      }
      return;
 8006136:	e0ed      	b.n	8006314 <HAL_UART_IRQHandler+0x630>
    else
    {
      /* DMA mode not enabled */
      /* Check received length : If all expected data are received, do nothing.
         Otherwise, if at least one data has already been received, IDLE event is to be notified to user */
      uint16_t nb_rx_data = huart->RxXferSize - huart->RxXferCount;
 8006138:	687b      	ldr	r3, [r7, #4]
 800613a:	225c      	movs	r2, #92	@ 0x5c
 800613c:	5a99      	ldrh	r1, [r3, r2]
 800613e:	687b      	ldr	r3, [r7, #4]
 8006140:	225e      	movs	r2, #94	@ 0x5e
 8006142:	5a9b      	ldrh	r3, [r3, r2]
 8006144:	b29a      	uxth	r2, r3
 8006146:	208e      	movs	r0, #142	@ 0x8e
 8006148:	183b      	adds	r3, r7, r0
 800614a:	1a8a      	subs	r2, r1, r2
 800614c:	801a      	strh	r2, [r3, #0]
      if ((huart->RxXferCount > 0U)
 800614e:	687b      	ldr	r3, [r7, #4]
 8006150:	225e      	movs	r2, #94	@ 0x5e
 8006152:	5a9b      	ldrh	r3, [r3, r2]
 8006154:	b29b      	uxth	r3, r3
 8006156:	2b00      	cmp	r3, #0
 8006158:	d100      	bne.n	800615c <HAL_UART_IRQHandler+0x478>
 800615a:	e0dd      	b.n	8006318 <HAL_UART_IRQHandler+0x634>
          && (nb_rx_data > 0U))
 800615c:	183b      	adds	r3, r7, r0
 800615e:	881b      	ldrh	r3, [r3, #0]
 8006160:	2b00      	cmp	r3, #0
 8006162:	d100      	bne.n	8006166 <HAL_UART_IRQHandler+0x482>
 8006164:	e0d8      	b.n	8006318 <HAL_UART_IRQHandler+0x634>
  __ASM volatile ("MRS %0, primask" : "=r" (result) :: "memory");
 8006166:	f3ef 8310 	mrs	r3, PRIMASK
 800616a:	60fb      	str	r3, [r7, #12]
  return(result);
 800616c:	68fb      	ldr	r3, [r7, #12]
      {
        /* Disable the UART Parity Error Interrupt and RXNE interrupts */
        ATOMIC_CLEAR_BIT(huart->Instance->CR1, (USART_CR1_RXNEIE_RXFNEIE | USART_CR1_PEIE));
 800616e:	2488      	movs	r4, #136	@ 0x88
 8006170:	193a      	adds	r2, r7, r4
 8006172:	6013      	str	r3, [r2, #0]
 8006174:	2301      	movs	r3, #1
 8006176:	613b      	str	r3, [r7, #16]
  __ASM volatile ("MSR primask, %0" : : "r" (priMask) : "memory");
 8006178:	693b      	ldr	r3, [r7, #16]
 800617a:	f383 8810 	msr	PRIMASK, r3
}
 800617e:	46c0      	nop			@ (mov r8, r8)
 8006180:	687b      	ldr	r3, [r7, #4]
 8006182:	681b      	ldr	r3, [r3, #0]
 8006184:	681a      	ldr	r2, [r3, #0]
 8006186:	687b      	ldr	r3, [r7, #4]
 8006188:	681b      	ldr	r3, [r3, #0]
 800618a:	4967      	ldr	r1, [pc, #412]	@ (8006328 <HAL_UART_IRQHandler+0x644>)
 800618c:	400a      	ands	r2, r1
 800618e:	601a      	str	r2, [r3, #0]
 8006190:	193b      	adds	r3, r7, r4
 8006192:	681b      	ldr	r3, [r3, #0]
 8006194:	617b      	str	r3, [r7, #20]
  __ASM volatile ("MSR primask, %0" : : "r" (priMask) : "memory");
 8006196:	697b      	ldr	r3, [r7, #20]
 8006198:	f383 8810 	msr	PRIMASK, r3
}
 800619c:	46c0      	nop			@ (mov r8, r8)
  __ASM volatile ("MRS %0, primask" : "=r" (result) :: "memory");
 800619e:	f3ef 8310 	mrs	r3, PRIMASK
 80061a2:	61bb      	str	r3, [r7, #24]
  return(result);
 80061a4:	69bb      	ldr	r3, [r7, #24]

        /* Disable the UART Error Interrupt:(Frame error, noise error, overrun error) and RX FIFO Threshold interrupt */
        ATOMIC_CLEAR_BIT(huart->Instance->CR3, (USART_CR3_EIE | USART_CR3_RXFTIE));
 80061a6:	2484      	movs	r4, #132	@ 0x84
 80061a8:	193a      	adds	r2, r7, r4
 80061aa:	6013      	str	r3, [r2, #0]
 80061ac:	2301      	movs	r3, #1
 80061ae:	61fb      	str	r3, [r7, #28]
  __ASM volatile ("MSR primask, %0" : : "r" (priMask) : "memory");
 80061b0:	69fb      	ldr	r3, [r7, #28]
 80061b2:	f383 8810 	msr	PRIMASK, r3
}
 80061b6:	46c0      	nop			@ (mov r8, r8)
 80061b8:	687b      	ldr	r3, [r7, #4]
 80061ba:	681b      	ldr	r3, [r3, #0]
 80061bc:	689a      	ldr	r2, [r3, #8]
 80061be:	687b      	ldr	r3, [r7, #4]
 80061c0:	681b      	ldr	r3, [r3, #0]
 80061c2:	495a      	ldr	r1, [pc, #360]	@ (800632c <HAL_UART_IRQHandler+0x648>)
 80061c4:	400a      	ands	r2, r1
 80061c6:	609a      	str	r2, [r3, #8]
 80061c8:	193b      	adds	r3, r7, r4
 80061ca:	681b      	ldr	r3, [r3, #0]
 80061cc:	623b      	str	r3, [r7, #32]
  __ASM volatile ("MSR primask, %0" : : "r" (priMask) : "memory");
 80061ce:	6a3b      	ldr	r3, [r7, #32]
 80061d0:	f383 8810 	msr	PRIMASK, r3
}
 80061d4:	46c0      	nop			@ (mov r8, r8)

        /* Rx process is completed, restore huart->RxState to Ready */
        huart->RxState = HAL_UART_STATE_READY;
 80061d6:	687b      	ldr	r3, [r7, #4]
 80061d8:	228c      	movs	r2, #140	@ 0x8c
 80061da:	2120      	movs	r1, #32
 80061dc:	5099      	str	r1, [r3, r2]
        huart->ReceptionType = HAL_UART_RECEPTION_STANDARD;
 80061de:	687b      	ldr	r3, [r7, #4]
 80061e0:	2200      	movs	r2, #0
 80061e2:	66da      	str	r2, [r3, #108]	@ 0x6c

        /* Clear RxISR function pointer */
        huart->RxISR = NULL;
 80061e4:	687b      	ldr	r3, [r7, #4]
 80061e6:	2200      	movs	r2, #0
 80061e8:	675a      	str	r2, [r3, #116]	@ 0x74
  __ASM volatile ("MRS %0, primask" : "=r" (result) :: "memory");
 80061ea:	f3ef 8310 	mrs	r3, PRIMASK
 80061ee:	627b      	str	r3, [r7, #36]	@ 0x24
  return(result);
 80061f0:	6a7b      	ldr	r3, [r7, #36]	@ 0x24

        ATOMIC_CLEAR_BIT(huart->Instance->CR1, USART_CR1_IDLEIE);
 80061f2:	2480      	movs	r4, #128	@ 0x80
 80061f4:	193a      	adds	r2, r7, r4
 80061f6:	6013      	str	r3, [r2, #0]
 80061f8:	2301      	movs	r3, #1
 80061fa:	62bb      	str	r3, [r7, #40]	@ 0x28
  __ASM volatile ("MSR primask, %0" : : "r" (priMask) : "memory");
 80061fc:	6abb      	ldr	r3, [r7, #40]	@ 0x28
 80061fe:	f383 8810 	msr	PRIMASK, r3
}
 8006202:	46c0      	nop			@ (mov r8, r8)
 8006204:	687b      	ldr	r3, [r7, #4]
 8006206:	681b      	ldr	r3, [r3, #0]
 8006208:	681a      	ldr	r2, [r3, #0]
 800620a:	687b      	ldr	r3, [r7, #4]
 800620c:	681b      	ldr	r3, [r3, #0]
 800620e:	2110      	movs	r1, #16
 8006210:	438a      	bics	r2, r1
 8006212:	601a      	str	r2, [r3, #0]
 8006214:	193b      	adds	r3, r7, r4
 8006216:	681b      	ldr	r3, [r3, #0]
 8006218:	62fb      	str	r3, [r7, #44]	@ 0x2c
  __ASM volatile ("MSR primask, %0" : : "r" (priMask) : "memory");
 800621a:	6afb      	ldr	r3, [r7, #44]	@ 0x2c
 800621c:	f383 8810 	msr	PRIMASK, r3
}
 8006220:	46c0      	nop			@ (mov r8, r8)

        /* Initialize type of RxEvent that correspond to RxEvent callback execution;
           In this case, Rx Event type is Idle Event */
        huart->RxEventType = HAL_UART_RXEVENT_IDLE;
 8006222:	687b      	ldr	r3, [r7, #4]
 8006224:	2202      	movs	r2, #2
 8006226:	671a      	str	r2, [r3, #112]	@ 0x70
#if (USE_HAL_UART_REGISTER_CALLBACKS == 1)
        /*Call registered Rx complete callback*/
        huart->RxEventCallback(huart, nb_rx_data);
#else
        /*Call legacy weak Rx Event callback*/
        HAL_UARTEx_RxEventCallback(huart, nb_rx_data);
 8006228:	183b      	adds	r3, r7, r0
 800622a:	881a      	ldrh	r2, [r3, #0]
 800622c:	687b      	ldr	r3, [r7, #4]
 800622e:	0011      	movs	r1, r2
 8006230:	0018      	movs	r0, r3
 8006232:	f000 f88d 	bl	8006350 <HAL_UARTEx_RxEventCallback>
#endif /* (USE_HAL_UART_REGISTER_CALLBACKS) */
      }
      return;
 8006236:	e06f      	b.n	8006318 <HAL_UART_IRQHandler+0x634>
    }
  }

  /* UART wakeup from Stop mode interrupt occurred ---------------------------*/
  if (((isrflags & USART_ISR_WUF) != 0U) && ((cr3its & USART_CR3_WUFIE) != 0U))
 8006238:	23a4      	movs	r3, #164	@ 0xa4
 800623a:	18fb      	adds	r3, r7, r3
 800623c:	681a      	ldr	r2, [r3, #0]
 800623e:	2380      	movs	r3, #128	@ 0x80
 8006240:	035b      	lsls	r3, r3, #13
 8006242:	4013      	ands	r3, r2
 8006244:	d010      	beq.n	8006268 <HAL_UART_IRQHandler+0x584>
 8006246:	239c      	movs	r3, #156	@ 0x9c
 8006248:	18fb      	adds	r3, r7, r3
 800624a:	681a      	ldr	r2, [r3, #0]
 800624c:	2380      	movs	r3, #128	@ 0x80
 800624e:	03db      	lsls	r3, r3, #15
 8006250:	4013      	ands	r3, r2
 8006252:	d009      	beq.n	8006268 <HAL_UART_IRQHandler+0x584>
  {
    __HAL_UART_CLEAR_FLAG(huart, UART_CLEAR_WUF);
 8006254:	687b      	ldr	r3, [r7, #4]
 8006256:	681b      	ldr	r3, [r3, #0]
 8006258:	2280      	movs	r2, #128	@ 0x80
 800625a:	0352      	lsls	r2, r2, #13
 800625c:	621a      	str	r2, [r3, #32]
#if (USE_HAL_UART_REGISTER_CALLBACKS == 1)
    /* Call registered Wakeup Callback */
    huart->WakeupCallback(huart);
#else
    /* Call legacy weak Wakeup Callback */
    HAL_UARTEx_WakeupCallback(huart);
 800625e:	687b      	ldr	r3, [r7, #4]
 8006260:	0018      	movs	r0, r3
 8006262:	f000 fdb6 	bl	8006dd2 <HAL_UARTEx_WakeupCallback>
#endif /* USE_HAL_UART_REGISTER_CALLBACKS */
    return;
 8006266:	e05a      	b.n	800631e <HAL_UART_IRQHandler+0x63a>
  }

  /* UART in mode Transmitter ------------------------------------------------*/
  if (((isrflags & USART_ISR_TXE_TXFNF) != 0U)
 8006268:	23a4      	movs	r3, #164	@ 0xa4
 800626a:	18fb      	adds	r3, r7, r3
 800626c:	681b      	ldr	r3, [r3, #0]
 800626e:	2280      	movs	r2, #128	@ 0x80
 8006270:	4013      	ands	r3, r2
 8006272:	d016      	beq.n	80062a2 <HAL_UART_IRQHandler+0x5be>
      && (((cr1its & USART_CR1_TXEIE_TXFNFIE) != 0U)
 8006274:	23a0      	movs	r3, #160	@ 0xa0
 8006276:	18fb      	adds	r3, r7, r3
 8006278:	681b      	ldr	r3, [r3, #0]
 800627a:	2280      	movs	r2, #128	@ 0x80
 800627c:	4013      	ands	r3, r2
 800627e:	d106      	bne.n	800628e <HAL_UART_IRQHandler+0x5aa>
          || ((cr3its & USART_CR3_TXFTIE) != 0U)))
 8006280:	239c      	movs	r3, #156	@ 0x9c
 8006282:	18fb      	adds	r3, r7, r3
 8006284:	681a      	ldr	r2, [r3, #0]
 8006286:	2380      	movs	r3, #128	@ 0x80
 8006288:	041b      	lsls	r3, r3, #16
 800628a:	4013      	ands	r3, r2
 800628c:	d009      	beq.n	80062a2 <HAL_UART_IRQHandler+0x5be>
  {
    if (huart->TxISR != NULL)
 800628e:	687b      	ldr	r3, [r7, #4]
 8006290:	6f9b      	ldr	r3, [r3, #120]	@ 0x78
 8006292:	2b00      	cmp	r3, #0
 8006294:	d042      	beq.n	800631c <HAL_UART_IRQHandler+0x638>
    {
      huart->TxISR(huart);
 8006296:	687b      	ldr	r3, [r7, #4]
 8006298:	6f9b      	ldr	r3, [r3, #120]	@ 0x78
 800629a:	687a      	ldr	r2, [r7, #4]
 800629c:	0010      	movs	r0, r2
 800629e:	4798      	blx	r3
    }
    return;
 80062a0:	e03c      	b.n	800631c <HAL_UART_IRQHandler+0x638>
  }

  /* UART in mode Transmitter (transmission end) -----------------------------*/
  if (((isrflags & USART_ISR_TC) != 0U) && ((cr1its & USART_CR1_TCIE) != 0U))
 80062a2:	23a4      	movs	r3, #164	@ 0xa4
 80062a4:	18fb      	adds	r3, r7, r3
 80062a6:	681b      	ldr	r3, [r3, #0]
 80062a8:	2240      	movs	r2, #64	@ 0x40
 80062aa:	4013      	ands	r3, r2
 80062ac:	d00a      	beq.n	80062c4 <HAL_UART_IRQHandler+0x5e0>
 80062ae:	23a0      	movs	r3, #160	@ 0xa0
 80062b0:	18fb      	adds	r3, r7, r3
 80062b2:	681b      	ldr	r3, [r3, #0]
 80062b4:	2240      	movs	r2, #64	@ 0x40
 80062b6:	4013      	ands	r3, r2
 80062b8:	d004      	beq.n	80062c4 <HAL_UART_IRQHandler+0x5e0>
  {
    UART_EndTransmit_IT(huart);
 80062ba:	687b      	ldr	r3, [r7, #4]
 80062bc:	0018      	movs	r0, r3
 80062be:	f000 fd5c 	bl	8006d7a <UART_EndTransmit_IT>
    return;
 80062c2:	e02c      	b.n	800631e <HAL_UART_IRQHandler+0x63a>
  }

  /* UART TX Fifo Empty occurred ----------------------------------------------*/
  if (((isrflags & USART_ISR_TXFE) != 0U) && ((cr1its & USART_CR1_TXFEIE) != 0U))
 80062c4:	23a4      	movs	r3, #164	@ 0xa4
 80062c6:	18fb      	adds	r3, r7, r3
 80062c8:	681a      	ldr	r2, [r3, #0]
 80062ca:	2380      	movs	r3, #128	@ 0x80
 80062cc:	041b      	lsls	r3, r3, #16
 80062ce:	4013      	ands	r3, r2
 80062d0:	d00b      	beq.n	80062ea <HAL_UART_IRQHandler+0x606>
 80062d2:	23a0      	movs	r3, #160	@ 0xa0
 80062d4:	18fb      	adds	r3, r7, r3
 80062d6:	681a      	ldr	r2, [r3, #0]
 80062d8:	2380      	movs	r3, #128	@ 0x80
 80062da:	05db      	lsls	r3, r3, #23
 80062dc:	4013      	ands	r3, r2
 80062de:	d004      	beq.n	80062ea <HAL_UART_IRQHandler+0x606>
#if (USE_HAL_UART_REGISTER_CALLBACKS == 1)
    /* Call registered Tx Fifo Empty Callback */
    huart->TxFifoEmptyCallback(huart);
#else
    /* Call legacy weak Tx Fifo Empty Callback */
    HAL_UARTEx_TxFifoEmptyCallback(huart);
 80062e0:	687b      	ldr	r3, [r7, #4]
 80062e2:	0018      	movs	r0, r3
 80062e4:	f000 fd85 	bl	8006df2 <HAL_UARTEx_TxFifoEmptyCallback>
#endif /* USE_HAL_UART_REGISTER_CALLBACKS */
    return;
 80062e8:	e019      	b.n	800631e <HAL_UART_IRQHandler+0x63a>
  }

  /* UART RX Fifo Full occurred ----------------------------------------------*/
  if (((isrflags & USART_ISR_RXFF) != 0U) && ((cr1its & USART_CR1_RXFFIE) != 0U))
 80062ea:	23a4      	movs	r3, #164	@ 0xa4
 80062ec:	18fb      	adds	r3, r7, r3
 80062ee:	681a      	ldr	r2, [r3, #0]
 80062f0:	2380      	movs	r3, #128	@ 0x80
 80062f2:	045b      	lsls	r3, r3, #17
 80062f4:	4013      	ands	r3, r2
 80062f6:	d012      	beq.n	800631e <HAL_UART_IRQHandler+0x63a>
 80062f8:	23a0      	movs	r3, #160	@ 0xa0
 80062fa:	18fb      	adds	r3, r7, r3
 80062fc:	681b      	ldr	r3, [r3, #0]
 80062fe:	2b00      	cmp	r3, #0
 8006300:	da0d      	bge.n	800631e <HAL_UART_IRQHandler+0x63a>
#if (USE_HAL_UART_REGISTER_CALLBACKS == 1)
    /* Call registered Rx Fifo Full Callback */
    huart->RxFifoFullCallback(huart);
#else
    /* Call legacy weak Rx Fifo Full Callback */
    HAL_UARTEx_RxFifoFullCallback(huart);
 8006302:	687b      	ldr	r3, [r7, #4]
 8006304:	0018      	movs	r0, r3
 8006306:	f000 fd6c 	bl	8006de2 <HAL_UARTEx_RxFifoFullCallback>
#endif /* USE_HAL_UART_REGISTER_CALLBACKS */
    return;
 800630a:	e008      	b.n	800631e <HAL_UART_IRQHandler+0x63a>
      return;
 800630c:	46c0      	nop			@ (mov r8, r8)
 800630e:	e006      	b.n	800631e <HAL_UART_IRQHandler+0x63a>
    return;
 8006310:	46c0      	nop			@ (mov r8, r8)
 8006312:	e004      	b.n	800631e <HAL_UART_IRQHandler+0x63a>
      return;
 8006314:	46c0      	nop			@ (mov r8, r8)
 8006316:	e002      	b.n	800631e <HAL_UART_IRQHandler+0x63a>
      return;
 8006318:	46c0      	nop			@ (mov r8, r8)
 800631a:	e000      	b.n	800631e <HAL_UART_IRQHandler+0x63a>
    return;
 800631c:	46c0      	nop			@ (mov r8, r8)
  }
}
 800631e:	46bd      	mov	sp, r7
 8006320:	b02a      	add	sp, #168	@ 0xa8
 8006322:	bdb0      	pop	{r4, r5, r7, pc}
 8006324:	fffffeff 	.word	0xfffffeff
 8006328:	fffffedf 	.word	0xfffffedf
 800632c:	effffffe 	.word	0xeffffffe

08006330 <HAL_UART_TxCpltCallback>:
  * @brief Tx Transfer completed callback.
  * @param huart UART handle.
  * @retval None
  */
__weak void HAL_UART_TxCpltCallback(UART_HandleTypeDef *huart)
{
 8006330:	b580      	push	{r7, lr}
 8006332:	b082      	sub	sp, #8
 8006334:	af00      	add	r7, sp, #0
 8006336:	6078      	str	r0, [r7, #4]
  UNUSED(huart);

  /* NOTE : This function should not be modified, when the callback is needed,
            the HAL_UART_TxCpltCallback can be implemented in the user file.
   */
}
 8006338:	46c0      	nop			@ (mov r8, r8)
 800633a:	46bd      	mov	sp, r7
 800633c:	b002      	add	sp, #8
 800633e:	bd80      	pop	{r7, pc}

08006340 <HAL_UART_ErrorCallback>:
  * @brief  UART error callback.
  * @param  huart UART handle.
  * @retval None
  */
__weak void HAL_UART_ErrorCallback(UART_HandleTypeDef *huart)
{
 8006340:	b580      	push	{r7, lr}
 8006342:	b082      	sub	sp, #8
 8006344:	af00      	add	r7, sp, #0
 8006346:	6078      	str	r0, [r7, #4]
  UNUSED(huart);

  /* NOTE : This function should not be modified, when the callback is needed,
            the HAL_UART_ErrorCallback can be implemented in the user file.
   */
}
 8006348:	46c0      	nop			@ (mov r8, r8)
 800634a:	46bd      	mov	sp, r7
 800634c:	b002      	add	sp, #8
 800634e:	bd80      	pop	{r7, pc}

08006350 <HAL_UARTEx_RxEventCallback>:
  * @param  Size  Number of data available in application reception buffer (indicates a position in
  *               reception buffer until which, data are available)
  * @retval None
  */
__weak void HAL_UARTEx_RxEventCallback(UART_HandleTypeDef *huart, uint16_t Size)
{
 8006350:	b580      	push	{r7, lr}
 8006352:	b082      	sub	sp, #8
 8006354:	af00      	add	r7, sp, #0
 8006356:	6078      	str	r0, [r7, #4]
 8006358:	000a      	movs	r2, r1
 800635a:	1cbb      	adds	r3, r7, #2
 800635c:	801a      	strh	r2, [r3, #0]
  UNUSED(Size);

  /* NOTE : This function should not be modified, when the callback is needed,
            the HAL_UARTEx_RxEventCallback can be implemented in the user file.
   */
}
 800635e:	46c0      	nop			@ (mov r8, r8)
 8006360:	46bd      	mov	sp, r7
 8006362:	b002      	add	sp, #8
 8006364:	bd80      	pop	{r7, pc}
	...

08006368 <UART_SetConfig>:
  * @brief Configure the UART peripheral.
  * @param huart UART handle.
  * @retval HAL status
  */
HAL_StatusTypeDef UART_SetConfig(UART_HandleTypeDef *huart)
{
 8006368:	b5b0      	push	{r4, r5, r7, lr}
 800636a:	b090      	sub	sp, #64	@ 0x40
 800636c:	af00      	add	r7, sp, #0
 800636e:	6278      	str	r0, [r7, #36]	@ 0x24
  uint32_t tmpreg;
  uint16_t brrtemp;
  UART_ClockSourceTypeDef clocksource;
  uint32_t usartdiv;
  HAL_StatusTypeDef ret               = HAL_OK;
 8006370:	231a      	movs	r3, #26
 8006372:	2220      	movs	r2, #32
 8006374:	189b      	adds	r3, r3, r2
 8006376:	19db      	adds	r3, r3, r7
 8006378:	2200      	movs	r2, #0
 800637a:	701a      	strb	r2, [r3, #0]
  *  the UART Word Length, Parity, Mode and oversampling:
  *  set the M bits according to huart->Init.WordLength value
  *  set PCE and PS bits according to huart->Init.Parity value
  *  set TE and RE bits according to huart->Init.Mode value
  *  set OVER8 bit according to huart->Init.OverSampling value */
  tmpreg = (uint32_t)huart->Init.WordLength | huart->Init.Parity | huart->Init.Mode | huart->Init.OverSampling ;
 800637c:	6a7b      	ldr	r3, [r7, #36]	@ 0x24
 800637e:	689a      	ldr	r2, [r3, #8]
 8006380:	6a7b      	ldr	r3, [r7, #36]	@ 0x24
 8006382:	691b      	ldr	r3, [r3, #16]
 8006384:	431a      	orrs	r2, r3
 8006386:	6a7b      	ldr	r3, [r7, #36]	@ 0x24
 8006388:	695b      	ldr	r3, [r3, #20]
 800638a:	431a      	orrs	r2, r3
 800638c:	6a7b      	ldr	r3, [r7, #36]	@ 0x24
 800638e:	69db      	ldr	r3, [r3, #28]
 8006390:	4313      	orrs	r3, r2
 8006392:	63fb      	str	r3, [r7, #60]	@ 0x3c
  MODIFY_REG(huart->Instance->CR1, USART_CR1_FIELDS, tmpreg);
 8006394:	6a7b      	ldr	r3, [r7, #36]	@ 0x24
 8006396:	681b      	ldr	r3, [r3, #0]
 8006398:	681b      	ldr	r3, [r3, #0]
 800639a:	4aaf      	ldr	r2, [pc, #700]	@ (8006658 <UART_SetConfig+0x2f0>)
 800639c:	4013      	ands	r3, r2
 800639e:	0019      	movs	r1, r3
 80063a0:	6a7b      	ldr	r3, [r7, #36]	@ 0x24
 80063a2:	681a      	ldr	r2, [r3, #0]
 80063a4:	6bfb      	ldr	r3, [r7, #60]	@ 0x3c
 80063a6:	430b      	orrs	r3, r1
 80063a8:	6013      	str	r3, [r2, #0]

  /*-------------------------- USART CR2 Configuration -----------------------*/
  /* Configure the UART Stop Bits: Set STOP[13:12] bits according
  * to huart->Init.StopBits value */
  MODIFY_REG(huart->Instance->CR2, USART_CR2_STOP, huart->Init.StopBits);
 80063aa:	6a7b      	ldr	r3, [r7, #36]	@ 0x24
 80063ac:	681b      	ldr	r3, [r3, #0]
 80063ae:	685b      	ldr	r3, [r3, #4]
 80063b0:	4aaa      	ldr	r2, [pc, #680]	@ (800665c <UART_SetConfig+0x2f4>)
 80063b2:	4013      	ands	r3, r2
 80063b4:	0018      	movs	r0, r3
 80063b6:	6a7b      	ldr	r3, [r7, #36]	@ 0x24
 80063b8:	68d9      	ldr	r1, [r3, #12]
 80063ba:	6a7b      	ldr	r3, [r7, #36]	@ 0x24
 80063bc:	681a      	ldr	r2, [r3, #0]
 80063be:	0003      	movs	r3, r0
 80063c0:	430b      	orrs	r3, r1
 80063c2:	6053      	str	r3, [r2, #4]
  /* Configure
  * - UART HardWare Flow Control: set CTSE and RTSE bits according
  *   to huart->Init.HwFlowCtl value
  * - one-bit sampling method versus three samples' majority rule according
  *   to huart->Init.OneBitSampling (not applicable to LPUART) */
  tmpreg = (uint32_t)huart->Init.HwFlowCtl;
 80063c4:	6a7b      	ldr	r3, [r7, #36]	@ 0x24
 80063c6:	699b      	ldr	r3, [r3, #24]
 80063c8:	63fb      	str	r3, [r7, #60]	@ 0x3c

  if (!(UART_INSTANCE_LOWPOWER(huart)))
 80063ca:	6a7b      	ldr	r3, [r7, #36]	@ 0x24
 80063cc:	681b      	ldr	r3, [r3, #0]
 80063ce:	4aa4      	ldr	r2, [pc, #656]	@ (8006660 <UART_SetConfig+0x2f8>)
 80063d0:	4293      	cmp	r3, r2
 80063d2:	d004      	beq.n	80063de <UART_SetConfig+0x76>
  {
    tmpreg |= huart->Init.OneBitSampling;
 80063d4:	6a7b      	ldr	r3, [r7, #36]	@ 0x24
 80063d6:	6a1b      	ldr	r3, [r3, #32]
 80063d8:	6bfa      	ldr	r2, [r7, #60]	@ 0x3c
 80063da:	4313      	orrs	r3, r2
 80063dc:	63fb      	str	r3, [r7, #60]	@ 0x3c
  }
  MODIFY_REG(huart->Instance->CR3, USART_CR3_FIELDS, tmpreg);
 80063de:	6a7b      	ldr	r3, [r7, #36]	@ 0x24
 80063e0:	681b      	ldr	r3, [r3, #0]
 80063e2:	689b      	ldr	r3, [r3, #8]
 80063e4:	4a9f      	ldr	r2, [pc, #636]	@ (8006664 <UART_SetConfig+0x2fc>)
 80063e6:	4013      	ands	r3, r2
 80063e8:	0019      	movs	r1, r3
 80063ea:	6a7b      	ldr	r3, [r7, #36]	@ 0x24
 80063ec:	681a      	ldr	r2, [r3, #0]
 80063ee:	6bfb      	ldr	r3, [r7, #60]	@ 0x3c
 80063f0:	430b      	orrs	r3, r1
 80063f2:	6093      	str	r3, [r2, #8]

  /*-------------------------- USART PRESC Configuration -----------------------*/
  /* Configure
  * - UART Clock Prescaler : set PRESCALER according to huart->Init.ClockPrescaler value */
  MODIFY_REG(huart->Instance->PRESC, USART_PRESC_PRESCALER, huart->Init.ClockPrescaler);
 80063f4:	6a7b      	ldr	r3, [r7, #36]	@ 0x24
 80063f6:	681b      	ldr	r3, [r3, #0]
 80063f8:	6adb      	ldr	r3, [r3, #44]	@ 0x2c
 80063fa:	220f      	movs	r2, #15
 80063fc:	4393      	bics	r3, r2
 80063fe:	0018      	movs	r0, r3
 8006400:	6a7b      	ldr	r3, [r7, #36]	@ 0x24
 8006402:	6a59      	ldr	r1, [r3, #36]	@ 0x24
 8006404:	6a7b      	ldr	r3, [r7, #36]	@ 0x24
 8006406:	681a      	ldr	r2, [r3, #0]
 8006408:	0003      	movs	r3, r0
 800640a:	430b      	orrs	r3, r1
 800640c:	62d3      	str	r3, [r2, #44]	@ 0x2c

  /*-------------------------- USART BRR Configuration -----------------------*/
  UART_GETCLOCKSOURCE(huart, clocksource);
 800640e:	6a7b      	ldr	r3, [r7, #36]	@ 0x24
 8006410:	681b      	ldr	r3, [r3, #0]
 8006412:	4a95      	ldr	r2, [pc, #596]	@ (8006668 <UART_SetConfig+0x300>)
 8006414:	4293      	cmp	r3, r2
 8006416:	d131      	bne.n	800647c <UART_SetConfig+0x114>
 8006418:	4b94      	ldr	r3, [pc, #592]	@ (800666c <UART_SetConfig+0x304>)
 800641a:	6d5b      	ldr	r3, [r3, #84]	@ 0x54
 800641c:	2203      	movs	r2, #3
 800641e:	4013      	ands	r3, r2
 8006420:	2b03      	cmp	r3, #3
 8006422:	d01d      	beq.n	8006460 <UART_SetConfig+0xf8>
 8006424:	d823      	bhi.n	800646e <UART_SetConfig+0x106>
 8006426:	2b02      	cmp	r3, #2
 8006428:	d00c      	beq.n	8006444 <UART_SetConfig+0xdc>
 800642a:	d820      	bhi.n	800646e <UART_SetConfig+0x106>
 800642c:	2b00      	cmp	r3, #0
 800642e:	d002      	beq.n	8006436 <UART_SetConfig+0xce>
 8006430:	2b01      	cmp	r3, #1
 8006432:	d00e      	beq.n	8006452 <UART_SetConfig+0xea>
 8006434:	e01b      	b.n	800646e <UART_SetConfig+0x106>
 8006436:	231b      	movs	r3, #27
 8006438:	2220      	movs	r2, #32
 800643a:	189b      	adds	r3, r3, r2
 800643c:	19db      	adds	r3, r3, r7
 800643e:	2200      	movs	r2, #0
 8006440:	701a      	strb	r2, [r3, #0]
 8006442:	e0b4      	b.n	80065ae <UART_SetConfig+0x246>
 8006444:	231b      	movs	r3, #27
 8006446:	2220      	movs	r2, #32
 8006448:	189b      	adds	r3, r3, r2
 800644a:	19db      	adds	r3, r3, r7
 800644c:	2202      	movs	r2, #2
 800644e:	701a      	strb	r2, [r3, #0]
 8006450:	e0ad      	b.n	80065ae <UART_SetConfig+0x246>
 8006452:	231b      	movs	r3, #27
 8006454:	2220      	movs	r2, #32
 8006456:	189b      	adds	r3, r3, r2
 8006458:	19db      	adds	r3, r3, r7
 800645a:	2204      	movs	r2, #4
 800645c:	701a      	strb	r2, [r3, #0]
 800645e:	e0a6      	b.n	80065ae <UART_SetConfig+0x246>
 8006460:	231b      	movs	r3, #27
 8006462:	2220      	movs	r2, #32
 8006464:	189b      	adds	r3, r3, r2
 8006466:	19db      	adds	r3, r3, r7
 8006468:	2208      	movs	r2, #8
 800646a:	701a      	strb	r2, [r3, #0]
 800646c:	e09f      	b.n	80065ae <UART_SetConfig+0x246>
 800646e:	231b      	movs	r3, #27
 8006470:	2220      	movs	r2, #32
 8006472:	189b      	adds	r3, r3, r2
 8006474:	19db      	adds	r3, r3, r7
 8006476:	2210      	movs	r2, #16
 8006478:	701a      	strb	r2, [r3, #0]
 800647a:	e098      	b.n	80065ae <UART_SetConfig+0x246>
 800647c:	6a7b      	ldr	r3, [r7, #36]	@ 0x24
 800647e:	681b      	ldr	r3, [r3, #0]
 8006480:	4a7b      	ldr	r2, [pc, #492]	@ (8006670 <UART_SetConfig+0x308>)
 8006482:	4293      	cmp	r3, r2
 8006484:	d131      	bne.n	80064ea <UART_SetConfig+0x182>
 8006486:	4b79      	ldr	r3, [pc, #484]	@ (800666c <UART_SetConfig+0x304>)
 8006488:	6d5b      	ldr	r3, [r3, #84]	@ 0x54
 800648a:	220c      	movs	r2, #12
 800648c:	4013      	ands	r3, r2
 800648e:	2b0c      	cmp	r3, #12
 8006490:	d01d      	beq.n	80064ce <UART_SetConfig+0x166>
 8006492:	d823      	bhi.n	80064dc <UART_SetConfig+0x174>
 8006494:	2b08      	cmp	r3, #8
 8006496:	d00c      	beq.n	80064b2 <UART_SetConfig+0x14a>
 8006498:	d820      	bhi.n	80064dc <UART_SetConfig+0x174>
 800649a:	2b00      	cmp	r3, #0
 800649c:	d002      	beq.n	80064a4 <UART_SetConfig+0x13c>
 800649e:	2b04      	cmp	r3, #4
 80064a0:	d00e      	beq.n	80064c0 <UART_SetConfig+0x158>
 80064a2:	e01b      	b.n	80064dc <UART_SetConfig+0x174>
 80064a4:	231b      	movs	r3, #27
 80064a6:	2220      	movs	r2, #32
 80064a8:	189b      	adds	r3, r3, r2
 80064aa:	19db      	adds	r3, r3, r7
 80064ac:	2200      	movs	r2, #0
 80064ae:	701a      	strb	r2, [r3, #0]
 80064b0:	e07d      	b.n	80065ae <UART_SetConfig+0x246>
 80064b2:	231b      	movs	r3, #27
 80064b4:	2220      	movs	r2, #32
 80064b6:	189b      	adds	r3, r3, r2
 80064b8:	19db      	adds	r3, r3, r7
 80064ba:	2202      	movs	r2, #2
 80064bc:	701a      	strb	r2, [r3, #0]
 80064be:	e076      	b.n	80065ae <UART_SetConfig+0x246>
 80064c0:	231b      	movs	r3, #27
 80064c2:	2220      	movs	r2, #32
 80064c4:	189b      	adds	r3, r3, r2
 80064c6:	19db      	adds	r3, r3, r7
 80064c8:	2204      	movs	r2, #4
 80064ca:	701a      	strb	r2, [r3, #0]
 80064cc:	e06f      	b.n	80065ae <UART_SetConfig+0x246>
 80064ce:	231b      	movs	r3, #27
 80064d0:	2220      	movs	r2, #32
 80064d2:	189b      	adds	r3, r3, r2
 80064d4:	19db      	adds	r3, r3, r7
 80064d6:	2208      	movs	r2, #8
 80064d8:	701a      	strb	r2, [r3, #0]
 80064da:	e068      	b.n	80065ae <UART_SetConfig+0x246>
 80064dc:	231b      	movs	r3, #27
 80064de:	2220      	movs	r2, #32
 80064e0:	189b      	adds	r3, r3, r2
 80064e2:	19db      	adds	r3, r3, r7
 80064e4:	2210      	movs	r2, #16
 80064e6:	701a      	strb	r2, [r3, #0]
 80064e8:	e061      	b.n	80065ae <UART_SetConfig+0x246>
 80064ea:	6a7b      	ldr	r3, [r7, #36]	@ 0x24
 80064ec:	681b      	ldr	r3, [r3, #0]
 80064ee:	4a61      	ldr	r2, [pc, #388]	@ (8006674 <UART_SetConfig+0x30c>)
 80064f0:	4293      	cmp	r3, r2
 80064f2:	d106      	bne.n	8006502 <UART_SetConfig+0x19a>
 80064f4:	231b      	movs	r3, #27
 80064f6:	2220      	movs	r2, #32
 80064f8:	189b      	adds	r3, r3, r2
 80064fa:	19db      	adds	r3, r3, r7
 80064fc:	2200      	movs	r2, #0
 80064fe:	701a      	strb	r2, [r3, #0]
 8006500:	e055      	b.n	80065ae <UART_SetConfig+0x246>
 8006502:	6a7b      	ldr	r3, [r7, #36]	@ 0x24
 8006504:	681b      	ldr	r3, [r3, #0]
 8006506:	4a5c      	ldr	r2, [pc, #368]	@ (8006678 <UART_SetConfig+0x310>)
 8006508:	4293      	cmp	r3, r2
 800650a:	d106      	bne.n	800651a <UART_SetConfig+0x1b2>
 800650c:	231b      	movs	r3, #27
 800650e:	2220      	movs	r2, #32
 8006510:	189b      	adds	r3, r3, r2
 8006512:	19db      	adds	r3, r3, r7
 8006514:	2200      	movs	r2, #0
 8006516:	701a      	strb	r2, [r3, #0]
 8006518:	e049      	b.n	80065ae <UART_SetConfig+0x246>
 800651a:	6a7b      	ldr	r3, [r7, #36]	@ 0x24
 800651c:	681b      	ldr	r3, [r3, #0]
 800651e:	4a50      	ldr	r2, [pc, #320]	@ (8006660 <UART_SetConfig+0x2f8>)
 8006520:	4293      	cmp	r3, r2
 8006522:	d13e      	bne.n	80065a2 <UART_SetConfig+0x23a>
 8006524:	4b51      	ldr	r3, [pc, #324]	@ (800666c <UART_SetConfig+0x304>)
 8006526:	6d5a      	ldr	r2, [r3, #84]	@ 0x54
 8006528:	23c0      	movs	r3, #192	@ 0xc0
 800652a:	011b      	lsls	r3, r3, #4
 800652c:	4013      	ands	r3, r2
 800652e:	22c0      	movs	r2, #192	@ 0xc0
 8006530:	0112      	lsls	r2, r2, #4
 8006532:	4293      	cmp	r3, r2
 8006534:	d027      	beq.n	8006586 <UART_SetConfig+0x21e>
 8006536:	22c0      	movs	r2, #192	@ 0xc0
 8006538:	0112      	lsls	r2, r2, #4
 800653a:	4293      	cmp	r3, r2
 800653c:	d82a      	bhi.n	8006594 <UART_SetConfig+0x22c>
 800653e:	2280      	movs	r2, #128	@ 0x80
 8006540:	0112      	lsls	r2, r2, #4
 8006542:	4293      	cmp	r3, r2
 8006544:	d011      	beq.n	800656a <UART_SetConfig+0x202>
 8006546:	2280      	movs	r2, #128	@ 0x80
 8006548:	0112      	lsls	r2, r2, #4
 800654a:	4293      	cmp	r3, r2
 800654c:	d822      	bhi.n	8006594 <UART_SetConfig+0x22c>
 800654e:	2b00      	cmp	r3, #0
 8006550:	d004      	beq.n	800655c <UART_SetConfig+0x1f4>
 8006552:	2280      	movs	r2, #128	@ 0x80
 8006554:	00d2      	lsls	r2, r2, #3
 8006556:	4293      	cmp	r3, r2
 8006558:	d00e      	beq.n	8006578 <UART_SetConfig+0x210>
 800655a:	e01b      	b.n	8006594 <UART_SetConfig+0x22c>
 800655c:	231b      	movs	r3, #27
 800655e:	2220      	movs	r2, #32
 8006560:	189b      	adds	r3, r3, r2
 8006562:	19db      	adds	r3, r3, r7
 8006564:	2200      	movs	r2, #0
 8006566:	701a      	strb	r2, [r3, #0]
 8006568:	e021      	b.n	80065ae <UART_SetConfig+0x246>
 800656a:	231b      	movs	r3, #27
 800656c:	2220      	movs	r2, #32
 800656e:	189b      	adds	r3, r3, r2
 8006570:	19db      	adds	r3, r3, r7
 8006572:	2202      	movs	r2, #2
 8006574:	701a      	strb	r2, [r3, #0]
 8006576:	e01a      	b.n	80065ae <UART_SetConfig+0x246>
 8006578:	231b      	movs	r3, #27
 800657a:	2220      	movs	r2, #32
 800657c:	189b      	adds	r3, r3, r2
 800657e:	19db      	adds	r3, r3, r7
 8006580:	2204      	movs	r2, #4
 8006582:	701a      	strb	r2, [r3, #0]
 8006584:	e013      	b.n	80065ae <UART_SetConfig+0x246>
 8006586:	231b      	movs	r3, #27
 8006588:	2220      	movs	r2, #32
 800658a:	189b      	adds	r3, r3, r2
 800658c:	19db      	adds	r3, r3, r7
 800658e:	2208      	movs	r2, #8
 8006590:	701a      	strb	r2, [r3, #0]
 8006592:	e00c      	b.n	80065ae <UART_SetConfig+0x246>
 8006594:	231b      	movs	r3, #27
 8006596:	2220      	movs	r2, #32
 8006598:	189b      	adds	r3, r3, r2
 800659a:	19db      	adds	r3, r3, r7
 800659c:	2210      	movs	r2, #16
 800659e:	701a      	strb	r2, [r3, #0]
 80065a0:	e005      	b.n	80065ae <UART_SetConfig+0x246>
 80065a2:	231b      	movs	r3, #27
 80065a4:	2220      	movs	r2, #32
 80065a6:	189b      	adds	r3, r3, r2
 80065a8:	19db      	adds	r3, r3, r7
 80065aa:	2210      	movs	r2, #16
 80065ac:	701a      	strb	r2, [r3, #0]

  /* Check LPUART instance */
  if (UART_INSTANCE_LOWPOWER(huart))
 80065ae:	6a7b      	ldr	r3, [r7, #36]	@ 0x24
 80065b0:	681b      	ldr	r3, [r3, #0]
 80065b2:	4a2b      	ldr	r2, [pc, #172]	@ (8006660 <UART_SetConfig+0x2f8>)
 80065b4:	4293      	cmp	r3, r2
 80065b6:	d000      	beq.n	80065ba <UART_SetConfig+0x252>
 80065b8:	e0a9      	b.n	800670e <UART_SetConfig+0x3a6>
  {
    /* Retrieve frequency clock */
    switch (clocksource)
 80065ba:	231b      	movs	r3, #27
 80065bc:	2220      	movs	r2, #32
 80065be:	189b      	adds	r3, r3, r2
 80065c0:	19db      	adds	r3, r3, r7
 80065c2:	781b      	ldrb	r3, [r3, #0]
 80065c4:	2b08      	cmp	r3, #8
 80065c6:	d015      	beq.n	80065f4 <UART_SetConfig+0x28c>
 80065c8:	dc18      	bgt.n	80065fc <UART_SetConfig+0x294>
 80065ca:	2b04      	cmp	r3, #4
 80065cc:	d00d      	beq.n	80065ea <UART_SetConfig+0x282>
 80065ce:	dc15      	bgt.n	80065fc <UART_SetConfig+0x294>
 80065d0:	2b00      	cmp	r3, #0
 80065d2:	d002      	beq.n	80065da <UART_SetConfig+0x272>
 80065d4:	2b02      	cmp	r3, #2
 80065d6:	d005      	beq.n	80065e4 <UART_SetConfig+0x27c>
 80065d8:	e010      	b.n	80065fc <UART_SetConfig+0x294>
    {
      case UART_CLOCKSOURCE_PCLK1:
        pclk = HAL_RCC_GetPCLK1Freq();
 80065da:	f7fe fa3f 	bl	8004a5c <HAL_RCC_GetPCLK1Freq>
 80065de:	0003      	movs	r3, r0
 80065e0:	637b      	str	r3, [r7, #52]	@ 0x34
        break;
 80065e2:	e014      	b.n	800660e <UART_SetConfig+0x2a6>
      case UART_CLOCKSOURCE_HSI:
        pclk = (uint32_t) HSI_VALUE;
 80065e4:	4b25      	ldr	r3, [pc, #148]	@ (800667c <UART_SetConfig+0x314>)
 80065e6:	637b      	str	r3, [r7, #52]	@ 0x34
        break;
 80065e8:	e011      	b.n	800660e <UART_SetConfig+0x2a6>
      case UART_CLOCKSOURCE_SYSCLK:
        pclk = HAL_RCC_GetSysClockFreq();
 80065ea:	f7fe f9ab 	bl	8004944 <HAL_RCC_GetSysClockFreq>
 80065ee:	0003      	movs	r3, r0
 80065f0:	637b      	str	r3, [r7, #52]	@ 0x34
        break;
 80065f2:	e00c      	b.n	800660e <UART_SetConfig+0x2a6>
      case UART_CLOCKSOURCE_LSE:
        pclk = (uint32_t) LSE_VALUE;
 80065f4:	2380      	movs	r3, #128	@ 0x80
 80065f6:	021b      	lsls	r3, r3, #8
 80065f8:	637b      	str	r3, [r7, #52]	@ 0x34
        break;
 80065fa:	e008      	b.n	800660e <UART_SetConfig+0x2a6>
      default:
        pclk = 0U;
 80065fc:	2300      	movs	r3, #0
 80065fe:	637b      	str	r3, [r7, #52]	@ 0x34
        ret = HAL_ERROR;
 8006600:	231a      	movs	r3, #26
 8006602:	2220      	movs	r2, #32
 8006604:	189b      	adds	r3, r3, r2
 8006606:	19db      	adds	r3, r3, r7
 8006608:	2201      	movs	r2, #1
 800660a:	701a      	strb	r2, [r3, #0]
        break;
 800660c:	46c0      	nop			@ (mov r8, r8)
    }

    /* If proper clock source reported */
    if (pclk != 0U)
 800660e:	6b7b      	ldr	r3, [r7, #52]	@ 0x34
 8006610:	2b00      	cmp	r3, #0
 8006612:	d100      	bne.n	8006616 <UART_SetConfig+0x2ae>
 8006614:	e14b      	b.n	80068ae <UART_SetConfig+0x546>
    {
      /* Compute clock after Prescaler */
      lpuart_ker_ck_pres = (pclk / UARTPrescTable[huart->Init.ClockPrescaler]);
 8006616:	6a7b      	ldr	r3, [r7, #36]	@ 0x24
 8006618:	6a5a      	ldr	r2, [r3, #36]	@ 0x24
 800661a:	4b19      	ldr	r3, [pc, #100]	@ (8006680 <UART_SetConfig+0x318>)
 800661c:	0052      	lsls	r2, r2, #1
 800661e:	5ad3      	ldrh	r3, [r2, r3]
 8006620:	0019      	movs	r1, r3
 8006622:	6b78      	ldr	r0, [r7, #52]	@ 0x34
 8006624:	f7f9 fd94 	bl	8000150 <__udivsi3>
 8006628:	0003      	movs	r3, r0
 800662a:	62bb      	str	r3, [r7, #40]	@ 0x28

      /* Ensure that Frequency clock is in the range [3 * baudrate, 4096 * baudrate] */
      if ((lpuart_ker_ck_pres < (3U * huart->Init.BaudRate)) ||
 800662c:	6a7b      	ldr	r3, [r7, #36]	@ 0x24
 800662e:	685a      	ldr	r2, [r3, #4]
 8006630:	0013      	movs	r3, r2
 8006632:	005b      	lsls	r3, r3, #1
 8006634:	189b      	adds	r3, r3, r2
 8006636:	6aba      	ldr	r2, [r7, #40]	@ 0x28
 8006638:	429a      	cmp	r2, r3
 800663a:	d305      	bcc.n	8006648 <UART_SetConfig+0x2e0>
          (lpuart_ker_ck_pres > (4096U * huart->Init.BaudRate)))
 800663c:	6a7b      	ldr	r3, [r7, #36]	@ 0x24
 800663e:	685b      	ldr	r3, [r3, #4]
 8006640:	031b      	lsls	r3, r3, #12
      if ((lpuart_ker_ck_pres < (3U * huart->Init.BaudRate)) ||
 8006642:	6aba      	ldr	r2, [r7, #40]	@ 0x28
 8006644:	429a      	cmp	r2, r3
 8006646:	d91d      	bls.n	8006684 <UART_SetConfig+0x31c>
      {
        ret = HAL_ERROR;
 8006648:	231a      	movs	r3, #26
 800664a:	2220      	movs	r2, #32
 800664c:	189b      	adds	r3, r3, r2
 800664e:	19db      	adds	r3, r3, r7
 8006650:	2201      	movs	r2, #1
 8006652:	701a      	strb	r2, [r3, #0]
 8006654:	e12b      	b.n	80068ae <UART_SetConfig+0x546>
 8006656:	46c0      	nop			@ (mov r8, r8)
 8006658:	cfff69f3 	.word	0xcfff69f3
 800665c:	ffffcfff 	.word	0xffffcfff
 8006660:	40008000 	.word	0x40008000
 8006664:	11fff4ff 	.word	0x11fff4ff
 8006668:	40013800 	.word	0x40013800
 800666c:	40021000 	.word	0x40021000
 8006670:	40004400 	.word	0x40004400
 8006674:	40004800 	.word	0x40004800
 8006678:	40004c00 	.word	0x40004c00
 800667c:	00f42400 	.word	0x00f42400
 8006680:	08009c2c 	.word	0x08009c2c
      }
      else
      {
        /* Check computed UsartDiv value is in allocated range
           (it is forbidden to write values lower than 0x300 in the LPUART_BRR register) */
        usartdiv = (uint32_t)(UART_DIV_LPUART(pclk, huart->Init.BaudRate, huart->Init.ClockPrescaler));
 8006684:	6b7b      	ldr	r3, [r7, #52]	@ 0x34
 8006686:	61bb      	str	r3, [r7, #24]
 8006688:	2300      	movs	r3, #0
 800668a:	61fb      	str	r3, [r7, #28]
 800668c:	6a7b      	ldr	r3, [r7, #36]	@ 0x24
 800668e:	6a5a      	ldr	r2, [r3, #36]	@ 0x24
 8006690:	4b92      	ldr	r3, [pc, #584]	@ (80068dc <UART_SetConfig+0x574>)
 8006692:	0052      	lsls	r2, r2, #1
 8006694:	5ad3      	ldrh	r3, [r2, r3]
 8006696:	613b      	str	r3, [r7, #16]
 8006698:	2300      	movs	r3, #0
 800669a:	617b      	str	r3, [r7, #20]
 800669c:	693a      	ldr	r2, [r7, #16]
 800669e:	697b      	ldr	r3, [r7, #20]
 80066a0:	69b8      	ldr	r0, [r7, #24]
 80066a2:	69f9      	ldr	r1, [r7, #28]
 80066a4:	f7f9 ff08 	bl	80004b8 <__aeabi_uldivmod>
 80066a8:	0002      	movs	r2, r0
 80066aa:	000b      	movs	r3, r1
 80066ac:	0e11      	lsrs	r1, r2, #24
 80066ae:	021d      	lsls	r5, r3, #8
 80066b0:	430d      	orrs	r5, r1
 80066b2:	0214      	lsls	r4, r2, #8
 80066b4:	6a7b      	ldr	r3, [r7, #36]	@ 0x24
 80066b6:	685b      	ldr	r3, [r3, #4]
 80066b8:	085b      	lsrs	r3, r3, #1
 80066ba:	60bb      	str	r3, [r7, #8]
 80066bc:	2300      	movs	r3, #0
 80066be:	60fb      	str	r3, [r7, #12]
 80066c0:	68b8      	ldr	r0, [r7, #8]
 80066c2:	68f9      	ldr	r1, [r7, #12]
 80066c4:	1900      	adds	r0, r0, r4
 80066c6:	4169      	adcs	r1, r5
 80066c8:	6a7b      	ldr	r3, [r7, #36]	@ 0x24
 80066ca:	685b      	ldr	r3, [r3, #4]
 80066cc:	603b      	str	r3, [r7, #0]
 80066ce:	2300      	movs	r3, #0
 80066d0:	607b      	str	r3, [r7, #4]
 80066d2:	683a      	ldr	r2, [r7, #0]
 80066d4:	687b      	ldr	r3, [r7, #4]
 80066d6:	f7f9 feef 	bl	80004b8 <__aeabi_uldivmod>
 80066da:	0002      	movs	r2, r0
 80066dc:	000b      	movs	r3, r1
 80066de:	0013      	movs	r3, r2
 80066e0:	633b      	str	r3, [r7, #48]	@ 0x30
        if ((usartdiv >= LPUART_BRR_MIN) && (usartdiv <= LPUART_BRR_MAX))
 80066e2:	6b3a      	ldr	r2, [r7, #48]	@ 0x30
 80066e4:	23c0      	movs	r3, #192	@ 0xc0
 80066e6:	009b      	lsls	r3, r3, #2
 80066e8:	429a      	cmp	r2, r3
 80066ea:	d309      	bcc.n	8006700 <UART_SetConfig+0x398>
 80066ec:	6b3a      	ldr	r2, [r7, #48]	@ 0x30
 80066ee:	2380      	movs	r3, #128	@ 0x80
 80066f0:	035b      	lsls	r3, r3, #13
 80066f2:	429a      	cmp	r2, r3
 80066f4:	d204      	bcs.n	8006700 <UART_SetConfig+0x398>
        {
          huart->Instance->BRR = usartdiv;
 80066f6:	6a7b      	ldr	r3, [r7, #36]	@ 0x24
 80066f8:	681b      	ldr	r3, [r3, #0]
 80066fa:	6b3a      	ldr	r2, [r7, #48]	@ 0x30
 80066fc:	60da      	str	r2, [r3, #12]
 80066fe:	e0d6      	b.n	80068ae <UART_SetConfig+0x546>
        }
        else
        {
          ret = HAL_ERROR;
 8006700:	231a      	movs	r3, #26
 8006702:	2220      	movs	r2, #32
 8006704:	189b      	adds	r3, r3, r2
 8006706:	19db      	adds	r3, r3, r7
 8006708:	2201      	movs	r2, #1
 800670a:	701a      	strb	r2, [r3, #0]
 800670c:	e0cf      	b.n	80068ae <UART_SetConfig+0x546>
      } /* if ( (lpuart_ker_ck_pres < (3 * huart->Init.BaudRate) ) ||
                (lpuart_ker_ck_pres > (4096 * huart->Init.BaudRate) )) */
    } /* if (pclk != 0) */
  }
  /* Check UART Over Sampling to set Baud Rate Register */
  else if (huart->Init.OverSampling == UART_OVERSAMPLING_8)
 800670e:	6a7b      	ldr	r3, [r7, #36]	@ 0x24
 8006710:	69da      	ldr	r2, [r3, #28]
 8006712:	2380      	movs	r3, #128	@ 0x80
 8006714:	021b      	lsls	r3, r3, #8
 8006716:	429a      	cmp	r2, r3
 8006718:	d000      	beq.n	800671c <UART_SetConfig+0x3b4>
 800671a:	e070      	b.n	80067fe <UART_SetConfig+0x496>
  {
    switch (clocksource)
 800671c:	231b      	movs	r3, #27
 800671e:	2220      	movs	r2, #32
 8006720:	189b      	adds	r3, r3, r2
 8006722:	19db      	adds	r3, r3, r7
 8006724:	781b      	ldrb	r3, [r3, #0]
 8006726:	2b08      	cmp	r3, #8
 8006728:	d015      	beq.n	8006756 <UART_SetConfig+0x3ee>
 800672a:	dc18      	bgt.n	800675e <UART_SetConfig+0x3f6>
 800672c:	2b04      	cmp	r3, #4
 800672e:	d00d      	beq.n	800674c <UART_SetConfig+0x3e4>
 8006730:	dc15      	bgt.n	800675e <UART_SetConfig+0x3f6>
 8006732:	2b00      	cmp	r3, #0
 8006734:	d002      	beq.n	800673c <UART_SetConfig+0x3d4>
 8006736:	2b02      	cmp	r3, #2
 8006738:	d005      	beq.n	8006746 <UART_SetConfig+0x3de>
 800673a:	e010      	b.n	800675e <UART_SetConfig+0x3f6>
    {
      case UART_CLOCKSOURCE_PCLK1:
        pclk = HAL_RCC_GetPCLK1Freq();
 800673c:	f7fe f98e 	bl	8004a5c <HAL_RCC_GetPCLK1Freq>
 8006740:	0003      	movs	r3, r0
 8006742:	637b      	str	r3, [r7, #52]	@ 0x34
        break;
 8006744:	e014      	b.n	8006770 <UART_SetConfig+0x408>
      case UART_CLOCKSOURCE_HSI:
        pclk = (uint32_t) HSI_VALUE;
 8006746:	4b66      	ldr	r3, [pc, #408]	@ (80068e0 <UART_SetConfig+0x578>)
 8006748:	637b      	str	r3, [r7, #52]	@ 0x34
        break;
 800674a:	e011      	b.n	8006770 <UART_SetConfig+0x408>
      case UART_CLOCKSOURCE_SYSCLK:
        pclk = HAL_RCC_GetSysClockFreq();
 800674c:	f7fe f8fa 	bl	8004944 <HAL_RCC_GetSysClockFreq>
 8006750:	0003      	movs	r3, r0
 8006752:	637b      	str	r3, [r7, #52]	@ 0x34
        break;
 8006754:	e00c      	b.n	8006770 <UART_SetConfig+0x408>
      case UART_CLOCKSOURCE_LSE:
        pclk = (uint32_t) LSE_VALUE;
 8006756:	2380      	movs	r3, #128	@ 0x80
 8006758:	021b      	lsls	r3, r3, #8
 800675a:	637b      	str	r3, [r7, #52]	@ 0x34
        break;
 800675c:	e008      	b.n	8006770 <UART_SetConfig+0x408>
      default:
        pclk = 0U;
 800675e:	2300      	movs	r3, #0
 8006760:	637b      	str	r3, [r7, #52]	@ 0x34
        ret = HAL_ERROR;
 8006762:	231a      	movs	r3, #26
 8006764:	2220      	movs	r2, #32
 8006766:	189b      	adds	r3, r3, r2
 8006768:	19db      	adds	r3, r3, r7
 800676a:	2201      	movs	r2, #1
 800676c:	701a      	strb	r2, [r3, #0]
        break;
 800676e:	46c0      	nop			@ (mov r8, r8)
    }

    /* USARTDIV must be greater than or equal to 0d16 */
    if (pclk != 0U)
 8006770:	6b7b      	ldr	r3, [r7, #52]	@ 0x34
 8006772:	2b00      	cmp	r3, #0
 8006774:	d100      	bne.n	8006778 <UART_SetConfig+0x410>
 8006776:	e09a      	b.n	80068ae <UART_SetConfig+0x546>
    {
      usartdiv = (uint32_t)(UART_DIV_SAMPLING8(pclk, huart->Init.BaudRate, huart->Init.ClockPrescaler));
 8006778:	6a7b      	ldr	r3, [r7, #36]	@ 0x24
 800677a:	6a5a      	ldr	r2, [r3, #36]	@ 0x24
 800677c:	4b57      	ldr	r3, [pc, #348]	@ (80068dc <UART_SetConfig+0x574>)
 800677e:	0052      	lsls	r2, r2, #1
 8006780:	5ad3      	ldrh	r3, [r2, r3]
 8006782:	0019      	movs	r1, r3
 8006784:	6b78      	ldr	r0, [r7, #52]	@ 0x34
 8006786:	f7f9 fce3 	bl	8000150 <__udivsi3>
 800678a:	0003      	movs	r3, r0
 800678c:	005a      	lsls	r2, r3, #1
 800678e:	6a7b      	ldr	r3, [r7, #36]	@ 0x24
 8006790:	685b      	ldr	r3, [r3, #4]
 8006792:	085b      	lsrs	r3, r3, #1
 8006794:	18d2      	adds	r2, r2, r3
 8006796:	6a7b      	ldr	r3, [r7, #36]	@ 0x24
 8006798:	685b      	ldr	r3, [r3, #4]
 800679a:	0019      	movs	r1, r3
 800679c:	0010      	movs	r0, r2
 800679e:	f7f9 fcd7 	bl	8000150 <__udivsi3>
 80067a2:	0003      	movs	r3, r0
 80067a4:	633b      	str	r3, [r7, #48]	@ 0x30
      if ((usartdiv >= UART_BRR_MIN) && (usartdiv <= UART_BRR_MAX))
 80067a6:	6b3b      	ldr	r3, [r7, #48]	@ 0x30
 80067a8:	2b0f      	cmp	r3, #15
 80067aa:	d921      	bls.n	80067f0 <UART_SetConfig+0x488>
 80067ac:	6b3a      	ldr	r2, [r7, #48]	@ 0x30
 80067ae:	2380      	movs	r3, #128	@ 0x80
 80067b0:	025b      	lsls	r3, r3, #9
 80067b2:	429a      	cmp	r2, r3
 80067b4:	d21c      	bcs.n	80067f0 <UART_SetConfig+0x488>
      {
        brrtemp = (uint16_t)(usartdiv & 0xFFF0U);
 80067b6:	6b3b      	ldr	r3, [r7, #48]	@ 0x30
 80067b8:	b29a      	uxth	r2, r3
 80067ba:	200e      	movs	r0, #14
 80067bc:	2420      	movs	r4, #32
 80067be:	1903      	adds	r3, r0, r4
 80067c0:	19db      	adds	r3, r3, r7
 80067c2:	210f      	movs	r1, #15
 80067c4:	438a      	bics	r2, r1
 80067c6:	801a      	strh	r2, [r3, #0]
        brrtemp |= (uint16_t)((usartdiv & (uint16_t)0x000FU) >> 1U);
 80067c8:	6b3b      	ldr	r3, [r7, #48]	@ 0x30
 80067ca:	085b      	lsrs	r3, r3, #1
 80067cc:	b29b      	uxth	r3, r3
 80067ce:	2207      	movs	r2, #7
 80067d0:	4013      	ands	r3, r2
 80067d2:	b299      	uxth	r1, r3
 80067d4:	1903      	adds	r3, r0, r4
 80067d6:	19db      	adds	r3, r3, r7
 80067d8:	1902      	adds	r2, r0, r4
 80067da:	19d2      	adds	r2, r2, r7
 80067dc:	8812      	ldrh	r2, [r2, #0]
 80067de:	430a      	orrs	r2, r1
 80067e0:	801a      	strh	r2, [r3, #0]
        huart->Instance->BRR = brrtemp;
 80067e2:	6a7b      	ldr	r3, [r7, #36]	@ 0x24
 80067e4:	681b      	ldr	r3, [r3, #0]
 80067e6:	1902      	adds	r2, r0, r4
 80067e8:	19d2      	adds	r2, r2, r7
 80067ea:	8812      	ldrh	r2, [r2, #0]
 80067ec:	60da      	str	r2, [r3, #12]
 80067ee:	e05e      	b.n	80068ae <UART_SetConfig+0x546>
      }
      else
      {
        ret = HAL_ERROR;
 80067f0:	231a      	movs	r3, #26
 80067f2:	2220      	movs	r2, #32
 80067f4:	189b      	adds	r3, r3, r2
 80067f6:	19db      	adds	r3, r3, r7
 80067f8:	2201      	movs	r2, #1
 80067fa:	701a      	strb	r2, [r3, #0]
 80067fc:	e057      	b.n	80068ae <UART_SetConfig+0x546>
      }
    }
  }
  else
  {
    switch (clocksource)
 80067fe:	231b      	movs	r3, #27
 8006800:	2220      	movs	r2, #32
 8006802:	189b      	adds	r3, r3, r2
 8006804:	19db      	adds	r3, r3, r7
 8006806:	781b      	ldrb	r3, [r3, #0]
 8006808:	2b08      	cmp	r3, #8
 800680a:	d015      	beq.n	8006838 <UART_SetConfig+0x4d0>
 800680c:	dc18      	bgt.n	8006840 <UART_SetConfig+0x4d8>
 800680e:	2b04      	cmp	r3, #4
 8006810:	d00d      	beq.n	800682e <UART_SetConfig+0x4c6>
 8006812:	dc15      	bgt.n	8006840 <UART_SetConfig+0x4d8>
 8006814:	2b00      	cmp	r3, #0
 8006816:	d002      	beq.n	800681e <UART_SetConfig+0x4b6>
 8006818:	2b02      	cmp	r3, #2
 800681a:	d005      	beq.n	8006828 <UART_SetConfig+0x4c0>
 800681c:	e010      	b.n	8006840 <UART_SetConfig+0x4d8>
    {
      case UART_CLOCKSOURCE_PCLK1:
        pclk = HAL_RCC_GetPCLK1Freq();
 800681e:	f7fe f91d 	bl	8004a5c <HAL_RCC_GetPCLK1Freq>
 8006822:	0003      	movs	r3, r0
 8006824:	637b      	str	r3, [r7, #52]	@ 0x34
        break;
 8006826:	e014      	b.n	8006852 <UART_SetConfig+0x4ea>
      case UART_CLOCKSOURCE_HSI:
        pclk = (uint32_t) HSI_VALUE;
 8006828:	4b2d      	ldr	r3, [pc, #180]	@ (80068e0 <UART_SetConfig+0x578>)
 800682a:	637b      	str	r3, [r7, #52]	@ 0x34
        break;
 800682c:	e011      	b.n	8006852 <UART_SetConfig+0x4ea>
      case UART_CLOCKSOURCE_SYSCLK:
        pclk = HAL_RCC_GetSysClockFreq();
 800682e:	f7fe f889 	bl	8004944 <HAL_RCC_GetSysClockFreq>
 8006832:	0003      	movs	r3, r0
 8006834:	637b      	str	r3, [r7, #52]	@ 0x34
        break;
 8006836:	e00c      	b.n	8006852 <UART_SetConfig+0x4ea>
      case UART_CLOCKSOURCE_LSE:
        pclk = (uint32_t) LSE_VALUE;
 8006838:	2380      	movs	r3, #128	@ 0x80
 800683a:	021b      	lsls	r3, r3, #8
 800683c:	637b      	str	r3, [r7, #52]	@ 0x34
        break;
 800683e:	e008      	b.n	8006852 <UART_SetConfig+0x4ea>
      default:
        pclk = 0U;
 8006840:	2300      	movs	r3, #0
 8006842:	637b      	str	r3, [r7, #52]	@ 0x34
        ret = HAL_ERROR;
 8006844:	231a      	movs	r3, #26
 8006846:	2220      	movs	r2, #32
 8006848:	189b      	adds	r3, r3, r2
 800684a:	19db      	adds	r3, r3, r7
 800684c:	2201      	movs	r2, #1
 800684e:	701a      	strb	r2, [r3, #0]
        break;
 8006850:	46c0      	nop			@ (mov r8, r8)
    }

    if (pclk != 0U)
 8006852:	6b7b      	ldr	r3, [r7, #52]	@ 0x34
 8006854:	2b00      	cmp	r3, #0
 8006856:	d02a      	beq.n	80068ae <UART_SetConfig+0x546>
    {
      /* USARTDIV must be greater than or equal to 0d16 */
      usartdiv = (uint32_t)(UART_DIV_SAMPLING16(pclk, huart->Init.BaudRate, huart->Init.ClockPrescaler));
 8006858:	6a7b      	ldr	r3, [r7, #36]	@ 0x24
 800685a:	6a5a      	ldr	r2, [r3, #36]	@ 0x24
 800685c:	4b1f      	ldr	r3, [pc, #124]	@ (80068dc <UART_SetConfig+0x574>)
 800685e:	0052      	lsls	r2, r2, #1
 8006860:	5ad3      	ldrh	r3, [r2, r3]
 8006862:	0019      	movs	r1, r3
 8006864:	6b78      	ldr	r0, [r7, #52]	@ 0x34
 8006866:	f7f9 fc73 	bl	8000150 <__udivsi3>
 800686a:	0003      	movs	r3, r0
 800686c:	001a      	movs	r2, r3
 800686e:	6a7b      	ldr	r3, [r7, #36]	@ 0x24
 8006870:	685b      	ldr	r3, [r3, #4]
 8006872:	085b      	lsrs	r3, r3, #1
 8006874:	18d2      	adds	r2, r2, r3
 8006876:	6a7b      	ldr	r3, [r7, #36]	@ 0x24
 8006878:	685b      	ldr	r3, [r3, #4]
 800687a:	0019      	movs	r1, r3
 800687c:	0010      	movs	r0, r2
 800687e:	f7f9 fc67 	bl	8000150 <__udivsi3>
 8006882:	0003      	movs	r3, r0
 8006884:	633b      	str	r3, [r7, #48]	@ 0x30
      if ((usartdiv >= UART_BRR_MIN) && (usartdiv <= UART_BRR_MAX))
 8006886:	6b3b      	ldr	r3, [r7, #48]	@ 0x30
 8006888:	2b0f      	cmp	r3, #15
 800688a:	d90a      	bls.n	80068a2 <UART_SetConfig+0x53a>
 800688c:	6b3a      	ldr	r2, [r7, #48]	@ 0x30
 800688e:	2380      	movs	r3, #128	@ 0x80
 8006890:	025b      	lsls	r3, r3, #9
 8006892:	429a      	cmp	r2, r3
 8006894:	d205      	bcs.n	80068a2 <UART_SetConfig+0x53a>
      {
        huart->Instance->BRR = (uint16_t)usartdiv;
 8006896:	6b3b      	ldr	r3, [r7, #48]	@ 0x30
 8006898:	b29a      	uxth	r2, r3
 800689a:	6a7b      	ldr	r3, [r7, #36]	@ 0x24
 800689c:	681b      	ldr	r3, [r3, #0]
 800689e:	60da      	str	r2, [r3, #12]
 80068a0:	e005      	b.n	80068ae <UART_SetConfig+0x546>
      }
      else
      {
        ret = HAL_ERROR;
 80068a2:	231a      	movs	r3, #26
 80068a4:	2220      	movs	r2, #32
 80068a6:	189b      	adds	r3, r3, r2
 80068a8:	19db      	adds	r3, r3, r7
 80068aa:	2201      	movs	r2, #1
 80068ac:	701a      	strb	r2, [r3, #0]
      }
    }
  }

  /* Initialize the number of data to process during RX/TX ISR execution */
  huart->NbTxDataToProcess = 1;
 80068ae:	6a7b      	ldr	r3, [r7, #36]	@ 0x24
 80068b0:	226a      	movs	r2, #106	@ 0x6a
 80068b2:	2101      	movs	r1, #1
 80068b4:	5299      	strh	r1, [r3, r2]
  huart->NbRxDataToProcess = 1;
 80068b6:	6a7b      	ldr	r3, [r7, #36]	@ 0x24
 80068b8:	2268      	movs	r2, #104	@ 0x68
 80068ba:	2101      	movs	r1, #1
 80068bc:	5299      	strh	r1, [r3, r2]

  /* Clear ISR function pointers */
  huart->RxISR = NULL;
 80068be:	6a7b      	ldr	r3, [r7, #36]	@ 0x24
 80068c0:	2200      	movs	r2, #0
 80068c2:	675a      	str	r2, [r3, #116]	@ 0x74
  huart->TxISR = NULL;
 80068c4:	6a7b      	ldr	r3, [r7, #36]	@ 0x24
 80068c6:	2200      	movs	r2, #0
 80068c8:	679a      	str	r2, [r3, #120]	@ 0x78

  return ret;
 80068ca:	231a      	movs	r3, #26
 80068cc:	2220      	movs	r2, #32
 80068ce:	189b      	adds	r3, r3, r2
 80068d0:	19db      	adds	r3, r3, r7
 80068d2:	781b      	ldrb	r3, [r3, #0]
}
 80068d4:	0018      	movs	r0, r3
 80068d6:	46bd      	mov	sp, r7
 80068d8:	b010      	add	sp, #64	@ 0x40
 80068da:	bdb0      	pop	{r4, r5, r7, pc}
 80068dc:	08009c2c 	.word	0x08009c2c
 80068e0:	00f42400 	.word	0x00f42400

080068e4 <UART_AdvFeatureConfig>:
  * @brief Configure the UART peripheral advanced features.
  * @param huart UART handle.
  * @retval None
  */
void UART_AdvFeatureConfig(UART_HandleTypeDef *huart)
{
 80068e4:	b580      	push	{r7, lr}
 80068e6:	b082      	sub	sp, #8
 80068e8:	af00      	add	r7, sp, #0
 80068ea:	6078      	str	r0, [r7, #4]
  /* Check whether the set of advanced features to configure is properly set */
  assert_param(IS_UART_ADVFEATURE_INIT(huart->AdvancedInit.AdvFeatureInit));

  /* if required, configure RX/TX pins swap */
  if (HAL_IS_BIT_SET(huart->AdvancedInit.AdvFeatureInit, UART_ADVFEATURE_SWAP_INIT))
 80068ec:	687b      	ldr	r3, [r7, #4]
 80068ee:	6a9b      	ldr	r3, [r3, #40]	@ 0x28
 80068f0:	2208      	movs	r2, #8
 80068f2:	4013      	ands	r3, r2
 80068f4:	d00b      	beq.n	800690e <UART_AdvFeatureConfig+0x2a>
  {
    assert_param(IS_UART_ADVFEATURE_SWAP(huart->AdvancedInit.Swap));
    MODIFY_REG(huart->Instance->CR2, USART_CR2_SWAP, huart->AdvancedInit.Swap);
 80068f6:	687b      	ldr	r3, [r7, #4]
 80068f8:	681b      	ldr	r3, [r3, #0]
 80068fa:	685b      	ldr	r3, [r3, #4]
 80068fc:	4a4a      	ldr	r2, [pc, #296]	@ (8006a28 <UART_AdvFeatureConfig+0x144>)
 80068fe:	4013      	ands	r3, r2
 8006900:	0019      	movs	r1, r3
 8006902:	687b      	ldr	r3, [r7, #4]
 8006904:	6b9a      	ldr	r2, [r3, #56]	@ 0x38
 8006906:	687b      	ldr	r3, [r7, #4]
 8006908:	681b      	ldr	r3, [r3, #0]
 800690a:	430a      	orrs	r2, r1
 800690c:	605a      	str	r2, [r3, #4]
  }

  /* if required, configure TX pin active level inversion */
  if (HAL_IS_BIT_SET(huart->AdvancedInit.AdvFeatureInit, UART_ADVFEATURE_TXINVERT_INIT))
 800690e:	687b      	ldr	r3, [r7, #4]
 8006910:	6a9b      	ldr	r3, [r3, #40]	@ 0x28
 8006912:	2201      	movs	r2, #1
 8006914:	4013      	ands	r3, r2
 8006916:	d00b      	beq.n	8006930 <UART_AdvFeatureConfig+0x4c>
  {
    assert_param(IS_UART_ADVFEATURE_TXINV(huart->AdvancedInit.TxPinLevelInvert));
    MODIFY_REG(huart->Instance->CR2, USART_CR2_TXINV, huart->AdvancedInit.TxPinLevelInvert);
 8006918:	687b      	ldr	r3, [r7, #4]
 800691a:	681b      	ldr	r3, [r3, #0]
 800691c:	685b      	ldr	r3, [r3, #4]
 800691e:	4a43      	ldr	r2, [pc, #268]	@ (8006a2c <UART_AdvFeatureConfig+0x148>)
 8006920:	4013      	ands	r3, r2
 8006922:	0019      	movs	r1, r3
 8006924:	687b      	ldr	r3, [r7, #4]
 8006926:	6ada      	ldr	r2, [r3, #44]	@ 0x2c
 8006928:	687b      	ldr	r3, [r7, #4]
 800692a:	681b      	ldr	r3, [r3, #0]
 800692c:	430a      	orrs	r2, r1
 800692e:	605a      	str	r2, [r3, #4]
  }

  /* if required, configure RX pin active level inversion */
  if (HAL_IS_BIT_SET(huart->AdvancedInit.AdvFeatureInit, UART_ADVFEATURE_RXINVERT_INIT))
 8006930:	687b      	ldr	r3, [r7, #4]
 8006932:	6a9b      	ldr	r3, [r3, #40]	@ 0x28
 8006934:	2202      	movs	r2, #2
 8006936:	4013      	ands	r3, r2
 8006938:	d00b      	beq.n	8006952 <UART_AdvFeatureConfig+0x6e>
  {
    assert_param(IS_UART_ADVFEATURE_RXINV(huart->AdvancedInit.RxPinLevelInvert));
    MODIFY_REG(huart->Instance->CR2, USART_CR2_RXINV, huart->AdvancedInit.RxPinLevelInvert);
 800693a:	687b      	ldr	r3, [r7, #4]
 800693c:	681b      	ldr	r3, [r3, #0]
 800693e:	685b      	ldr	r3, [r3, #4]
 8006940:	4a3b      	ldr	r2, [pc, #236]	@ (8006a30 <UART_AdvFeatureConfig+0x14c>)
 8006942:	4013      	ands	r3, r2
 8006944:	0019      	movs	r1, r3
 8006946:	687b      	ldr	r3, [r7, #4]
 8006948:	6b1a      	ldr	r2, [r3, #48]	@ 0x30
 800694a:	687b      	ldr	r3, [r7, #4]
 800694c:	681b      	ldr	r3, [r3, #0]
 800694e:	430a      	orrs	r2, r1
 8006950:	605a      	str	r2, [r3, #4]
  }

  /* if required, configure data inversion */
  if (HAL_IS_BIT_SET(huart->AdvancedInit.AdvFeatureInit, UART_ADVFEATURE_DATAINVERT_INIT))
 8006952:	687b      	ldr	r3, [r7, #4]
 8006954:	6a9b      	ldr	r3, [r3, #40]	@ 0x28
 8006956:	2204      	movs	r2, #4
 8006958:	4013      	ands	r3, r2
 800695a:	d00b      	beq.n	8006974 <UART_AdvFeatureConfig+0x90>
  {
    assert_param(IS_UART_ADVFEATURE_DATAINV(huart->AdvancedInit.DataInvert));
    MODIFY_REG(huart->Instance->CR2, USART_CR2_DATAINV, huart->AdvancedInit.DataInvert);
 800695c:	687b      	ldr	r3, [r7, #4]
 800695e:	681b      	ldr	r3, [r3, #0]
 8006960:	685b      	ldr	r3, [r3, #4]
 8006962:	4a34      	ldr	r2, [pc, #208]	@ (8006a34 <UART_AdvFeatureConfig+0x150>)
 8006964:	4013      	ands	r3, r2
 8006966:	0019      	movs	r1, r3
 8006968:	687b      	ldr	r3, [r7, #4]
 800696a:	6b5a      	ldr	r2, [r3, #52]	@ 0x34
 800696c:	687b      	ldr	r3, [r7, #4]
 800696e:	681b      	ldr	r3, [r3, #0]
 8006970:	430a      	orrs	r2, r1
 8006972:	605a      	str	r2, [r3, #4]
  }

  /* if required, configure RX overrun detection disabling */
  if (HAL_IS_BIT_SET(huart->AdvancedInit.AdvFeatureInit, UART_ADVFEATURE_RXOVERRUNDISABLE_INIT))
 8006974:	687b      	ldr	r3, [r7, #4]
 8006976:	6a9b      	ldr	r3, [r3, #40]	@ 0x28
 8006978:	2210      	movs	r2, #16
 800697a:	4013      	ands	r3, r2
 800697c:	d00b      	beq.n	8006996 <UART_AdvFeatureConfig+0xb2>
  {
    assert_param(IS_UART_OVERRUN(huart->AdvancedInit.OverrunDisable));
    MODIFY_REG(huart->Instance->CR3, USART_CR3_OVRDIS, huart->AdvancedInit.OverrunDisable);
 800697e:	687b      	ldr	r3, [r7, #4]
 8006980:	681b      	ldr	r3, [r3, #0]
 8006982:	689b      	ldr	r3, [r3, #8]
 8006984:	4a2c      	ldr	r2, [pc, #176]	@ (8006a38 <UART_AdvFeatureConfig+0x154>)
 8006986:	4013      	ands	r3, r2
 8006988:	0019      	movs	r1, r3
 800698a:	687b      	ldr	r3, [r7, #4]
 800698c:	6bda      	ldr	r2, [r3, #60]	@ 0x3c
 800698e:	687b      	ldr	r3, [r7, #4]
 8006990:	681b      	ldr	r3, [r3, #0]
 8006992:	430a      	orrs	r2, r1
 8006994:	609a      	str	r2, [r3, #8]
  }

  /* if required, configure DMA disabling on reception error */
  if (HAL_IS_BIT_SET(huart->AdvancedInit.AdvFeatureInit, UART_ADVFEATURE_DMADISABLEONERROR_INIT))
 8006996:	687b      	ldr	r3, [r7, #4]
 8006998:	6a9b      	ldr	r3, [r3, #40]	@ 0x28
 800699a:	2220      	movs	r2, #32
 800699c:	4013      	ands	r3, r2
 800699e:	d00b      	beq.n	80069b8 <UART_AdvFeatureConfig+0xd4>
  {
    assert_param(IS_UART_ADVFEATURE_DMAONRXERROR(huart->AdvancedInit.DMADisableonRxError));
    MODIFY_REG(huart->Instance->CR3, USART_CR3_DDRE, huart->AdvancedInit.DMADisableonRxError);
 80069a0:	687b      	ldr	r3, [r7, #4]
 80069a2:	681b      	ldr	r3, [r3, #0]
 80069a4:	689b      	ldr	r3, [r3, #8]
 80069a6:	4a25      	ldr	r2, [pc, #148]	@ (8006a3c <UART_AdvFeatureConfig+0x158>)
 80069a8:	4013      	ands	r3, r2
 80069aa:	0019      	movs	r1, r3
 80069ac:	687b      	ldr	r3, [r7, #4]
 80069ae:	6c1a      	ldr	r2, [r3, #64]	@ 0x40
 80069b0:	687b      	ldr	r3, [r7, #4]
 80069b2:	681b      	ldr	r3, [r3, #0]
 80069b4:	430a      	orrs	r2, r1
 80069b6:	609a      	str	r2, [r3, #8]
  }

  /* if required, configure auto Baud rate detection scheme */
  if (HAL_IS_BIT_SET(huart->AdvancedInit.AdvFeatureInit, UART_ADVFEATURE_AUTOBAUDRATE_INIT))
 80069b8:	687b      	ldr	r3, [r7, #4]
 80069ba:	6a9b      	ldr	r3, [r3, #40]	@ 0x28
 80069bc:	2240      	movs	r2, #64	@ 0x40
 80069be:	4013      	ands	r3, r2
 80069c0:	d01d      	beq.n	80069fe <UART_AdvFeatureConfig+0x11a>
  {
    assert_param(IS_USART_AUTOBAUDRATE_DETECTION_INSTANCE(huart->Instance));
    assert_param(IS_UART_ADVFEATURE_AUTOBAUDRATE(huart->AdvancedInit.AutoBaudRateEnable));
    MODIFY_REG(huart->Instance->CR2, USART_CR2_ABREN, huart->AdvancedInit.AutoBaudRateEnable);
 80069c2:	687b      	ldr	r3, [r7, #4]
 80069c4:	681b      	ldr	r3, [r3, #0]
 80069c6:	685b      	ldr	r3, [r3, #4]
 80069c8:	4a1d      	ldr	r2, [pc, #116]	@ (8006a40 <UART_AdvFeatureConfig+0x15c>)
 80069ca:	4013      	ands	r3, r2
 80069cc:	0019      	movs	r1, r3
 80069ce:	687b      	ldr	r3, [r7, #4]
 80069d0:	6c5a      	ldr	r2, [r3, #68]	@ 0x44
 80069d2:	687b      	ldr	r3, [r7, #4]
 80069d4:	681b      	ldr	r3, [r3, #0]
 80069d6:	430a      	orrs	r2, r1
 80069d8:	605a      	str	r2, [r3, #4]
    /* set auto Baudrate detection parameters if detection is enabled */
    if (huart->AdvancedInit.AutoBaudRateEnable == UART_ADVFEATURE_AUTOBAUDRATE_ENABLE)
 80069da:	687b      	ldr	r3, [r7, #4]
 80069dc:	6c5a      	ldr	r2, [r3, #68]	@ 0x44
 80069de:	2380      	movs	r3, #128	@ 0x80
 80069e0:	035b      	lsls	r3, r3, #13
 80069e2:	429a      	cmp	r2, r3
 80069e4:	d10b      	bne.n	80069fe <UART_AdvFeatureConfig+0x11a>
    {
      assert_param(IS_UART_ADVFEATURE_AUTOBAUDRATEMODE(huart->AdvancedInit.AutoBaudRateMode));
      MODIFY_REG(huart->Instance->CR2, USART_CR2_ABRMODE, huart->AdvancedInit.AutoBaudRateMode);
 80069e6:	687b      	ldr	r3, [r7, #4]
 80069e8:	681b      	ldr	r3, [r3, #0]
 80069ea:	685b      	ldr	r3, [r3, #4]
 80069ec:	4a15      	ldr	r2, [pc, #84]	@ (8006a44 <UART_AdvFeatureConfig+0x160>)
 80069ee:	4013      	ands	r3, r2
 80069f0:	0019      	movs	r1, r3
 80069f2:	687b      	ldr	r3, [r7, #4]
 80069f4:	6c9a      	ldr	r2, [r3, #72]	@ 0x48
 80069f6:	687b      	ldr	r3, [r7, #4]
 80069f8:	681b      	ldr	r3, [r3, #0]
 80069fa:	430a      	orrs	r2, r1
 80069fc:	605a      	str	r2, [r3, #4]
    }
  }

  /* if required, configure MSB first on communication line */
  if (HAL_IS_BIT_SET(huart->AdvancedInit.AdvFeatureInit, UART_ADVFEATURE_MSBFIRST_INIT))
 80069fe:	687b      	ldr	r3, [r7, #4]
 8006a00:	6a9b      	ldr	r3, [r3, #40]	@ 0x28
 8006a02:	2280      	movs	r2, #128	@ 0x80
 8006a04:	4013      	ands	r3, r2
 8006a06:	d00b      	beq.n	8006a20 <UART_AdvFeatureConfig+0x13c>
  {
    assert_param(IS_UART_ADVFEATURE_MSBFIRST(huart->AdvancedInit.MSBFirst));
    MODIFY_REG(huart->Instance->CR2, USART_CR2_MSBFIRST, huart->AdvancedInit.MSBFirst);
 8006a08:	687b      	ldr	r3, [r7, #4]
 8006a0a:	681b      	ldr	r3, [r3, #0]
 8006a0c:	685b      	ldr	r3, [r3, #4]
 8006a0e:	4a0e      	ldr	r2, [pc, #56]	@ (8006a48 <UART_AdvFeatureConfig+0x164>)
 8006a10:	4013      	ands	r3, r2
 8006a12:	0019      	movs	r1, r3
 8006a14:	687b      	ldr	r3, [r7, #4]
 8006a16:	6cda      	ldr	r2, [r3, #76]	@ 0x4c
 8006a18:	687b      	ldr	r3, [r7, #4]
 8006a1a:	681b      	ldr	r3, [r3, #0]
 8006a1c:	430a      	orrs	r2, r1
 8006a1e:	605a      	str	r2, [r3, #4]
  }
}
 8006a20:	46c0      	nop			@ (mov r8, r8)
 8006a22:	46bd      	mov	sp, r7
 8006a24:	b002      	add	sp, #8
 8006a26:	bd80      	pop	{r7, pc}
 8006a28:	ffff7fff 	.word	0xffff7fff
 8006a2c:	fffdffff 	.word	0xfffdffff
 8006a30:	fffeffff 	.word	0xfffeffff
 8006a34:	fffbffff 	.word	0xfffbffff
 8006a38:	ffffefff 	.word	0xffffefff
 8006a3c:	ffffdfff 	.word	0xffffdfff
 8006a40:	ffefffff 	.word	0xffefffff
 8006a44:	ff9fffff 	.word	0xff9fffff
 8006a48:	fff7ffff 	.word	0xfff7ffff

08006a4c <UART_CheckIdleState>:
  * @brief Check the UART Idle State.
  * @param huart UART handle.
  * @retval HAL status
  */
HAL_StatusTypeDef UART_CheckIdleState(UART_HandleTypeDef *huart)
{
 8006a4c:	b580      	push	{r7, lr}
 8006a4e:	b092      	sub	sp, #72	@ 0x48
 8006a50:	af02      	add	r7, sp, #8
 8006a52:	6078      	str	r0, [r7, #4]
  uint32_t tickstart;

  /* Initialize the UART ErrorCode */
  huart->ErrorCode = HAL_UART_ERROR_NONE;
 8006a54:	687b      	ldr	r3, [r7, #4]
 8006a56:	2290      	movs	r2, #144	@ 0x90
 8006a58:	2100      	movs	r1, #0
 8006a5a:	5099      	str	r1, [r3, r2]

  /* Init tickstart for timeout management */
  tickstart = HAL_GetTick();
 8006a5c:	f7fd fc0c 	bl	8004278 <HAL_GetTick>
 8006a60:	0003      	movs	r3, r0
 8006a62:	63fb      	str	r3, [r7, #60]	@ 0x3c

  /* Check if the Transmitter is enabled */
  if ((huart->Instance->CR1 & USART_CR1_TE) == USART_CR1_TE)
 8006a64:	687b      	ldr	r3, [r7, #4]
 8006a66:	681b      	ldr	r3, [r3, #0]
 8006a68:	681b      	ldr	r3, [r3, #0]
 8006a6a:	2208      	movs	r2, #8
 8006a6c:	4013      	ands	r3, r2
 8006a6e:	2b08      	cmp	r3, #8
 8006a70:	d12d      	bne.n	8006ace <UART_CheckIdleState+0x82>
  {
    /* Wait until TEACK flag is set */
    if (UART_WaitOnFlagUntilTimeout(huart, USART_ISR_TEACK, RESET, tickstart, HAL_UART_TIMEOUT_VALUE) != HAL_OK)
 8006a72:	6bfb      	ldr	r3, [r7, #60]	@ 0x3c
 8006a74:	2280      	movs	r2, #128	@ 0x80
 8006a76:	0391      	lsls	r1, r2, #14
 8006a78:	6878      	ldr	r0, [r7, #4]
 8006a7a:	4a47      	ldr	r2, [pc, #284]	@ (8006b98 <UART_CheckIdleState+0x14c>)
 8006a7c:	9200      	str	r2, [sp, #0]
 8006a7e:	2200      	movs	r2, #0
 8006a80:	f000 f88e 	bl	8006ba0 <UART_WaitOnFlagUntilTimeout>
 8006a84:	1e03      	subs	r3, r0, #0
 8006a86:	d022      	beq.n	8006ace <UART_CheckIdleState+0x82>
  __ASM volatile ("MRS %0, primask" : "=r" (result) :: "memory");
 8006a88:	f3ef 8310 	mrs	r3, PRIMASK
 8006a8c:	627b      	str	r3, [r7, #36]	@ 0x24
  return(result);
 8006a8e:	6a7b      	ldr	r3, [r7, #36]	@ 0x24
    {
      /* Disable TXE interrupt for the interrupt process */
      ATOMIC_CLEAR_BIT(huart->Instance->CR1, (USART_CR1_TXEIE_TXFNFIE));
 8006a90:	63bb      	str	r3, [r7, #56]	@ 0x38
 8006a92:	2301      	movs	r3, #1
 8006a94:	62bb      	str	r3, [r7, #40]	@ 0x28
  __ASM volatile ("MSR primask, %0" : : "r" (priMask) : "memory");
 8006a96:	6abb      	ldr	r3, [r7, #40]	@ 0x28
 8006a98:	f383 8810 	msr	PRIMASK, r3
}
 8006a9c:	46c0      	nop			@ (mov r8, r8)
 8006a9e:	687b      	ldr	r3, [r7, #4]
 8006aa0:	681b      	ldr	r3, [r3, #0]
 8006aa2:	681a      	ldr	r2, [r3, #0]
 8006aa4:	687b      	ldr	r3, [r7, #4]
 8006aa6:	681b      	ldr	r3, [r3, #0]
 8006aa8:	2180      	movs	r1, #128	@ 0x80
 8006aaa:	438a      	bics	r2, r1
 8006aac:	601a      	str	r2, [r3, #0]
 8006aae:	6bbb      	ldr	r3, [r7, #56]	@ 0x38
 8006ab0:	62fb      	str	r3, [r7, #44]	@ 0x2c
  __ASM volatile ("MSR primask, %0" : : "r" (priMask) : "memory");
 8006ab2:	6afb      	ldr	r3, [r7, #44]	@ 0x2c
 8006ab4:	f383 8810 	msr	PRIMASK, r3
}
 8006ab8:	46c0      	nop			@ (mov r8, r8)

      huart->gState = HAL_UART_STATE_READY;
 8006aba:	687b      	ldr	r3, [r7, #4]
 8006abc:	2288      	movs	r2, #136	@ 0x88
 8006abe:	2120      	movs	r1, #32
 8006ac0:	5099      	str	r1, [r3, r2]

      __HAL_UNLOCK(huart);
 8006ac2:	687b      	ldr	r3, [r7, #4]
 8006ac4:	2284      	movs	r2, #132	@ 0x84
 8006ac6:	2100      	movs	r1, #0
 8006ac8:	5499      	strb	r1, [r3, r2]

      /* Timeout occurred */
      return HAL_TIMEOUT;
 8006aca:	2303      	movs	r3, #3
 8006acc:	e060      	b.n	8006b90 <UART_CheckIdleState+0x144>
    }
  }

  /* Check if the Receiver is enabled */
  if ((huart->Instance->CR1 & USART_CR1_RE) == USART_CR1_RE)
 8006ace:	687b      	ldr	r3, [r7, #4]
 8006ad0:	681b      	ldr	r3, [r3, #0]
 8006ad2:	681b      	ldr	r3, [r3, #0]
 8006ad4:	2204      	movs	r2, #4
 8006ad6:	4013      	ands	r3, r2
 8006ad8:	2b04      	cmp	r3, #4
 8006ada:	d146      	bne.n	8006b6a <UART_CheckIdleState+0x11e>
  {
    /* Wait until REACK flag is set */
    if (UART_WaitOnFlagUntilTimeout(huart, USART_ISR_REACK, RESET, tickstart, HAL_UART_TIMEOUT_VALUE) != HAL_OK)
 8006adc:	6bfb      	ldr	r3, [r7, #60]	@ 0x3c
 8006ade:	2280      	movs	r2, #128	@ 0x80
 8006ae0:	03d1      	lsls	r1, r2, #15
 8006ae2:	6878      	ldr	r0, [r7, #4]
 8006ae4:	4a2c      	ldr	r2, [pc, #176]	@ (8006b98 <UART_CheckIdleState+0x14c>)
 8006ae6:	9200      	str	r2, [sp, #0]
 8006ae8:	2200      	movs	r2, #0
 8006aea:	f000 f859 	bl	8006ba0 <UART_WaitOnFlagUntilTimeout>
 8006aee:	1e03      	subs	r3, r0, #0
 8006af0:	d03b      	beq.n	8006b6a <UART_CheckIdleState+0x11e>
  __ASM volatile ("MRS %0, primask" : "=r" (result) :: "memory");
 8006af2:	f3ef 8310 	mrs	r3, PRIMASK
 8006af6:	60fb      	str	r3, [r7, #12]
  return(result);
 8006af8:	68fb      	ldr	r3, [r7, #12]
    {
      /* Disable RXNE, PE and ERR (Frame error, noise error, overrun error)
      interrupts for the interrupt process */
      ATOMIC_CLEAR_BIT(huart->Instance->CR1, (USART_CR1_RXNEIE_RXFNEIE | USART_CR1_PEIE));
 8006afa:	637b      	str	r3, [r7, #52]	@ 0x34
 8006afc:	2301      	movs	r3, #1
 8006afe:	613b      	str	r3, [r7, #16]
  __ASM volatile ("MSR primask, %0" : : "r" (priMask) : "memory");
 8006b00:	693b      	ldr	r3, [r7, #16]
 8006b02:	f383 8810 	msr	PRIMASK, r3
}
 8006b06:	46c0      	nop			@ (mov r8, r8)
 8006b08:	687b      	ldr	r3, [r7, #4]
 8006b0a:	681b      	ldr	r3, [r3, #0]
 8006b0c:	681a      	ldr	r2, [r3, #0]
 8006b0e:	687b      	ldr	r3, [r7, #4]
 8006b10:	681b      	ldr	r3, [r3, #0]
 8006b12:	4922      	ldr	r1, [pc, #136]	@ (8006b9c <UART_CheckIdleState+0x150>)
 8006b14:	400a      	ands	r2, r1
 8006b16:	601a      	str	r2, [r3, #0]
 8006b18:	6b7b      	ldr	r3, [r7, #52]	@ 0x34
 8006b1a:	617b      	str	r3, [r7, #20]
  __ASM volatile ("MSR primask, %0" : : "r" (priMask) : "memory");
 8006b1c:	697b      	ldr	r3, [r7, #20]
 8006b1e:	f383 8810 	msr	PRIMASK, r3
}
 8006b22:	46c0      	nop			@ (mov r8, r8)
  __ASM volatile ("MRS %0, primask" : "=r" (result) :: "memory");
 8006b24:	f3ef 8310 	mrs	r3, PRIMASK
 8006b28:	61bb      	str	r3, [r7, #24]
  return(result);
 8006b2a:	69bb      	ldr	r3, [r7, #24]
      ATOMIC_CLEAR_BIT(huart->Instance->CR3, USART_CR3_EIE);
 8006b2c:	633b      	str	r3, [r7, #48]	@ 0x30
 8006b2e:	2301      	movs	r3, #1
 8006b30:	61fb      	str	r3, [r7, #28]
  __ASM volatile ("MSR primask, %0" : : "r" (priMask) : "memory");
 8006b32:	69fb      	ldr	r3, [r7, #28]
 8006b34:	f383 8810 	msr	PRIMASK, r3
}
 8006b38:	46c0      	nop			@ (mov r8, r8)
 8006b3a:	687b      	ldr	r3, [r7, #4]
 8006b3c:	681b      	ldr	r3, [r3, #0]
 8006b3e:	689a      	ldr	r2, [r3, #8]
 8006b40:	687b      	ldr	r3, [r7, #4]
 8006b42:	681b      	ldr	r3, [r3, #0]
 8006b44:	2101      	movs	r1, #1
 8006b46:	438a      	bics	r2, r1
 8006b48:	609a      	str	r2, [r3, #8]
 8006b4a:	6b3b      	ldr	r3, [r7, #48]	@ 0x30
 8006b4c:	623b      	str	r3, [r7, #32]
  __ASM volatile ("MSR primask, %0" : : "r" (priMask) : "memory");
 8006b4e:	6a3b      	ldr	r3, [r7, #32]
 8006b50:	f383 8810 	msr	PRIMASK, r3
}
 8006b54:	46c0      	nop			@ (mov r8, r8)

      huart->RxState = HAL_UART_STATE_READY;
 8006b56:	687b      	ldr	r3, [r7, #4]
 8006b58:	228c      	movs	r2, #140	@ 0x8c
 8006b5a:	2120      	movs	r1, #32
 8006b5c:	5099      	str	r1, [r3, r2]

      __HAL_UNLOCK(huart);
 8006b5e:	687b      	ldr	r3, [r7, #4]
 8006b60:	2284      	movs	r2, #132	@ 0x84
 8006b62:	2100      	movs	r1, #0
 8006b64:	5499      	strb	r1, [r3, r2]

      /* Timeout occurred */
      return HAL_TIMEOUT;
 8006b66:	2303      	movs	r3, #3
 8006b68:	e012      	b.n	8006b90 <UART_CheckIdleState+0x144>
    }
  }

  /* Initialize the UART State */
  huart->gState = HAL_UART_STATE_READY;
 8006b6a:	687b      	ldr	r3, [r7, #4]
 8006b6c:	2288      	movs	r2, #136	@ 0x88
 8006b6e:	2120      	movs	r1, #32
 8006b70:	5099      	str	r1, [r3, r2]
  huart->RxState = HAL_UART_STATE_READY;
 8006b72:	687b      	ldr	r3, [r7, #4]
 8006b74:	228c      	movs	r2, #140	@ 0x8c
 8006b76:	2120      	movs	r1, #32
 8006b78:	5099      	str	r1, [r3, r2]
  huart->ReceptionType = HAL_UART_RECEPTION_STANDARD;
 8006b7a:	687b      	ldr	r3, [r7, #4]
 8006b7c:	2200      	movs	r2, #0
 8006b7e:	66da      	str	r2, [r3, #108]	@ 0x6c
  huart->RxEventType = HAL_UART_RXEVENT_TC;
 8006b80:	687b      	ldr	r3, [r7, #4]
 8006b82:	2200      	movs	r2, #0
 8006b84:	671a      	str	r2, [r3, #112]	@ 0x70

  __HAL_UNLOCK(huart);
 8006b86:	687b      	ldr	r3, [r7, #4]
 8006b88:	2284      	movs	r2, #132	@ 0x84
 8006b8a:	2100      	movs	r1, #0
 8006b8c:	5499      	strb	r1, [r3, r2]

  return HAL_OK;
 8006b8e:	2300      	movs	r3, #0
}
 8006b90:	0018      	movs	r0, r3
 8006b92:	46bd      	mov	sp, r7
 8006b94:	b010      	add	sp, #64	@ 0x40
 8006b96:	bd80      	pop	{r7, pc}
 8006b98:	01ffffff 	.word	0x01ffffff
 8006b9c:	fffffedf 	.word	0xfffffedf

08006ba0 <UART_WaitOnFlagUntilTimeout>:
  * @param Timeout   Timeout duration
  * @retval HAL status
  */
HAL_StatusTypeDef UART_WaitOnFlagUntilTimeout(UART_HandleTypeDef *huart, uint32_t Flag, FlagStatus Status,
                                              uint32_t Tickstart, uint32_t Timeout)
{
 8006ba0:	b580      	push	{r7, lr}
 8006ba2:	b084      	sub	sp, #16
 8006ba4:	af00      	add	r7, sp, #0
 8006ba6:	60f8      	str	r0, [r7, #12]
 8006ba8:	60b9      	str	r1, [r7, #8]
 8006baa:	603b      	str	r3, [r7, #0]
 8006bac:	1dfb      	adds	r3, r7, #7
 8006bae:	701a      	strb	r2, [r3, #0]
  /* Wait until flag is set */
  while ((__HAL_UART_GET_FLAG(huart, Flag) ? SET : RESET) == Status)
 8006bb0:	e051      	b.n	8006c56 <UART_WaitOnFlagUntilTimeout+0xb6>
  {
    /* Check for the Timeout */
    if (Timeout != HAL_MAX_DELAY)
 8006bb2:	69bb      	ldr	r3, [r7, #24]
 8006bb4:	3301      	adds	r3, #1
 8006bb6:	d04e      	beq.n	8006c56 <UART_WaitOnFlagUntilTimeout+0xb6>
    {
      if (((HAL_GetTick() - Tickstart) > Timeout) || (Timeout == 0U))
 8006bb8:	f7fd fb5e 	bl	8004278 <HAL_GetTick>
 8006bbc:	0002      	movs	r2, r0
 8006bbe:	683b      	ldr	r3, [r7, #0]
 8006bc0:	1ad3      	subs	r3, r2, r3
 8006bc2:	69ba      	ldr	r2, [r7, #24]
 8006bc4:	429a      	cmp	r2, r3
 8006bc6:	d302      	bcc.n	8006bce <UART_WaitOnFlagUntilTimeout+0x2e>
 8006bc8:	69bb      	ldr	r3, [r7, #24]
 8006bca:	2b00      	cmp	r3, #0
 8006bcc:	d101      	bne.n	8006bd2 <UART_WaitOnFlagUntilTimeout+0x32>
      {

        return HAL_TIMEOUT;
 8006bce:	2303      	movs	r3, #3
 8006bd0:	e051      	b.n	8006c76 <UART_WaitOnFlagUntilTimeout+0xd6>
      }

      if ((READ_BIT(huart->Instance->CR1, USART_CR1_RE) != 0U) && (Flag != UART_FLAG_TXE) && (Flag != UART_FLAG_TC))
 8006bd2:	68fb      	ldr	r3, [r7, #12]
 8006bd4:	681b      	ldr	r3, [r3, #0]
 8006bd6:	681b      	ldr	r3, [r3, #0]
 8006bd8:	2204      	movs	r2, #4
 8006bda:	4013      	ands	r3, r2
 8006bdc:	d03b      	beq.n	8006c56 <UART_WaitOnFlagUntilTimeout+0xb6>
 8006bde:	68bb      	ldr	r3, [r7, #8]
 8006be0:	2b80      	cmp	r3, #128	@ 0x80
 8006be2:	d038      	beq.n	8006c56 <UART_WaitOnFlagUntilTimeout+0xb6>
 8006be4:	68bb      	ldr	r3, [r7, #8]
 8006be6:	2b40      	cmp	r3, #64	@ 0x40
 8006be8:	d035      	beq.n	8006c56 <UART_WaitOnFlagUntilTimeout+0xb6>
      {
        if (__HAL_UART_GET_FLAG(huart, UART_FLAG_ORE) == SET)
 8006bea:	68fb      	ldr	r3, [r7, #12]
 8006bec:	681b      	ldr	r3, [r3, #0]
 8006bee:	69db      	ldr	r3, [r3, #28]
 8006bf0:	2208      	movs	r2, #8
 8006bf2:	4013      	ands	r3, r2
 8006bf4:	2b08      	cmp	r3, #8
 8006bf6:	d111      	bne.n	8006c1c <UART_WaitOnFlagUntilTimeout+0x7c>
        {
          /* Clear Overrun Error flag*/
          __HAL_UART_CLEAR_FLAG(huart, UART_CLEAR_OREF);
 8006bf8:	68fb      	ldr	r3, [r7, #12]
 8006bfa:	681b      	ldr	r3, [r3, #0]
 8006bfc:	2208      	movs	r2, #8
 8006bfe:	621a      	str	r2, [r3, #32]

          /* Blocking error : transfer is aborted
          Set the UART state ready to be able to start again the process,
          Disable Rx Interrupts if ongoing */
          UART_EndRxTransfer(huart);
 8006c00:	68fb      	ldr	r3, [r7, #12]
 8006c02:	0018      	movs	r0, r3
 8006c04:	f000 f83c 	bl	8006c80 <UART_EndRxTransfer>

          huart->ErrorCode = HAL_UART_ERROR_ORE;
 8006c08:	68fb      	ldr	r3, [r7, #12]
 8006c0a:	2290      	movs	r2, #144	@ 0x90
 8006c0c:	2108      	movs	r1, #8
 8006c0e:	5099      	str	r1, [r3, r2]

          /* Process Unlocked */
          __HAL_UNLOCK(huart);
 8006c10:	68fb      	ldr	r3, [r7, #12]
 8006c12:	2284      	movs	r2, #132	@ 0x84
 8006c14:	2100      	movs	r1, #0
 8006c16:	5499      	strb	r1, [r3, r2]

          return HAL_ERROR;
 8006c18:	2301      	movs	r3, #1
 8006c1a:	e02c      	b.n	8006c76 <UART_WaitOnFlagUntilTimeout+0xd6>
        }
        if (__HAL_UART_GET_FLAG(huart, UART_FLAG_RTOF) == SET)
 8006c1c:	68fb      	ldr	r3, [r7, #12]
 8006c1e:	681b      	ldr	r3, [r3, #0]
 8006c20:	69da      	ldr	r2, [r3, #28]
 8006c22:	2380      	movs	r3, #128	@ 0x80
 8006c24:	011b      	lsls	r3, r3, #4
 8006c26:	401a      	ands	r2, r3
 8006c28:	2380      	movs	r3, #128	@ 0x80
 8006c2a:	011b      	lsls	r3, r3, #4
 8006c2c:	429a      	cmp	r2, r3
 8006c2e:	d112      	bne.n	8006c56 <UART_WaitOnFlagUntilTimeout+0xb6>
        {
          /* Clear Receiver Timeout flag*/
          __HAL_UART_CLEAR_FLAG(huart, UART_CLEAR_RTOF);
 8006c30:	68fb      	ldr	r3, [r7, #12]
 8006c32:	681b      	ldr	r3, [r3, #0]
 8006c34:	2280      	movs	r2, #128	@ 0x80
 8006c36:	0112      	lsls	r2, r2, #4
 8006c38:	621a      	str	r2, [r3, #32]

          /* Blocking error : transfer is aborted
          Set the UART state ready to be able to start again the process,
          Disable Rx Interrupts if ongoing */
          UART_EndRxTransfer(huart);
 8006c3a:	68fb      	ldr	r3, [r7, #12]
 8006c3c:	0018      	movs	r0, r3
 8006c3e:	f000 f81f 	bl	8006c80 <UART_EndRxTransfer>

          huart->ErrorCode = HAL_UART_ERROR_RTO;
 8006c42:	68fb      	ldr	r3, [r7, #12]
 8006c44:	2290      	movs	r2, #144	@ 0x90
 8006c46:	2120      	movs	r1, #32
 8006c48:	5099      	str	r1, [r3, r2]

          /* Process Unlocked */
          __HAL_UNLOCK(huart);
 8006c4a:	68fb      	ldr	r3, [r7, #12]
 8006c4c:	2284      	movs	r2, #132	@ 0x84
 8006c4e:	2100      	movs	r1, #0
 8006c50:	5499      	strb	r1, [r3, r2]

          return HAL_TIMEOUT;
 8006c52:	2303      	movs	r3, #3
 8006c54:	e00f      	b.n	8006c76 <UART_WaitOnFlagUntilTimeout+0xd6>
  while ((__HAL_UART_GET_FLAG(huart, Flag) ? SET : RESET) == Status)
 8006c56:	68fb      	ldr	r3, [r7, #12]
 8006c58:	681b      	ldr	r3, [r3, #0]
 8006c5a:	69db      	ldr	r3, [r3, #28]
 8006c5c:	68ba      	ldr	r2, [r7, #8]
 8006c5e:	4013      	ands	r3, r2
 8006c60:	68ba      	ldr	r2, [r7, #8]
 8006c62:	1ad3      	subs	r3, r2, r3
 8006c64:	425a      	negs	r2, r3
 8006c66:	4153      	adcs	r3, r2
 8006c68:	b2db      	uxtb	r3, r3
 8006c6a:	001a      	movs	r2, r3
 8006c6c:	1dfb      	adds	r3, r7, #7
 8006c6e:	781b      	ldrb	r3, [r3, #0]
 8006c70:	429a      	cmp	r2, r3
 8006c72:	d09e      	beq.n	8006bb2 <UART_WaitOnFlagUntilTimeout+0x12>
        }
      }
    }
  }
  return HAL_OK;
 8006c74:	2300      	movs	r3, #0
}
 8006c76:	0018      	movs	r0, r3
 8006c78:	46bd      	mov	sp, r7
 8006c7a:	b004      	add	sp, #16
 8006c7c:	bd80      	pop	{r7, pc}
	...

08006c80 <UART_EndRxTransfer>:
  * @brief  End ongoing Rx transfer on UART peripheral (following error detection or Reception completion).
  * @param  huart UART handle.
  * @retval None
  */
static void UART_EndRxTransfer(UART_HandleTypeDef *huart)
{
 8006c80:	b580      	push	{r7, lr}
 8006c82:	b08e      	sub	sp, #56	@ 0x38
 8006c84:	af00      	add	r7, sp, #0
 8006c86:	6078      	str	r0, [r7, #4]
  __ASM volatile ("MRS %0, primask" : "=r" (result) :: "memory");
 8006c88:	f3ef 8310 	mrs	r3, PRIMASK
 8006c8c:	617b      	str	r3, [r7, #20]
  return(result);
 8006c8e:	697b      	ldr	r3, [r7, #20]
  /* Disable RXNE, PE and ERR (Frame error, noise error, overrun error) interrupts */
  ATOMIC_CLEAR_BIT(huart->Instance->CR1, (USART_CR1_RXNEIE_RXFNEIE | USART_CR1_PEIE));
 8006c90:	637b      	str	r3, [r7, #52]	@ 0x34
 8006c92:	2301      	movs	r3, #1
 8006c94:	61bb      	str	r3, [r7, #24]
  __ASM volatile ("MSR primask, %0" : : "r" (priMask) : "memory");
 8006c96:	69bb      	ldr	r3, [r7, #24]
 8006c98:	f383 8810 	msr	PRIMASK, r3
}
 8006c9c:	46c0      	nop			@ (mov r8, r8)
 8006c9e:	687b      	ldr	r3, [r7, #4]
 8006ca0:	681b      	ldr	r3, [r3, #0]
 8006ca2:	681a      	ldr	r2, [r3, #0]
 8006ca4:	687b      	ldr	r3, [r7, #4]
 8006ca6:	681b      	ldr	r3, [r3, #0]
 8006ca8:	4926      	ldr	r1, [pc, #152]	@ (8006d44 <UART_EndRxTransfer+0xc4>)
 8006caa:	400a      	ands	r2, r1
 8006cac:	601a      	str	r2, [r3, #0]
 8006cae:	6b7b      	ldr	r3, [r7, #52]	@ 0x34
 8006cb0:	61fb      	str	r3, [r7, #28]
  __ASM volatile ("MSR primask, %0" : : "r" (priMask) : "memory");
 8006cb2:	69fb      	ldr	r3, [r7, #28]
 8006cb4:	f383 8810 	msr	PRIMASK, r3
}
 8006cb8:	46c0      	nop			@ (mov r8, r8)
  __ASM volatile ("MRS %0, primask" : "=r" (result) :: "memory");
 8006cba:	f3ef 8310 	mrs	r3, PRIMASK
 8006cbe:	623b      	str	r3, [r7, #32]
  return(result);
 8006cc0:	6a3b      	ldr	r3, [r7, #32]
  ATOMIC_CLEAR_BIT(huart->Instance->CR3, (USART_CR3_EIE | USART_CR3_RXFTIE));
 8006cc2:	633b      	str	r3, [r7, #48]	@ 0x30
 8006cc4:	2301      	movs	r3, #1
 8006cc6:	627b      	str	r3, [r7, #36]	@ 0x24
  __ASM volatile ("MSR primask, %0" : : "r" (priMask) : "memory");
 8006cc8:	6a7b      	ldr	r3, [r7, #36]	@ 0x24
 8006cca:	f383 8810 	msr	PRIMASK, r3
}
 8006cce:	46c0      	nop			@ (mov r8, r8)
 8006cd0:	687b      	ldr	r3, [r7, #4]
 8006cd2:	681b      	ldr	r3, [r3, #0]
 8006cd4:	689a      	ldr	r2, [r3, #8]
 8006cd6:	687b      	ldr	r3, [r7, #4]
 8006cd8:	681b      	ldr	r3, [r3, #0]
 8006cda:	491b      	ldr	r1, [pc, #108]	@ (8006d48 <UART_EndRxTransfer+0xc8>)
 8006cdc:	400a      	ands	r2, r1
 8006cde:	609a      	str	r2, [r3, #8]
 8006ce0:	6b3b      	ldr	r3, [r7, #48]	@ 0x30
 8006ce2:	62bb      	str	r3, [r7, #40]	@ 0x28
  __ASM volatile ("MSR primask, %0" : : "r" (priMask) : "memory");
 8006ce4:	6abb      	ldr	r3, [r7, #40]	@ 0x28
 8006ce6:	f383 8810 	msr	PRIMASK, r3
}
 8006cea:	46c0      	nop			@ (mov r8, r8)

  /* In case of reception waiting for IDLE event, disable also the IDLE IE interrupt source */
  if (huart->ReceptionType == HAL_UART_RECEPTION_TOIDLE)
 8006cec:	687b      	ldr	r3, [r7, #4]
 8006cee:	6edb      	ldr	r3, [r3, #108]	@ 0x6c
 8006cf0:	2b01      	cmp	r3, #1
 8006cf2:	d118      	bne.n	8006d26 <UART_EndRxTransfer+0xa6>
  __ASM volatile ("MRS %0, primask" : "=r" (result) :: "memory");
 8006cf4:	f3ef 8310 	mrs	r3, PRIMASK
 8006cf8:	60bb      	str	r3, [r7, #8]
  return(result);
 8006cfa:	68bb      	ldr	r3, [r7, #8]
  {
    ATOMIC_CLEAR_BIT(huart->Instance->CR1, USART_CR1_IDLEIE);
 8006cfc:	62fb      	str	r3, [r7, #44]	@ 0x2c
 8006cfe:	2301      	movs	r3, #1
 8006d00:	60fb      	str	r3, [r7, #12]
  __ASM volatile ("MSR primask, %0" : : "r" (priMask) : "memory");
 8006d02:	68fb      	ldr	r3, [r7, #12]
 8006d04:	f383 8810 	msr	PRIMASK, r3
}
 8006d08:	46c0      	nop			@ (mov r8, r8)
 8006d0a:	687b      	ldr	r3, [r7, #4]
 8006d0c:	681b      	ldr	r3, [r3, #0]
 8006d0e:	681a      	ldr	r2, [r3, #0]
 8006d10:	687b      	ldr	r3, [r7, #4]
 8006d12:	681b      	ldr	r3, [r3, #0]
 8006d14:	2110      	movs	r1, #16
 8006d16:	438a      	bics	r2, r1
 8006d18:	601a      	str	r2, [r3, #0]
 8006d1a:	6afb      	ldr	r3, [r7, #44]	@ 0x2c
 8006d1c:	613b      	str	r3, [r7, #16]
  __ASM volatile ("MSR primask, %0" : : "r" (priMask) : "memory");
 8006d1e:	693b      	ldr	r3, [r7, #16]
 8006d20:	f383 8810 	msr	PRIMASK, r3
}
 8006d24:	46c0      	nop			@ (mov r8, r8)
  }

  /* At end of Rx process, restore huart->RxState to Ready */
  huart->RxState = HAL_UART_STATE_READY;
 8006d26:	687b      	ldr	r3, [r7, #4]
 8006d28:	228c      	movs	r2, #140	@ 0x8c
 8006d2a:	2120      	movs	r1, #32
 8006d2c:	5099      	str	r1, [r3, r2]
  huart->ReceptionType = HAL_UART_RECEPTION_STANDARD;
 8006d2e:	687b      	ldr	r3, [r7, #4]
 8006d30:	2200      	movs	r2, #0
 8006d32:	66da      	str	r2, [r3, #108]	@ 0x6c

  /* Reset RxIsr function pointer */
  huart->RxISR = NULL;
 8006d34:	687b      	ldr	r3, [r7, #4]
 8006d36:	2200      	movs	r2, #0
 8006d38:	675a      	str	r2, [r3, #116]	@ 0x74
}
 8006d3a:	46c0      	nop			@ (mov r8, r8)
 8006d3c:	46bd      	mov	sp, r7
 8006d3e:	b00e      	add	sp, #56	@ 0x38
 8006d40:	bd80      	pop	{r7, pc}
 8006d42:	46c0      	nop			@ (mov r8, r8)
 8006d44:	fffffedf 	.word	0xfffffedf
 8006d48:	effffffe 	.word	0xeffffffe

08006d4c <UART_DMAAbortOnError>:
  *         (To be called at end of DMA Abort procedure following error occurrence).
  * @param  hdma DMA handle.
  * @retval None
  */
static void UART_DMAAbortOnError(DMA_HandleTypeDef *hdma)
{
 8006d4c:	b580      	push	{r7, lr}
 8006d4e:	b084      	sub	sp, #16
 8006d50:	af00      	add	r7, sp, #0
 8006d52:	6078      	str	r0, [r7, #4]
  UART_HandleTypeDef *huart = (UART_HandleTypeDef *)(hdma->Parent);
 8006d54:	687b      	ldr	r3, [r7, #4]
 8006d56:	6a9b      	ldr	r3, [r3, #40]	@ 0x28
 8006d58:	60fb      	str	r3, [r7, #12]
  huart->RxXferCount = 0U;
 8006d5a:	68fb      	ldr	r3, [r7, #12]
 8006d5c:	225e      	movs	r2, #94	@ 0x5e
 8006d5e:	2100      	movs	r1, #0
 8006d60:	5299      	strh	r1, [r3, r2]
  huart->TxXferCount = 0U;
 8006d62:	68fb      	ldr	r3, [r7, #12]
 8006d64:	2256      	movs	r2, #86	@ 0x56
 8006d66:	2100      	movs	r1, #0
 8006d68:	5299      	strh	r1, [r3, r2]
#if (USE_HAL_UART_REGISTER_CALLBACKS == 1)
  /*Call registered error callback*/
  huart->ErrorCallback(huart);
#else
  /*Call legacy weak error callback*/
  HAL_UART_ErrorCallback(huart);
 8006d6a:	68fb      	ldr	r3, [r7, #12]
 8006d6c:	0018      	movs	r0, r3
 8006d6e:	f7ff fae7 	bl	8006340 <HAL_UART_ErrorCallback>
#endif /* USE_HAL_UART_REGISTER_CALLBACKS */
}
 8006d72:	46c0      	nop			@ (mov r8, r8)
 8006d74:	46bd      	mov	sp, r7
 8006d76:	b004      	add	sp, #16
 8006d78:	bd80      	pop	{r7, pc}

08006d7a <UART_EndTransmit_IT>:
  * @param  huart pointer to a UART_HandleTypeDef structure that contains
  *                the configuration information for the specified UART module.
  * @retval None
  */
static void UART_EndTransmit_IT(UART_HandleTypeDef *huart)
{
 8006d7a:	b580      	push	{r7, lr}
 8006d7c:	b086      	sub	sp, #24
 8006d7e:	af00      	add	r7, sp, #0
 8006d80:	6078      	str	r0, [r7, #4]
  __ASM volatile ("MRS %0, primask" : "=r" (result) :: "memory");
 8006d82:	f3ef 8310 	mrs	r3, PRIMASK
 8006d86:	60bb      	str	r3, [r7, #8]
  return(result);
 8006d88:	68bb      	ldr	r3, [r7, #8]
  /* Disable the UART Transmit Complete Interrupt */
  ATOMIC_CLEAR_BIT(huart->Instance->CR1, USART_CR1_TCIE);
 8006d8a:	617b      	str	r3, [r7, #20]
 8006d8c:	2301      	movs	r3, #1
 8006d8e:	60fb      	str	r3, [r7, #12]
  __ASM volatile ("MSR primask, %0" : : "r" (priMask) : "memory");
 8006d90:	68fb      	ldr	r3, [r7, #12]
 8006d92:	f383 8810 	msr	PRIMASK, r3
}
 8006d96:	46c0      	nop			@ (mov r8, r8)
 8006d98:	687b      	ldr	r3, [r7, #4]
 8006d9a:	681b      	ldr	r3, [r3, #0]
 8006d9c:	681a      	ldr	r2, [r3, #0]
 8006d9e:	687b      	ldr	r3, [r7, #4]
 8006da0:	681b      	ldr	r3, [r3, #0]
 8006da2:	2140      	movs	r1, #64	@ 0x40
 8006da4:	438a      	bics	r2, r1
 8006da6:	601a      	str	r2, [r3, #0]
 8006da8:	697b      	ldr	r3, [r7, #20]
 8006daa:	613b      	str	r3, [r7, #16]
  __ASM volatile ("MSR primask, %0" : : "r" (priMask) : "memory");
 8006dac:	693b      	ldr	r3, [r7, #16]
 8006dae:	f383 8810 	msr	PRIMASK, r3
}
 8006db2:	46c0      	nop			@ (mov r8, r8)

  /* Tx process is ended, restore huart->gState to Ready */
  huart->gState = HAL_UART_STATE_READY;
 8006db4:	687b      	ldr	r3, [r7, #4]
 8006db6:	2288      	movs	r2, #136	@ 0x88
 8006db8:	2120      	movs	r1, #32
 8006dba:	5099      	str	r1, [r3, r2]

  /* Cleat TxISR function pointer */
  huart->TxISR = NULL;
 8006dbc:	687b      	ldr	r3, [r7, #4]
 8006dbe:	2200      	movs	r2, #0
 8006dc0:	679a      	str	r2, [r3, #120]	@ 0x78
#if (USE_HAL_UART_REGISTER_CALLBACKS == 1)
  /*Call registered Tx complete callback*/
  huart->TxCpltCallback(huart);
#else
  /*Call legacy weak Tx complete callback*/
  HAL_UART_TxCpltCallback(huart);
 8006dc2:	687b      	ldr	r3, [r7, #4]
 8006dc4:	0018      	movs	r0, r3
 8006dc6:	f7ff fab3 	bl	8006330 <HAL_UART_TxCpltCallback>
#endif /* USE_HAL_UART_REGISTER_CALLBACKS */
}
 8006dca:	46c0      	nop			@ (mov r8, r8)
 8006dcc:	46bd      	mov	sp, r7
 8006dce:	b006      	add	sp, #24
 8006dd0:	bd80      	pop	{r7, pc}

08006dd2 <HAL_UARTEx_WakeupCallback>:
  * @brief UART wakeup from Stop mode callback.
  * @param huart UART handle.
  * @retval None
  */
__weak void HAL_UARTEx_WakeupCallback(UART_HandleTypeDef *huart)
{
 8006dd2:	b580      	push	{r7, lr}
 8006dd4:	b082      	sub	sp, #8
 8006dd6:	af00      	add	r7, sp, #0
 8006dd8:	6078      	str	r0, [r7, #4]
  UNUSED(huart);

  /* NOTE : This function should not be modified, when the callback is needed,
            the HAL_UARTEx_WakeupCallback can be implemented in the user file.
   */
}
 8006dda:	46c0      	nop			@ (mov r8, r8)
 8006ddc:	46bd      	mov	sp, r7
 8006dde:	b002      	add	sp, #8
 8006de0:	bd80      	pop	{r7, pc}

08006de2 <HAL_UARTEx_RxFifoFullCallback>:
  * @brief  UART RX Fifo full callback.
  * @param  huart UART handle.
  * @retval None
  */
__weak void HAL_UARTEx_RxFifoFullCallback(UART_HandleTypeDef *huart)
{
 8006de2:	b580      	push	{r7, lr}
 8006de4:	b082      	sub	sp, #8
 8006de6:	af00      	add	r7, sp, #0
 8006de8:	6078      	str	r0, [r7, #4]
  UNUSED(huart);

  /* NOTE : This function should not be modified, when the callback is needed,
            the HAL_UARTEx_RxFifoFullCallback can be implemented in the user file.
   */
}
 8006dea:	46c0      	nop			@ (mov r8, r8)
 8006dec:	46bd      	mov	sp, r7
 8006dee:	b002      	add	sp, #8
 8006df0:	bd80      	pop	{r7, pc}

08006df2 <HAL_UARTEx_TxFifoEmptyCallback>:
  * @brief  UART TX Fifo empty callback.
  * @param  huart UART handle.
  * @retval None
  */
__weak void HAL_UARTEx_TxFifoEmptyCallback(UART_HandleTypeDef *huart)
{
 8006df2:	b580      	push	{r7, lr}
 8006df4:	b082      	sub	sp, #8
 8006df6:	af00      	add	r7, sp, #0
 8006df8:	6078      	str	r0, [r7, #4]
  UNUSED(huart);

  /* NOTE : This function should not be modified, when the callback is needed,
            the HAL_UARTEx_TxFifoEmptyCallback can be implemented in the user file.
   */
}
 8006dfa:	46c0      	nop			@ (mov r8, r8)
 8006dfc:	46bd      	mov	sp, r7
 8006dfe:	b002      	add	sp, #8
 8006e00:	bd80      	pop	{r7, pc}

08006e02 <__cvt>:
 8006e02:	b5f0      	push	{r4, r5, r6, r7, lr}
 8006e04:	001f      	movs	r7, r3
 8006e06:	2300      	movs	r3, #0
 8006e08:	0016      	movs	r6, r2
 8006e0a:	b08b      	sub	sp, #44	@ 0x2c
 8006e0c:	429f      	cmp	r7, r3
 8006e0e:	da04      	bge.n	8006e1a <__cvt+0x18>
 8006e10:	2180      	movs	r1, #128	@ 0x80
 8006e12:	0609      	lsls	r1, r1, #24
 8006e14:	187b      	adds	r3, r7, r1
 8006e16:	001f      	movs	r7, r3
 8006e18:	232d      	movs	r3, #45	@ 0x2d
 8006e1a:	9a12      	ldr	r2, [sp, #72]	@ 0x48
 8006e1c:	9d14      	ldr	r5, [sp, #80]	@ 0x50
 8006e1e:	7013      	strb	r3, [r2, #0]
 8006e20:	2320      	movs	r3, #32
 8006e22:	2203      	movs	r2, #3
 8006e24:	439d      	bics	r5, r3
 8006e26:	2d46      	cmp	r5, #70	@ 0x46
 8006e28:	d007      	beq.n	8006e3a <__cvt+0x38>
 8006e2a:	002b      	movs	r3, r5
 8006e2c:	3b45      	subs	r3, #69	@ 0x45
 8006e2e:	4259      	negs	r1, r3
 8006e30:	414b      	adcs	r3, r1
 8006e32:	9910      	ldr	r1, [sp, #64]	@ 0x40
 8006e34:	3a01      	subs	r2, #1
 8006e36:	18cb      	adds	r3, r1, r3
 8006e38:	9310      	str	r3, [sp, #64]	@ 0x40
 8006e3a:	ab09      	add	r3, sp, #36	@ 0x24
 8006e3c:	9304      	str	r3, [sp, #16]
 8006e3e:	ab08      	add	r3, sp, #32
 8006e40:	9303      	str	r3, [sp, #12]
 8006e42:	9b13      	ldr	r3, [sp, #76]	@ 0x4c
 8006e44:	9200      	str	r2, [sp, #0]
 8006e46:	9302      	str	r3, [sp, #8]
 8006e48:	9b10      	ldr	r3, [sp, #64]	@ 0x40
 8006e4a:	0032      	movs	r2, r6
 8006e4c:	9301      	str	r3, [sp, #4]
 8006e4e:	003b      	movs	r3, r7
 8006e50:	f000 ff80 	bl	8007d54 <_dtoa_r>
 8006e54:	0004      	movs	r4, r0
 8006e56:	2d47      	cmp	r5, #71	@ 0x47
 8006e58:	d11b      	bne.n	8006e92 <__cvt+0x90>
 8006e5a:	9b11      	ldr	r3, [sp, #68]	@ 0x44
 8006e5c:	07db      	lsls	r3, r3, #31
 8006e5e:	d511      	bpl.n	8006e84 <__cvt+0x82>
 8006e60:	9b10      	ldr	r3, [sp, #64]	@ 0x40
 8006e62:	18c3      	adds	r3, r0, r3
 8006e64:	9307      	str	r3, [sp, #28]
 8006e66:	2200      	movs	r2, #0
 8006e68:	2300      	movs	r3, #0
 8006e6a:	0030      	movs	r0, r6
 8006e6c:	0039      	movs	r1, r7
 8006e6e:	f7f9 faf5 	bl	800045c <__aeabi_dcmpeq>
 8006e72:	2800      	cmp	r0, #0
 8006e74:	d001      	beq.n	8006e7a <__cvt+0x78>
 8006e76:	9b07      	ldr	r3, [sp, #28]
 8006e78:	9309      	str	r3, [sp, #36]	@ 0x24
 8006e7a:	2230      	movs	r2, #48	@ 0x30
 8006e7c:	9b09      	ldr	r3, [sp, #36]	@ 0x24
 8006e7e:	9907      	ldr	r1, [sp, #28]
 8006e80:	428b      	cmp	r3, r1
 8006e82:	d320      	bcc.n	8006ec6 <__cvt+0xc4>
 8006e84:	0020      	movs	r0, r4
 8006e86:	9b09      	ldr	r3, [sp, #36]	@ 0x24
 8006e88:	9a15      	ldr	r2, [sp, #84]	@ 0x54
 8006e8a:	1b1b      	subs	r3, r3, r4
 8006e8c:	6013      	str	r3, [r2, #0]
 8006e8e:	b00b      	add	sp, #44	@ 0x2c
 8006e90:	bdf0      	pop	{r4, r5, r6, r7, pc}
 8006e92:	9b10      	ldr	r3, [sp, #64]	@ 0x40
 8006e94:	18c3      	adds	r3, r0, r3
 8006e96:	9307      	str	r3, [sp, #28]
 8006e98:	2d46      	cmp	r5, #70	@ 0x46
 8006e9a:	d1e4      	bne.n	8006e66 <__cvt+0x64>
 8006e9c:	7803      	ldrb	r3, [r0, #0]
 8006e9e:	2b30      	cmp	r3, #48	@ 0x30
 8006ea0:	d10c      	bne.n	8006ebc <__cvt+0xba>
 8006ea2:	2200      	movs	r2, #0
 8006ea4:	2300      	movs	r3, #0
 8006ea6:	0030      	movs	r0, r6
 8006ea8:	0039      	movs	r1, r7
 8006eaa:	f7f9 fad7 	bl	800045c <__aeabi_dcmpeq>
 8006eae:	2800      	cmp	r0, #0
 8006eb0:	d104      	bne.n	8006ebc <__cvt+0xba>
 8006eb2:	2301      	movs	r3, #1
 8006eb4:	9a10      	ldr	r2, [sp, #64]	@ 0x40
 8006eb6:	1a9b      	subs	r3, r3, r2
 8006eb8:	9a13      	ldr	r2, [sp, #76]	@ 0x4c
 8006eba:	6013      	str	r3, [r2, #0]
 8006ebc:	9b13      	ldr	r3, [sp, #76]	@ 0x4c
 8006ebe:	9a07      	ldr	r2, [sp, #28]
 8006ec0:	681b      	ldr	r3, [r3, #0]
 8006ec2:	18d3      	adds	r3, r2, r3
 8006ec4:	e7ce      	b.n	8006e64 <__cvt+0x62>
 8006ec6:	1c59      	adds	r1, r3, #1
 8006ec8:	9109      	str	r1, [sp, #36]	@ 0x24
 8006eca:	701a      	strb	r2, [r3, #0]
 8006ecc:	e7d6      	b.n	8006e7c <__cvt+0x7a>

08006ece <__exponent>:
 8006ece:	b5f0      	push	{r4, r5, r6, r7, lr}
 8006ed0:	232b      	movs	r3, #43	@ 0x2b
 8006ed2:	b085      	sub	sp, #20
 8006ed4:	0005      	movs	r5, r0
 8006ed6:	1e0c      	subs	r4, r1, #0
 8006ed8:	7002      	strb	r2, [r0, #0]
 8006eda:	da01      	bge.n	8006ee0 <__exponent+0x12>
 8006edc:	424c      	negs	r4, r1
 8006ede:	3302      	adds	r3, #2
 8006ee0:	706b      	strb	r3, [r5, #1]
 8006ee2:	2c09      	cmp	r4, #9
 8006ee4:	dd2c      	ble.n	8006f40 <__exponent+0x72>
 8006ee6:	ab02      	add	r3, sp, #8
 8006ee8:	1dde      	adds	r6, r3, #7
 8006eea:	0020      	movs	r0, r4
 8006eec:	210a      	movs	r1, #10
 8006eee:	f7f9 fa9f 	bl	8000430 <__aeabi_idivmod>
 8006ef2:	0037      	movs	r7, r6
 8006ef4:	3130      	adds	r1, #48	@ 0x30
 8006ef6:	3e01      	subs	r6, #1
 8006ef8:	0020      	movs	r0, r4
 8006efa:	7031      	strb	r1, [r6, #0]
 8006efc:	210a      	movs	r1, #10
 8006efe:	9401      	str	r4, [sp, #4]
 8006f00:	f7f9 f9b0 	bl	8000264 <__divsi3>
 8006f04:	9b01      	ldr	r3, [sp, #4]
 8006f06:	0004      	movs	r4, r0
 8006f08:	2b63      	cmp	r3, #99	@ 0x63
 8006f0a:	dcee      	bgt.n	8006eea <__exponent+0x1c>
 8006f0c:	1eba      	subs	r2, r7, #2
 8006f0e:	1ca8      	adds	r0, r5, #2
 8006f10:	0001      	movs	r1, r0
 8006f12:	0013      	movs	r3, r2
 8006f14:	3430      	adds	r4, #48	@ 0x30
 8006f16:	7014      	strb	r4, [r2, #0]
 8006f18:	ac02      	add	r4, sp, #8
 8006f1a:	3407      	adds	r4, #7
 8006f1c:	429c      	cmp	r4, r3
 8006f1e:	d80a      	bhi.n	8006f36 <__exponent+0x68>
 8006f20:	2300      	movs	r3, #0
 8006f22:	4294      	cmp	r4, r2
 8006f24:	d303      	bcc.n	8006f2e <__exponent+0x60>
 8006f26:	3309      	adds	r3, #9
 8006f28:	aa02      	add	r2, sp, #8
 8006f2a:	189b      	adds	r3, r3, r2
 8006f2c:	1bdb      	subs	r3, r3, r7
 8006f2e:	18c0      	adds	r0, r0, r3
 8006f30:	1b40      	subs	r0, r0, r5
 8006f32:	b005      	add	sp, #20
 8006f34:	bdf0      	pop	{r4, r5, r6, r7, pc}
 8006f36:	781c      	ldrb	r4, [r3, #0]
 8006f38:	3301      	adds	r3, #1
 8006f3a:	700c      	strb	r4, [r1, #0]
 8006f3c:	3101      	adds	r1, #1
 8006f3e:	e7eb      	b.n	8006f18 <__exponent+0x4a>
 8006f40:	2330      	movs	r3, #48	@ 0x30
 8006f42:	18e4      	adds	r4, r4, r3
 8006f44:	70ab      	strb	r3, [r5, #2]
 8006f46:	1d28      	adds	r0, r5, #4
 8006f48:	70ec      	strb	r4, [r5, #3]
 8006f4a:	e7f1      	b.n	8006f30 <__exponent+0x62>

08006f4c <_printf_float>:
 8006f4c:	b5f0      	push	{r4, r5, r6, r7, lr}
 8006f4e:	b097      	sub	sp, #92	@ 0x5c
 8006f50:	000d      	movs	r5, r1
 8006f52:	920a      	str	r2, [sp, #40]	@ 0x28
 8006f54:	9c1c      	ldr	r4, [sp, #112]	@ 0x70
 8006f56:	930b      	str	r3, [sp, #44]	@ 0x2c
 8006f58:	9009      	str	r0, [sp, #36]	@ 0x24
 8006f5a:	f000 fdeb 	bl	8007b34 <_localeconv_r>
 8006f5e:	6803      	ldr	r3, [r0, #0]
 8006f60:	0018      	movs	r0, r3
 8006f62:	930d      	str	r3, [sp, #52]	@ 0x34
 8006f64:	f7f9 f8d8 	bl	8000118 <strlen>
 8006f68:	2300      	movs	r3, #0
 8006f6a:	900f      	str	r0, [sp, #60]	@ 0x3c
 8006f6c:	9314      	str	r3, [sp, #80]	@ 0x50
 8006f6e:	7e2b      	ldrb	r3, [r5, #24]
 8006f70:	2207      	movs	r2, #7
 8006f72:	930c      	str	r3, [sp, #48]	@ 0x30
 8006f74:	682b      	ldr	r3, [r5, #0]
 8006f76:	930e      	str	r3, [sp, #56]	@ 0x38
 8006f78:	990e      	ldr	r1, [sp, #56]	@ 0x38
 8006f7a:	6823      	ldr	r3, [r4, #0]
 8006f7c:	05c9      	lsls	r1, r1, #23
 8006f7e:	d545      	bpl.n	800700c <_printf_float+0xc0>
 8006f80:	189b      	adds	r3, r3, r2
 8006f82:	4393      	bics	r3, r2
 8006f84:	001a      	movs	r2, r3
 8006f86:	3208      	adds	r2, #8
 8006f88:	6022      	str	r2, [r4, #0]
 8006f8a:	2201      	movs	r2, #1
 8006f8c:	681e      	ldr	r6, [r3, #0]
 8006f8e:	685f      	ldr	r7, [r3, #4]
 8006f90:	007b      	lsls	r3, r7, #1
 8006f92:	085b      	lsrs	r3, r3, #1
 8006f94:	9311      	str	r3, [sp, #68]	@ 0x44
 8006f96:	9610      	str	r6, [sp, #64]	@ 0x40
 8006f98:	64ae      	str	r6, [r5, #72]	@ 0x48
 8006f9a:	64ef      	str	r7, [r5, #76]	@ 0x4c
 8006f9c:	9810      	ldr	r0, [sp, #64]	@ 0x40
 8006f9e:	9911      	ldr	r1, [sp, #68]	@ 0x44
 8006fa0:	4ba7      	ldr	r3, [pc, #668]	@ (8007240 <_printf_float+0x2f4>)
 8006fa2:	4252      	negs	r2, r2
 8006fa4:	f7fb fa64 	bl	8002470 <__aeabi_dcmpun>
 8006fa8:	2800      	cmp	r0, #0
 8006faa:	d131      	bne.n	8007010 <_printf_float+0xc4>
 8006fac:	9810      	ldr	r0, [sp, #64]	@ 0x40
 8006fae:	9911      	ldr	r1, [sp, #68]	@ 0x44
 8006fb0:	2201      	movs	r2, #1
 8006fb2:	4ba3      	ldr	r3, [pc, #652]	@ (8007240 <_printf_float+0x2f4>)
 8006fb4:	4252      	negs	r2, r2
 8006fb6:	f7f9 fa61 	bl	800047c <__aeabi_dcmple>
 8006fba:	2800      	cmp	r0, #0
 8006fbc:	d128      	bne.n	8007010 <_printf_float+0xc4>
 8006fbe:	2200      	movs	r2, #0
 8006fc0:	2300      	movs	r3, #0
 8006fc2:	0030      	movs	r0, r6
 8006fc4:	0039      	movs	r1, r7
 8006fc6:	f7f9 fa4f 	bl	8000468 <__aeabi_dcmplt>
 8006fca:	2800      	cmp	r0, #0
 8006fcc:	d003      	beq.n	8006fd6 <_printf_float+0x8a>
 8006fce:	002b      	movs	r3, r5
 8006fd0:	222d      	movs	r2, #45	@ 0x2d
 8006fd2:	3343      	adds	r3, #67	@ 0x43
 8006fd4:	701a      	strb	r2, [r3, #0]
 8006fd6:	9b0c      	ldr	r3, [sp, #48]	@ 0x30
 8006fd8:	4f9a      	ldr	r7, [pc, #616]	@ (8007244 <_printf_float+0x2f8>)
 8006fda:	2b47      	cmp	r3, #71	@ 0x47
 8006fdc:	d800      	bhi.n	8006fe0 <_printf_float+0x94>
 8006fde:	4f9a      	ldr	r7, [pc, #616]	@ (8007248 <_printf_float+0x2fc>)
 8006fe0:	2303      	movs	r3, #3
 8006fe2:	2400      	movs	r4, #0
 8006fe4:	9a0e      	ldr	r2, [sp, #56]	@ 0x38
 8006fe6:	612b      	str	r3, [r5, #16]
 8006fe8:	3301      	adds	r3, #1
 8006fea:	439a      	bics	r2, r3
 8006fec:	602a      	str	r2, [r5, #0]
 8006fee:	9b0b      	ldr	r3, [sp, #44]	@ 0x2c
 8006ff0:	0029      	movs	r1, r5
 8006ff2:	9300      	str	r3, [sp, #0]
 8006ff4:	9809      	ldr	r0, [sp, #36]	@ 0x24
 8006ff6:	9b0a      	ldr	r3, [sp, #40]	@ 0x28
 8006ff8:	aa15      	add	r2, sp, #84	@ 0x54
 8006ffa:	f000 f9e5 	bl	80073c8 <_printf_common>
 8006ffe:	3001      	adds	r0, #1
 8007000:	d000      	beq.n	8007004 <_printf_float+0xb8>
 8007002:	e09e      	b.n	8007142 <_printf_float+0x1f6>
 8007004:	2001      	movs	r0, #1
 8007006:	4240      	negs	r0, r0
 8007008:	b017      	add	sp, #92	@ 0x5c
 800700a:	bdf0      	pop	{r4, r5, r6, r7, pc}
 800700c:	3307      	adds	r3, #7
 800700e:	e7b8      	b.n	8006f82 <_printf_float+0x36>
 8007010:	0032      	movs	r2, r6
 8007012:	003b      	movs	r3, r7
 8007014:	0030      	movs	r0, r6
 8007016:	0039      	movs	r1, r7
 8007018:	f7fb fa2a 	bl	8002470 <__aeabi_dcmpun>
 800701c:	2800      	cmp	r0, #0
 800701e:	d00b      	beq.n	8007038 <_printf_float+0xec>
 8007020:	2f00      	cmp	r7, #0
 8007022:	da03      	bge.n	800702c <_printf_float+0xe0>
 8007024:	002b      	movs	r3, r5
 8007026:	222d      	movs	r2, #45	@ 0x2d
 8007028:	3343      	adds	r3, #67	@ 0x43
 800702a:	701a      	strb	r2, [r3, #0]
 800702c:	9b0c      	ldr	r3, [sp, #48]	@ 0x30
 800702e:	4f87      	ldr	r7, [pc, #540]	@ (800724c <_printf_float+0x300>)
 8007030:	2b47      	cmp	r3, #71	@ 0x47
 8007032:	d8d5      	bhi.n	8006fe0 <_printf_float+0x94>
 8007034:	4f86      	ldr	r7, [pc, #536]	@ (8007250 <_printf_float+0x304>)
 8007036:	e7d3      	b.n	8006fe0 <_printf_float+0x94>
 8007038:	2220      	movs	r2, #32
 800703a:	9c0c      	ldr	r4, [sp, #48]	@ 0x30
 800703c:	686b      	ldr	r3, [r5, #4]
 800703e:	4394      	bics	r4, r2
 8007040:	1c5a      	adds	r2, r3, #1
 8007042:	d146      	bne.n	80070d2 <_printf_float+0x186>
 8007044:	3307      	adds	r3, #7
 8007046:	606b      	str	r3, [r5, #4]
 8007048:	2380      	movs	r3, #128	@ 0x80
 800704a:	9a0e      	ldr	r2, [sp, #56]	@ 0x38
 800704c:	00db      	lsls	r3, r3, #3
 800704e:	4313      	orrs	r3, r2
 8007050:	2200      	movs	r2, #0
 8007052:	602b      	str	r3, [r5, #0]
 8007054:	9206      	str	r2, [sp, #24]
 8007056:	aa14      	add	r2, sp, #80	@ 0x50
 8007058:	9205      	str	r2, [sp, #20]
 800705a:	9a0c      	ldr	r2, [sp, #48]	@ 0x30
 800705c:	a90a      	add	r1, sp, #40	@ 0x28
 800705e:	9204      	str	r2, [sp, #16]
 8007060:	aa13      	add	r2, sp, #76	@ 0x4c
 8007062:	9203      	str	r2, [sp, #12]
 8007064:	2223      	movs	r2, #35	@ 0x23
 8007066:	1852      	adds	r2, r2, r1
 8007068:	9202      	str	r2, [sp, #8]
 800706a:	9301      	str	r3, [sp, #4]
 800706c:	686b      	ldr	r3, [r5, #4]
 800706e:	0032      	movs	r2, r6
 8007070:	9300      	str	r3, [sp, #0]
 8007072:	9809      	ldr	r0, [sp, #36]	@ 0x24
 8007074:	003b      	movs	r3, r7
 8007076:	f7ff fec4 	bl	8006e02 <__cvt>
 800707a:	9a13      	ldr	r2, [sp, #76]	@ 0x4c
 800707c:	0007      	movs	r7, r0
 800707e:	2c47      	cmp	r4, #71	@ 0x47
 8007080:	d12d      	bne.n	80070de <_printf_float+0x192>
 8007082:	1cd3      	adds	r3, r2, #3
 8007084:	db02      	blt.n	800708c <_printf_float+0x140>
 8007086:	686b      	ldr	r3, [r5, #4]
 8007088:	429a      	cmp	r2, r3
 800708a:	dd47      	ble.n	800711c <_printf_float+0x1d0>
 800708c:	9b0c      	ldr	r3, [sp, #48]	@ 0x30
 800708e:	3b02      	subs	r3, #2
 8007090:	b2db      	uxtb	r3, r3
 8007092:	930c      	str	r3, [sp, #48]	@ 0x30
 8007094:	0028      	movs	r0, r5
 8007096:	9913      	ldr	r1, [sp, #76]	@ 0x4c
 8007098:	9a0c      	ldr	r2, [sp, #48]	@ 0x30
 800709a:	3901      	subs	r1, #1
 800709c:	3050      	adds	r0, #80	@ 0x50
 800709e:	9113      	str	r1, [sp, #76]	@ 0x4c
 80070a0:	f7ff ff15 	bl	8006ece <__exponent>
 80070a4:	9a14      	ldr	r2, [sp, #80]	@ 0x50
 80070a6:	0004      	movs	r4, r0
 80070a8:	1813      	adds	r3, r2, r0
 80070aa:	612b      	str	r3, [r5, #16]
 80070ac:	2a01      	cmp	r2, #1
 80070ae:	dc02      	bgt.n	80070b6 <_printf_float+0x16a>
 80070b0:	682a      	ldr	r2, [r5, #0]
 80070b2:	07d2      	lsls	r2, r2, #31
 80070b4:	d501      	bpl.n	80070ba <_printf_float+0x16e>
 80070b6:	3301      	adds	r3, #1
 80070b8:	612b      	str	r3, [r5, #16]
 80070ba:	2323      	movs	r3, #35	@ 0x23
 80070bc:	aa0a      	add	r2, sp, #40	@ 0x28
 80070be:	189b      	adds	r3, r3, r2
 80070c0:	781b      	ldrb	r3, [r3, #0]
 80070c2:	2b00      	cmp	r3, #0
 80070c4:	d100      	bne.n	80070c8 <_printf_float+0x17c>
 80070c6:	e792      	b.n	8006fee <_printf_float+0xa2>
 80070c8:	002b      	movs	r3, r5
 80070ca:	222d      	movs	r2, #45	@ 0x2d
 80070cc:	3343      	adds	r3, #67	@ 0x43
 80070ce:	701a      	strb	r2, [r3, #0]
 80070d0:	e78d      	b.n	8006fee <_printf_float+0xa2>
 80070d2:	2c47      	cmp	r4, #71	@ 0x47
 80070d4:	d1b8      	bne.n	8007048 <_printf_float+0xfc>
 80070d6:	2b00      	cmp	r3, #0
 80070d8:	d1b6      	bne.n	8007048 <_printf_float+0xfc>
 80070da:	3301      	adds	r3, #1
 80070dc:	e7b3      	b.n	8007046 <_printf_float+0xfa>
 80070de:	9b0c      	ldr	r3, [sp, #48]	@ 0x30
 80070e0:	2b65      	cmp	r3, #101	@ 0x65
 80070e2:	d9d7      	bls.n	8007094 <_printf_float+0x148>
 80070e4:	9b0c      	ldr	r3, [sp, #48]	@ 0x30
 80070e6:	2b66      	cmp	r3, #102	@ 0x66
 80070e8:	d11a      	bne.n	8007120 <_printf_float+0x1d4>
 80070ea:	686b      	ldr	r3, [r5, #4]
 80070ec:	2a00      	cmp	r2, #0
 80070ee:	dd09      	ble.n	8007104 <_printf_float+0x1b8>
 80070f0:	612a      	str	r2, [r5, #16]
 80070f2:	2b00      	cmp	r3, #0
 80070f4:	d102      	bne.n	80070fc <_printf_float+0x1b0>
 80070f6:	6829      	ldr	r1, [r5, #0]
 80070f8:	07c9      	lsls	r1, r1, #31
 80070fa:	d50b      	bpl.n	8007114 <_printf_float+0x1c8>
 80070fc:	3301      	adds	r3, #1
 80070fe:	189b      	adds	r3, r3, r2
 8007100:	612b      	str	r3, [r5, #16]
 8007102:	e007      	b.n	8007114 <_printf_float+0x1c8>
 8007104:	2b00      	cmp	r3, #0
 8007106:	d103      	bne.n	8007110 <_printf_float+0x1c4>
 8007108:	2201      	movs	r2, #1
 800710a:	6829      	ldr	r1, [r5, #0]
 800710c:	4211      	tst	r1, r2
 800710e:	d000      	beq.n	8007112 <_printf_float+0x1c6>
 8007110:	1c9a      	adds	r2, r3, #2
 8007112:	612a      	str	r2, [r5, #16]
 8007114:	9b13      	ldr	r3, [sp, #76]	@ 0x4c
 8007116:	2400      	movs	r4, #0
 8007118:	65ab      	str	r3, [r5, #88]	@ 0x58
 800711a:	e7ce      	b.n	80070ba <_printf_float+0x16e>
 800711c:	2367      	movs	r3, #103	@ 0x67
 800711e:	930c      	str	r3, [sp, #48]	@ 0x30
 8007120:	9913      	ldr	r1, [sp, #76]	@ 0x4c
 8007122:	9b14      	ldr	r3, [sp, #80]	@ 0x50
 8007124:	4299      	cmp	r1, r3
 8007126:	db06      	blt.n	8007136 <_printf_float+0x1ea>
 8007128:	682b      	ldr	r3, [r5, #0]
 800712a:	6129      	str	r1, [r5, #16]
 800712c:	07db      	lsls	r3, r3, #31
 800712e:	d5f1      	bpl.n	8007114 <_printf_float+0x1c8>
 8007130:	3101      	adds	r1, #1
 8007132:	6129      	str	r1, [r5, #16]
 8007134:	e7ee      	b.n	8007114 <_printf_float+0x1c8>
 8007136:	2201      	movs	r2, #1
 8007138:	2900      	cmp	r1, #0
 800713a:	dce0      	bgt.n	80070fe <_printf_float+0x1b2>
 800713c:	1892      	adds	r2, r2, r2
 800713e:	1a52      	subs	r2, r2, r1
 8007140:	e7dd      	b.n	80070fe <_printf_float+0x1b2>
 8007142:	682a      	ldr	r2, [r5, #0]
 8007144:	0553      	lsls	r3, r2, #21
 8007146:	d408      	bmi.n	800715a <_printf_float+0x20e>
 8007148:	692b      	ldr	r3, [r5, #16]
 800714a:	003a      	movs	r2, r7
 800714c:	990a      	ldr	r1, [sp, #40]	@ 0x28
 800714e:	9809      	ldr	r0, [sp, #36]	@ 0x24
 8007150:	9c0b      	ldr	r4, [sp, #44]	@ 0x2c
 8007152:	47a0      	blx	r4
 8007154:	3001      	adds	r0, #1
 8007156:	d129      	bne.n	80071ac <_printf_float+0x260>
 8007158:	e754      	b.n	8007004 <_printf_float+0xb8>
 800715a:	9b0c      	ldr	r3, [sp, #48]	@ 0x30
 800715c:	2b65      	cmp	r3, #101	@ 0x65
 800715e:	d800      	bhi.n	8007162 <_printf_float+0x216>
 8007160:	e0db      	b.n	800731a <_printf_float+0x3ce>
 8007162:	6ca8      	ldr	r0, [r5, #72]	@ 0x48
 8007164:	6ce9      	ldr	r1, [r5, #76]	@ 0x4c
 8007166:	2200      	movs	r2, #0
 8007168:	2300      	movs	r3, #0
 800716a:	f7f9 f977 	bl	800045c <__aeabi_dcmpeq>
 800716e:	2800      	cmp	r0, #0
 8007170:	d033      	beq.n	80071da <_printf_float+0x28e>
 8007172:	2301      	movs	r3, #1
 8007174:	4a37      	ldr	r2, [pc, #220]	@ (8007254 <_printf_float+0x308>)
 8007176:	990a      	ldr	r1, [sp, #40]	@ 0x28
 8007178:	9809      	ldr	r0, [sp, #36]	@ 0x24
 800717a:	9c0b      	ldr	r4, [sp, #44]	@ 0x2c
 800717c:	47a0      	blx	r4
 800717e:	3001      	adds	r0, #1
 8007180:	d100      	bne.n	8007184 <_printf_float+0x238>
 8007182:	e73f      	b.n	8007004 <_printf_float+0xb8>
 8007184:	9e14      	ldr	r6, [sp, #80]	@ 0x50
 8007186:	9b13      	ldr	r3, [sp, #76]	@ 0x4c
 8007188:	42b3      	cmp	r3, r6
 800718a:	db02      	blt.n	8007192 <_printf_float+0x246>
 800718c:	682b      	ldr	r3, [r5, #0]
 800718e:	07db      	lsls	r3, r3, #31
 8007190:	d50c      	bpl.n	80071ac <_printf_float+0x260>
 8007192:	9c0b      	ldr	r4, [sp, #44]	@ 0x2c
 8007194:	9b0f      	ldr	r3, [sp, #60]	@ 0x3c
 8007196:	9a0d      	ldr	r2, [sp, #52]	@ 0x34
 8007198:	990a      	ldr	r1, [sp, #40]	@ 0x28
 800719a:	9809      	ldr	r0, [sp, #36]	@ 0x24
 800719c:	47a0      	blx	r4
 800719e:	2400      	movs	r4, #0
 80071a0:	3001      	adds	r0, #1
 80071a2:	d100      	bne.n	80071a6 <_printf_float+0x25a>
 80071a4:	e72e      	b.n	8007004 <_printf_float+0xb8>
 80071a6:	1e73      	subs	r3, r6, #1
 80071a8:	42a3      	cmp	r3, r4
 80071aa:	dc0a      	bgt.n	80071c2 <_printf_float+0x276>
 80071ac:	682b      	ldr	r3, [r5, #0]
 80071ae:	079b      	lsls	r3, r3, #30
 80071b0:	d500      	bpl.n	80071b4 <_printf_float+0x268>
 80071b2:	e106      	b.n	80073c2 <_printf_float+0x476>
 80071b4:	9b15      	ldr	r3, [sp, #84]	@ 0x54
 80071b6:	68e8      	ldr	r0, [r5, #12]
 80071b8:	4298      	cmp	r0, r3
 80071ba:	db00      	blt.n	80071be <_printf_float+0x272>
 80071bc:	e724      	b.n	8007008 <_printf_float+0xbc>
 80071be:	0018      	movs	r0, r3
 80071c0:	e722      	b.n	8007008 <_printf_float+0xbc>
 80071c2:	002a      	movs	r2, r5
 80071c4:	2301      	movs	r3, #1
 80071c6:	990a      	ldr	r1, [sp, #40]	@ 0x28
 80071c8:	9809      	ldr	r0, [sp, #36]	@ 0x24
 80071ca:	9f0b      	ldr	r7, [sp, #44]	@ 0x2c
 80071cc:	321a      	adds	r2, #26
 80071ce:	47b8      	blx	r7
 80071d0:	3001      	adds	r0, #1
 80071d2:	d100      	bne.n	80071d6 <_printf_float+0x28a>
 80071d4:	e716      	b.n	8007004 <_printf_float+0xb8>
 80071d6:	3401      	adds	r4, #1
 80071d8:	e7e5      	b.n	80071a6 <_printf_float+0x25a>
 80071da:	9b13      	ldr	r3, [sp, #76]	@ 0x4c
 80071dc:	2b00      	cmp	r3, #0
 80071de:	dc3b      	bgt.n	8007258 <_printf_float+0x30c>
 80071e0:	2301      	movs	r3, #1
 80071e2:	4a1c      	ldr	r2, [pc, #112]	@ (8007254 <_printf_float+0x308>)
 80071e4:	990a      	ldr	r1, [sp, #40]	@ 0x28
 80071e6:	9809      	ldr	r0, [sp, #36]	@ 0x24
 80071e8:	9c0b      	ldr	r4, [sp, #44]	@ 0x2c
 80071ea:	47a0      	blx	r4
 80071ec:	3001      	adds	r0, #1
 80071ee:	d100      	bne.n	80071f2 <_printf_float+0x2a6>
 80071f0:	e708      	b.n	8007004 <_printf_float+0xb8>
 80071f2:	9e14      	ldr	r6, [sp, #80]	@ 0x50
 80071f4:	9b13      	ldr	r3, [sp, #76]	@ 0x4c
 80071f6:	4333      	orrs	r3, r6
 80071f8:	d102      	bne.n	8007200 <_printf_float+0x2b4>
 80071fa:	682b      	ldr	r3, [r5, #0]
 80071fc:	07db      	lsls	r3, r3, #31
 80071fe:	d5d5      	bpl.n	80071ac <_printf_float+0x260>
 8007200:	9b0f      	ldr	r3, [sp, #60]	@ 0x3c
 8007202:	9a0d      	ldr	r2, [sp, #52]	@ 0x34
 8007204:	990a      	ldr	r1, [sp, #40]	@ 0x28
 8007206:	9809      	ldr	r0, [sp, #36]	@ 0x24
 8007208:	9c0b      	ldr	r4, [sp, #44]	@ 0x2c
 800720a:	47a0      	blx	r4
 800720c:	2300      	movs	r3, #0
 800720e:	3001      	adds	r0, #1
 8007210:	d100      	bne.n	8007214 <_printf_float+0x2c8>
 8007212:	e6f7      	b.n	8007004 <_printf_float+0xb8>
 8007214:	930c      	str	r3, [sp, #48]	@ 0x30
 8007216:	9b13      	ldr	r3, [sp, #76]	@ 0x4c
 8007218:	9a0c      	ldr	r2, [sp, #48]	@ 0x30
 800721a:	425b      	negs	r3, r3
 800721c:	4293      	cmp	r3, r2
 800721e:	dc01      	bgt.n	8007224 <_printf_float+0x2d8>
 8007220:	0033      	movs	r3, r6
 8007222:	e792      	b.n	800714a <_printf_float+0x1fe>
 8007224:	002a      	movs	r2, r5
 8007226:	2301      	movs	r3, #1
 8007228:	990a      	ldr	r1, [sp, #40]	@ 0x28
 800722a:	9809      	ldr	r0, [sp, #36]	@ 0x24
 800722c:	9c0b      	ldr	r4, [sp, #44]	@ 0x2c
 800722e:	321a      	adds	r2, #26
 8007230:	47a0      	blx	r4
 8007232:	3001      	adds	r0, #1
 8007234:	d100      	bne.n	8007238 <_printf_float+0x2ec>
 8007236:	e6e5      	b.n	8007004 <_printf_float+0xb8>
 8007238:	9b0c      	ldr	r3, [sp, #48]	@ 0x30
 800723a:	3301      	adds	r3, #1
 800723c:	e7ea      	b.n	8007214 <_printf_float+0x2c8>
 800723e:	46c0      	nop			@ (mov r8, r8)
 8007240:	7fefffff 	.word	0x7fefffff
 8007244:	08009c48 	.word	0x08009c48
 8007248:	08009c44 	.word	0x08009c44
 800724c:	08009c50 	.word	0x08009c50
 8007250:	08009c4c 	.word	0x08009c4c
 8007254:	08009c54 	.word	0x08009c54
 8007258:	9b14      	ldr	r3, [sp, #80]	@ 0x50
 800725a:	6dae      	ldr	r6, [r5, #88]	@ 0x58
 800725c:	930c      	str	r3, [sp, #48]	@ 0x30
 800725e:	429e      	cmp	r6, r3
 8007260:	dd00      	ble.n	8007264 <_printf_float+0x318>
 8007262:	001e      	movs	r6, r3
 8007264:	2e00      	cmp	r6, #0
 8007266:	dc31      	bgt.n	80072cc <_printf_float+0x380>
 8007268:	43f3      	mvns	r3, r6
 800726a:	2400      	movs	r4, #0
 800726c:	17db      	asrs	r3, r3, #31
 800726e:	4033      	ands	r3, r6
 8007270:	930e      	str	r3, [sp, #56]	@ 0x38
 8007272:	6dae      	ldr	r6, [r5, #88]	@ 0x58
 8007274:	9b0e      	ldr	r3, [sp, #56]	@ 0x38
 8007276:	1af3      	subs	r3, r6, r3
 8007278:	42a3      	cmp	r3, r4
 800727a:	dc30      	bgt.n	80072de <_printf_float+0x392>
 800727c:	9b13      	ldr	r3, [sp, #76]	@ 0x4c
 800727e:	9a0c      	ldr	r2, [sp, #48]	@ 0x30
 8007280:	429a      	cmp	r2, r3
 8007282:	dc38      	bgt.n	80072f6 <_printf_float+0x3aa>
 8007284:	682b      	ldr	r3, [r5, #0]
 8007286:	07db      	lsls	r3, r3, #31
 8007288:	d435      	bmi.n	80072f6 <_printf_float+0x3aa>
 800728a:	9c13      	ldr	r4, [sp, #76]	@ 0x4c
 800728c:	9b0c      	ldr	r3, [sp, #48]	@ 0x30
 800728e:	9a0c      	ldr	r2, [sp, #48]	@ 0x30
 8007290:	1b9b      	subs	r3, r3, r6
 8007292:	1b14      	subs	r4, r2, r4
 8007294:	429c      	cmp	r4, r3
 8007296:	dd00      	ble.n	800729a <_printf_float+0x34e>
 8007298:	001c      	movs	r4, r3
 800729a:	2c00      	cmp	r4, #0
 800729c:	dc34      	bgt.n	8007308 <_printf_float+0x3bc>
 800729e:	43e3      	mvns	r3, r4
 80072a0:	2600      	movs	r6, #0
 80072a2:	17db      	asrs	r3, r3, #31
 80072a4:	401c      	ands	r4, r3
 80072a6:	9b13      	ldr	r3, [sp, #76]	@ 0x4c
 80072a8:	9a0c      	ldr	r2, [sp, #48]	@ 0x30
 80072aa:	1ad3      	subs	r3, r2, r3
 80072ac:	1b1b      	subs	r3, r3, r4
 80072ae:	42b3      	cmp	r3, r6
 80072b0:	dc00      	bgt.n	80072b4 <_printf_float+0x368>
 80072b2:	e77b      	b.n	80071ac <_printf_float+0x260>
 80072b4:	002a      	movs	r2, r5
 80072b6:	2301      	movs	r3, #1
 80072b8:	990a      	ldr	r1, [sp, #40]	@ 0x28
 80072ba:	9809      	ldr	r0, [sp, #36]	@ 0x24
 80072bc:	9f0b      	ldr	r7, [sp, #44]	@ 0x2c
 80072be:	321a      	adds	r2, #26
 80072c0:	47b8      	blx	r7
 80072c2:	3001      	adds	r0, #1
 80072c4:	d100      	bne.n	80072c8 <_printf_float+0x37c>
 80072c6:	e69d      	b.n	8007004 <_printf_float+0xb8>
 80072c8:	3601      	adds	r6, #1
 80072ca:	e7ec      	b.n	80072a6 <_printf_float+0x35a>
 80072cc:	0033      	movs	r3, r6
 80072ce:	003a      	movs	r2, r7
 80072d0:	990a      	ldr	r1, [sp, #40]	@ 0x28
 80072d2:	9809      	ldr	r0, [sp, #36]	@ 0x24
 80072d4:	9c0b      	ldr	r4, [sp, #44]	@ 0x2c
 80072d6:	47a0      	blx	r4
 80072d8:	3001      	adds	r0, #1
 80072da:	d1c5      	bne.n	8007268 <_printf_float+0x31c>
 80072dc:	e692      	b.n	8007004 <_printf_float+0xb8>
 80072de:	002a      	movs	r2, r5
 80072e0:	2301      	movs	r3, #1
 80072e2:	990a      	ldr	r1, [sp, #40]	@ 0x28
 80072e4:	9809      	ldr	r0, [sp, #36]	@ 0x24
 80072e6:	9e0b      	ldr	r6, [sp, #44]	@ 0x2c
 80072e8:	321a      	adds	r2, #26
 80072ea:	47b0      	blx	r6
 80072ec:	3001      	adds	r0, #1
 80072ee:	d100      	bne.n	80072f2 <_printf_float+0x3a6>
 80072f0:	e688      	b.n	8007004 <_printf_float+0xb8>
 80072f2:	3401      	adds	r4, #1
 80072f4:	e7bd      	b.n	8007272 <_printf_float+0x326>
 80072f6:	9b0f      	ldr	r3, [sp, #60]	@ 0x3c
 80072f8:	9a0d      	ldr	r2, [sp, #52]	@ 0x34
 80072fa:	990a      	ldr	r1, [sp, #40]	@ 0x28
 80072fc:	9809      	ldr	r0, [sp, #36]	@ 0x24
 80072fe:	9c0b      	ldr	r4, [sp, #44]	@ 0x2c
 8007300:	47a0      	blx	r4
 8007302:	3001      	adds	r0, #1
 8007304:	d1c1      	bne.n	800728a <_printf_float+0x33e>
 8007306:	e67d      	b.n	8007004 <_printf_float+0xb8>
 8007308:	19ba      	adds	r2, r7, r6
 800730a:	0023      	movs	r3, r4
 800730c:	990a      	ldr	r1, [sp, #40]	@ 0x28
 800730e:	9809      	ldr	r0, [sp, #36]	@ 0x24
 8007310:	9e0b      	ldr	r6, [sp, #44]	@ 0x2c
 8007312:	47b0      	blx	r6
 8007314:	3001      	adds	r0, #1
 8007316:	d1c2      	bne.n	800729e <_printf_float+0x352>
 8007318:	e674      	b.n	8007004 <_printf_float+0xb8>
 800731a:	9b14      	ldr	r3, [sp, #80]	@ 0x50
 800731c:	930c      	str	r3, [sp, #48]	@ 0x30
 800731e:	2b01      	cmp	r3, #1
 8007320:	dc02      	bgt.n	8007328 <_printf_float+0x3dc>
 8007322:	2301      	movs	r3, #1
 8007324:	421a      	tst	r2, r3
 8007326:	d039      	beq.n	800739c <_printf_float+0x450>
 8007328:	2301      	movs	r3, #1
 800732a:	003a      	movs	r2, r7
 800732c:	990a      	ldr	r1, [sp, #40]	@ 0x28
 800732e:	9809      	ldr	r0, [sp, #36]	@ 0x24
 8007330:	9e0b      	ldr	r6, [sp, #44]	@ 0x2c
 8007332:	47b0      	blx	r6
 8007334:	3001      	adds	r0, #1
 8007336:	d100      	bne.n	800733a <_printf_float+0x3ee>
 8007338:	e664      	b.n	8007004 <_printf_float+0xb8>
 800733a:	9b0f      	ldr	r3, [sp, #60]	@ 0x3c
 800733c:	9a0d      	ldr	r2, [sp, #52]	@ 0x34
 800733e:	990a      	ldr	r1, [sp, #40]	@ 0x28
 8007340:	9809      	ldr	r0, [sp, #36]	@ 0x24
 8007342:	9e0b      	ldr	r6, [sp, #44]	@ 0x2c
 8007344:	47b0      	blx	r6
 8007346:	3001      	adds	r0, #1
 8007348:	d100      	bne.n	800734c <_printf_float+0x400>
 800734a:	e65b      	b.n	8007004 <_printf_float+0xb8>
 800734c:	6ca8      	ldr	r0, [r5, #72]	@ 0x48
 800734e:	6ce9      	ldr	r1, [r5, #76]	@ 0x4c
 8007350:	9b0c      	ldr	r3, [sp, #48]	@ 0x30
 8007352:	2200      	movs	r2, #0
 8007354:	3b01      	subs	r3, #1
 8007356:	930c      	str	r3, [sp, #48]	@ 0x30
 8007358:	2300      	movs	r3, #0
 800735a:	f7f9 f87f 	bl	800045c <__aeabi_dcmpeq>
 800735e:	2800      	cmp	r0, #0
 8007360:	d11a      	bne.n	8007398 <_printf_float+0x44c>
 8007362:	9b0c      	ldr	r3, [sp, #48]	@ 0x30
 8007364:	1c7a      	adds	r2, r7, #1
 8007366:	990a      	ldr	r1, [sp, #40]	@ 0x28
 8007368:	9809      	ldr	r0, [sp, #36]	@ 0x24
 800736a:	9e0b      	ldr	r6, [sp, #44]	@ 0x2c
 800736c:	47b0      	blx	r6
 800736e:	3001      	adds	r0, #1
 8007370:	d10e      	bne.n	8007390 <_printf_float+0x444>
 8007372:	e647      	b.n	8007004 <_printf_float+0xb8>
 8007374:	002a      	movs	r2, r5
 8007376:	2301      	movs	r3, #1
 8007378:	990a      	ldr	r1, [sp, #40]	@ 0x28
 800737a:	9809      	ldr	r0, [sp, #36]	@ 0x24
 800737c:	9f0b      	ldr	r7, [sp, #44]	@ 0x2c
 800737e:	321a      	adds	r2, #26
 8007380:	47b8      	blx	r7
 8007382:	3001      	adds	r0, #1
 8007384:	d100      	bne.n	8007388 <_printf_float+0x43c>
 8007386:	e63d      	b.n	8007004 <_printf_float+0xb8>
 8007388:	3601      	adds	r6, #1
 800738a:	9b0c      	ldr	r3, [sp, #48]	@ 0x30
 800738c:	429e      	cmp	r6, r3
 800738e:	dbf1      	blt.n	8007374 <_printf_float+0x428>
 8007390:	002a      	movs	r2, r5
 8007392:	0023      	movs	r3, r4
 8007394:	3250      	adds	r2, #80	@ 0x50
 8007396:	e6d9      	b.n	800714c <_printf_float+0x200>
 8007398:	2600      	movs	r6, #0
 800739a:	e7f6      	b.n	800738a <_printf_float+0x43e>
 800739c:	003a      	movs	r2, r7
 800739e:	e7e2      	b.n	8007366 <_printf_float+0x41a>
 80073a0:	002a      	movs	r2, r5
 80073a2:	2301      	movs	r3, #1
 80073a4:	990a      	ldr	r1, [sp, #40]	@ 0x28
 80073a6:	9809      	ldr	r0, [sp, #36]	@ 0x24
 80073a8:	9e0b      	ldr	r6, [sp, #44]	@ 0x2c
 80073aa:	3219      	adds	r2, #25
 80073ac:	47b0      	blx	r6
 80073ae:	3001      	adds	r0, #1
 80073b0:	d100      	bne.n	80073b4 <_printf_float+0x468>
 80073b2:	e627      	b.n	8007004 <_printf_float+0xb8>
 80073b4:	3401      	adds	r4, #1
 80073b6:	68eb      	ldr	r3, [r5, #12]
 80073b8:	9a15      	ldr	r2, [sp, #84]	@ 0x54
 80073ba:	1a9b      	subs	r3, r3, r2
 80073bc:	42a3      	cmp	r3, r4
 80073be:	dcef      	bgt.n	80073a0 <_printf_float+0x454>
 80073c0:	e6f8      	b.n	80071b4 <_printf_float+0x268>
 80073c2:	2400      	movs	r4, #0
 80073c4:	e7f7      	b.n	80073b6 <_printf_float+0x46a>
 80073c6:	46c0      	nop			@ (mov r8, r8)

080073c8 <_printf_common>:
 80073c8:	b5f7      	push	{r0, r1, r2, r4, r5, r6, r7, lr}
 80073ca:	0016      	movs	r6, r2
 80073cc:	9301      	str	r3, [sp, #4]
 80073ce:	688a      	ldr	r2, [r1, #8]
 80073d0:	690b      	ldr	r3, [r1, #16]
 80073d2:	000c      	movs	r4, r1
 80073d4:	9000      	str	r0, [sp, #0]
 80073d6:	4293      	cmp	r3, r2
 80073d8:	da00      	bge.n	80073dc <_printf_common+0x14>
 80073da:	0013      	movs	r3, r2
 80073dc:	0022      	movs	r2, r4
 80073de:	6033      	str	r3, [r6, #0]
 80073e0:	3243      	adds	r2, #67	@ 0x43
 80073e2:	7812      	ldrb	r2, [r2, #0]
 80073e4:	2a00      	cmp	r2, #0
 80073e6:	d001      	beq.n	80073ec <_printf_common+0x24>
 80073e8:	3301      	adds	r3, #1
 80073ea:	6033      	str	r3, [r6, #0]
 80073ec:	6823      	ldr	r3, [r4, #0]
 80073ee:	069b      	lsls	r3, r3, #26
 80073f0:	d502      	bpl.n	80073f8 <_printf_common+0x30>
 80073f2:	6833      	ldr	r3, [r6, #0]
 80073f4:	3302      	adds	r3, #2
 80073f6:	6033      	str	r3, [r6, #0]
 80073f8:	6822      	ldr	r2, [r4, #0]
 80073fa:	2306      	movs	r3, #6
 80073fc:	0015      	movs	r5, r2
 80073fe:	401d      	ands	r5, r3
 8007400:	421a      	tst	r2, r3
 8007402:	d027      	beq.n	8007454 <_printf_common+0x8c>
 8007404:	0023      	movs	r3, r4
 8007406:	3343      	adds	r3, #67	@ 0x43
 8007408:	781b      	ldrb	r3, [r3, #0]
 800740a:	1e5a      	subs	r2, r3, #1
 800740c:	4193      	sbcs	r3, r2
 800740e:	6822      	ldr	r2, [r4, #0]
 8007410:	0692      	lsls	r2, r2, #26
 8007412:	d430      	bmi.n	8007476 <_printf_common+0xae>
 8007414:	0022      	movs	r2, r4
 8007416:	9901      	ldr	r1, [sp, #4]
 8007418:	9800      	ldr	r0, [sp, #0]
 800741a:	9d08      	ldr	r5, [sp, #32]
 800741c:	3243      	adds	r2, #67	@ 0x43
 800741e:	47a8      	blx	r5
 8007420:	3001      	adds	r0, #1
 8007422:	d025      	beq.n	8007470 <_printf_common+0xa8>
 8007424:	2206      	movs	r2, #6
 8007426:	6823      	ldr	r3, [r4, #0]
 8007428:	2500      	movs	r5, #0
 800742a:	4013      	ands	r3, r2
 800742c:	2b04      	cmp	r3, #4
 800742e:	d105      	bne.n	800743c <_printf_common+0x74>
 8007430:	6833      	ldr	r3, [r6, #0]
 8007432:	68e5      	ldr	r5, [r4, #12]
 8007434:	1aed      	subs	r5, r5, r3
 8007436:	43eb      	mvns	r3, r5
 8007438:	17db      	asrs	r3, r3, #31
 800743a:	401d      	ands	r5, r3
 800743c:	68a3      	ldr	r3, [r4, #8]
 800743e:	6922      	ldr	r2, [r4, #16]
 8007440:	4293      	cmp	r3, r2
 8007442:	dd01      	ble.n	8007448 <_printf_common+0x80>
 8007444:	1a9b      	subs	r3, r3, r2
 8007446:	18ed      	adds	r5, r5, r3
 8007448:	2600      	movs	r6, #0
 800744a:	42b5      	cmp	r5, r6
 800744c:	d120      	bne.n	8007490 <_printf_common+0xc8>
 800744e:	2000      	movs	r0, #0
 8007450:	e010      	b.n	8007474 <_printf_common+0xac>
 8007452:	3501      	adds	r5, #1
 8007454:	68e3      	ldr	r3, [r4, #12]
 8007456:	6832      	ldr	r2, [r6, #0]
 8007458:	1a9b      	subs	r3, r3, r2
 800745a:	42ab      	cmp	r3, r5
 800745c:	ddd2      	ble.n	8007404 <_printf_common+0x3c>
 800745e:	0022      	movs	r2, r4
 8007460:	2301      	movs	r3, #1
 8007462:	9901      	ldr	r1, [sp, #4]
 8007464:	9800      	ldr	r0, [sp, #0]
 8007466:	9f08      	ldr	r7, [sp, #32]
 8007468:	3219      	adds	r2, #25
 800746a:	47b8      	blx	r7
 800746c:	3001      	adds	r0, #1
 800746e:	d1f0      	bne.n	8007452 <_printf_common+0x8a>
 8007470:	2001      	movs	r0, #1
 8007472:	4240      	negs	r0, r0
 8007474:	bdfe      	pop	{r1, r2, r3, r4, r5, r6, r7, pc}
 8007476:	2030      	movs	r0, #48	@ 0x30
 8007478:	18e1      	adds	r1, r4, r3
 800747a:	3143      	adds	r1, #67	@ 0x43
 800747c:	7008      	strb	r0, [r1, #0]
 800747e:	0021      	movs	r1, r4
 8007480:	1c5a      	adds	r2, r3, #1
 8007482:	3145      	adds	r1, #69	@ 0x45
 8007484:	7809      	ldrb	r1, [r1, #0]
 8007486:	18a2      	adds	r2, r4, r2
 8007488:	3243      	adds	r2, #67	@ 0x43
 800748a:	3302      	adds	r3, #2
 800748c:	7011      	strb	r1, [r2, #0]
 800748e:	e7c1      	b.n	8007414 <_printf_common+0x4c>
 8007490:	0022      	movs	r2, r4
 8007492:	2301      	movs	r3, #1
 8007494:	9901      	ldr	r1, [sp, #4]
 8007496:	9800      	ldr	r0, [sp, #0]
 8007498:	9f08      	ldr	r7, [sp, #32]
 800749a:	321a      	adds	r2, #26
 800749c:	47b8      	blx	r7
 800749e:	3001      	adds	r0, #1
 80074a0:	d0e6      	beq.n	8007470 <_printf_common+0xa8>
 80074a2:	3601      	adds	r6, #1
 80074a4:	e7d1      	b.n	800744a <_printf_common+0x82>
	...

080074a8 <_printf_i>:
 80074a8:	b5f0      	push	{r4, r5, r6, r7, lr}
 80074aa:	b08b      	sub	sp, #44	@ 0x2c
 80074ac:	9206      	str	r2, [sp, #24]
 80074ae:	000a      	movs	r2, r1
 80074b0:	3243      	adds	r2, #67	@ 0x43
 80074b2:	9307      	str	r3, [sp, #28]
 80074b4:	9005      	str	r0, [sp, #20]
 80074b6:	9203      	str	r2, [sp, #12]
 80074b8:	7e0a      	ldrb	r2, [r1, #24]
 80074ba:	000c      	movs	r4, r1
 80074bc:	9b10      	ldr	r3, [sp, #64]	@ 0x40
 80074be:	2a78      	cmp	r2, #120	@ 0x78
 80074c0:	d809      	bhi.n	80074d6 <_printf_i+0x2e>
 80074c2:	2a62      	cmp	r2, #98	@ 0x62
 80074c4:	d80b      	bhi.n	80074de <_printf_i+0x36>
 80074c6:	2a00      	cmp	r2, #0
 80074c8:	d100      	bne.n	80074cc <_printf_i+0x24>
 80074ca:	e0ba      	b.n	8007642 <_printf_i+0x19a>
 80074cc:	497a      	ldr	r1, [pc, #488]	@ (80076b8 <_printf_i+0x210>)
 80074ce:	9104      	str	r1, [sp, #16]
 80074d0:	2a58      	cmp	r2, #88	@ 0x58
 80074d2:	d100      	bne.n	80074d6 <_printf_i+0x2e>
 80074d4:	e08e      	b.n	80075f4 <_printf_i+0x14c>
 80074d6:	0025      	movs	r5, r4
 80074d8:	3542      	adds	r5, #66	@ 0x42
 80074da:	702a      	strb	r2, [r5, #0]
 80074dc:	e022      	b.n	8007524 <_printf_i+0x7c>
 80074de:	0010      	movs	r0, r2
 80074e0:	3863      	subs	r0, #99	@ 0x63
 80074e2:	2815      	cmp	r0, #21
 80074e4:	d8f7      	bhi.n	80074d6 <_printf_i+0x2e>
 80074e6:	f7f8 fe29 	bl	800013c <__gnu_thumb1_case_shi>
 80074ea:	0016      	.short	0x0016
 80074ec:	fff6001f 	.word	0xfff6001f
 80074f0:	fff6fff6 	.word	0xfff6fff6
 80074f4:	001ffff6 	.word	0x001ffff6
 80074f8:	fff6fff6 	.word	0xfff6fff6
 80074fc:	fff6fff6 	.word	0xfff6fff6
 8007500:	0036009f 	.word	0x0036009f
 8007504:	fff6007e 	.word	0xfff6007e
 8007508:	00b0fff6 	.word	0x00b0fff6
 800750c:	0036fff6 	.word	0x0036fff6
 8007510:	fff6fff6 	.word	0xfff6fff6
 8007514:	0082      	.short	0x0082
 8007516:	0025      	movs	r5, r4
 8007518:	681a      	ldr	r2, [r3, #0]
 800751a:	3542      	adds	r5, #66	@ 0x42
 800751c:	1d11      	adds	r1, r2, #4
 800751e:	6019      	str	r1, [r3, #0]
 8007520:	6813      	ldr	r3, [r2, #0]
 8007522:	702b      	strb	r3, [r5, #0]
 8007524:	2301      	movs	r3, #1
 8007526:	e09e      	b.n	8007666 <_printf_i+0x1be>
 8007528:	6818      	ldr	r0, [r3, #0]
 800752a:	6809      	ldr	r1, [r1, #0]
 800752c:	1d02      	adds	r2, r0, #4
 800752e:	060d      	lsls	r5, r1, #24
 8007530:	d50b      	bpl.n	800754a <_printf_i+0xa2>
 8007532:	6806      	ldr	r6, [r0, #0]
 8007534:	601a      	str	r2, [r3, #0]
 8007536:	2e00      	cmp	r6, #0
 8007538:	da03      	bge.n	8007542 <_printf_i+0x9a>
 800753a:	232d      	movs	r3, #45	@ 0x2d
 800753c:	9a03      	ldr	r2, [sp, #12]
 800753e:	4276      	negs	r6, r6
 8007540:	7013      	strb	r3, [r2, #0]
 8007542:	4b5d      	ldr	r3, [pc, #372]	@ (80076b8 <_printf_i+0x210>)
 8007544:	270a      	movs	r7, #10
 8007546:	9304      	str	r3, [sp, #16]
 8007548:	e018      	b.n	800757c <_printf_i+0xd4>
 800754a:	6806      	ldr	r6, [r0, #0]
 800754c:	601a      	str	r2, [r3, #0]
 800754e:	0649      	lsls	r1, r1, #25
 8007550:	d5f1      	bpl.n	8007536 <_printf_i+0x8e>
 8007552:	b236      	sxth	r6, r6
 8007554:	e7ef      	b.n	8007536 <_printf_i+0x8e>
 8007556:	6808      	ldr	r0, [r1, #0]
 8007558:	6819      	ldr	r1, [r3, #0]
 800755a:	c940      	ldmia	r1!, {r6}
 800755c:	0605      	lsls	r5, r0, #24
 800755e:	d402      	bmi.n	8007566 <_printf_i+0xbe>
 8007560:	0640      	lsls	r0, r0, #25
 8007562:	d500      	bpl.n	8007566 <_printf_i+0xbe>
 8007564:	b2b6      	uxth	r6, r6
 8007566:	6019      	str	r1, [r3, #0]
 8007568:	4b53      	ldr	r3, [pc, #332]	@ (80076b8 <_printf_i+0x210>)
 800756a:	270a      	movs	r7, #10
 800756c:	9304      	str	r3, [sp, #16]
 800756e:	2a6f      	cmp	r2, #111	@ 0x6f
 8007570:	d100      	bne.n	8007574 <_printf_i+0xcc>
 8007572:	3f02      	subs	r7, #2
 8007574:	0023      	movs	r3, r4
 8007576:	2200      	movs	r2, #0
 8007578:	3343      	adds	r3, #67	@ 0x43
 800757a:	701a      	strb	r2, [r3, #0]
 800757c:	6863      	ldr	r3, [r4, #4]
 800757e:	60a3      	str	r3, [r4, #8]
 8007580:	2b00      	cmp	r3, #0
 8007582:	db06      	blt.n	8007592 <_printf_i+0xea>
 8007584:	2104      	movs	r1, #4
 8007586:	6822      	ldr	r2, [r4, #0]
 8007588:	9d03      	ldr	r5, [sp, #12]
 800758a:	438a      	bics	r2, r1
 800758c:	6022      	str	r2, [r4, #0]
 800758e:	4333      	orrs	r3, r6
 8007590:	d00c      	beq.n	80075ac <_printf_i+0x104>
 8007592:	9d03      	ldr	r5, [sp, #12]
 8007594:	0030      	movs	r0, r6
 8007596:	0039      	movs	r1, r7
 8007598:	f7f8 fe60 	bl	800025c <__aeabi_uidivmod>
 800759c:	9b04      	ldr	r3, [sp, #16]
 800759e:	3d01      	subs	r5, #1
 80075a0:	5c5b      	ldrb	r3, [r3, r1]
 80075a2:	702b      	strb	r3, [r5, #0]
 80075a4:	0033      	movs	r3, r6
 80075a6:	0006      	movs	r6, r0
 80075a8:	429f      	cmp	r7, r3
 80075aa:	d9f3      	bls.n	8007594 <_printf_i+0xec>
 80075ac:	2f08      	cmp	r7, #8
 80075ae:	d109      	bne.n	80075c4 <_printf_i+0x11c>
 80075b0:	6823      	ldr	r3, [r4, #0]
 80075b2:	07db      	lsls	r3, r3, #31
 80075b4:	d506      	bpl.n	80075c4 <_printf_i+0x11c>
 80075b6:	6862      	ldr	r2, [r4, #4]
 80075b8:	6923      	ldr	r3, [r4, #16]
 80075ba:	429a      	cmp	r2, r3
 80075bc:	dc02      	bgt.n	80075c4 <_printf_i+0x11c>
 80075be:	2330      	movs	r3, #48	@ 0x30
 80075c0:	3d01      	subs	r5, #1
 80075c2:	702b      	strb	r3, [r5, #0]
 80075c4:	9b03      	ldr	r3, [sp, #12]
 80075c6:	1b5b      	subs	r3, r3, r5
 80075c8:	6123      	str	r3, [r4, #16]
 80075ca:	9b07      	ldr	r3, [sp, #28]
 80075cc:	0021      	movs	r1, r4
 80075ce:	9300      	str	r3, [sp, #0]
 80075d0:	9805      	ldr	r0, [sp, #20]
 80075d2:	9b06      	ldr	r3, [sp, #24]
 80075d4:	aa09      	add	r2, sp, #36	@ 0x24
 80075d6:	f7ff fef7 	bl	80073c8 <_printf_common>
 80075da:	3001      	adds	r0, #1
 80075dc:	d148      	bne.n	8007670 <_printf_i+0x1c8>
 80075de:	2001      	movs	r0, #1
 80075e0:	4240      	negs	r0, r0
 80075e2:	b00b      	add	sp, #44	@ 0x2c
 80075e4:	bdf0      	pop	{r4, r5, r6, r7, pc}
 80075e6:	2220      	movs	r2, #32
 80075e8:	6809      	ldr	r1, [r1, #0]
 80075ea:	430a      	orrs	r2, r1
 80075ec:	6022      	str	r2, [r4, #0]
 80075ee:	2278      	movs	r2, #120	@ 0x78
 80075f0:	4932      	ldr	r1, [pc, #200]	@ (80076bc <_printf_i+0x214>)
 80075f2:	9104      	str	r1, [sp, #16]
 80075f4:	0021      	movs	r1, r4
 80075f6:	3145      	adds	r1, #69	@ 0x45
 80075f8:	700a      	strb	r2, [r1, #0]
 80075fa:	6819      	ldr	r1, [r3, #0]
 80075fc:	6822      	ldr	r2, [r4, #0]
 80075fe:	c940      	ldmia	r1!, {r6}
 8007600:	0610      	lsls	r0, r2, #24
 8007602:	d402      	bmi.n	800760a <_printf_i+0x162>
 8007604:	0650      	lsls	r0, r2, #25
 8007606:	d500      	bpl.n	800760a <_printf_i+0x162>
 8007608:	b2b6      	uxth	r6, r6
 800760a:	6019      	str	r1, [r3, #0]
 800760c:	07d3      	lsls	r3, r2, #31
 800760e:	d502      	bpl.n	8007616 <_printf_i+0x16e>
 8007610:	2320      	movs	r3, #32
 8007612:	4313      	orrs	r3, r2
 8007614:	6023      	str	r3, [r4, #0]
 8007616:	2e00      	cmp	r6, #0
 8007618:	d001      	beq.n	800761e <_printf_i+0x176>
 800761a:	2710      	movs	r7, #16
 800761c:	e7aa      	b.n	8007574 <_printf_i+0xcc>
 800761e:	2220      	movs	r2, #32
 8007620:	6823      	ldr	r3, [r4, #0]
 8007622:	4393      	bics	r3, r2
 8007624:	6023      	str	r3, [r4, #0]
 8007626:	e7f8      	b.n	800761a <_printf_i+0x172>
 8007628:	681a      	ldr	r2, [r3, #0]
 800762a:	680d      	ldr	r5, [r1, #0]
 800762c:	1d10      	adds	r0, r2, #4
 800762e:	6949      	ldr	r1, [r1, #20]
 8007630:	6018      	str	r0, [r3, #0]
 8007632:	6813      	ldr	r3, [r2, #0]
 8007634:	062e      	lsls	r6, r5, #24
 8007636:	d501      	bpl.n	800763c <_printf_i+0x194>
 8007638:	6019      	str	r1, [r3, #0]
 800763a:	e002      	b.n	8007642 <_printf_i+0x19a>
 800763c:	066d      	lsls	r5, r5, #25
 800763e:	d5fb      	bpl.n	8007638 <_printf_i+0x190>
 8007640:	8019      	strh	r1, [r3, #0]
 8007642:	2300      	movs	r3, #0
 8007644:	9d03      	ldr	r5, [sp, #12]
 8007646:	6123      	str	r3, [r4, #16]
 8007648:	e7bf      	b.n	80075ca <_printf_i+0x122>
 800764a:	681a      	ldr	r2, [r3, #0]
 800764c:	1d11      	adds	r1, r2, #4
 800764e:	6019      	str	r1, [r3, #0]
 8007650:	6815      	ldr	r5, [r2, #0]
 8007652:	2100      	movs	r1, #0
 8007654:	0028      	movs	r0, r5
 8007656:	6862      	ldr	r2, [r4, #4]
 8007658:	f000 faeb 	bl	8007c32 <memchr>
 800765c:	2800      	cmp	r0, #0
 800765e:	d001      	beq.n	8007664 <_printf_i+0x1bc>
 8007660:	1b40      	subs	r0, r0, r5
 8007662:	6060      	str	r0, [r4, #4]
 8007664:	6863      	ldr	r3, [r4, #4]
 8007666:	6123      	str	r3, [r4, #16]
 8007668:	2300      	movs	r3, #0
 800766a:	9a03      	ldr	r2, [sp, #12]
 800766c:	7013      	strb	r3, [r2, #0]
 800766e:	e7ac      	b.n	80075ca <_printf_i+0x122>
 8007670:	002a      	movs	r2, r5
 8007672:	6923      	ldr	r3, [r4, #16]
 8007674:	9906      	ldr	r1, [sp, #24]
 8007676:	9805      	ldr	r0, [sp, #20]
 8007678:	9d07      	ldr	r5, [sp, #28]
 800767a:	47a8      	blx	r5
 800767c:	3001      	adds	r0, #1
 800767e:	d0ae      	beq.n	80075de <_printf_i+0x136>
 8007680:	6823      	ldr	r3, [r4, #0]
 8007682:	079b      	lsls	r3, r3, #30
 8007684:	d415      	bmi.n	80076b2 <_printf_i+0x20a>
 8007686:	9b09      	ldr	r3, [sp, #36]	@ 0x24
 8007688:	68e0      	ldr	r0, [r4, #12]
 800768a:	4298      	cmp	r0, r3
 800768c:	daa9      	bge.n	80075e2 <_printf_i+0x13a>
 800768e:	0018      	movs	r0, r3
 8007690:	e7a7      	b.n	80075e2 <_printf_i+0x13a>
 8007692:	0022      	movs	r2, r4
 8007694:	2301      	movs	r3, #1
 8007696:	9906      	ldr	r1, [sp, #24]
 8007698:	9805      	ldr	r0, [sp, #20]
 800769a:	9e07      	ldr	r6, [sp, #28]
 800769c:	3219      	adds	r2, #25
 800769e:	47b0      	blx	r6
 80076a0:	3001      	adds	r0, #1
 80076a2:	d09c      	beq.n	80075de <_printf_i+0x136>
 80076a4:	3501      	adds	r5, #1
 80076a6:	68e3      	ldr	r3, [r4, #12]
 80076a8:	9a09      	ldr	r2, [sp, #36]	@ 0x24
 80076aa:	1a9b      	subs	r3, r3, r2
 80076ac:	42ab      	cmp	r3, r5
 80076ae:	dcf0      	bgt.n	8007692 <_printf_i+0x1ea>
 80076b0:	e7e9      	b.n	8007686 <_printf_i+0x1de>
 80076b2:	2500      	movs	r5, #0
 80076b4:	e7f7      	b.n	80076a6 <_printf_i+0x1fe>
 80076b6:	46c0      	nop			@ (mov r8, r8)
 80076b8:	08009c56 	.word	0x08009c56
 80076bc:	08009c67 	.word	0x08009c67

080076c0 <std>:
 80076c0:	2300      	movs	r3, #0
 80076c2:	b510      	push	{r4, lr}
 80076c4:	0004      	movs	r4, r0
 80076c6:	6003      	str	r3, [r0, #0]
 80076c8:	6043      	str	r3, [r0, #4]
 80076ca:	6083      	str	r3, [r0, #8]
 80076cc:	8181      	strh	r1, [r0, #12]
 80076ce:	6643      	str	r3, [r0, #100]	@ 0x64
 80076d0:	81c2      	strh	r2, [r0, #14]
 80076d2:	6103      	str	r3, [r0, #16]
 80076d4:	6143      	str	r3, [r0, #20]
 80076d6:	6183      	str	r3, [r0, #24]
 80076d8:	0019      	movs	r1, r3
 80076da:	2208      	movs	r2, #8
 80076dc:	305c      	adds	r0, #92	@ 0x5c
 80076de:	f000 fa21 	bl	8007b24 <memset>
 80076e2:	4b0b      	ldr	r3, [pc, #44]	@ (8007710 <std+0x50>)
 80076e4:	6224      	str	r4, [r4, #32]
 80076e6:	6263      	str	r3, [r4, #36]	@ 0x24
 80076e8:	4b0a      	ldr	r3, [pc, #40]	@ (8007714 <std+0x54>)
 80076ea:	62a3      	str	r3, [r4, #40]	@ 0x28
 80076ec:	4b0a      	ldr	r3, [pc, #40]	@ (8007718 <std+0x58>)
 80076ee:	62e3      	str	r3, [r4, #44]	@ 0x2c
 80076f0:	4b0a      	ldr	r3, [pc, #40]	@ (800771c <std+0x5c>)
 80076f2:	6323      	str	r3, [r4, #48]	@ 0x30
 80076f4:	4b0a      	ldr	r3, [pc, #40]	@ (8007720 <std+0x60>)
 80076f6:	429c      	cmp	r4, r3
 80076f8:	d005      	beq.n	8007706 <std+0x46>
 80076fa:	4b0a      	ldr	r3, [pc, #40]	@ (8007724 <std+0x64>)
 80076fc:	429c      	cmp	r4, r3
 80076fe:	d002      	beq.n	8007706 <std+0x46>
 8007700:	4b09      	ldr	r3, [pc, #36]	@ (8007728 <std+0x68>)
 8007702:	429c      	cmp	r4, r3
 8007704:	d103      	bne.n	800770e <std+0x4e>
 8007706:	0020      	movs	r0, r4
 8007708:	3058      	adds	r0, #88	@ 0x58
 800770a:	f000 fa8f 	bl	8007c2c <__retarget_lock_init_recursive>
 800770e:	bd10      	pop	{r4, pc}
 8007710:	08007929 	.word	0x08007929
 8007714:	08007951 	.word	0x08007951
 8007718:	08007989 	.word	0x08007989
 800771c:	080079b5 	.word	0x080079b5
 8007720:	20000404 	.word	0x20000404
 8007724:	2000046c 	.word	0x2000046c
 8007728:	200004d4 	.word	0x200004d4

0800772c <stdio_exit_handler>:
 800772c:	b510      	push	{r4, lr}
 800772e:	4a03      	ldr	r2, [pc, #12]	@ (800773c <stdio_exit_handler+0x10>)
 8007730:	4903      	ldr	r1, [pc, #12]	@ (8007740 <stdio_exit_handler+0x14>)
 8007732:	4804      	ldr	r0, [pc, #16]	@ (8007744 <stdio_exit_handler+0x18>)
 8007734:	f000 f86c 	bl	8007810 <_fwalk_sglue>
 8007738:	bd10      	pop	{r4, pc}
 800773a:	46c0      	nop			@ (mov r8, r8)
 800773c:	20000010 	.word	0x20000010
 8007740:	0800960d 	.word	0x0800960d
 8007744:	20000020 	.word	0x20000020

08007748 <cleanup_stdio>:
 8007748:	6841      	ldr	r1, [r0, #4]
 800774a:	4b0b      	ldr	r3, [pc, #44]	@ (8007778 <cleanup_stdio+0x30>)
 800774c:	b510      	push	{r4, lr}
 800774e:	0004      	movs	r4, r0
 8007750:	4299      	cmp	r1, r3
 8007752:	d001      	beq.n	8007758 <cleanup_stdio+0x10>
 8007754:	f001 ff5a 	bl	800960c <_fflush_r>
 8007758:	68a1      	ldr	r1, [r4, #8]
 800775a:	4b08      	ldr	r3, [pc, #32]	@ (800777c <cleanup_stdio+0x34>)
 800775c:	4299      	cmp	r1, r3
 800775e:	d002      	beq.n	8007766 <cleanup_stdio+0x1e>
 8007760:	0020      	movs	r0, r4
 8007762:	f001 ff53 	bl	800960c <_fflush_r>
 8007766:	68e1      	ldr	r1, [r4, #12]
 8007768:	4b05      	ldr	r3, [pc, #20]	@ (8007780 <cleanup_stdio+0x38>)
 800776a:	4299      	cmp	r1, r3
 800776c:	d002      	beq.n	8007774 <cleanup_stdio+0x2c>
 800776e:	0020      	movs	r0, r4
 8007770:	f001 ff4c 	bl	800960c <_fflush_r>
 8007774:	bd10      	pop	{r4, pc}
 8007776:	46c0      	nop			@ (mov r8, r8)
 8007778:	20000404 	.word	0x20000404
 800777c:	2000046c 	.word	0x2000046c
 8007780:	200004d4 	.word	0x200004d4

08007784 <global_stdio_init.part.0>:
 8007784:	b510      	push	{r4, lr}
 8007786:	4b09      	ldr	r3, [pc, #36]	@ (80077ac <global_stdio_init.part.0+0x28>)
 8007788:	4a09      	ldr	r2, [pc, #36]	@ (80077b0 <global_stdio_init.part.0+0x2c>)
 800778a:	2104      	movs	r1, #4
 800778c:	601a      	str	r2, [r3, #0]
 800778e:	4809      	ldr	r0, [pc, #36]	@ (80077b4 <global_stdio_init.part.0+0x30>)
 8007790:	2200      	movs	r2, #0
 8007792:	f7ff ff95 	bl	80076c0 <std>
 8007796:	2201      	movs	r2, #1
 8007798:	2109      	movs	r1, #9
 800779a:	4807      	ldr	r0, [pc, #28]	@ (80077b8 <global_stdio_init.part.0+0x34>)
 800779c:	f7ff ff90 	bl	80076c0 <std>
 80077a0:	2202      	movs	r2, #2
 80077a2:	2112      	movs	r1, #18
 80077a4:	4805      	ldr	r0, [pc, #20]	@ (80077bc <global_stdio_init.part.0+0x38>)
 80077a6:	f7ff ff8b 	bl	80076c0 <std>
 80077aa:	bd10      	pop	{r4, pc}
 80077ac:	2000053c 	.word	0x2000053c
 80077b0:	0800772d 	.word	0x0800772d
 80077b4:	20000404 	.word	0x20000404
 80077b8:	2000046c 	.word	0x2000046c
 80077bc:	200004d4 	.word	0x200004d4

080077c0 <__sfp_lock_acquire>:
 80077c0:	b510      	push	{r4, lr}
 80077c2:	4802      	ldr	r0, [pc, #8]	@ (80077cc <__sfp_lock_acquire+0xc>)
 80077c4:	f000 fa33 	bl	8007c2e <__retarget_lock_acquire_recursive>
 80077c8:	bd10      	pop	{r4, pc}
 80077ca:	46c0      	nop			@ (mov r8, r8)
 80077cc:	20000545 	.word	0x20000545

080077d0 <__sfp_lock_release>:
 80077d0:	b510      	push	{r4, lr}
 80077d2:	4802      	ldr	r0, [pc, #8]	@ (80077dc <__sfp_lock_release+0xc>)
 80077d4:	f000 fa2c 	bl	8007c30 <__retarget_lock_release_recursive>
 80077d8:	bd10      	pop	{r4, pc}
 80077da:	46c0      	nop			@ (mov r8, r8)
 80077dc:	20000545 	.word	0x20000545

080077e0 <__sinit>:
 80077e0:	b510      	push	{r4, lr}
 80077e2:	0004      	movs	r4, r0
 80077e4:	f7ff ffec 	bl	80077c0 <__sfp_lock_acquire>
 80077e8:	6a23      	ldr	r3, [r4, #32]
 80077ea:	2b00      	cmp	r3, #0
 80077ec:	d002      	beq.n	80077f4 <__sinit+0x14>
 80077ee:	f7ff ffef 	bl	80077d0 <__sfp_lock_release>
 80077f2:	bd10      	pop	{r4, pc}
 80077f4:	4b04      	ldr	r3, [pc, #16]	@ (8007808 <__sinit+0x28>)
 80077f6:	6223      	str	r3, [r4, #32]
 80077f8:	4b04      	ldr	r3, [pc, #16]	@ (800780c <__sinit+0x2c>)
 80077fa:	681b      	ldr	r3, [r3, #0]
 80077fc:	2b00      	cmp	r3, #0
 80077fe:	d1f6      	bne.n	80077ee <__sinit+0xe>
 8007800:	f7ff ffc0 	bl	8007784 <global_stdio_init.part.0>
 8007804:	e7f3      	b.n	80077ee <__sinit+0xe>
 8007806:	46c0      	nop			@ (mov r8, r8)
 8007808:	08007749 	.word	0x08007749
 800780c:	2000053c 	.word	0x2000053c

08007810 <_fwalk_sglue>:
 8007810:	b5f7      	push	{r0, r1, r2, r4, r5, r6, r7, lr}
 8007812:	0014      	movs	r4, r2
 8007814:	2600      	movs	r6, #0
 8007816:	9000      	str	r0, [sp, #0]
 8007818:	9101      	str	r1, [sp, #4]
 800781a:	68a5      	ldr	r5, [r4, #8]
 800781c:	6867      	ldr	r7, [r4, #4]
 800781e:	3f01      	subs	r7, #1
 8007820:	d504      	bpl.n	800782c <_fwalk_sglue+0x1c>
 8007822:	6824      	ldr	r4, [r4, #0]
 8007824:	2c00      	cmp	r4, #0
 8007826:	d1f8      	bne.n	800781a <_fwalk_sglue+0xa>
 8007828:	0030      	movs	r0, r6
 800782a:	bdfe      	pop	{r1, r2, r3, r4, r5, r6, r7, pc}
 800782c:	89ab      	ldrh	r3, [r5, #12]
 800782e:	2b01      	cmp	r3, #1
 8007830:	d908      	bls.n	8007844 <_fwalk_sglue+0x34>
 8007832:	220e      	movs	r2, #14
 8007834:	5eab      	ldrsh	r3, [r5, r2]
 8007836:	3301      	adds	r3, #1
 8007838:	d004      	beq.n	8007844 <_fwalk_sglue+0x34>
 800783a:	0029      	movs	r1, r5
 800783c:	9800      	ldr	r0, [sp, #0]
 800783e:	9b01      	ldr	r3, [sp, #4]
 8007840:	4798      	blx	r3
 8007842:	4306      	orrs	r6, r0
 8007844:	3568      	adds	r5, #104	@ 0x68
 8007846:	e7ea      	b.n	800781e <_fwalk_sglue+0xe>

08007848 <iprintf>:
 8007848:	b40f      	push	{r0, r1, r2, r3}
 800784a:	b507      	push	{r0, r1, r2, lr}
 800784c:	4905      	ldr	r1, [pc, #20]	@ (8007864 <iprintf+0x1c>)
 800784e:	ab04      	add	r3, sp, #16
 8007850:	6808      	ldr	r0, [r1, #0]
 8007852:	cb04      	ldmia	r3!, {r2}
 8007854:	6881      	ldr	r1, [r0, #8]
 8007856:	9301      	str	r3, [sp, #4]
 8007858:	f001 fd36 	bl	80092c8 <_vfiprintf_r>
 800785c:	b003      	add	sp, #12
 800785e:	bc08      	pop	{r3}
 8007860:	b004      	add	sp, #16
 8007862:	4718      	bx	r3
 8007864:	2000001c 	.word	0x2000001c

08007868 <_puts_r>:
 8007868:	6a03      	ldr	r3, [r0, #32]
 800786a:	b570      	push	{r4, r5, r6, lr}
 800786c:	0005      	movs	r5, r0
 800786e:	000e      	movs	r6, r1
 8007870:	6884      	ldr	r4, [r0, #8]
 8007872:	2b00      	cmp	r3, #0
 8007874:	d101      	bne.n	800787a <_puts_r+0x12>
 8007876:	f7ff ffb3 	bl	80077e0 <__sinit>
 800787a:	6e63      	ldr	r3, [r4, #100]	@ 0x64
 800787c:	07db      	lsls	r3, r3, #31
 800787e:	d405      	bmi.n	800788c <_puts_r+0x24>
 8007880:	89a3      	ldrh	r3, [r4, #12]
 8007882:	059b      	lsls	r3, r3, #22
 8007884:	d402      	bmi.n	800788c <_puts_r+0x24>
 8007886:	6da0      	ldr	r0, [r4, #88]	@ 0x58
 8007888:	f000 f9d1 	bl	8007c2e <__retarget_lock_acquire_recursive>
 800788c:	89a3      	ldrh	r3, [r4, #12]
 800788e:	071b      	lsls	r3, r3, #28
 8007890:	d502      	bpl.n	8007898 <_puts_r+0x30>
 8007892:	6923      	ldr	r3, [r4, #16]
 8007894:	2b00      	cmp	r3, #0
 8007896:	d11f      	bne.n	80078d8 <_puts_r+0x70>
 8007898:	0021      	movs	r1, r4
 800789a:	0028      	movs	r0, r5
 800789c:	f000 f8d2 	bl	8007a44 <__swsetup_r>
 80078a0:	2800      	cmp	r0, #0
 80078a2:	d019      	beq.n	80078d8 <_puts_r+0x70>
 80078a4:	2501      	movs	r5, #1
 80078a6:	426d      	negs	r5, r5
 80078a8:	6e63      	ldr	r3, [r4, #100]	@ 0x64
 80078aa:	07db      	lsls	r3, r3, #31
 80078ac:	d405      	bmi.n	80078ba <_puts_r+0x52>
 80078ae:	89a3      	ldrh	r3, [r4, #12]
 80078b0:	059b      	lsls	r3, r3, #22
 80078b2:	d402      	bmi.n	80078ba <_puts_r+0x52>
 80078b4:	6da0      	ldr	r0, [r4, #88]	@ 0x58
 80078b6:	f000 f9bb 	bl	8007c30 <__retarget_lock_release_recursive>
 80078ba:	0028      	movs	r0, r5
 80078bc:	bd70      	pop	{r4, r5, r6, pc}
 80078be:	3601      	adds	r6, #1
 80078c0:	60a3      	str	r3, [r4, #8]
 80078c2:	2b00      	cmp	r3, #0
 80078c4:	da04      	bge.n	80078d0 <_puts_r+0x68>
 80078c6:	69a2      	ldr	r2, [r4, #24]
 80078c8:	429a      	cmp	r2, r3
 80078ca:	dc16      	bgt.n	80078fa <_puts_r+0x92>
 80078cc:	290a      	cmp	r1, #10
 80078ce:	d014      	beq.n	80078fa <_puts_r+0x92>
 80078d0:	6823      	ldr	r3, [r4, #0]
 80078d2:	1c5a      	adds	r2, r3, #1
 80078d4:	6022      	str	r2, [r4, #0]
 80078d6:	7019      	strb	r1, [r3, #0]
 80078d8:	68a3      	ldr	r3, [r4, #8]
 80078da:	7831      	ldrb	r1, [r6, #0]
 80078dc:	3b01      	subs	r3, #1
 80078de:	2900      	cmp	r1, #0
 80078e0:	d1ed      	bne.n	80078be <_puts_r+0x56>
 80078e2:	60a3      	str	r3, [r4, #8]
 80078e4:	2b00      	cmp	r3, #0
 80078e6:	da0f      	bge.n	8007908 <_puts_r+0xa0>
 80078e8:	0022      	movs	r2, r4
 80078ea:	0028      	movs	r0, r5
 80078ec:	310a      	adds	r1, #10
 80078ee:	f000 f867 	bl	80079c0 <__swbuf_r>
 80078f2:	3001      	adds	r0, #1
 80078f4:	d0d6      	beq.n	80078a4 <_puts_r+0x3c>
 80078f6:	250a      	movs	r5, #10
 80078f8:	e7d6      	b.n	80078a8 <_puts_r+0x40>
 80078fa:	0022      	movs	r2, r4
 80078fc:	0028      	movs	r0, r5
 80078fe:	f000 f85f 	bl	80079c0 <__swbuf_r>
 8007902:	3001      	adds	r0, #1
 8007904:	d1e8      	bne.n	80078d8 <_puts_r+0x70>
 8007906:	e7cd      	b.n	80078a4 <_puts_r+0x3c>
 8007908:	6823      	ldr	r3, [r4, #0]
 800790a:	1c5a      	adds	r2, r3, #1
 800790c:	6022      	str	r2, [r4, #0]
 800790e:	220a      	movs	r2, #10
 8007910:	701a      	strb	r2, [r3, #0]
 8007912:	e7f0      	b.n	80078f6 <_puts_r+0x8e>

08007914 <puts>:
 8007914:	b510      	push	{r4, lr}
 8007916:	4b03      	ldr	r3, [pc, #12]	@ (8007924 <puts+0x10>)
 8007918:	0001      	movs	r1, r0
 800791a:	6818      	ldr	r0, [r3, #0]
 800791c:	f7ff ffa4 	bl	8007868 <_puts_r>
 8007920:	bd10      	pop	{r4, pc}
 8007922:	46c0      	nop			@ (mov r8, r8)
 8007924:	2000001c 	.word	0x2000001c

08007928 <__sread>:
 8007928:	b570      	push	{r4, r5, r6, lr}
 800792a:	000c      	movs	r4, r1
 800792c:	250e      	movs	r5, #14
 800792e:	5f49      	ldrsh	r1, [r1, r5]
 8007930:	f000 f92a 	bl	8007b88 <_read_r>
 8007934:	2800      	cmp	r0, #0
 8007936:	db03      	blt.n	8007940 <__sread+0x18>
 8007938:	6d63      	ldr	r3, [r4, #84]	@ 0x54
 800793a:	181b      	adds	r3, r3, r0
 800793c:	6563      	str	r3, [r4, #84]	@ 0x54
 800793e:	bd70      	pop	{r4, r5, r6, pc}
 8007940:	89a3      	ldrh	r3, [r4, #12]
 8007942:	4a02      	ldr	r2, [pc, #8]	@ (800794c <__sread+0x24>)
 8007944:	4013      	ands	r3, r2
 8007946:	81a3      	strh	r3, [r4, #12]
 8007948:	e7f9      	b.n	800793e <__sread+0x16>
 800794a:	46c0      	nop			@ (mov r8, r8)
 800794c:	ffffefff 	.word	0xffffefff

08007950 <__swrite>:
 8007950:	b5f8      	push	{r3, r4, r5, r6, r7, lr}
 8007952:	001f      	movs	r7, r3
 8007954:	898b      	ldrh	r3, [r1, #12]
 8007956:	0005      	movs	r5, r0
 8007958:	000c      	movs	r4, r1
 800795a:	0016      	movs	r6, r2
 800795c:	05db      	lsls	r3, r3, #23
 800795e:	d505      	bpl.n	800796c <__swrite+0x1c>
 8007960:	230e      	movs	r3, #14
 8007962:	5ec9      	ldrsh	r1, [r1, r3]
 8007964:	2200      	movs	r2, #0
 8007966:	2302      	movs	r3, #2
 8007968:	f000 f8fa 	bl	8007b60 <_lseek_r>
 800796c:	89a3      	ldrh	r3, [r4, #12]
 800796e:	4a05      	ldr	r2, [pc, #20]	@ (8007984 <__swrite+0x34>)
 8007970:	0028      	movs	r0, r5
 8007972:	4013      	ands	r3, r2
 8007974:	81a3      	strh	r3, [r4, #12]
 8007976:	0032      	movs	r2, r6
 8007978:	230e      	movs	r3, #14
 800797a:	5ee1      	ldrsh	r1, [r4, r3]
 800797c:	003b      	movs	r3, r7
 800797e:	f000 f917 	bl	8007bb0 <_write_r>
 8007982:	bdf8      	pop	{r3, r4, r5, r6, r7, pc}
 8007984:	ffffefff 	.word	0xffffefff

08007988 <__sseek>:
 8007988:	b570      	push	{r4, r5, r6, lr}
 800798a:	000c      	movs	r4, r1
 800798c:	250e      	movs	r5, #14
 800798e:	5f49      	ldrsh	r1, [r1, r5]
 8007990:	f000 f8e6 	bl	8007b60 <_lseek_r>
 8007994:	89a3      	ldrh	r3, [r4, #12]
 8007996:	1c42      	adds	r2, r0, #1
 8007998:	d103      	bne.n	80079a2 <__sseek+0x1a>
 800799a:	4a05      	ldr	r2, [pc, #20]	@ (80079b0 <__sseek+0x28>)
 800799c:	4013      	ands	r3, r2
 800799e:	81a3      	strh	r3, [r4, #12]
 80079a0:	bd70      	pop	{r4, r5, r6, pc}
 80079a2:	2280      	movs	r2, #128	@ 0x80
 80079a4:	0152      	lsls	r2, r2, #5
 80079a6:	4313      	orrs	r3, r2
 80079a8:	81a3      	strh	r3, [r4, #12]
 80079aa:	6560      	str	r0, [r4, #84]	@ 0x54
 80079ac:	e7f8      	b.n	80079a0 <__sseek+0x18>
 80079ae:	46c0      	nop			@ (mov r8, r8)
 80079b0:	ffffefff 	.word	0xffffefff

080079b4 <__sclose>:
 80079b4:	b510      	push	{r4, lr}
 80079b6:	230e      	movs	r3, #14
 80079b8:	5ec9      	ldrsh	r1, [r1, r3]
 80079ba:	f000 f8bf 	bl	8007b3c <_close_r>
 80079be:	bd10      	pop	{r4, pc}

080079c0 <__swbuf_r>:
 80079c0:	b5f8      	push	{r3, r4, r5, r6, r7, lr}
 80079c2:	0006      	movs	r6, r0
 80079c4:	000d      	movs	r5, r1
 80079c6:	0014      	movs	r4, r2
 80079c8:	2800      	cmp	r0, #0
 80079ca:	d004      	beq.n	80079d6 <__swbuf_r+0x16>
 80079cc:	6a03      	ldr	r3, [r0, #32]
 80079ce:	2b00      	cmp	r3, #0
 80079d0:	d101      	bne.n	80079d6 <__swbuf_r+0x16>
 80079d2:	f7ff ff05 	bl	80077e0 <__sinit>
 80079d6:	69a3      	ldr	r3, [r4, #24]
 80079d8:	60a3      	str	r3, [r4, #8]
 80079da:	89a3      	ldrh	r3, [r4, #12]
 80079dc:	071b      	lsls	r3, r3, #28
 80079de:	d502      	bpl.n	80079e6 <__swbuf_r+0x26>
 80079e0:	6923      	ldr	r3, [r4, #16]
 80079e2:	2b00      	cmp	r3, #0
 80079e4:	d109      	bne.n	80079fa <__swbuf_r+0x3a>
 80079e6:	0021      	movs	r1, r4
 80079e8:	0030      	movs	r0, r6
 80079ea:	f000 f82b 	bl	8007a44 <__swsetup_r>
 80079ee:	2800      	cmp	r0, #0
 80079f0:	d003      	beq.n	80079fa <__swbuf_r+0x3a>
 80079f2:	2501      	movs	r5, #1
 80079f4:	426d      	negs	r5, r5
 80079f6:	0028      	movs	r0, r5
 80079f8:	bdf8      	pop	{r3, r4, r5, r6, r7, pc}
 80079fa:	6923      	ldr	r3, [r4, #16]
 80079fc:	6820      	ldr	r0, [r4, #0]
 80079fe:	b2ef      	uxtb	r7, r5
 8007a00:	1ac0      	subs	r0, r0, r3
 8007a02:	6963      	ldr	r3, [r4, #20]
 8007a04:	b2ed      	uxtb	r5, r5
 8007a06:	4283      	cmp	r3, r0
 8007a08:	dc05      	bgt.n	8007a16 <__swbuf_r+0x56>
 8007a0a:	0021      	movs	r1, r4
 8007a0c:	0030      	movs	r0, r6
 8007a0e:	f001 fdfd 	bl	800960c <_fflush_r>
 8007a12:	2800      	cmp	r0, #0
 8007a14:	d1ed      	bne.n	80079f2 <__swbuf_r+0x32>
 8007a16:	68a3      	ldr	r3, [r4, #8]
 8007a18:	3001      	adds	r0, #1
 8007a1a:	3b01      	subs	r3, #1
 8007a1c:	60a3      	str	r3, [r4, #8]
 8007a1e:	6823      	ldr	r3, [r4, #0]
 8007a20:	1c5a      	adds	r2, r3, #1
 8007a22:	6022      	str	r2, [r4, #0]
 8007a24:	701f      	strb	r7, [r3, #0]
 8007a26:	6963      	ldr	r3, [r4, #20]
 8007a28:	4283      	cmp	r3, r0
 8007a2a:	d004      	beq.n	8007a36 <__swbuf_r+0x76>
 8007a2c:	89a3      	ldrh	r3, [r4, #12]
 8007a2e:	07db      	lsls	r3, r3, #31
 8007a30:	d5e1      	bpl.n	80079f6 <__swbuf_r+0x36>
 8007a32:	2d0a      	cmp	r5, #10
 8007a34:	d1df      	bne.n	80079f6 <__swbuf_r+0x36>
 8007a36:	0021      	movs	r1, r4
 8007a38:	0030      	movs	r0, r6
 8007a3a:	f001 fde7 	bl	800960c <_fflush_r>
 8007a3e:	2800      	cmp	r0, #0
 8007a40:	d0d9      	beq.n	80079f6 <__swbuf_r+0x36>
 8007a42:	e7d6      	b.n	80079f2 <__swbuf_r+0x32>

08007a44 <__swsetup_r>:
 8007a44:	4b2d      	ldr	r3, [pc, #180]	@ (8007afc <__swsetup_r+0xb8>)
 8007a46:	b570      	push	{r4, r5, r6, lr}
 8007a48:	0005      	movs	r5, r0
 8007a4a:	6818      	ldr	r0, [r3, #0]
 8007a4c:	000c      	movs	r4, r1
 8007a4e:	2800      	cmp	r0, #0
 8007a50:	d004      	beq.n	8007a5c <__swsetup_r+0x18>
 8007a52:	6a03      	ldr	r3, [r0, #32]
 8007a54:	2b00      	cmp	r3, #0
 8007a56:	d101      	bne.n	8007a5c <__swsetup_r+0x18>
 8007a58:	f7ff fec2 	bl	80077e0 <__sinit>
 8007a5c:	220c      	movs	r2, #12
 8007a5e:	5ea3      	ldrsh	r3, [r4, r2]
 8007a60:	071a      	lsls	r2, r3, #28
 8007a62:	d423      	bmi.n	8007aac <__swsetup_r+0x68>
 8007a64:	06da      	lsls	r2, r3, #27
 8007a66:	d407      	bmi.n	8007a78 <__swsetup_r+0x34>
 8007a68:	2209      	movs	r2, #9
 8007a6a:	602a      	str	r2, [r5, #0]
 8007a6c:	2240      	movs	r2, #64	@ 0x40
 8007a6e:	2001      	movs	r0, #1
 8007a70:	4313      	orrs	r3, r2
 8007a72:	81a3      	strh	r3, [r4, #12]
 8007a74:	4240      	negs	r0, r0
 8007a76:	e03a      	b.n	8007aee <__swsetup_r+0xaa>
 8007a78:	075b      	lsls	r3, r3, #29
 8007a7a:	d513      	bpl.n	8007aa4 <__swsetup_r+0x60>
 8007a7c:	6b61      	ldr	r1, [r4, #52]	@ 0x34
 8007a7e:	2900      	cmp	r1, #0
 8007a80:	d008      	beq.n	8007a94 <__swsetup_r+0x50>
 8007a82:	0023      	movs	r3, r4
 8007a84:	3344      	adds	r3, #68	@ 0x44
 8007a86:	4299      	cmp	r1, r3
 8007a88:	d002      	beq.n	8007a90 <__swsetup_r+0x4c>
 8007a8a:	0028      	movs	r0, r5
 8007a8c:	f000 ff52 	bl	8008934 <_free_r>
 8007a90:	2300      	movs	r3, #0
 8007a92:	6363      	str	r3, [r4, #52]	@ 0x34
 8007a94:	2224      	movs	r2, #36	@ 0x24
 8007a96:	89a3      	ldrh	r3, [r4, #12]
 8007a98:	4393      	bics	r3, r2
 8007a9a:	81a3      	strh	r3, [r4, #12]
 8007a9c:	2300      	movs	r3, #0
 8007a9e:	6063      	str	r3, [r4, #4]
 8007aa0:	6923      	ldr	r3, [r4, #16]
 8007aa2:	6023      	str	r3, [r4, #0]
 8007aa4:	2308      	movs	r3, #8
 8007aa6:	89a2      	ldrh	r2, [r4, #12]
 8007aa8:	4313      	orrs	r3, r2
 8007aaa:	81a3      	strh	r3, [r4, #12]
 8007aac:	6923      	ldr	r3, [r4, #16]
 8007aae:	2b00      	cmp	r3, #0
 8007ab0:	d10b      	bne.n	8007aca <__swsetup_r+0x86>
 8007ab2:	21a0      	movs	r1, #160	@ 0xa0
 8007ab4:	2280      	movs	r2, #128	@ 0x80
 8007ab6:	89a3      	ldrh	r3, [r4, #12]
 8007ab8:	0089      	lsls	r1, r1, #2
 8007aba:	0092      	lsls	r2, r2, #2
 8007abc:	400b      	ands	r3, r1
 8007abe:	4293      	cmp	r3, r2
 8007ac0:	d003      	beq.n	8007aca <__swsetup_r+0x86>
 8007ac2:	0021      	movs	r1, r4
 8007ac4:	0028      	movs	r0, r5
 8007ac6:	f001 fdf7 	bl	80096b8 <__smakebuf_r>
 8007aca:	220c      	movs	r2, #12
 8007acc:	5ea3      	ldrsh	r3, [r4, r2]
 8007ace:	2101      	movs	r1, #1
 8007ad0:	001a      	movs	r2, r3
 8007ad2:	400a      	ands	r2, r1
 8007ad4:	420b      	tst	r3, r1
 8007ad6:	d00b      	beq.n	8007af0 <__swsetup_r+0xac>
 8007ad8:	2200      	movs	r2, #0
 8007ada:	60a2      	str	r2, [r4, #8]
 8007adc:	6962      	ldr	r2, [r4, #20]
 8007ade:	4252      	negs	r2, r2
 8007ae0:	61a2      	str	r2, [r4, #24]
 8007ae2:	2000      	movs	r0, #0
 8007ae4:	6922      	ldr	r2, [r4, #16]
 8007ae6:	4282      	cmp	r2, r0
 8007ae8:	d101      	bne.n	8007aee <__swsetup_r+0xaa>
 8007aea:	061a      	lsls	r2, r3, #24
 8007aec:	d4be      	bmi.n	8007a6c <__swsetup_r+0x28>
 8007aee:	bd70      	pop	{r4, r5, r6, pc}
 8007af0:	0799      	lsls	r1, r3, #30
 8007af2:	d400      	bmi.n	8007af6 <__swsetup_r+0xb2>
 8007af4:	6962      	ldr	r2, [r4, #20]
 8007af6:	60a2      	str	r2, [r4, #8]
 8007af8:	e7f3      	b.n	8007ae2 <__swsetup_r+0x9e>
 8007afa:	46c0      	nop			@ (mov r8, r8)
 8007afc:	2000001c 	.word	0x2000001c

08007b00 <memmove>:
 8007b00:	b510      	push	{r4, lr}
 8007b02:	4288      	cmp	r0, r1
 8007b04:	d902      	bls.n	8007b0c <memmove+0xc>
 8007b06:	188b      	adds	r3, r1, r2
 8007b08:	4298      	cmp	r0, r3
 8007b0a:	d308      	bcc.n	8007b1e <memmove+0x1e>
 8007b0c:	2300      	movs	r3, #0
 8007b0e:	429a      	cmp	r2, r3
 8007b10:	d007      	beq.n	8007b22 <memmove+0x22>
 8007b12:	5ccc      	ldrb	r4, [r1, r3]
 8007b14:	54c4      	strb	r4, [r0, r3]
 8007b16:	3301      	adds	r3, #1
 8007b18:	e7f9      	b.n	8007b0e <memmove+0xe>
 8007b1a:	5c8b      	ldrb	r3, [r1, r2]
 8007b1c:	5483      	strb	r3, [r0, r2]
 8007b1e:	3a01      	subs	r2, #1
 8007b20:	d2fb      	bcs.n	8007b1a <memmove+0x1a>
 8007b22:	bd10      	pop	{r4, pc}

08007b24 <memset>:
 8007b24:	0003      	movs	r3, r0
 8007b26:	1882      	adds	r2, r0, r2
 8007b28:	4293      	cmp	r3, r2
 8007b2a:	d100      	bne.n	8007b2e <memset+0xa>
 8007b2c:	4770      	bx	lr
 8007b2e:	7019      	strb	r1, [r3, #0]
 8007b30:	3301      	adds	r3, #1
 8007b32:	e7f9      	b.n	8007b28 <memset+0x4>

08007b34 <_localeconv_r>:
 8007b34:	4800      	ldr	r0, [pc, #0]	@ (8007b38 <_localeconv_r+0x4>)
 8007b36:	4770      	bx	lr
 8007b38:	2000015c 	.word	0x2000015c

08007b3c <_close_r>:
 8007b3c:	2300      	movs	r3, #0
 8007b3e:	b570      	push	{r4, r5, r6, lr}
 8007b40:	4d06      	ldr	r5, [pc, #24]	@ (8007b5c <_close_r+0x20>)
 8007b42:	0004      	movs	r4, r0
 8007b44:	0008      	movs	r0, r1
 8007b46:	602b      	str	r3, [r5, #0]
 8007b48:	f7fc f99f 	bl	8003e8a <_close>
 8007b4c:	1c43      	adds	r3, r0, #1
 8007b4e:	d103      	bne.n	8007b58 <_close_r+0x1c>
 8007b50:	682b      	ldr	r3, [r5, #0]
 8007b52:	2b00      	cmp	r3, #0
 8007b54:	d000      	beq.n	8007b58 <_close_r+0x1c>
 8007b56:	6023      	str	r3, [r4, #0]
 8007b58:	bd70      	pop	{r4, r5, r6, pc}
 8007b5a:	46c0      	nop			@ (mov r8, r8)
 8007b5c:	20000540 	.word	0x20000540

08007b60 <_lseek_r>:
 8007b60:	b570      	push	{r4, r5, r6, lr}
 8007b62:	0004      	movs	r4, r0
 8007b64:	0008      	movs	r0, r1
 8007b66:	0011      	movs	r1, r2
 8007b68:	001a      	movs	r2, r3
 8007b6a:	2300      	movs	r3, #0
 8007b6c:	4d05      	ldr	r5, [pc, #20]	@ (8007b84 <_lseek_r+0x24>)
 8007b6e:	602b      	str	r3, [r5, #0]
 8007b70:	f7fc f9ac 	bl	8003ecc <_lseek>
 8007b74:	1c43      	adds	r3, r0, #1
 8007b76:	d103      	bne.n	8007b80 <_lseek_r+0x20>
 8007b78:	682b      	ldr	r3, [r5, #0]
 8007b7a:	2b00      	cmp	r3, #0
 8007b7c:	d000      	beq.n	8007b80 <_lseek_r+0x20>
 8007b7e:	6023      	str	r3, [r4, #0]
 8007b80:	bd70      	pop	{r4, r5, r6, pc}
 8007b82:	46c0      	nop			@ (mov r8, r8)
 8007b84:	20000540 	.word	0x20000540

08007b88 <_read_r>:
 8007b88:	b570      	push	{r4, r5, r6, lr}
 8007b8a:	0004      	movs	r4, r0
 8007b8c:	0008      	movs	r0, r1
 8007b8e:	0011      	movs	r1, r2
 8007b90:	001a      	movs	r2, r3
 8007b92:	2300      	movs	r3, #0
 8007b94:	4d05      	ldr	r5, [pc, #20]	@ (8007bac <_read_r+0x24>)
 8007b96:	602b      	str	r3, [r5, #0]
 8007b98:	f7fc f93e 	bl	8003e18 <_read>
 8007b9c:	1c43      	adds	r3, r0, #1
 8007b9e:	d103      	bne.n	8007ba8 <_read_r+0x20>
 8007ba0:	682b      	ldr	r3, [r5, #0]
 8007ba2:	2b00      	cmp	r3, #0
 8007ba4:	d000      	beq.n	8007ba8 <_read_r+0x20>
 8007ba6:	6023      	str	r3, [r4, #0]
 8007ba8:	bd70      	pop	{r4, r5, r6, pc}
 8007baa:	46c0      	nop			@ (mov r8, r8)
 8007bac:	20000540 	.word	0x20000540

08007bb0 <_write_r>:
 8007bb0:	b570      	push	{r4, r5, r6, lr}
 8007bb2:	0004      	movs	r4, r0
 8007bb4:	0008      	movs	r0, r1
 8007bb6:	0011      	movs	r1, r2
 8007bb8:	001a      	movs	r2, r3
 8007bba:	2300      	movs	r3, #0
 8007bbc:	4d05      	ldr	r5, [pc, #20]	@ (8007bd4 <_write_r+0x24>)
 8007bbe:	602b      	str	r3, [r5, #0]
 8007bc0:	f7fc f947 	bl	8003e52 <_write>
 8007bc4:	1c43      	adds	r3, r0, #1
 8007bc6:	d103      	bne.n	8007bd0 <_write_r+0x20>
 8007bc8:	682b      	ldr	r3, [r5, #0]
 8007bca:	2b00      	cmp	r3, #0
 8007bcc:	d000      	beq.n	8007bd0 <_write_r+0x20>
 8007bce:	6023      	str	r3, [r4, #0]
 8007bd0:	bd70      	pop	{r4, r5, r6, pc}
 8007bd2:	46c0      	nop			@ (mov r8, r8)
 8007bd4:	20000540 	.word	0x20000540

08007bd8 <__errno>:
 8007bd8:	4b01      	ldr	r3, [pc, #4]	@ (8007be0 <__errno+0x8>)
 8007bda:	6818      	ldr	r0, [r3, #0]
 8007bdc:	4770      	bx	lr
 8007bde:	46c0      	nop			@ (mov r8, r8)
 8007be0:	2000001c 	.word	0x2000001c

08007be4 <__libc_init_array>:
 8007be4:	b570      	push	{r4, r5, r6, lr}
 8007be6:	2600      	movs	r6, #0
 8007be8:	4c0c      	ldr	r4, [pc, #48]	@ (8007c1c <__libc_init_array+0x38>)
 8007bea:	4d0d      	ldr	r5, [pc, #52]	@ (8007c20 <__libc_init_array+0x3c>)
 8007bec:	1b64      	subs	r4, r4, r5
 8007bee:	10a4      	asrs	r4, r4, #2
 8007bf0:	42a6      	cmp	r6, r4
 8007bf2:	d109      	bne.n	8007c08 <__libc_init_array+0x24>
 8007bf4:	2600      	movs	r6, #0
 8007bf6:	f001 feab 	bl	8009950 <_init>
 8007bfa:	4c0a      	ldr	r4, [pc, #40]	@ (8007c24 <__libc_init_array+0x40>)
 8007bfc:	4d0a      	ldr	r5, [pc, #40]	@ (8007c28 <__libc_init_array+0x44>)
 8007bfe:	1b64      	subs	r4, r4, r5
 8007c00:	10a4      	asrs	r4, r4, #2
 8007c02:	42a6      	cmp	r6, r4
 8007c04:	d105      	bne.n	8007c12 <__libc_init_array+0x2e>
 8007c06:	bd70      	pop	{r4, r5, r6, pc}
 8007c08:	00b3      	lsls	r3, r6, #2
 8007c0a:	58eb      	ldr	r3, [r5, r3]
 8007c0c:	4798      	blx	r3
 8007c0e:	3601      	adds	r6, #1
 8007c10:	e7ee      	b.n	8007bf0 <__libc_init_array+0xc>
 8007c12:	00b3      	lsls	r3, r6, #2
 8007c14:	58eb      	ldr	r3, [r5, r3]
 8007c16:	4798      	blx	r3
 8007c18:	3601      	adds	r6, #1
 8007c1a:	e7f2      	b.n	8007c02 <__libc_init_array+0x1e>
 8007c1c:	08009fc4 	.word	0x08009fc4
 8007c20:	08009fc4 	.word	0x08009fc4
 8007c24:	08009fc8 	.word	0x08009fc8
 8007c28:	08009fc4 	.word	0x08009fc4

08007c2c <__retarget_lock_init_recursive>:
 8007c2c:	4770      	bx	lr

08007c2e <__retarget_lock_acquire_recursive>:
 8007c2e:	4770      	bx	lr

08007c30 <__retarget_lock_release_recursive>:
 8007c30:	4770      	bx	lr

08007c32 <memchr>:
 8007c32:	b2c9      	uxtb	r1, r1
 8007c34:	1882      	adds	r2, r0, r2
 8007c36:	4290      	cmp	r0, r2
 8007c38:	d101      	bne.n	8007c3e <memchr+0xc>
 8007c3a:	2000      	movs	r0, #0
 8007c3c:	4770      	bx	lr
 8007c3e:	7803      	ldrb	r3, [r0, #0]
 8007c40:	428b      	cmp	r3, r1
 8007c42:	d0fb      	beq.n	8007c3c <memchr+0xa>
 8007c44:	3001      	adds	r0, #1
 8007c46:	e7f6      	b.n	8007c36 <memchr+0x4>

08007c48 <quorem>:
 8007c48:	b5f0      	push	{r4, r5, r6, r7, lr}
 8007c4a:	6903      	ldr	r3, [r0, #16]
 8007c4c:	690c      	ldr	r4, [r1, #16]
 8007c4e:	b089      	sub	sp, #36	@ 0x24
 8007c50:	9003      	str	r0, [sp, #12]
 8007c52:	9106      	str	r1, [sp, #24]
 8007c54:	2000      	movs	r0, #0
 8007c56:	42a3      	cmp	r3, r4
 8007c58:	db63      	blt.n	8007d22 <quorem+0xda>
 8007c5a:	000b      	movs	r3, r1
 8007c5c:	3c01      	subs	r4, #1
 8007c5e:	3314      	adds	r3, #20
 8007c60:	00a5      	lsls	r5, r4, #2
 8007c62:	9304      	str	r3, [sp, #16]
 8007c64:	195b      	adds	r3, r3, r5
 8007c66:	9305      	str	r3, [sp, #20]
 8007c68:	9b03      	ldr	r3, [sp, #12]
 8007c6a:	3314      	adds	r3, #20
 8007c6c:	9301      	str	r3, [sp, #4]
 8007c6e:	195d      	adds	r5, r3, r5
 8007c70:	9b05      	ldr	r3, [sp, #20]
 8007c72:	682f      	ldr	r7, [r5, #0]
 8007c74:	681e      	ldr	r6, [r3, #0]
 8007c76:	0038      	movs	r0, r7
 8007c78:	3601      	adds	r6, #1
 8007c7a:	0031      	movs	r1, r6
 8007c7c:	f7f8 fa68 	bl	8000150 <__udivsi3>
 8007c80:	9002      	str	r0, [sp, #8]
 8007c82:	42b7      	cmp	r7, r6
 8007c84:	d327      	bcc.n	8007cd6 <quorem+0x8e>
 8007c86:	9b04      	ldr	r3, [sp, #16]
 8007c88:	2700      	movs	r7, #0
 8007c8a:	469c      	mov	ip, r3
 8007c8c:	9e01      	ldr	r6, [sp, #4]
 8007c8e:	9707      	str	r7, [sp, #28]
 8007c90:	4662      	mov	r2, ip
 8007c92:	ca08      	ldmia	r2!, {r3}
 8007c94:	6830      	ldr	r0, [r6, #0]
 8007c96:	4694      	mov	ip, r2
 8007c98:	9a02      	ldr	r2, [sp, #8]
 8007c9a:	b299      	uxth	r1, r3
 8007c9c:	4351      	muls	r1, r2
 8007c9e:	0c1b      	lsrs	r3, r3, #16
 8007ca0:	4353      	muls	r3, r2
 8007ca2:	19c9      	adds	r1, r1, r7
 8007ca4:	0c0a      	lsrs	r2, r1, #16
 8007ca6:	189b      	adds	r3, r3, r2
 8007ca8:	b289      	uxth	r1, r1
 8007caa:	b282      	uxth	r2, r0
 8007cac:	1a52      	subs	r2, r2, r1
 8007cae:	9907      	ldr	r1, [sp, #28]
 8007cb0:	0c1f      	lsrs	r7, r3, #16
 8007cb2:	1852      	adds	r2, r2, r1
 8007cb4:	0c00      	lsrs	r0, r0, #16
 8007cb6:	b29b      	uxth	r3, r3
 8007cb8:	1411      	asrs	r1, r2, #16
 8007cba:	1ac3      	subs	r3, r0, r3
 8007cbc:	185b      	adds	r3, r3, r1
 8007cbe:	1419      	asrs	r1, r3, #16
 8007cc0:	b292      	uxth	r2, r2
 8007cc2:	041b      	lsls	r3, r3, #16
 8007cc4:	431a      	orrs	r2, r3
 8007cc6:	9b05      	ldr	r3, [sp, #20]
 8007cc8:	9107      	str	r1, [sp, #28]
 8007cca:	c604      	stmia	r6!, {r2}
 8007ccc:	4563      	cmp	r3, ip
 8007cce:	d2df      	bcs.n	8007c90 <quorem+0x48>
 8007cd0:	682b      	ldr	r3, [r5, #0]
 8007cd2:	2b00      	cmp	r3, #0
 8007cd4:	d02b      	beq.n	8007d2e <quorem+0xe6>
 8007cd6:	9906      	ldr	r1, [sp, #24]
 8007cd8:	9803      	ldr	r0, [sp, #12]
 8007cda:	f001 f9b7 	bl	800904c <__mcmp>
 8007cde:	2800      	cmp	r0, #0
 8007ce0:	db1e      	blt.n	8007d20 <quorem+0xd8>
 8007ce2:	2600      	movs	r6, #0
 8007ce4:	9d01      	ldr	r5, [sp, #4]
 8007ce6:	9904      	ldr	r1, [sp, #16]
 8007ce8:	c901      	ldmia	r1!, {r0}
 8007cea:	682b      	ldr	r3, [r5, #0]
 8007cec:	b287      	uxth	r7, r0
 8007cee:	b29a      	uxth	r2, r3
 8007cf0:	1bd2      	subs	r2, r2, r7
 8007cf2:	1992      	adds	r2, r2, r6
 8007cf4:	0c00      	lsrs	r0, r0, #16
 8007cf6:	0c1b      	lsrs	r3, r3, #16
 8007cf8:	1a1b      	subs	r3, r3, r0
 8007cfa:	1410      	asrs	r0, r2, #16
 8007cfc:	181b      	adds	r3, r3, r0
 8007cfe:	141e      	asrs	r6, r3, #16
 8007d00:	b292      	uxth	r2, r2
 8007d02:	041b      	lsls	r3, r3, #16
 8007d04:	431a      	orrs	r2, r3
 8007d06:	9b05      	ldr	r3, [sp, #20]
 8007d08:	c504      	stmia	r5!, {r2}
 8007d0a:	428b      	cmp	r3, r1
 8007d0c:	d2ec      	bcs.n	8007ce8 <quorem+0xa0>
 8007d0e:	9a01      	ldr	r2, [sp, #4]
 8007d10:	00a3      	lsls	r3, r4, #2
 8007d12:	18d3      	adds	r3, r2, r3
 8007d14:	681a      	ldr	r2, [r3, #0]
 8007d16:	2a00      	cmp	r2, #0
 8007d18:	d014      	beq.n	8007d44 <quorem+0xfc>
 8007d1a:	9b02      	ldr	r3, [sp, #8]
 8007d1c:	3301      	adds	r3, #1
 8007d1e:	9302      	str	r3, [sp, #8]
 8007d20:	9802      	ldr	r0, [sp, #8]
 8007d22:	b009      	add	sp, #36	@ 0x24
 8007d24:	bdf0      	pop	{r4, r5, r6, r7, pc}
 8007d26:	682b      	ldr	r3, [r5, #0]
 8007d28:	2b00      	cmp	r3, #0
 8007d2a:	d104      	bne.n	8007d36 <quorem+0xee>
 8007d2c:	3c01      	subs	r4, #1
 8007d2e:	9b01      	ldr	r3, [sp, #4]
 8007d30:	3d04      	subs	r5, #4
 8007d32:	42ab      	cmp	r3, r5
 8007d34:	d3f7      	bcc.n	8007d26 <quorem+0xde>
 8007d36:	9b03      	ldr	r3, [sp, #12]
 8007d38:	611c      	str	r4, [r3, #16]
 8007d3a:	e7cc      	b.n	8007cd6 <quorem+0x8e>
 8007d3c:	681a      	ldr	r2, [r3, #0]
 8007d3e:	2a00      	cmp	r2, #0
 8007d40:	d104      	bne.n	8007d4c <quorem+0x104>
 8007d42:	3c01      	subs	r4, #1
 8007d44:	9a01      	ldr	r2, [sp, #4]
 8007d46:	3b04      	subs	r3, #4
 8007d48:	429a      	cmp	r2, r3
 8007d4a:	d3f7      	bcc.n	8007d3c <quorem+0xf4>
 8007d4c:	9b03      	ldr	r3, [sp, #12]
 8007d4e:	611c      	str	r4, [r3, #16]
 8007d50:	e7e3      	b.n	8007d1a <quorem+0xd2>
	...

08007d54 <_dtoa_r>:
 8007d54:	b5f0      	push	{r4, r5, r6, r7, lr}
 8007d56:	0014      	movs	r4, r2
 8007d58:	001d      	movs	r5, r3
 8007d5a:	69c6      	ldr	r6, [r0, #28]
 8007d5c:	b09d      	sub	sp, #116	@ 0x74
 8007d5e:	940a      	str	r4, [sp, #40]	@ 0x28
 8007d60:	950b      	str	r5, [sp, #44]	@ 0x2c
 8007d62:	9f25      	ldr	r7, [sp, #148]	@ 0x94
 8007d64:	9003      	str	r0, [sp, #12]
 8007d66:	2e00      	cmp	r6, #0
 8007d68:	d10f      	bne.n	8007d8a <_dtoa_r+0x36>
 8007d6a:	2010      	movs	r0, #16
 8007d6c:	f000 fe2c 	bl	80089c8 <malloc>
 8007d70:	9b03      	ldr	r3, [sp, #12]
 8007d72:	1e02      	subs	r2, r0, #0
 8007d74:	61d8      	str	r0, [r3, #28]
 8007d76:	d104      	bne.n	8007d82 <_dtoa_r+0x2e>
 8007d78:	21ef      	movs	r1, #239	@ 0xef
 8007d7a:	4bc7      	ldr	r3, [pc, #796]	@ (8008098 <_dtoa_r+0x344>)
 8007d7c:	48c7      	ldr	r0, [pc, #796]	@ (800809c <_dtoa_r+0x348>)
 8007d7e:	f001 fd1d 	bl	80097bc <__assert_func>
 8007d82:	6046      	str	r6, [r0, #4]
 8007d84:	6086      	str	r6, [r0, #8]
 8007d86:	6006      	str	r6, [r0, #0]
 8007d88:	60c6      	str	r6, [r0, #12]
 8007d8a:	9b03      	ldr	r3, [sp, #12]
 8007d8c:	69db      	ldr	r3, [r3, #28]
 8007d8e:	6819      	ldr	r1, [r3, #0]
 8007d90:	2900      	cmp	r1, #0
 8007d92:	d00b      	beq.n	8007dac <_dtoa_r+0x58>
 8007d94:	685a      	ldr	r2, [r3, #4]
 8007d96:	2301      	movs	r3, #1
 8007d98:	4093      	lsls	r3, r2
 8007d9a:	604a      	str	r2, [r1, #4]
 8007d9c:	608b      	str	r3, [r1, #8]
 8007d9e:	9803      	ldr	r0, [sp, #12]
 8007da0:	f000 ff12 	bl	8008bc8 <_Bfree>
 8007da4:	2200      	movs	r2, #0
 8007da6:	9b03      	ldr	r3, [sp, #12]
 8007da8:	69db      	ldr	r3, [r3, #28]
 8007daa:	601a      	str	r2, [r3, #0]
 8007dac:	2d00      	cmp	r5, #0
 8007dae:	da1e      	bge.n	8007dee <_dtoa_r+0x9a>
 8007db0:	2301      	movs	r3, #1
 8007db2:	603b      	str	r3, [r7, #0]
 8007db4:	006b      	lsls	r3, r5, #1
 8007db6:	085b      	lsrs	r3, r3, #1
 8007db8:	930b      	str	r3, [sp, #44]	@ 0x2c
 8007dba:	9f0b      	ldr	r7, [sp, #44]	@ 0x2c
 8007dbc:	4bb8      	ldr	r3, [pc, #736]	@ (80080a0 <_dtoa_r+0x34c>)
 8007dbe:	4ab8      	ldr	r2, [pc, #736]	@ (80080a0 <_dtoa_r+0x34c>)
 8007dc0:	403b      	ands	r3, r7
 8007dc2:	4293      	cmp	r3, r2
 8007dc4:	d116      	bne.n	8007df4 <_dtoa_r+0xa0>
 8007dc6:	4bb7      	ldr	r3, [pc, #732]	@ (80080a4 <_dtoa_r+0x350>)
 8007dc8:	9a24      	ldr	r2, [sp, #144]	@ 0x90
 8007dca:	6013      	str	r3, [r2, #0]
 8007dcc:	033b      	lsls	r3, r7, #12
 8007dce:	0b1b      	lsrs	r3, r3, #12
 8007dd0:	4323      	orrs	r3, r4
 8007dd2:	d101      	bne.n	8007dd8 <_dtoa_r+0x84>
 8007dd4:	f000 fd80 	bl	80088d8 <_dtoa_r+0xb84>
 8007dd8:	4bb3      	ldr	r3, [pc, #716]	@ (80080a8 <_dtoa_r+0x354>)
 8007dda:	9a26      	ldr	r2, [sp, #152]	@ 0x98
 8007ddc:	9308      	str	r3, [sp, #32]
 8007dde:	2a00      	cmp	r2, #0
 8007de0:	d002      	beq.n	8007de8 <_dtoa_r+0x94>
 8007de2:	4bb2      	ldr	r3, [pc, #712]	@ (80080ac <_dtoa_r+0x358>)
 8007de4:	9a26      	ldr	r2, [sp, #152]	@ 0x98
 8007de6:	6013      	str	r3, [r2, #0]
 8007de8:	9808      	ldr	r0, [sp, #32]
 8007dea:	b01d      	add	sp, #116	@ 0x74
 8007dec:	bdf0      	pop	{r4, r5, r6, r7, pc}
 8007dee:	2300      	movs	r3, #0
 8007df0:	603b      	str	r3, [r7, #0]
 8007df2:	e7e2      	b.n	8007dba <_dtoa_r+0x66>
 8007df4:	9a0a      	ldr	r2, [sp, #40]	@ 0x28
 8007df6:	9b0b      	ldr	r3, [sp, #44]	@ 0x2c
 8007df8:	9212      	str	r2, [sp, #72]	@ 0x48
 8007dfa:	9313      	str	r3, [sp, #76]	@ 0x4c
 8007dfc:	9812      	ldr	r0, [sp, #72]	@ 0x48
 8007dfe:	9913      	ldr	r1, [sp, #76]	@ 0x4c
 8007e00:	2200      	movs	r2, #0
 8007e02:	2300      	movs	r3, #0
 8007e04:	f7f8 fb2a 	bl	800045c <__aeabi_dcmpeq>
 8007e08:	1e06      	subs	r6, r0, #0
 8007e0a:	d00b      	beq.n	8007e24 <_dtoa_r+0xd0>
 8007e0c:	2301      	movs	r3, #1
 8007e0e:	9a24      	ldr	r2, [sp, #144]	@ 0x90
 8007e10:	6013      	str	r3, [r2, #0]
 8007e12:	9b26      	ldr	r3, [sp, #152]	@ 0x98
 8007e14:	2b00      	cmp	r3, #0
 8007e16:	d002      	beq.n	8007e1e <_dtoa_r+0xca>
 8007e18:	4ba5      	ldr	r3, [pc, #660]	@ (80080b0 <_dtoa_r+0x35c>)
 8007e1a:	9a26      	ldr	r2, [sp, #152]	@ 0x98
 8007e1c:	6013      	str	r3, [r2, #0]
 8007e1e:	4ba5      	ldr	r3, [pc, #660]	@ (80080b4 <_dtoa_r+0x360>)
 8007e20:	9308      	str	r3, [sp, #32]
 8007e22:	e7e1      	b.n	8007de8 <_dtoa_r+0x94>
 8007e24:	ab1a      	add	r3, sp, #104	@ 0x68
 8007e26:	9301      	str	r3, [sp, #4]
 8007e28:	ab1b      	add	r3, sp, #108	@ 0x6c
 8007e2a:	9300      	str	r3, [sp, #0]
 8007e2c:	9803      	ldr	r0, [sp, #12]
 8007e2e:	9a12      	ldr	r2, [sp, #72]	@ 0x48
 8007e30:	9b13      	ldr	r3, [sp, #76]	@ 0x4c
 8007e32:	f001 f9c1 	bl	80091b8 <__d2b>
 8007e36:	007a      	lsls	r2, r7, #1
 8007e38:	9005      	str	r0, [sp, #20]
 8007e3a:	0d52      	lsrs	r2, r2, #21
 8007e3c:	d100      	bne.n	8007e40 <_dtoa_r+0xec>
 8007e3e:	e07b      	b.n	8007f38 <_dtoa_r+0x1e4>
 8007e40:	9b13      	ldr	r3, [sp, #76]	@ 0x4c
 8007e42:	9618      	str	r6, [sp, #96]	@ 0x60
 8007e44:	0319      	lsls	r1, r3, #12
 8007e46:	4b9c      	ldr	r3, [pc, #624]	@ (80080b8 <_dtoa_r+0x364>)
 8007e48:	0b09      	lsrs	r1, r1, #12
 8007e4a:	430b      	orrs	r3, r1
 8007e4c:	499b      	ldr	r1, [pc, #620]	@ (80080bc <_dtoa_r+0x368>)
 8007e4e:	1857      	adds	r7, r2, r1
 8007e50:	9812      	ldr	r0, [sp, #72]	@ 0x48
 8007e52:	9913      	ldr	r1, [sp, #76]	@ 0x4c
 8007e54:	0019      	movs	r1, r3
 8007e56:	2200      	movs	r2, #0
 8007e58:	4b99      	ldr	r3, [pc, #612]	@ (80080c0 <_dtoa_r+0x36c>)
 8007e5a:	f7f9 feff 	bl	8001c5c <__aeabi_dsub>
 8007e5e:	4a99      	ldr	r2, [pc, #612]	@ (80080c4 <_dtoa_r+0x370>)
 8007e60:	4b99      	ldr	r3, [pc, #612]	@ (80080c8 <_dtoa_r+0x374>)
 8007e62:	f7f9 fc15 	bl	8001690 <__aeabi_dmul>
 8007e66:	4a99      	ldr	r2, [pc, #612]	@ (80080cc <_dtoa_r+0x378>)
 8007e68:	4b99      	ldr	r3, [pc, #612]	@ (80080d0 <_dtoa_r+0x37c>)
 8007e6a:	f7f8 fc11 	bl	8000690 <__aeabi_dadd>
 8007e6e:	0004      	movs	r4, r0
 8007e70:	0038      	movs	r0, r7
 8007e72:	000d      	movs	r5, r1
 8007e74:	f7fa fb5a 	bl	800252c <__aeabi_i2d>
 8007e78:	4a96      	ldr	r2, [pc, #600]	@ (80080d4 <_dtoa_r+0x380>)
 8007e7a:	4b97      	ldr	r3, [pc, #604]	@ (80080d8 <_dtoa_r+0x384>)
 8007e7c:	f7f9 fc08 	bl	8001690 <__aeabi_dmul>
 8007e80:	0002      	movs	r2, r0
 8007e82:	000b      	movs	r3, r1
 8007e84:	0020      	movs	r0, r4
 8007e86:	0029      	movs	r1, r5
 8007e88:	f7f8 fc02 	bl	8000690 <__aeabi_dadd>
 8007e8c:	0004      	movs	r4, r0
 8007e8e:	000d      	movs	r5, r1
 8007e90:	f7fa fb10 	bl	80024b4 <__aeabi_d2iz>
 8007e94:	2200      	movs	r2, #0
 8007e96:	9004      	str	r0, [sp, #16]
 8007e98:	2300      	movs	r3, #0
 8007e9a:	0020      	movs	r0, r4
 8007e9c:	0029      	movs	r1, r5
 8007e9e:	f7f8 fae3 	bl	8000468 <__aeabi_dcmplt>
 8007ea2:	2800      	cmp	r0, #0
 8007ea4:	d00b      	beq.n	8007ebe <_dtoa_r+0x16a>
 8007ea6:	9804      	ldr	r0, [sp, #16]
 8007ea8:	f7fa fb40 	bl	800252c <__aeabi_i2d>
 8007eac:	002b      	movs	r3, r5
 8007eae:	0022      	movs	r2, r4
 8007eb0:	f7f8 fad4 	bl	800045c <__aeabi_dcmpeq>
 8007eb4:	4243      	negs	r3, r0
 8007eb6:	4158      	adcs	r0, r3
 8007eb8:	9b04      	ldr	r3, [sp, #16]
 8007eba:	1a1b      	subs	r3, r3, r0
 8007ebc:	9304      	str	r3, [sp, #16]
 8007ebe:	2301      	movs	r3, #1
 8007ec0:	9315      	str	r3, [sp, #84]	@ 0x54
 8007ec2:	9b04      	ldr	r3, [sp, #16]
 8007ec4:	2b16      	cmp	r3, #22
 8007ec6:	d810      	bhi.n	8007eea <_dtoa_r+0x196>
 8007ec8:	9812      	ldr	r0, [sp, #72]	@ 0x48
 8007eca:	9913      	ldr	r1, [sp, #76]	@ 0x4c
 8007ecc:	9a04      	ldr	r2, [sp, #16]
 8007ece:	4b83      	ldr	r3, [pc, #524]	@ (80080dc <_dtoa_r+0x388>)
 8007ed0:	00d2      	lsls	r2, r2, #3
 8007ed2:	189b      	adds	r3, r3, r2
 8007ed4:	681a      	ldr	r2, [r3, #0]
 8007ed6:	685b      	ldr	r3, [r3, #4]
 8007ed8:	f7f8 fac6 	bl	8000468 <__aeabi_dcmplt>
 8007edc:	2800      	cmp	r0, #0
 8007ede:	d047      	beq.n	8007f70 <_dtoa_r+0x21c>
 8007ee0:	9b04      	ldr	r3, [sp, #16]
 8007ee2:	3b01      	subs	r3, #1
 8007ee4:	9304      	str	r3, [sp, #16]
 8007ee6:	2300      	movs	r3, #0
 8007ee8:	9315      	str	r3, [sp, #84]	@ 0x54
 8007eea:	2200      	movs	r2, #0
 8007eec:	9b1a      	ldr	r3, [sp, #104]	@ 0x68
 8007eee:	9206      	str	r2, [sp, #24]
 8007ef0:	1bdb      	subs	r3, r3, r7
 8007ef2:	1e5a      	subs	r2, r3, #1
 8007ef4:	d53e      	bpl.n	8007f74 <_dtoa_r+0x220>
 8007ef6:	2201      	movs	r2, #1
 8007ef8:	1ad3      	subs	r3, r2, r3
 8007efa:	9306      	str	r3, [sp, #24]
 8007efc:	2300      	movs	r3, #0
 8007efe:	930d      	str	r3, [sp, #52]	@ 0x34
 8007f00:	9b04      	ldr	r3, [sp, #16]
 8007f02:	2b00      	cmp	r3, #0
 8007f04:	db38      	blt.n	8007f78 <_dtoa_r+0x224>
 8007f06:	9a04      	ldr	r2, [sp, #16]
 8007f08:	9b0d      	ldr	r3, [sp, #52]	@ 0x34
 8007f0a:	4694      	mov	ip, r2
 8007f0c:	4463      	add	r3, ip
 8007f0e:	930d      	str	r3, [sp, #52]	@ 0x34
 8007f10:	2300      	movs	r3, #0
 8007f12:	9214      	str	r2, [sp, #80]	@ 0x50
 8007f14:	930f      	str	r3, [sp, #60]	@ 0x3c
 8007f16:	9b22      	ldr	r3, [sp, #136]	@ 0x88
 8007f18:	2401      	movs	r4, #1
 8007f1a:	2b09      	cmp	r3, #9
 8007f1c:	d862      	bhi.n	8007fe4 <_dtoa_r+0x290>
 8007f1e:	2b05      	cmp	r3, #5
 8007f20:	dd02      	ble.n	8007f28 <_dtoa_r+0x1d4>
 8007f22:	2400      	movs	r4, #0
 8007f24:	3b04      	subs	r3, #4
 8007f26:	9322      	str	r3, [sp, #136]	@ 0x88
 8007f28:	9b22      	ldr	r3, [sp, #136]	@ 0x88
 8007f2a:	1e98      	subs	r0, r3, #2
 8007f2c:	2803      	cmp	r0, #3
 8007f2e:	d863      	bhi.n	8007ff8 <_dtoa_r+0x2a4>
 8007f30:	f7f8 f8fa 	bl	8000128 <__gnu_thumb1_case_uqi>
 8007f34:	2b385654 	.word	0x2b385654
 8007f38:	9b1b      	ldr	r3, [sp, #108]	@ 0x6c
 8007f3a:	9e1a      	ldr	r6, [sp, #104]	@ 0x68
 8007f3c:	18f6      	adds	r6, r6, r3
 8007f3e:	4b68      	ldr	r3, [pc, #416]	@ (80080e0 <_dtoa_r+0x38c>)
 8007f40:	18f2      	adds	r2, r6, r3
 8007f42:	2a20      	cmp	r2, #32
 8007f44:	dd0f      	ble.n	8007f66 <_dtoa_r+0x212>
 8007f46:	2340      	movs	r3, #64	@ 0x40
 8007f48:	1a9b      	subs	r3, r3, r2
 8007f4a:	409f      	lsls	r7, r3
 8007f4c:	4b65      	ldr	r3, [pc, #404]	@ (80080e4 <_dtoa_r+0x390>)
 8007f4e:	0038      	movs	r0, r7
 8007f50:	18f3      	adds	r3, r6, r3
 8007f52:	40dc      	lsrs	r4, r3
 8007f54:	4320      	orrs	r0, r4
 8007f56:	f7fa fb17 	bl	8002588 <__aeabi_ui2d>
 8007f5a:	2201      	movs	r2, #1
 8007f5c:	4b62      	ldr	r3, [pc, #392]	@ (80080e8 <_dtoa_r+0x394>)
 8007f5e:	1e77      	subs	r7, r6, #1
 8007f60:	18cb      	adds	r3, r1, r3
 8007f62:	9218      	str	r2, [sp, #96]	@ 0x60
 8007f64:	e776      	b.n	8007e54 <_dtoa_r+0x100>
 8007f66:	2320      	movs	r3, #32
 8007f68:	0020      	movs	r0, r4
 8007f6a:	1a9b      	subs	r3, r3, r2
 8007f6c:	4098      	lsls	r0, r3
 8007f6e:	e7f2      	b.n	8007f56 <_dtoa_r+0x202>
 8007f70:	9015      	str	r0, [sp, #84]	@ 0x54
 8007f72:	e7ba      	b.n	8007eea <_dtoa_r+0x196>
 8007f74:	920d      	str	r2, [sp, #52]	@ 0x34
 8007f76:	e7c3      	b.n	8007f00 <_dtoa_r+0x1ac>
 8007f78:	9b06      	ldr	r3, [sp, #24]
 8007f7a:	9a04      	ldr	r2, [sp, #16]
 8007f7c:	1a9b      	subs	r3, r3, r2
 8007f7e:	9306      	str	r3, [sp, #24]
 8007f80:	4253      	negs	r3, r2
 8007f82:	930f      	str	r3, [sp, #60]	@ 0x3c
 8007f84:	2300      	movs	r3, #0
 8007f86:	9314      	str	r3, [sp, #80]	@ 0x50
 8007f88:	e7c5      	b.n	8007f16 <_dtoa_r+0x1c2>
 8007f8a:	2301      	movs	r3, #1
 8007f8c:	9a23      	ldr	r2, [sp, #140]	@ 0x8c
 8007f8e:	9310      	str	r3, [sp, #64]	@ 0x40
 8007f90:	4694      	mov	ip, r2
 8007f92:	9b04      	ldr	r3, [sp, #16]
 8007f94:	4463      	add	r3, ip
 8007f96:	930e      	str	r3, [sp, #56]	@ 0x38
 8007f98:	3301      	adds	r3, #1
 8007f9a:	9309      	str	r3, [sp, #36]	@ 0x24
 8007f9c:	2b00      	cmp	r3, #0
 8007f9e:	dc08      	bgt.n	8007fb2 <_dtoa_r+0x25e>
 8007fa0:	2301      	movs	r3, #1
 8007fa2:	e006      	b.n	8007fb2 <_dtoa_r+0x25e>
 8007fa4:	2301      	movs	r3, #1
 8007fa6:	9310      	str	r3, [sp, #64]	@ 0x40
 8007fa8:	9b23      	ldr	r3, [sp, #140]	@ 0x8c
 8007faa:	2b00      	cmp	r3, #0
 8007fac:	dd28      	ble.n	8008000 <_dtoa_r+0x2ac>
 8007fae:	930e      	str	r3, [sp, #56]	@ 0x38
 8007fb0:	9309      	str	r3, [sp, #36]	@ 0x24
 8007fb2:	9a03      	ldr	r2, [sp, #12]
 8007fb4:	2100      	movs	r1, #0
 8007fb6:	69d0      	ldr	r0, [r2, #28]
 8007fb8:	2204      	movs	r2, #4
 8007fba:	0015      	movs	r5, r2
 8007fbc:	3514      	adds	r5, #20
 8007fbe:	429d      	cmp	r5, r3
 8007fc0:	d923      	bls.n	800800a <_dtoa_r+0x2b6>
 8007fc2:	6041      	str	r1, [r0, #4]
 8007fc4:	9803      	ldr	r0, [sp, #12]
 8007fc6:	f000 fdbb 	bl	8008b40 <_Balloc>
 8007fca:	9008      	str	r0, [sp, #32]
 8007fcc:	2800      	cmp	r0, #0
 8007fce:	d11f      	bne.n	8008010 <_dtoa_r+0x2bc>
 8007fd0:	21b0      	movs	r1, #176	@ 0xb0
 8007fd2:	4b46      	ldr	r3, [pc, #280]	@ (80080ec <_dtoa_r+0x398>)
 8007fd4:	4831      	ldr	r0, [pc, #196]	@ (800809c <_dtoa_r+0x348>)
 8007fd6:	9a08      	ldr	r2, [sp, #32]
 8007fd8:	31ff      	adds	r1, #255	@ 0xff
 8007fda:	e6d0      	b.n	8007d7e <_dtoa_r+0x2a>
 8007fdc:	2300      	movs	r3, #0
 8007fde:	e7e2      	b.n	8007fa6 <_dtoa_r+0x252>
 8007fe0:	2300      	movs	r3, #0
 8007fe2:	e7d3      	b.n	8007f8c <_dtoa_r+0x238>
 8007fe4:	2300      	movs	r3, #0
 8007fe6:	9410      	str	r4, [sp, #64]	@ 0x40
 8007fe8:	9322      	str	r3, [sp, #136]	@ 0x88
 8007fea:	3b01      	subs	r3, #1
 8007fec:	2200      	movs	r2, #0
 8007fee:	930e      	str	r3, [sp, #56]	@ 0x38
 8007ff0:	9309      	str	r3, [sp, #36]	@ 0x24
 8007ff2:	3313      	adds	r3, #19
 8007ff4:	9223      	str	r2, [sp, #140]	@ 0x8c
 8007ff6:	e7dc      	b.n	8007fb2 <_dtoa_r+0x25e>
 8007ff8:	2301      	movs	r3, #1
 8007ffa:	9310      	str	r3, [sp, #64]	@ 0x40
 8007ffc:	3b02      	subs	r3, #2
 8007ffe:	e7f5      	b.n	8007fec <_dtoa_r+0x298>
 8008000:	2301      	movs	r3, #1
 8008002:	001a      	movs	r2, r3
 8008004:	930e      	str	r3, [sp, #56]	@ 0x38
 8008006:	9309      	str	r3, [sp, #36]	@ 0x24
 8008008:	e7f4      	b.n	8007ff4 <_dtoa_r+0x2a0>
 800800a:	3101      	adds	r1, #1
 800800c:	0052      	lsls	r2, r2, #1
 800800e:	e7d4      	b.n	8007fba <_dtoa_r+0x266>
 8008010:	9b03      	ldr	r3, [sp, #12]
 8008012:	9a08      	ldr	r2, [sp, #32]
 8008014:	69db      	ldr	r3, [r3, #28]
 8008016:	601a      	str	r2, [r3, #0]
 8008018:	9b09      	ldr	r3, [sp, #36]	@ 0x24
 800801a:	2b0e      	cmp	r3, #14
 800801c:	d900      	bls.n	8008020 <_dtoa_r+0x2cc>
 800801e:	e0d6      	b.n	80081ce <_dtoa_r+0x47a>
 8008020:	2c00      	cmp	r4, #0
 8008022:	d100      	bne.n	8008026 <_dtoa_r+0x2d2>
 8008024:	e0d3      	b.n	80081ce <_dtoa_r+0x47a>
 8008026:	9b04      	ldr	r3, [sp, #16]
 8008028:	2b00      	cmp	r3, #0
 800802a:	dd63      	ble.n	80080f4 <_dtoa_r+0x3a0>
 800802c:	210f      	movs	r1, #15
 800802e:	9a04      	ldr	r2, [sp, #16]
 8008030:	4b2a      	ldr	r3, [pc, #168]	@ (80080dc <_dtoa_r+0x388>)
 8008032:	400a      	ands	r2, r1
 8008034:	00d2      	lsls	r2, r2, #3
 8008036:	189b      	adds	r3, r3, r2
 8008038:	681e      	ldr	r6, [r3, #0]
 800803a:	685f      	ldr	r7, [r3, #4]
 800803c:	9b04      	ldr	r3, [sp, #16]
 800803e:	2402      	movs	r4, #2
 8008040:	111d      	asrs	r5, r3, #4
 8008042:	05db      	lsls	r3, r3, #23
 8008044:	d50a      	bpl.n	800805c <_dtoa_r+0x308>
 8008046:	4b2a      	ldr	r3, [pc, #168]	@ (80080f0 <_dtoa_r+0x39c>)
 8008048:	400d      	ands	r5, r1
 800804a:	6a1a      	ldr	r2, [r3, #32]
 800804c:	6a5b      	ldr	r3, [r3, #36]	@ 0x24
 800804e:	9812      	ldr	r0, [sp, #72]	@ 0x48
 8008050:	9913      	ldr	r1, [sp, #76]	@ 0x4c
 8008052:	f7f8 fee3 	bl	8000e1c <__aeabi_ddiv>
 8008056:	900a      	str	r0, [sp, #40]	@ 0x28
 8008058:	910b      	str	r1, [sp, #44]	@ 0x2c
 800805a:	3401      	adds	r4, #1
 800805c:	4b24      	ldr	r3, [pc, #144]	@ (80080f0 <_dtoa_r+0x39c>)
 800805e:	930c      	str	r3, [sp, #48]	@ 0x30
 8008060:	2d00      	cmp	r5, #0
 8008062:	d108      	bne.n	8008076 <_dtoa_r+0x322>
 8008064:	980a      	ldr	r0, [sp, #40]	@ 0x28
 8008066:	990b      	ldr	r1, [sp, #44]	@ 0x2c
 8008068:	0032      	movs	r2, r6
 800806a:	003b      	movs	r3, r7
 800806c:	f7f8 fed6 	bl	8000e1c <__aeabi_ddiv>
 8008070:	900a      	str	r0, [sp, #40]	@ 0x28
 8008072:	910b      	str	r1, [sp, #44]	@ 0x2c
 8008074:	e059      	b.n	800812a <_dtoa_r+0x3d6>
 8008076:	2301      	movs	r3, #1
 8008078:	421d      	tst	r5, r3
 800807a:	d009      	beq.n	8008090 <_dtoa_r+0x33c>
 800807c:	18e4      	adds	r4, r4, r3
 800807e:	9b0c      	ldr	r3, [sp, #48]	@ 0x30
 8008080:	0030      	movs	r0, r6
 8008082:	681a      	ldr	r2, [r3, #0]
 8008084:	685b      	ldr	r3, [r3, #4]
 8008086:	0039      	movs	r1, r7
 8008088:	f7f9 fb02 	bl	8001690 <__aeabi_dmul>
 800808c:	0006      	movs	r6, r0
 800808e:	000f      	movs	r7, r1
 8008090:	9b0c      	ldr	r3, [sp, #48]	@ 0x30
 8008092:	106d      	asrs	r5, r5, #1
 8008094:	3308      	adds	r3, #8
 8008096:	e7e2      	b.n	800805e <_dtoa_r+0x30a>
 8008098:	08009c85 	.word	0x08009c85
 800809c:	08009c9c 	.word	0x08009c9c
 80080a0:	7ff00000 	.word	0x7ff00000
 80080a4:	0000270f 	.word	0x0000270f
 80080a8:	08009c81 	.word	0x08009c81
 80080ac:	08009c84 	.word	0x08009c84
 80080b0:	08009c55 	.word	0x08009c55
 80080b4:	08009c54 	.word	0x08009c54
 80080b8:	3ff00000 	.word	0x3ff00000
 80080bc:	fffffc01 	.word	0xfffffc01
 80080c0:	3ff80000 	.word	0x3ff80000
 80080c4:	636f4361 	.word	0x636f4361
 80080c8:	3fd287a7 	.word	0x3fd287a7
 80080cc:	8b60c8b3 	.word	0x8b60c8b3
 80080d0:	3fc68a28 	.word	0x3fc68a28
 80080d4:	509f79fb 	.word	0x509f79fb
 80080d8:	3fd34413 	.word	0x3fd34413
 80080dc:	08009df0 	.word	0x08009df0
 80080e0:	00000432 	.word	0x00000432
 80080e4:	00000412 	.word	0x00000412
 80080e8:	fe100000 	.word	0xfe100000
 80080ec:	08009cf4 	.word	0x08009cf4
 80080f0:	08009dc8 	.word	0x08009dc8
 80080f4:	9b04      	ldr	r3, [sp, #16]
 80080f6:	2402      	movs	r4, #2
 80080f8:	2b00      	cmp	r3, #0
 80080fa:	d016      	beq.n	800812a <_dtoa_r+0x3d6>
 80080fc:	9812      	ldr	r0, [sp, #72]	@ 0x48
 80080fe:	9913      	ldr	r1, [sp, #76]	@ 0x4c
 8008100:	220f      	movs	r2, #15
 8008102:	425d      	negs	r5, r3
 8008104:	402a      	ands	r2, r5
 8008106:	4bd5      	ldr	r3, [pc, #852]	@ (800845c <_dtoa_r+0x708>)
 8008108:	00d2      	lsls	r2, r2, #3
 800810a:	189b      	adds	r3, r3, r2
 800810c:	681a      	ldr	r2, [r3, #0]
 800810e:	685b      	ldr	r3, [r3, #4]
 8008110:	f7f9 fabe 	bl	8001690 <__aeabi_dmul>
 8008114:	2701      	movs	r7, #1
 8008116:	2300      	movs	r3, #0
 8008118:	900a      	str	r0, [sp, #40]	@ 0x28
 800811a:	910b      	str	r1, [sp, #44]	@ 0x2c
 800811c:	4ed0      	ldr	r6, [pc, #832]	@ (8008460 <_dtoa_r+0x70c>)
 800811e:	112d      	asrs	r5, r5, #4
 8008120:	2d00      	cmp	r5, #0
 8008122:	d000      	beq.n	8008126 <_dtoa_r+0x3d2>
 8008124:	e095      	b.n	8008252 <_dtoa_r+0x4fe>
 8008126:	2b00      	cmp	r3, #0
 8008128:	d1a2      	bne.n	8008070 <_dtoa_r+0x31c>
 800812a:	9e0a      	ldr	r6, [sp, #40]	@ 0x28
 800812c:	9f0b      	ldr	r7, [sp, #44]	@ 0x2c
 800812e:	9b15      	ldr	r3, [sp, #84]	@ 0x54
 8008130:	2b00      	cmp	r3, #0
 8008132:	d100      	bne.n	8008136 <_dtoa_r+0x3e2>
 8008134:	e098      	b.n	8008268 <_dtoa_r+0x514>
 8008136:	2200      	movs	r2, #0
 8008138:	0030      	movs	r0, r6
 800813a:	0039      	movs	r1, r7
 800813c:	4bc9      	ldr	r3, [pc, #804]	@ (8008464 <_dtoa_r+0x710>)
 800813e:	f7f8 f993 	bl	8000468 <__aeabi_dcmplt>
 8008142:	2800      	cmp	r0, #0
 8008144:	d100      	bne.n	8008148 <_dtoa_r+0x3f4>
 8008146:	e08f      	b.n	8008268 <_dtoa_r+0x514>
 8008148:	9b09      	ldr	r3, [sp, #36]	@ 0x24
 800814a:	2b00      	cmp	r3, #0
 800814c:	d100      	bne.n	8008150 <_dtoa_r+0x3fc>
 800814e:	e08b      	b.n	8008268 <_dtoa_r+0x514>
 8008150:	9b0e      	ldr	r3, [sp, #56]	@ 0x38
 8008152:	2b00      	cmp	r3, #0
 8008154:	dd37      	ble.n	80081c6 <_dtoa_r+0x472>
 8008156:	9b04      	ldr	r3, [sp, #16]
 8008158:	2200      	movs	r2, #0
 800815a:	3b01      	subs	r3, #1
 800815c:	930c      	str	r3, [sp, #48]	@ 0x30
 800815e:	0030      	movs	r0, r6
 8008160:	4bc1      	ldr	r3, [pc, #772]	@ (8008468 <_dtoa_r+0x714>)
 8008162:	0039      	movs	r1, r7
 8008164:	f7f9 fa94 	bl	8001690 <__aeabi_dmul>
 8008168:	900a      	str	r0, [sp, #40]	@ 0x28
 800816a:	910b      	str	r1, [sp, #44]	@ 0x2c
 800816c:	9b0e      	ldr	r3, [sp, #56]	@ 0x38
 800816e:	3401      	adds	r4, #1
 8008170:	0020      	movs	r0, r4
 8008172:	9311      	str	r3, [sp, #68]	@ 0x44
 8008174:	f7fa f9da 	bl	800252c <__aeabi_i2d>
 8008178:	9a0a      	ldr	r2, [sp, #40]	@ 0x28
 800817a:	9b0b      	ldr	r3, [sp, #44]	@ 0x2c
 800817c:	f7f9 fa88 	bl	8001690 <__aeabi_dmul>
 8008180:	4bba      	ldr	r3, [pc, #744]	@ (800846c <_dtoa_r+0x718>)
 8008182:	2200      	movs	r2, #0
 8008184:	f7f8 fa84 	bl	8000690 <__aeabi_dadd>
 8008188:	4bb9      	ldr	r3, [pc, #740]	@ (8008470 <_dtoa_r+0x71c>)
 800818a:	0006      	movs	r6, r0
 800818c:	18cf      	adds	r7, r1, r3
 800818e:	9b11      	ldr	r3, [sp, #68]	@ 0x44
 8008190:	2b00      	cmp	r3, #0
 8008192:	d16d      	bne.n	8008270 <_dtoa_r+0x51c>
 8008194:	980a      	ldr	r0, [sp, #40]	@ 0x28
 8008196:	990b      	ldr	r1, [sp, #44]	@ 0x2c
 8008198:	2200      	movs	r2, #0
 800819a:	4bb6      	ldr	r3, [pc, #728]	@ (8008474 <_dtoa_r+0x720>)
 800819c:	f7f9 fd5e 	bl	8001c5c <__aeabi_dsub>
 80081a0:	0032      	movs	r2, r6
 80081a2:	003b      	movs	r3, r7
 80081a4:	0004      	movs	r4, r0
 80081a6:	000d      	movs	r5, r1
 80081a8:	f7f8 f972 	bl	8000490 <__aeabi_dcmpgt>
 80081ac:	2800      	cmp	r0, #0
 80081ae:	d000      	beq.n	80081b2 <_dtoa_r+0x45e>
 80081b0:	e2b6      	b.n	8008720 <_dtoa_r+0x9cc>
 80081b2:	2180      	movs	r1, #128	@ 0x80
 80081b4:	0609      	lsls	r1, r1, #24
 80081b6:	187b      	adds	r3, r7, r1
 80081b8:	0032      	movs	r2, r6
 80081ba:	0020      	movs	r0, r4
 80081bc:	0029      	movs	r1, r5
 80081be:	f7f8 f953 	bl	8000468 <__aeabi_dcmplt>
 80081c2:	2800      	cmp	r0, #0
 80081c4:	d128      	bne.n	8008218 <_dtoa_r+0x4c4>
 80081c6:	9b12      	ldr	r3, [sp, #72]	@ 0x48
 80081c8:	9c13      	ldr	r4, [sp, #76]	@ 0x4c
 80081ca:	930a      	str	r3, [sp, #40]	@ 0x28
 80081cc:	940b      	str	r4, [sp, #44]	@ 0x2c
 80081ce:	9b1b      	ldr	r3, [sp, #108]	@ 0x6c
 80081d0:	2b00      	cmp	r3, #0
 80081d2:	da00      	bge.n	80081d6 <_dtoa_r+0x482>
 80081d4:	e174      	b.n	80084c0 <_dtoa_r+0x76c>
 80081d6:	9a04      	ldr	r2, [sp, #16]
 80081d8:	2a0e      	cmp	r2, #14
 80081da:	dd00      	ble.n	80081de <_dtoa_r+0x48a>
 80081dc:	e170      	b.n	80084c0 <_dtoa_r+0x76c>
 80081de:	4b9f      	ldr	r3, [pc, #636]	@ (800845c <_dtoa_r+0x708>)
 80081e0:	00d2      	lsls	r2, r2, #3
 80081e2:	189b      	adds	r3, r3, r2
 80081e4:	685c      	ldr	r4, [r3, #4]
 80081e6:	681b      	ldr	r3, [r3, #0]
 80081e8:	9306      	str	r3, [sp, #24]
 80081ea:	9407      	str	r4, [sp, #28]
 80081ec:	9b23      	ldr	r3, [sp, #140]	@ 0x8c
 80081ee:	2b00      	cmp	r3, #0
 80081f0:	db00      	blt.n	80081f4 <_dtoa_r+0x4a0>
 80081f2:	e0e7      	b.n	80083c4 <_dtoa_r+0x670>
 80081f4:	9b09      	ldr	r3, [sp, #36]	@ 0x24
 80081f6:	2b00      	cmp	r3, #0
 80081f8:	dd00      	ble.n	80081fc <_dtoa_r+0x4a8>
 80081fa:	e0e3      	b.n	80083c4 <_dtoa_r+0x670>
 80081fc:	d10c      	bne.n	8008218 <_dtoa_r+0x4c4>
 80081fe:	9806      	ldr	r0, [sp, #24]
 8008200:	9907      	ldr	r1, [sp, #28]
 8008202:	2200      	movs	r2, #0
 8008204:	4b9b      	ldr	r3, [pc, #620]	@ (8008474 <_dtoa_r+0x720>)
 8008206:	f7f9 fa43 	bl	8001690 <__aeabi_dmul>
 800820a:	9a0a      	ldr	r2, [sp, #40]	@ 0x28
 800820c:	9b0b      	ldr	r3, [sp, #44]	@ 0x2c
 800820e:	f7f8 f949 	bl	80004a4 <__aeabi_dcmpge>
 8008212:	2800      	cmp	r0, #0
 8008214:	d100      	bne.n	8008218 <_dtoa_r+0x4c4>
 8008216:	e286      	b.n	8008726 <_dtoa_r+0x9d2>
 8008218:	2600      	movs	r6, #0
 800821a:	0037      	movs	r7, r6
 800821c:	9b23      	ldr	r3, [sp, #140]	@ 0x8c
 800821e:	9c08      	ldr	r4, [sp, #32]
 8008220:	43db      	mvns	r3, r3
 8008222:	930c      	str	r3, [sp, #48]	@ 0x30
 8008224:	9704      	str	r7, [sp, #16]
 8008226:	2700      	movs	r7, #0
 8008228:	0031      	movs	r1, r6
 800822a:	9803      	ldr	r0, [sp, #12]
 800822c:	f000 fccc 	bl	8008bc8 <_Bfree>
 8008230:	9b04      	ldr	r3, [sp, #16]
 8008232:	2b00      	cmp	r3, #0
 8008234:	d100      	bne.n	8008238 <_dtoa_r+0x4e4>
 8008236:	e0bb      	b.n	80083b0 <_dtoa_r+0x65c>
 8008238:	2f00      	cmp	r7, #0
 800823a:	d005      	beq.n	8008248 <_dtoa_r+0x4f4>
 800823c:	429f      	cmp	r7, r3
 800823e:	d003      	beq.n	8008248 <_dtoa_r+0x4f4>
 8008240:	0039      	movs	r1, r7
 8008242:	9803      	ldr	r0, [sp, #12]
 8008244:	f000 fcc0 	bl	8008bc8 <_Bfree>
 8008248:	9904      	ldr	r1, [sp, #16]
 800824a:	9803      	ldr	r0, [sp, #12]
 800824c:	f000 fcbc 	bl	8008bc8 <_Bfree>
 8008250:	e0ae      	b.n	80083b0 <_dtoa_r+0x65c>
 8008252:	423d      	tst	r5, r7
 8008254:	d005      	beq.n	8008262 <_dtoa_r+0x50e>
 8008256:	6832      	ldr	r2, [r6, #0]
 8008258:	6873      	ldr	r3, [r6, #4]
 800825a:	f7f9 fa19 	bl	8001690 <__aeabi_dmul>
 800825e:	003b      	movs	r3, r7
 8008260:	3401      	adds	r4, #1
 8008262:	106d      	asrs	r5, r5, #1
 8008264:	3608      	adds	r6, #8
 8008266:	e75b      	b.n	8008120 <_dtoa_r+0x3cc>
 8008268:	9b04      	ldr	r3, [sp, #16]
 800826a:	930c      	str	r3, [sp, #48]	@ 0x30
 800826c:	9b09      	ldr	r3, [sp, #36]	@ 0x24
 800826e:	e77f      	b.n	8008170 <_dtoa_r+0x41c>
 8008270:	9a11      	ldr	r2, [sp, #68]	@ 0x44
 8008272:	4b7a      	ldr	r3, [pc, #488]	@ (800845c <_dtoa_r+0x708>)
 8008274:	3a01      	subs	r2, #1
 8008276:	00d2      	lsls	r2, r2, #3
 8008278:	9910      	ldr	r1, [sp, #64]	@ 0x40
 800827a:	189b      	adds	r3, r3, r2
 800827c:	681a      	ldr	r2, [r3, #0]
 800827e:	685b      	ldr	r3, [r3, #4]
 8008280:	2900      	cmp	r1, #0
 8008282:	d04c      	beq.n	800831e <_dtoa_r+0x5ca>
 8008284:	2000      	movs	r0, #0
 8008286:	497c      	ldr	r1, [pc, #496]	@ (8008478 <_dtoa_r+0x724>)
 8008288:	f7f8 fdc8 	bl	8000e1c <__aeabi_ddiv>
 800828c:	0032      	movs	r2, r6
 800828e:	003b      	movs	r3, r7
 8008290:	f7f9 fce4 	bl	8001c5c <__aeabi_dsub>
 8008294:	9a08      	ldr	r2, [sp, #32]
 8008296:	0006      	movs	r6, r0
 8008298:	4694      	mov	ip, r2
 800829a:	000f      	movs	r7, r1
 800829c:	9b08      	ldr	r3, [sp, #32]
 800829e:	9316      	str	r3, [sp, #88]	@ 0x58
 80082a0:	9b11      	ldr	r3, [sp, #68]	@ 0x44
 80082a2:	4463      	add	r3, ip
 80082a4:	9311      	str	r3, [sp, #68]	@ 0x44
 80082a6:	980a      	ldr	r0, [sp, #40]	@ 0x28
 80082a8:	990b      	ldr	r1, [sp, #44]	@ 0x2c
 80082aa:	f7fa f903 	bl	80024b4 <__aeabi_d2iz>
 80082ae:	0005      	movs	r5, r0
 80082b0:	f7fa f93c 	bl	800252c <__aeabi_i2d>
 80082b4:	0002      	movs	r2, r0
 80082b6:	000b      	movs	r3, r1
 80082b8:	980a      	ldr	r0, [sp, #40]	@ 0x28
 80082ba:	990b      	ldr	r1, [sp, #44]	@ 0x2c
 80082bc:	f7f9 fcce 	bl	8001c5c <__aeabi_dsub>
 80082c0:	9b16      	ldr	r3, [sp, #88]	@ 0x58
 80082c2:	3530      	adds	r5, #48	@ 0x30
 80082c4:	1c5c      	adds	r4, r3, #1
 80082c6:	701d      	strb	r5, [r3, #0]
 80082c8:	0032      	movs	r2, r6
 80082ca:	003b      	movs	r3, r7
 80082cc:	900a      	str	r0, [sp, #40]	@ 0x28
 80082ce:	910b      	str	r1, [sp, #44]	@ 0x2c
 80082d0:	f7f8 f8ca 	bl	8000468 <__aeabi_dcmplt>
 80082d4:	2800      	cmp	r0, #0
 80082d6:	d16b      	bne.n	80083b0 <_dtoa_r+0x65c>
 80082d8:	9a0a      	ldr	r2, [sp, #40]	@ 0x28
 80082da:	9b0b      	ldr	r3, [sp, #44]	@ 0x2c
 80082dc:	2000      	movs	r0, #0
 80082de:	4961      	ldr	r1, [pc, #388]	@ (8008464 <_dtoa_r+0x710>)
 80082e0:	f7f9 fcbc 	bl	8001c5c <__aeabi_dsub>
 80082e4:	0032      	movs	r2, r6
 80082e6:	003b      	movs	r3, r7
 80082e8:	f7f8 f8be 	bl	8000468 <__aeabi_dcmplt>
 80082ec:	2800      	cmp	r0, #0
 80082ee:	d000      	beq.n	80082f2 <_dtoa_r+0x59e>
 80082f0:	e0c6      	b.n	8008480 <_dtoa_r+0x72c>
 80082f2:	9b11      	ldr	r3, [sp, #68]	@ 0x44
 80082f4:	42a3      	cmp	r3, r4
 80082f6:	d100      	bne.n	80082fa <_dtoa_r+0x5a6>
 80082f8:	e765      	b.n	80081c6 <_dtoa_r+0x472>
 80082fa:	2200      	movs	r2, #0
 80082fc:	0030      	movs	r0, r6
 80082fe:	0039      	movs	r1, r7
 8008300:	4b59      	ldr	r3, [pc, #356]	@ (8008468 <_dtoa_r+0x714>)
 8008302:	f7f9 f9c5 	bl	8001690 <__aeabi_dmul>
 8008306:	2200      	movs	r2, #0
 8008308:	0006      	movs	r6, r0
 800830a:	000f      	movs	r7, r1
 800830c:	980a      	ldr	r0, [sp, #40]	@ 0x28
 800830e:	990b      	ldr	r1, [sp, #44]	@ 0x2c
 8008310:	4b55      	ldr	r3, [pc, #340]	@ (8008468 <_dtoa_r+0x714>)
 8008312:	f7f9 f9bd 	bl	8001690 <__aeabi_dmul>
 8008316:	9416      	str	r4, [sp, #88]	@ 0x58
 8008318:	900a      	str	r0, [sp, #40]	@ 0x28
 800831a:	910b      	str	r1, [sp, #44]	@ 0x2c
 800831c:	e7c3      	b.n	80082a6 <_dtoa_r+0x552>
 800831e:	0030      	movs	r0, r6
 8008320:	0039      	movs	r1, r7
 8008322:	f7f9 f9b5 	bl	8001690 <__aeabi_dmul>
 8008326:	9d08      	ldr	r5, [sp, #32]
 8008328:	9a11      	ldr	r2, [sp, #68]	@ 0x44
 800832a:	002b      	movs	r3, r5
 800832c:	4694      	mov	ip, r2
 800832e:	9016      	str	r0, [sp, #88]	@ 0x58
 8008330:	9117      	str	r1, [sp, #92]	@ 0x5c
 8008332:	4463      	add	r3, ip
 8008334:	9319      	str	r3, [sp, #100]	@ 0x64
 8008336:	980a      	ldr	r0, [sp, #40]	@ 0x28
 8008338:	990b      	ldr	r1, [sp, #44]	@ 0x2c
 800833a:	f7fa f8bb 	bl	80024b4 <__aeabi_d2iz>
 800833e:	0004      	movs	r4, r0
 8008340:	f7fa f8f4 	bl	800252c <__aeabi_i2d>
 8008344:	000b      	movs	r3, r1
 8008346:	0002      	movs	r2, r0
 8008348:	980a      	ldr	r0, [sp, #40]	@ 0x28
 800834a:	990b      	ldr	r1, [sp, #44]	@ 0x2c
 800834c:	f7f9 fc86 	bl	8001c5c <__aeabi_dsub>
 8008350:	3430      	adds	r4, #48	@ 0x30
 8008352:	9b19      	ldr	r3, [sp, #100]	@ 0x64
 8008354:	702c      	strb	r4, [r5, #0]
 8008356:	3501      	adds	r5, #1
 8008358:	0006      	movs	r6, r0
 800835a:	000f      	movs	r7, r1
 800835c:	42ab      	cmp	r3, r5
 800835e:	d12a      	bne.n	80083b6 <_dtoa_r+0x662>
 8008360:	9816      	ldr	r0, [sp, #88]	@ 0x58
 8008362:	9917      	ldr	r1, [sp, #92]	@ 0x5c
 8008364:	9b08      	ldr	r3, [sp, #32]
 8008366:	9c11      	ldr	r4, [sp, #68]	@ 0x44
 8008368:	469c      	mov	ip, r3
 800836a:	2200      	movs	r2, #0
 800836c:	4b42      	ldr	r3, [pc, #264]	@ (8008478 <_dtoa_r+0x724>)
 800836e:	4464      	add	r4, ip
 8008370:	f7f8 f98e 	bl	8000690 <__aeabi_dadd>
 8008374:	0002      	movs	r2, r0
 8008376:	000b      	movs	r3, r1
 8008378:	0030      	movs	r0, r6
 800837a:	0039      	movs	r1, r7
 800837c:	f7f8 f888 	bl	8000490 <__aeabi_dcmpgt>
 8008380:	2800      	cmp	r0, #0
 8008382:	d000      	beq.n	8008386 <_dtoa_r+0x632>
 8008384:	e07c      	b.n	8008480 <_dtoa_r+0x72c>
 8008386:	9a16      	ldr	r2, [sp, #88]	@ 0x58
 8008388:	9b17      	ldr	r3, [sp, #92]	@ 0x5c
 800838a:	2000      	movs	r0, #0
 800838c:	493a      	ldr	r1, [pc, #232]	@ (8008478 <_dtoa_r+0x724>)
 800838e:	f7f9 fc65 	bl	8001c5c <__aeabi_dsub>
 8008392:	0002      	movs	r2, r0
 8008394:	000b      	movs	r3, r1
 8008396:	0030      	movs	r0, r6
 8008398:	0039      	movs	r1, r7
 800839a:	f7f8 f865 	bl	8000468 <__aeabi_dcmplt>
 800839e:	2800      	cmp	r0, #0
 80083a0:	d100      	bne.n	80083a4 <_dtoa_r+0x650>
 80083a2:	e710      	b.n	80081c6 <_dtoa_r+0x472>
 80083a4:	0023      	movs	r3, r4
 80083a6:	3c01      	subs	r4, #1
 80083a8:	7822      	ldrb	r2, [r4, #0]
 80083aa:	2a30      	cmp	r2, #48	@ 0x30
 80083ac:	d0fa      	beq.n	80083a4 <_dtoa_r+0x650>
 80083ae:	001c      	movs	r4, r3
 80083b0:	9b0c      	ldr	r3, [sp, #48]	@ 0x30
 80083b2:	9304      	str	r3, [sp, #16]
 80083b4:	e042      	b.n	800843c <_dtoa_r+0x6e8>
 80083b6:	2200      	movs	r2, #0
 80083b8:	4b2b      	ldr	r3, [pc, #172]	@ (8008468 <_dtoa_r+0x714>)
 80083ba:	f7f9 f969 	bl	8001690 <__aeabi_dmul>
 80083be:	900a      	str	r0, [sp, #40]	@ 0x28
 80083c0:	910b      	str	r1, [sp, #44]	@ 0x2c
 80083c2:	e7b8      	b.n	8008336 <_dtoa_r+0x5e2>
 80083c4:	9b09      	ldr	r3, [sp, #36]	@ 0x24
 80083c6:	9d08      	ldr	r5, [sp, #32]
 80083c8:	3b01      	subs	r3, #1
 80083ca:	195b      	adds	r3, r3, r5
 80083cc:	9e0a      	ldr	r6, [sp, #40]	@ 0x28
 80083ce:	9f0b      	ldr	r7, [sp, #44]	@ 0x2c
 80083d0:	930a      	str	r3, [sp, #40]	@ 0x28
 80083d2:	9a06      	ldr	r2, [sp, #24]
 80083d4:	9b07      	ldr	r3, [sp, #28]
 80083d6:	0030      	movs	r0, r6
 80083d8:	0039      	movs	r1, r7
 80083da:	f7f8 fd1f 	bl	8000e1c <__aeabi_ddiv>
 80083de:	f7fa f869 	bl	80024b4 <__aeabi_d2iz>
 80083e2:	9009      	str	r0, [sp, #36]	@ 0x24
 80083e4:	f7fa f8a2 	bl	800252c <__aeabi_i2d>
 80083e8:	9a06      	ldr	r2, [sp, #24]
 80083ea:	9b07      	ldr	r3, [sp, #28]
 80083ec:	f7f9 f950 	bl	8001690 <__aeabi_dmul>
 80083f0:	0002      	movs	r2, r0
 80083f2:	000b      	movs	r3, r1
 80083f4:	0030      	movs	r0, r6
 80083f6:	0039      	movs	r1, r7
 80083f8:	f7f9 fc30 	bl	8001c5c <__aeabi_dsub>
 80083fc:	002b      	movs	r3, r5
 80083fe:	9a09      	ldr	r2, [sp, #36]	@ 0x24
 8008400:	3501      	adds	r5, #1
 8008402:	3230      	adds	r2, #48	@ 0x30
 8008404:	701a      	strb	r2, [r3, #0]
 8008406:	9a0a      	ldr	r2, [sp, #40]	@ 0x28
 8008408:	002c      	movs	r4, r5
 800840a:	429a      	cmp	r2, r3
 800840c:	d14b      	bne.n	80084a6 <_dtoa_r+0x752>
 800840e:	0002      	movs	r2, r0
 8008410:	000b      	movs	r3, r1
 8008412:	f7f8 f93d 	bl	8000690 <__aeabi_dadd>
 8008416:	9a06      	ldr	r2, [sp, #24]
 8008418:	9b07      	ldr	r3, [sp, #28]
 800841a:	0006      	movs	r6, r0
 800841c:	000f      	movs	r7, r1
 800841e:	f7f8 f837 	bl	8000490 <__aeabi_dcmpgt>
 8008422:	2800      	cmp	r0, #0
 8008424:	d12a      	bne.n	800847c <_dtoa_r+0x728>
 8008426:	9a06      	ldr	r2, [sp, #24]
 8008428:	9b07      	ldr	r3, [sp, #28]
 800842a:	0030      	movs	r0, r6
 800842c:	0039      	movs	r1, r7
 800842e:	f7f8 f815 	bl	800045c <__aeabi_dcmpeq>
 8008432:	2800      	cmp	r0, #0
 8008434:	d002      	beq.n	800843c <_dtoa_r+0x6e8>
 8008436:	9b09      	ldr	r3, [sp, #36]	@ 0x24
 8008438:	07dd      	lsls	r5, r3, #31
 800843a:	d41f      	bmi.n	800847c <_dtoa_r+0x728>
 800843c:	9905      	ldr	r1, [sp, #20]
 800843e:	9803      	ldr	r0, [sp, #12]
 8008440:	f000 fbc2 	bl	8008bc8 <_Bfree>
 8008444:	2300      	movs	r3, #0
 8008446:	7023      	strb	r3, [r4, #0]
 8008448:	9b04      	ldr	r3, [sp, #16]
 800844a:	9a24      	ldr	r2, [sp, #144]	@ 0x90
 800844c:	3301      	adds	r3, #1
 800844e:	6013      	str	r3, [r2, #0]
 8008450:	9b26      	ldr	r3, [sp, #152]	@ 0x98
 8008452:	2b00      	cmp	r3, #0
 8008454:	d100      	bne.n	8008458 <_dtoa_r+0x704>
 8008456:	e4c7      	b.n	8007de8 <_dtoa_r+0x94>
 8008458:	601c      	str	r4, [r3, #0]
 800845a:	e4c5      	b.n	8007de8 <_dtoa_r+0x94>
 800845c:	08009df0 	.word	0x08009df0
 8008460:	08009dc8 	.word	0x08009dc8
 8008464:	3ff00000 	.word	0x3ff00000
 8008468:	40240000 	.word	0x40240000
 800846c:	401c0000 	.word	0x401c0000
 8008470:	fcc00000 	.word	0xfcc00000
 8008474:	40140000 	.word	0x40140000
 8008478:	3fe00000 	.word	0x3fe00000
 800847c:	9b04      	ldr	r3, [sp, #16]
 800847e:	930c      	str	r3, [sp, #48]	@ 0x30
 8008480:	0023      	movs	r3, r4
 8008482:	001c      	movs	r4, r3
 8008484:	3b01      	subs	r3, #1
 8008486:	781a      	ldrb	r2, [r3, #0]
 8008488:	2a39      	cmp	r2, #57	@ 0x39
 800848a:	d108      	bne.n	800849e <_dtoa_r+0x74a>
 800848c:	9a08      	ldr	r2, [sp, #32]
 800848e:	429a      	cmp	r2, r3
 8008490:	d1f7      	bne.n	8008482 <_dtoa_r+0x72e>
 8008492:	9a0c      	ldr	r2, [sp, #48]	@ 0x30
 8008494:	9908      	ldr	r1, [sp, #32]
 8008496:	3201      	adds	r2, #1
 8008498:	920c      	str	r2, [sp, #48]	@ 0x30
 800849a:	2230      	movs	r2, #48	@ 0x30
 800849c:	700a      	strb	r2, [r1, #0]
 800849e:	781a      	ldrb	r2, [r3, #0]
 80084a0:	3201      	adds	r2, #1
 80084a2:	701a      	strb	r2, [r3, #0]
 80084a4:	e784      	b.n	80083b0 <_dtoa_r+0x65c>
 80084a6:	2200      	movs	r2, #0
 80084a8:	4bc6      	ldr	r3, [pc, #792]	@ (80087c4 <_dtoa_r+0xa70>)
 80084aa:	f7f9 f8f1 	bl	8001690 <__aeabi_dmul>
 80084ae:	2200      	movs	r2, #0
 80084b0:	2300      	movs	r3, #0
 80084b2:	0006      	movs	r6, r0
 80084b4:	000f      	movs	r7, r1
 80084b6:	f7f7 ffd1 	bl	800045c <__aeabi_dcmpeq>
 80084ba:	2800      	cmp	r0, #0
 80084bc:	d089      	beq.n	80083d2 <_dtoa_r+0x67e>
 80084be:	e7bd      	b.n	800843c <_dtoa_r+0x6e8>
 80084c0:	9f10      	ldr	r7, [sp, #64]	@ 0x40
 80084c2:	9d0f      	ldr	r5, [sp, #60]	@ 0x3c
 80084c4:	9c06      	ldr	r4, [sp, #24]
 80084c6:	2f00      	cmp	r7, #0
 80084c8:	d014      	beq.n	80084f4 <_dtoa_r+0x7a0>
 80084ca:	9a22      	ldr	r2, [sp, #136]	@ 0x88
 80084cc:	2a01      	cmp	r2, #1
 80084ce:	dd00      	ble.n	80084d2 <_dtoa_r+0x77e>
 80084d0:	e0e4      	b.n	800869c <_dtoa_r+0x948>
 80084d2:	9a18      	ldr	r2, [sp, #96]	@ 0x60
 80084d4:	2a00      	cmp	r2, #0
 80084d6:	d100      	bne.n	80084da <_dtoa_r+0x786>
 80084d8:	e0da      	b.n	8008690 <_dtoa_r+0x93c>
 80084da:	4abb      	ldr	r2, [pc, #748]	@ (80087c8 <_dtoa_r+0xa74>)
 80084dc:	189b      	adds	r3, r3, r2
 80084de:	9a06      	ldr	r2, [sp, #24]
 80084e0:	2101      	movs	r1, #1
 80084e2:	18d2      	adds	r2, r2, r3
 80084e4:	9206      	str	r2, [sp, #24]
 80084e6:	9a0d      	ldr	r2, [sp, #52]	@ 0x34
 80084e8:	9803      	ldr	r0, [sp, #12]
 80084ea:	18d3      	adds	r3, r2, r3
 80084ec:	930d      	str	r3, [sp, #52]	@ 0x34
 80084ee:	f000 fc23 	bl	8008d38 <__i2b>
 80084f2:	0007      	movs	r7, r0
 80084f4:	2c00      	cmp	r4, #0
 80084f6:	d00e      	beq.n	8008516 <_dtoa_r+0x7c2>
 80084f8:	9b0d      	ldr	r3, [sp, #52]	@ 0x34
 80084fa:	2b00      	cmp	r3, #0
 80084fc:	dd0b      	ble.n	8008516 <_dtoa_r+0x7c2>
 80084fe:	9a0d      	ldr	r2, [sp, #52]	@ 0x34
 8008500:	0023      	movs	r3, r4
 8008502:	4294      	cmp	r4, r2
 8008504:	dd00      	ble.n	8008508 <_dtoa_r+0x7b4>
 8008506:	0013      	movs	r3, r2
 8008508:	9a06      	ldr	r2, [sp, #24]
 800850a:	1ae4      	subs	r4, r4, r3
 800850c:	1ad2      	subs	r2, r2, r3
 800850e:	9206      	str	r2, [sp, #24]
 8008510:	9a0d      	ldr	r2, [sp, #52]	@ 0x34
 8008512:	1ad3      	subs	r3, r2, r3
 8008514:	930d      	str	r3, [sp, #52]	@ 0x34
 8008516:	9b0f      	ldr	r3, [sp, #60]	@ 0x3c
 8008518:	2b00      	cmp	r3, #0
 800851a:	d021      	beq.n	8008560 <_dtoa_r+0x80c>
 800851c:	9b10      	ldr	r3, [sp, #64]	@ 0x40
 800851e:	2b00      	cmp	r3, #0
 8008520:	d100      	bne.n	8008524 <_dtoa_r+0x7d0>
 8008522:	e0d3      	b.n	80086cc <_dtoa_r+0x978>
 8008524:	9e05      	ldr	r6, [sp, #20]
 8008526:	2d00      	cmp	r5, #0
 8008528:	d014      	beq.n	8008554 <_dtoa_r+0x800>
 800852a:	0039      	movs	r1, r7
 800852c:	002a      	movs	r2, r5
 800852e:	9803      	ldr	r0, [sp, #12]
 8008530:	f000 fcc4 	bl	8008ebc <__pow5mult>
 8008534:	9a05      	ldr	r2, [sp, #20]
 8008536:	0001      	movs	r1, r0
 8008538:	0007      	movs	r7, r0
 800853a:	9803      	ldr	r0, [sp, #12]
 800853c:	f000 fc14 	bl	8008d68 <__multiply>
 8008540:	0006      	movs	r6, r0
 8008542:	9905      	ldr	r1, [sp, #20]
 8008544:	9803      	ldr	r0, [sp, #12]
 8008546:	f000 fb3f 	bl	8008bc8 <_Bfree>
 800854a:	9b0f      	ldr	r3, [sp, #60]	@ 0x3c
 800854c:	9605      	str	r6, [sp, #20]
 800854e:	1b5b      	subs	r3, r3, r5
 8008550:	930f      	str	r3, [sp, #60]	@ 0x3c
 8008552:	d005      	beq.n	8008560 <_dtoa_r+0x80c>
 8008554:	0031      	movs	r1, r6
 8008556:	9a0f      	ldr	r2, [sp, #60]	@ 0x3c
 8008558:	9803      	ldr	r0, [sp, #12]
 800855a:	f000 fcaf 	bl	8008ebc <__pow5mult>
 800855e:	9005      	str	r0, [sp, #20]
 8008560:	2101      	movs	r1, #1
 8008562:	9803      	ldr	r0, [sp, #12]
 8008564:	f000 fbe8 	bl	8008d38 <__i2b>
 8008568:	9b14      	ldr	r3, [sp, #80]	@ 0x50
 800856a:	0006      	movs	r6, r0
 800856c:	2b00      	cmp	r3, #0
 800856e:	d100      	bne.n	8008572 <_dtoa_r+0x81e>
 8008570:	e1bc      	b.n	80088ec <_dtoa_r+0xb98>
 8008572:	001a      	movs	r2, r3
 8008574:	0001      	movs	r1, r0
 8008576:	9803      	ldr	r0, [sp, #12]
 8008578:	f000 fca0 	bl	8008ebc <__pow5mult>
 800857c:	9b22      	ldr	r3, [sp, #136]	@ 0x88
 800857e:	0006      	movs	r6, r0
 8008580:	2500      	movs	r5, #0
 8008582:	2b01      	cmp	r3, #1
 8008584:	dc16      	bgt.n	80085b4 <_dtoa_r+0x860>
 8008586:	2500      	movs	r5, #0
 8008588:	9b0a      	ldr	r3, [sp, #40]	@ 0x28
 800858a:	42ab      	cmp	r3, r5
 800858c:	d10e      	bne.n	80085ac <_dtoa_r+0x858>
 800858e:	9b0b      	ldr	r3, [sp, #44]	@ 0x2c
 8008590:	031b      	lsls	r3, r3, #12
 8008592:	42ab      	cmp	r3, r5
 8008594:	d10a      	bne.n	80085ac <_dtoa_r+0x858>
 8008596:	4b8d      	ldr	r3, [pc, #564]	@ (80087cc <_dtoa_r+0xa78>)
 8008598:	9a0b      	ldr	r2, [sp, #44]	@ 0x2c
 800859a:	4213      	tst	r3, r2
 800859c:	d006      	beq.n	80085ac <_dtoa_r+0x858>
 800859e:	9b06      	ldr	r3, [sp, #24]
 80085a0:	3501      	adds	r5, #1
 80085a2:	3301      	adds	r3, #1
 80085a4:	9306      	str	r3, [sp, #24]
 80085a6:	9b0d      	ldr	r3, [sp, #52]	@ 0x34
 80085a8:	3301      	adds	r3, #1
 80085aa:	930d      	str	r3, [sp, #52]	@ 0x34
 80085ac:	9b14      	ldr	r3, [sp, #80]	@ 0x50
 80085ae:	2001      	movs	r0, #1
 80085b0:	2b00      	cmp	r3, #0
 80085b2:	d008      	beq.n	80085c6 <_dtoa_r+0x872>
 80085b4:	6933      	ldr	r3, [r6, #16]
 80085b6:	3303      	adds	r3, #3
 80085b8:	009b      	lsls	r3, r3, #2
 80085ba:	18f3      	adds	r3, r6, r3
 80085bc:	6858      	ldr	r0, [r3, #4]
 80085be:	f000 fb6b 	bl	8008c98 <__hi0bits>
 80085c2:	2320      	movs	r3, #32
 80085c4:	1a18      	subs	r0, r3, r0
 80085c6:	9b0d      	ldr	r3, [sp, #52]	@ 0x34
 80085c8:	1818      	adds	r0, r3, r0
 80085ca:	0002      	movs	r2, r0
 80085cc:	231f      	movs	r3, #31
 80085ce:	401a      	ands	r2, r3
 80085d0:	4218      	tst	r0, r3
 80085d2:	d100      	bne.n	80085d6 <_dtoa_r+0x882>
 80085d4:	e081      	b.n	80086da <_dtoa_r+0x986>
 80085d6:	3301      	adds	r3, #1
 80085d8:	1a9b      	subs	r3, r3, r2
 80085da:	2b04      	cmp	r3, #4
 80085dc:	dd79      	ble.n	80086d2 <_dtoa_r+0x97e>
 80085de:	231c      	movs	r3, #28
 80085e0:	1a9b      	subs	r3, r3, r2
 80085e2:	9a06      	ldr	r2, [sp, #24]
 80085e4:	18e4      	adds	r4, r4, r3
 80085e6:	18d2      	adds	r2, r2, r3
 80085e8:	9206      	str	r2, [sp, #24]
 80085ea:	9a0d      	ldr	r2, [sp, #52]	@ 0x34
 80085ec:	18d3      	adds	r3, r2, r3
 80085ee:	930d      	str	r3, [sp, #52]	@ 0x34
 80085f0:	9b06      	ldr	r3, [sp, #24]
 80085f2:	2b00      	cmp	r3, #0
 80085f4:	dd05      	ble.n	8008602 <_dtoa_r+0x8ae>
 80085f6:	001a      	movs	r2, r3
 80085f8:	9905      	ldr	r1, [sp, #20]
 80085fa:	9803      	ldr	r0, [sp, #12]
 80085fc:	f000 fcba 	bl	8008f74 <__lshift>
 8008600:	9005      	str	r0, [sp, #20]
 8008602:	9b0d      	ldr	r3, [sp, #52]	@ 0x34
 8008604:	2b00      	cmp	r3, #0
 8008606:	dd05      	ble.n	8008614 <_dtoa_r+0x8c0>
 8008608:	0031      	movs	r1, r6
 800860a:	001a      	movs	r2, r3
 800860c:	9803      	ldr	r0, [sp, #12]
 800860e:	f000 fcb1 	bl	8008f74 <__lshift>
 8008612:	0006      	movs	r6, r0
 8008614:	9b15      	ldr	r3, [sp, #84]	@ 0x54
 8008616:	2b00      	cmp	r3, #0
 8008618:	d061      	beq.n	80086de <_dtoa_r+0x98a>
 800861a:	0031      	movs	r1, r6
 800861c:	9805      	ldr	r0, [sp, #20]
 800861e:	f000 fd15 	bl	800904c <__mcmp>
 8008622:	2800      	cmp	r0, #0
 8008624:	da5b      	bge.n	80086de <_dtoa_r+0x98a>
 8008626:	9b04      	ldr	r3, [sp, #16]
 8008628:	220a      	movs	r2, #10
 800862a:	3b01      	subs	r3, #1
 800862c:	930c      	str	r3, [sp, #48]	@ 0x30
 800862e:	9905      	ldr	r1, [sp, #20]
 8008630:	2300      	movs	r3, #0
 8008632:	9803      	ldr	r0, [sp, #12]
 8008634:	f000 faec 	bl	8008c10 <__multadd>
 8008638:	9b10      	ldr	r3, [sp, #64]	@ 0x40
 800863a:	9005      	str	r0, [sp, #20]
 800863c:	2b00      	cmp	r3, #0
 800863e:	d100      	bne.n	8008642 <_dtoa_r+0x8ee>
 8008640:	e15b      	b.n	80088fa <_dtoa_r+0xba6>
 8008642:	2300      	movs	r3, #0
 8008644:	0039      	movs	r1, r7
 8008646:	220a      	movs	r2, #10
 8008648:	9803      	ldr	r0, [sp, #12]
 800864a:	f000 fae1 	bl	8008c10 <__multadd>
 800864e:	9b0e      	ldr	r3, [sp, #56]	@ 0x38
 8008650:	0007      	movs	r7, r0
 8008652:	2b00      	cmp	r3, #0
 8008654:	dc4d      	bgt.n	80086f2 <_dtoa_r+0x99e>
 8008656:	9b22      	ldr	r3, [sp, #136]	@ 0x88
 8008658:	2b02      	cmp	r3, #2
 800865a:	dd46      	ble.n	80086ea <_dtoa_r+0x996>
 800865c:	9b0e      	ldr	r3, [sp, #56]	@ 0x38
 800865e:	2b00      	cmp	r3, #0
 8008660:	d000      	beq.n	8008664 <_dtoa_r+0x910>
 8008662:	e5db      	b.n	800821c <_dtoa_r+0x4c8>
 8008664:	0031      	movs	r1, r6
 8008666:	2205      	movs	r2, #5
 8008668:	9803      	ldr	r0, [sp, #12]
 800866a:	f000 fad1 	bl	8008c10 <__multadd>
 800866e:	0006      	movs	r6, r0
 8008670:	0001      	movs	r1, r0
 8008672:	9805      	ldr	r0, [sp, #20]
 8008674:	f000 fcea 	bl	800904c <__mcmp>
 8008678:	2800      	cmp	r0, #0
 800867a:	dc00      	bgt.n	800867e <_dtoa_r+0x92a>
 800867c:	e5ce      	b.n	800821c <_dtoa_r+0x4c8>
 800867e:	9b08      	ldr	r3, [sp, #32]
 8008680:	9a08      	ldr	r2, [sp, #32]
 8008682:	1c5c      	adds	r4, r3, #1
 8008684:	2331      	movs	r3, #49	@ 0x31
 8008686:	7013      	strb	r3, [r2, #0]
 8008688:	9b0c      	ldr	r3, [sp, #48]	@ 0x30
 800868a:	3301      	adds	r3, #1
 800868c:	930c      	str	r3, [sp, #48]	@ 0x30
 800868e:	e5c9      	b.n	8008224 <_dtoa_r+0x4d0>
 8008690:	2336      	movs	r3, #54	@ 0x36
 8008692:	9a1a      	ldr	r2, [sp, #104]	@ 0x68
 8008694:	9d0f      	ldr	r5, [sp, #60]	@ 0x3c
 8008696:	1a9b      	subs	r3, r3, r2
 8008698:	9c06      	ldr	r4, [sp, #24]
 800869a:	e720      	b.n	80084de <_dtoa_r+0x78a>
 800869c:	9b09      	ldr	r3, [sp, #36]	@ 0x24
 800869e:	1e5d      	subs	r5, r3, #1
 80086a0:	9b0f      	ldr	r3, [sp, #60]	@ 0x3c
 80086a2:	42ab      	cmp	r3, r5
 80086a4:	db08      	blt.n	80086b8 <_dtoa_r+0x964>
 80086a6:	1b5d      	subs	r5, r3, r5
 80086a8:	9b09      	ldr	r3, [sp, #36]	@ 0x24
 80086aa:	2b00      	cmp	r3, #0
 80086ac:	daf4      	bge.n	8008698 <_dtoa_r+0x944>
 80086ae:	9b06      	ldr	r3, [sp, #24]
 80086b0:	9a09      	ldr	r2, [sp, #36]	@ 0x24
 80086b2:	1a9c      	subs	r4, r3, r2
 80086b4:	2300      	movs	r3, #0
 80086b6:	e712      	b.n	80084de <_dtoa_r+0x78a>
 80086b8:	9b0f      	ldr	r3, [sp, #60]	@ 0x3c
 80086ba:	9a14      	ldr	r2, [sp, #80]	@ 0x50
 80086bc:	1aeb      	subs	r3, r5, r3
 80086be:	18d3      	adds	r3, r2, r3
 80086c0:	9314      	str	r3, [sp, #80]	@ 0x50
 80086c2:	950f      	str	r5, [sp, #60]	@ 0x3c
 80086c4:	9c06      	ldr	r4, [sp, #24]
 80086c6:	2500      	movs	r5, #0
 80086c8:	9b09      	ldr	r3, [sp, #36]	@ 0x24
 80086ca:	e708      	b.n	80084de <_dtoa_r+0x78a>
 80086cc:	9a0f      	ldr	r2, [sp, #60]	@ 0x3c
 80086ce:	9905      	ldr	r1, [sp, #20]
 80086d0:	e742      	b.n	8008558 <_dtoa_r+0x804>
 80086d2:	2b04      	cmp	r3, #4
 80086d4:	d08c      	beq.n	80085f0 <_dtoa_r+0x89c>
 80086d6:	331c      	adds	r3, #28
 80086d8:	e783      	b.n	80085e2 <_dtoa_r+0x88e>
 80086da:	0013      	movs	r3, r2
 80086dc:	e7fb      	b.n	80086d6 <_dtoa_r+0x982>
 80086de:	9b04      	ldr	r3, [sp, #16]
 80086e0:	930c      	str	r3, [sp, #48]	@ 0x30
 80086e2:	9b09      	ldr	r3, [sp, #36]	@ 0x24
 80086e4:	930e      	str	r3, [sp, #56]	@ 0x38
 80086e6:	2b00      	cmp	r3, #0
 80086e8:	ddb5      	ble.n	8008656 <_dtoa_r+0x902>
 80086ea:	9b10      	ldr	r3, [sp, #64]	@ 0x40
 80086ec:	2b00      	cmp	r3, #0
 80086ee:	d100      	bne.n	80086f2 <_dtoa_r+0x99e>
 80086f0:	e107      	b.n	8008902 <_dtoa_r+0xbae>
 80086f2:	2c00      	cmp	r4, #0
 80086f4:	dd05      	ble.n	8008702 <_dtoa_r+0x9ae>
 80086f6:	0039      	movs	r1, r7
 80086f8:	0022      	movs	r2, r4
 80086fa:	9803      	ldr	r0, [sp, #12]
 80086fc:	f000 fc3a 	bl	8008f74 <__lshift>
 8008700:	0007      	movs	r7, r0
 8008702:	9704      	str	r7, [sp, #16]
 8008704:	2d00      	cmp	r5, #0
 8008706:	d020      	beq.n	800874a <_dtoa_r+0x9f6>
 8008708:	6879      	ldr	r1, [r7, #4]
 800870a:	9803      	ldr	r0, [sp, #12]
 800870c:	f000 fa18 	bl	8008b40 <_Balloc>
 8008710:	1e04      	subs	r4, r0, #0
 8008712:	d10c      	bne.n	800872e <_dtoa_r+0x9da>
 8008714:	0022      	movs	r2, r4
 8008716:	4b2e      	ldr	r3, [pc, #184]	@ (80087d0 <_dtoa_r+0xa7c>)
 8008718:	482e      	ldr	r0, [pc, #184]	@ (80087d4 <_dtoa_r+0xa80>)
 800871a:	492f      	ldr	r1, [pc, #188]	@ (80087d8 <_dtoa_r+0xa84>)
 800871c:	f7ff fb2f 	bl	8007d7e <_dtoa_r+0x2a>
 8008720:	9e11      	ldr	r6, [sp, #68]	@ 0x44
 8008722:	0037      	movs	r7, r6
 8008724:	e7ab      	b.n	800867e <_dtoa_r+0x92a>
 8008726:	9b04      	ldr	r3, [sp, #16]
 8008728:	9e09      	ldr	r6, [sp, #36]	@ 0x24
 800872a:	930c      	str	r3, [sp, #48]	@ 0x30
 800872c:	e7f9      	b.n	8008722 <_dtoa_r+0x9ce>
 800872e:	0039      	movs	r1, r7
 8008730:	693a      	ldr	r2, [r7, #16]
 8008732:	310c      	adds	r1, #12
 8008734:	3202      	adds	r2, #2
 8008736:	0092      	lsls	r2, r2, #2
 8008738:	300c      	adds	r0, #12
 800873a:	f001 f835 	bl	80097a8 <memcpy>
 800873e:	2201      	movs	r2, #1
 8008740:	0021      	movs	r1, r4
 8008742:	9803      	ldr	r0, [sp, #12]
 8008744:	f000 fc16 	bl	8008f74 <__lshift>
 8008748:	9004      	str	r0, [sp, #16]
 800874a:	9b08      	ldr	r3, [sp, #32]
 800874c:	9a0e      	ldr	r2, [sp, #56]	@ 0x38
 800874e:	9306      	str	r3, [sp, #24]
 8008750:	3b01      	subs	r3, #1
 8008752:	189b      	adds	r3, r3, r2
 8008754:	2201      	movs	r2, #1
 8008756:	930f      	str	r3, [sp, #60]	@ 0x3c
 8008758:	9b0a      	ldr	r3, [sp, #40]	@ 0x28
 800875a:	4013      	ands	r3, r2
 800875c:	930e      	str	r3, [sp, #56]	@ 0x38
 800875e:	0031      	movs	r1, r6
 8008760:	9805      	ldr	r0, [sp, #20]
 8008762:	f7ff fa71 	bl	8007c48 <quorem>
 8008766:	0039      	movs	r1, r7
 8008768:	0005      	movs	r5, r0
 800876a:	900a      	str	r0, [sp, #40]	@ 0x28
 800876c:	9805      	ldr	r0, [sp, #20]
 800876e:	f000 fc6d 	bl	800904c <__mcmp>
 8008772:	9a04      	ldr	r2, [sp, #16]
 8008774:	900d      	str	r0, [sp, #52]	@ 0x34
 8008776:	0031      	movs	r1, r6
 8008778:	9803      	ldr	r0, [sp, #12]
 800877a:	f000 fc83 	bl	8009084 <__mdiff>
 800877e:	2201      	movs	r2, #1
 8008780:	68c3      	ldr	r3, [r0, #12]
 8008782:	0004      	movs	r4, r0
 8008784:	3530      	adds	r5, #48	@ 0x30
 8008786:	9209      	str	r2, [sp, #36]	@ 0x24
 8008788:	2b00      	cmp	r3, #0
 800878a:	d104      	bne.n	8008796 <_dtoa_r+0xa42>
 800878c:	0001      	movs	r1, r0
 800878e:	9805      	ldr	r0, [sp, #20]
 8008790:	f000 fc5c 	bl	800904c <__mcmp>
 8008794:	9009      	str	r0, [sp, #36]	@ 0x24
 8008796:	0021      	movs	r1, r4
 8008798:	9803      	ldr	r0, [sp, #12]
 800879a:	f000 fa15 	bl	8008bc8 <_Bfree>
 800879e:	9b06      	ldr	r3, [sp, #24]
 80087a0:	9a22      	ldr	r2, [sp, #136]	@ 0x88
 80087a2:	1c5c      	adds	r4, r3, #1
 80087a4:	9b09      	ldr	r3, [sp, #36]	@ 0x24
 80087a6:	4313      	orrs	r3, r2
 80087a8:	9a0e      	ldr	r2, [sp, #56]	@ 0x38
 80087aa:	4313      	orrs	r3, r2
 80087ac:	d116      	bne.n	80087dc <_dtoa_r+0xa88>
 80087ae:	2d39      	cmp	r5, #57	@ 0x39
 80087b0:	d02f      	beq.n	8008812 <_dtoa_r+0xabe>
 80087b2:	9b0d      	ldr	r3, [sp, #52]	@ 0x34
 80087b4:	2b00      	cmp	r3, #0
 80087b6:	dd01      	ble.n	80087bc <_dtoa_r+0xa68>
 80087b8:	9d0a      	ldr	r5, [sp, #40]	@ 0x28
 80087ba:	3531      	adds	r5, #49	@ 0x31
 80087bc:	9b06      	ldr	r3, [sp, #24]
 80087be:	701d      	strb	r5, [r3, #0]
 80087c0:	e532      	b.n	8008228 <_dtoa_r+0x4d4>
 80087c2:	46c0      	nop			@ (mov r8, r8)
 80087c4:	40240000 	.word	0x40240000
 80087c8:	00000433 	.word	0x00000433
 80087cc:	7ff00000 	.word	0x7ff00000
 80087d0:	08009cf4 	.word	0x08009cf4
 80087d4:	08009c9c 	.word	0x08009c9c
 80087d8:	000002ef 	.word	0x000002ef
 80087dc:	9b0d      	ldr	r3, [sp, #52]	@ 0x34
 80087de:	2b00      	cmp	r3, #0
 80087e0:	db04      	blt.n	80087ec <_dtoa_r+0xa98>
 80087e2:	9a22      	ldr	r2, [sp, #136]	@ 0x88
 80087e4:	4313      	orrs	r3, r2
 80087e6:	9a0e      	ldr	r2, [sp, #56]	@ 0x38
 80087e8:	4313      	orrs	r3, r2
 80087ea:	d11e      	bne.n	800882a <_dtoa_r+0xad6>
 80087ec:	9b09      	ldr	r3, [sp, #36]	@ 0x24
 80087ee:	2b00      	cmp	r3, #0
 80087f0:	dde4      	ble.n	80087bc <_dtoa_r+0xa68>
 80087f2:	9905      	ldr	r1, [sp, #20]
 80087f4:	2201      	movs	r2, #1
 80087f6:	9803      	ldr	r0, [sp, #12]
 80087f8:	f000 fbbc 	bl	8008f74 <__lshift>
 80087fc:	0031      	movs	r1, r6
 80087fe:	9005      	str	r0, [sp, #20]
 8008800:	f000 fc24 	bl	800904c <__mcmp>
 8008804:	2800      	cmp	r0, #0
 8008806:	dc02      	bgt.n	800880e <_dtoa_r+0xaba>
 8008808:	d1d8      	bne.n	80087bc <_dtoa_r+0xa68>
 800880a:	07eb      	lsls	r3, r5, #31
 800880c:	d5d6      	bpl.n	80087bc <_dtoa_r+0xa68>
 800880e:	2d39      	cmp	r5, #57	@ 0x39
 8008810:	d1d2      	bne.n	80087b8 <_dtoa_r+0xa64>
 8008812:	2339      	movs	r3, #57	@ 0x39
 8008814:	9a06      	ldr	r2, [sp, #24]
 8008816:	7013      	strb	r3, [r2, #0]
 8008818:	0023      	movs	r3, r4
 800881a:	001c      	movs	r4, r3
 800881c:	3b01      	subs	r3, #1
 800881e:	781a      	ldrb	r2, [r3, #0]
 8008820:	2a39      	cmp	r2, #57	@ 0x39
 8008822:	d050      	beq.n	80088c6 <_dtoa_r+0xb72>
 8008824:	3201      	adds	r2, #1
 8008826:	701a      	strb	r2, [r3, #0]
 8008828:	e4fe      	b.n	8008228 <_dtoa_r+0x4d4>
 800882a:	9b09      	ldr	r3, [sp, #36]	@ 0x24
 800882c:	2b00      	cmp	r3, #0
 800882e:	dd03      	ble.n	8008838 <_dtoa_r+0xae4>
 8008830:	2d39      	cmp	r5, #57	@ 0x39
 8008832:	d0ee      	beq.n	8008812 <_dtoa_r+0xabe>
 8008834:	3501      	adds	r5, #1
 8008836:	e7c1      	b.n	80087bc <_dtoa_r+0xa68>
 8008838:	9b06      	ldr	r3, [sp, #24]
 800883a:	9a06      	ldr	r2, [sp, #24]
 800883c:	701d      	strb	r5, [r3, #0]
 800883e:	9b0f      	ldr	r3, [sp, #60]	@ 0x3c
 8008840:	4293      	cmp	r3, r2
 8008842:	d02b      	beq.n	800889c <_dtoa_r+0xb48>
 8008844:	2300      	movs	r3, #0
 8008846:	220a      	movs	r2, #10
 8008848:	9905      	ldr	r1, [sp, #20]
 800884a:	9803      	ldr	r0, [sp, #12]
 800884c:	f000 f9e0 	bl	8008c10 <__multadd>
 8008850:	9b04      	ldr	r3, [sp, #16]
 8008852:	9005      	str	r0, [sp, #20]
 8008854:	429f      	cmp	r7, r3
 8008856:	d109      	bne.n	800886c <_dtoa_r+0xb18>
 8008858:	0039      	movs	r1, r7
 800885a:	2300      	movs	r3, #0
 800885c:	220a      	movs	r2, #10
 800885e:	9803      	ldr	r0, [sp, #12]
 8008860:	f000 f9d6 	bl	8008c10 <__multadd>
 8008864:	0007      	movs	r7, r0
 8008866:	9004      	str	r0, [sp, #16]
 8008868:	9406      	str	r4, [sp, #24]
 800886a:	e778      	b.n	800875e <_dtoa_r+0xa0a>
 800886c:	0039      	movs	r1, r7
 800886e:	2300      	movs	r3, #0
 8008870:	220a      	movs	r2, #10
 8008872:	9803      	ldr	r0, [sp, #12]
 8008874:	f000 f9cc 	bl	8008c10 <__multadd>
 8008878:	2300      	movs	r3, #0
 800887a:	0007      	movs	r7, r0
 800887c:	220a      	movs	r2, #10
 800887e:	9904      	ldr	r1, [sp, #16]
 8008880:	9803      	ldr	r0, [sp, #12]
 8008882:	f000 f9c5 	bl	8008c10 <__multadd>
 8008886:	9004      	str	r0, [sp, #16]
 8008888:	e7ee      	b.n	8008868 <_dtoa_r+0xb14>
 800888a:	9b0e      	ldr	r3, [sp, #56]	@ 0x38
 800888c:	2401      	movs	r4, #1
 800888e:	2b00      	cmp	r3, #0
 8008890:	dd00      	ble.n	8008894 <_dtoa_r+0xb40>
 8008892:	001c      	movs	r4, r3
 8008894:	9704      	str	r7, [sp, #16]
 8008896:	2700      	movs	r7, #0
 8008898:	9b08      	ldr	r3, [sp, #32]
 800889a:	191c      	adds	r4, r3, r4
 800889c:	9905      	ldr	r1, [sp, #20]
 800889e:	2201      	movs	r2, #1
 80088a0:	9803      	ldr	r0, [sp, #12]
 80088a2:	f000 fb67 	bl	8008f74 <__lshift>
 80088a6:	0031      	movs	r1, r6
 80088a8:	9005      	str	r0, [sp, #20]
 80088aa:	f000 fbcf 	bl	800904c <__mcmp>
 80088ae:	2800      	cmp	r0, #0
 80088b0:	dcb2      	bgt.n	8008818 <_dtoa_r+0xac4>
 80088b2:	d101      	bne.n	80088b8 <_dtoa_r+0xb64>
 80088b4:	07ed      	lsls	r5, r5, #31
 80088b6:	d4af      	bmi.n	8008818 <_dtoa_r+0xac4>
 80088b8:	0023      	movs	r3, r4
 80088ba:	001c      	movs	r4, r3
 80088bc:	3b01      	subs	r3, #1
 80088be:	781a      	ldrb	r2, [r3, #0]
 80088c0:	2a30      	cmp	r2, #48	@ 0x30
 80088c2:	d0fa      	beq.n	80088ba <_dtoa_r+0xb66>
 80088c4:	e4b0      	b.n	8008228 <_dtoa_r+0x4d4>
 80088c6:	9a08      	ldr	r2, [sp, #32]
 80088c8:	429a      	cmp	r2, r3
 80088ca:	d1a6      	bne.n	800881a <_dtoa_r+0xac6>
 80088cc:	9b0c      	ldr	r3, [sp, #48]	@ 0x30
 80088ce:	3301      	adds	r3, #1
 80088d0:	930c      	str	r3, [sp, #48]	@ 0x30
 80088d2:	2331      	movs	r3, #49	@ 0x31
 80088d4:	7013      	strb	r3, [r2, #0]
 80088d6:	e4a7      	b.n	8008228 <_dtoa_r+0x4d4>
 80088d8:	4b14      	ldr	r3, [pc, #80]	@ (800892c <_dtoa_r+0xbd8>)
 80088da:	9a26      	ldr	r2, [sp, #152]	@ 0x98
 80088dc:	9308      	str	r3, [sp, #32]
 80088de:	4b14      	ldr	r3, [pc, #80]	@ (8008930 <_dtoa_r+0xbdc>)
 80088e0:	2a00      	cmp	r2, #0
 80088e2:	d001      	beq.n	80088e8 <_dtoa_r+0xb94>
 80088e4:	f7ff fa7e 	bl	8007de4 <_dtoa_r+0x90>
 80088e8:	f7ff fa7e 	bl	8007de8 <_dtoa_r+0x94>
 80088ec:	9b22      	ldr	r3, [sp, #136]	@ 0x88
 80088ee:	2b01      	cmp	r3, #1
 80088f0:	dc00      	bgt.n	80088f4 <_dtoa_r+0xba0>
 80088f2:	e648      	b.n	8008586 <_dtoa_r+0x832>
 80088f4:	2001      	movs	r0, #1
 80088f6:	9d14      	ldr	r5, [sp, #80]	@ 0x50
 80088f8:	e665      	b.n	80085c6 <_dtoa_r+0x872>
 80088fa:	9b0e      	ldr	r3, [sp, #56]	@ 0x38
 80088fc:	2b00      	cmp	r3, #0
 80088fe:	dc00      	bgt.n	8008902 <_dtoa_r+0xbae>
 8008900:	e6a9      	b.n	8008656 <_dtoa_r+0x902>
 8008902:	2400      	movs	r4, #0
 8008904:	0031      	movs	r1, r6
 8008906:	9805      	ldr	r0, [sp, #20]
 8008908:	f7ff f99e 	bl	8007c48 <quorem>
 800890c:	9b08      	ldr	r3, [sp, #32]
 800890e:	3030      	adds	r0, #48	@ 0x30
 8008910:	5518      	strb	r0, [r3, r4]
 8008912:	9b0e      	ldr	r3, [sp, #56]	@ 0x38
 8008914:	3401      	adds	r4, #1
 8008916:	0005      	movs	r5, r0
 8008918:	42a3      	cmp	r3, r4
 800891a:	ddb6      	ble.n	800888a <_dtoa_r+0xb36>
 800891c:	2300      	movs	r3, #0
 800891e:	220a      	movs	r2, #10
 8008920:	9905      	ldr	r1, [sp, #20]
 8008922:	9803      	ldr	r0, [sp, #12]
 8008924:	f000 f974 	bl	8008c10 <__multadd>
 8008928:	9005      	str	r0, [sp, #20]
 800892a:	e7eb      	b.n	8008904 <_dtoa_r+0xbb0>
 800892c:	08009c78 	.word	0x08009c78
 8008930:	08009c80 	.word	0x08009c80

08008934 <_free_r>:
 8008934:	b570      	push	{r4, r5, r6, lr}
 8008936:	0005      	movs	r5, r0
 8008938:	1e0c      	subs	r4, r1, #0
 800893a:	d010      	beq.n	800895e <_free_r+0x2a>
 800893c:	3c04      	subs	r4, #4
 800893e:	6823      	ldr	r3, [r4, #0]
 8008940:	2b00      	cmp	r3, #0
 8008942:	da00      	bge.n	8008946 <_free_r+0x12>
 8008944:	18e4      	adds	r4, r4, r3
 8008946:	0028      	movs	r0, r5
 8008948:	f000 f8ea 	bl	8008b20 <__malloc_lock>
 800894c:	4a1d      	ldr	r2, [pc, #116]	@ (80089c4 <_free_r+0x90>)
 800894e:	6813      	ldr	r3, [r2, #0]
 8008950:	2b00      	cmp	r3, #0
 8008952:	d105      	bne.n	8008960 <_free_r+0x2c>
 8008954:	6063      	str	r3, [r4, #4]
 8008956:	6014      	str	r4, [r2, #0]
 8008958:	0028      	movs	r0, r5
 800895a:	f000 f8e9 	bl	8008b30 <__malloc_unlock>
 800895e:	bd70      	pop	{r4, r5, r6, pc}
 8008960:	42a3      	cmp	r3, r4
 8008962:	d908      	bls.n	8008976 <_free_r+0x42>
 8008964:	6820      	ldr	r0, [r4, #0]
 8008966:	1821      	adds	r1, r4, r0
 8008968:	428b      	cmp	r3, r1
 800896a:	d1f3      	bne.n	8008954 <_free_r+0x20>
 800896c:	6819      	ldr	r1, [r3, #0]
 800896e:	685b      	ldr	r3, [r3, #4]
 8008970:	1809      	adds	r1, r1, r0
 8008972:	6021      	str	r1, [r4, #0]
 8008974:	e7ee      	b.n	8008954 <_free_r+0x20>
 8008976:	001a      	movs	r2, r3
 8008978:	685b      	ldr	r3, [r3, #4]
 800897a:	2b00      	cmp	r3, #0
 800897c:	d001      	beq.n	8008982 <_free_r+0x4e>
 800897e:	42a3      	cmp	r3, r4
 8008980:	d9f9      	bls.n	8008976 <_free_r+0x42>
 8008982:	6811      	ldr	r1, [r2, #0]
 8008984:	1850      	adds	r0, r2, r1
 8008986:	42a0      	cmp	r0, r4
 8008988:	d10b      	bne.n	80089a2 <_free_r+0x6e>
 800898a:	6820      	ldr	r0, [r4, #0]
 800898c:	1809      	adds	r1, r1, r0
 800898e:	1850      	adds	r0, r2, r1
 8008990:	6011      	str	r1, [r2, #0]
 8008992:	4283      	cmp	r3, r0
 8008994:	d1e0      	bne.n	8008958 <_free_r+0x24>
 8008996:	6818      	ldr	r0, [r3, #0]
 8008998:	685b      	ldr	r3, [r3, #4]
 800899a:	1841      	adds	r1, r0, r1
 800899c:	6011      	str	r1, [r2, #0]
 800899e:	6053      	str	r3, [r2, #4]
 80089a0:	e7da      	b.n	8008958 <_free_r+0x24>
 80089a2:	42a0      	cmp	r0, r4
 80089a4:	d902      	bls.n	80089ac <_free_r+0x78>
 80089a6:	230c      	movs	r3, #12
 80089a8:	602b      	str	r3, [r5, #0]
 80089aa:	e7d5      	b.n	8008958 <_free_r+0x24>
 80089ac:	6820      	ldr	r0, [r4, #0]
 80089ae:	1821      	adds	r1, r4, r0
 80089b0:	428b      	cmp	r3, r1
 80089b2:	d103      	bne.n	80089bc <_free_r+0x88>
 80089b4:	6819      	ldr	r1, [r3, #0]
 80089b6:	685b      	ldr	r3, [r3, #4]
 80089b8:	1809      	adds	r1, r1, r0
 80089ba:	6021      	str	r1, [r4, #0]
 80089bc:	6063      	str	r3, [r4, #4]
 80089be:	6054      	str	r4, [r2, #4]
 80089c0:	e7ca      	b.n	8008958 <_free_r+0x24>
 80089c2:	46c0      	nop			@ (mov r8, r8)
 80089c4:	2000054c 	.word	0x2000054c

080089c8 <malloc>:
 80089c8:	b510      	push	{r4, lr}
 80089ca:	4b03      	ldr	r3, [pc, #12]	@ (80089d8 <malloc+0x10>)
 80089cc:	0001      	movs	r1, r0
 80089ce:	6818      	ldr	r0, [r3, #0]
 80089d0:	f000 f826 	bl	8008a20 <_malloc_r>
 80089d4:	bd10      	pop	{r4, pc}
 80089d6:	46c0      	nop			@ (mov r8, r8)
 80089d8:	2000001c 	.word	0x2000001c

080089dc <sbrk_aligned>:
 80089dc:	b570      	push	{r4, r5, r6, lr}
 80089de:	4e0f      	ldr	r6, [pc, #60]	@ (8008a1c <sbrk_aligned+0x40>)
 80089e0:	000d      	movs	r5, r1
 80089e2:	6831      	ldr	r1, [r6, #0]
 80089e4:	0004      	movs	r4, r0
 80089e6:	2900      	cmp	r1, #0
 80089e8:	d102      	bne.n	80089f0 <sbrk_aligned+0x14>
 80089ea:	f000 fecb 	bl	8009784 <_sbrk_r>
 80089ee:	6030      	str	r0, [r6, #0]
 80089f0:	0029      	movs	r1, r5
 80089f2:	0020      	movs	r0, r4
 80089f4:	f000 fec6 	bl	8009784 <_sbrk_r>
 80089f8:	1c43      	adds	r3, r0, #1
 80089fa:	d103      	bne.n	8008a04 <sbrk_aligned+0x28>
 80089fc:	2501      	movs	r5, #1
 80089fe:	426d      	negs	r5, r5
 8008a00:	0028      	movs	r0, r5
 8008a02:	bd70      	pop	{r4, r5, r6, pc}
 8008a04:	2303      	movs	r3, #3
 8008a06:	1cc5      	adds	r5, r0, #3
 8008a08:	439d      	bics	r5, r3
 8008a0a:	42a8      	cmp	r0, r5
 8008a0c:	d0f8      	beq.n	8008a00 <sbrk_aligned+0x24>
 8008a0e:	1a29      	subs	r1, r5, r0
 8008a10:	0020      	movs	r0, r4
 8008a12:	f000 feb7 	bl	8009784 <_sbrk_r>
 8008a16:	3001      	adds	r0, #1
 8008a18:	d1f2      	bne.n	8008a00 <sbrk_aligned+0x24>
 8008a1a:	e7ef      	b.n	80089fc <sbrk_aligned+0x20>
 8008a1c:	20000548 	.word	0x20000548

08008a20 <_malloc_r>:
 8008a20:	b5f7      	push	{r0, r1, r2, r4, r5, r6, r7, lr}
 8008a22:	2203      	movs	r2, #3
 8008a24:	1ccb      	adds	r3, r1, #3
 8008a26:	4393      	bics	r3, r2
 8008a28:	3308      	adds	r3, #8
 8008a2a:	0005      	movs	r5, r0
 8008a2c:	001f      	movs	r7, r3
 8008a2e:	2b0c      	cmp	r3, #12
 8008a30:	d234      	bcs.n	8008a9c <_malloc_r+0x7c>
 8008a32:	270c      	movs	r7, #12
 8008a34:	42b9      	cmp	r1, r7
 8008a36:	d833      	bhi.n	8008aa0 <_malloc_r+0x80>
 8008a38:	0028      	movs	r0, r5
 8008a3a:	f000 f871 	bl	8008b20 <__malloc_lock>
 8008a3e:	4e37      	ldr	r6, [pc, #220]	@ (8008b1c <_malloc_r+0xfc>)
 8008a40:	6833      	ldr	r3, [r6, #0]
 8008a42:	001c      	movs	r4, r3
 8008a44:	2c00      	cmp	r4, #0
 8008a46:	d12f      	bne.n	8008aa8 <_malloc_r+0x88>
 8008a48:	0039      	movs	r1, r7
 8008a4a:	0028      	movs	r0, r5
 8008a4c:	f7ff ffc6 	bl	80089dc <sbrk_aligned>
 8008a50:	0004      	movs	r4, r0
 8008a52:	1c43      	adds	r3, r0, #1
 8008a54:	d15f      	bne.n	8008b16 <_malloc_r+0xf6>
 8008a56:	6834      	ldr	r4, [r6, #0]
 8008a58:	9400      	str	r4, [sp, #0]
 8008a5a:	9b00      	ldr	r3, [sp, #0]
 8008a5c:	2b00      	cmp	r3, #0
 8008a5e:	d14a      	bne.n	8008af6 <_malloc_r+0xd6>
 8008a60:	2c00      	cmp	r4, #0
 8008a62:	d052      	beq.n	8008b0a <_malloc_r+0xea>
 8008a64:	6823      	ldr	r3, [r4, #0]
 8008a66:	0028      	movs	r0, r5
 8008a68:	18e3      	adds	r3, r4, r3
 8008a6a:	9900      	ldr	r1, [sp, #0]
 8008a6c:	9301      	str	r3, [sp, #4]
 8008a6e:	f000 fe89 	bl	8009784 <_sbrk_r>
 8008a72:	9b01      	ldr	r3, [sp, #4]
 8008a74:	4283      	cmp	r3, r0
 8008a76:	d148      	bne.n	8008b0a <_malloc_r+0xea>
 8008a78:	6823      	ldr	r3, [r4, #0]
 8008a7a:	0028      	movs	r0, r5
 8008a7c:	1aff      	subs	r7, r7, r3
 8008a7e:	0039      	movs	r1, r7
 8008a80:	f7ff ffac 	bl	80089dc <sbrk_aligned>
 8008a84:	3001      	adds	r0, #1
 8008a86:	d040      	beq.n	8008b0a <_malloc_r+0xea>
 8008a88:	6823      	ldr	r3, [r4, #0]
 8008a8a:	19db      	adds	r3, r3, r7
 8008a8c:	6023      	str	r3, [r4, #0]
 8008a8e:	6833      	ldr	r3, [r6, #0]
 8008a90:	685a      	ldr	r2, [r3, #4]
 8008a92:	2a00      	cmp	r2, #0
 8008a94:	d133      	bne.n	8008afe <_malloc_r+0xde>
 8008a96:	9b00      	ldr	r3, [sp, #0]
 8008a98:	6033      	str	r3, [r6, #0]
 8008a9a:	e019      	b.n	8008ad0 <_malloc_r+0xb0>
 8008a9c:	2b00      	cmp	r3, #0
 8008a9e:	dac9      	bge.n	8008a34 <_malloc_r+0x14>
 8008aa0:	230c      	movs	r3, #12
 8008aa2:	602b      	str	r3, [r5, #0]
 8008aa4:	2000      	movs	r0, #0
 8008aa6:	bdfe      	pop	{r1, r2, r3, r4, r5, r6, r7, pc}
 8008aa8:	6821      	ldr	r1, [r4, #0]
 8008aaa:	1bc9      	subs	r1, r1, r7
 8008aac:	d420      	bmi.n	8008af0 <_malloc_r+0xd0>
 8008aae:	290b      	cmp	r1, #11
 8008ab0:	d90a      	bls.n	8008ac8 <_malloc_r+0xa8>
 8008ab2:	19e2      	adds	r2, r4, r7
 8008ab4:	6027      	str	r7, [r4, #0]
 8008ab6:	42a3      	cmp	r3, r4
 8008ab8:	d104      	bne.n	8008ac4 <_malloc_r+0xa4>
 8008aba:	6032      	str	r2, [r6, #0]
 8008abc:	6863      	ldr	r3, [r4, #4]
 8008abe:	6011      	str	r1, [r2, #0]
 8008ac0:	6053      	str	r3, [r2, #4]
 8008ac2:	e005      	b.n	8008ad0 <_malloc_r+0xb0>
 8008ac4:	605a      	str	r2, [r3, #4]
 8008ac6:	e7f9      	b.n	8008abc <_malloc_r+0x9c>
 8008ac8:	6862      	ldr	r2, [r4, #4]
 8008aca:	42a3      	cmp	r3, r4
 8008acc:	d10e      	bne.n	8008aec <_malloc_r+0xcc>
 8008ace:	6032      	str	r2, [r6, #0]
 8008ad0:	0028      	movs	r0, r5
 8008ad2:	f000 f82d 	bl	8008b30 <__malloc_unlock>
 8008ad6:	0020      	movs	r0, r4
 8008ad8:	2207      	movs	r2, #7
 8008ada:	300b      	adds	r0, #11
 8008adc:	1d23      	adds	r3, r4, #4
 8008ade:	4390      	bics	r0, r2
 8008ae0:	1ac2      	subs	r2, r0, r3
 8008ae2:	4298      	cmp	r0, r3
 8008ae4:	d0df      	beq.n	8008aa6 <_malloc_r+0x86>
 8008ae6:	1a1b      	subs	r3, r3, r0
 8008ae8:	50a3      	str	r3, [r4, r2]
 8008aea:	e7dc      	b.n	8008aa6 <_malloc_r+0x86>
 8008aec:	605a      	str	r2, [r3, #4]
 8008aee:	e7ef      	b.n	8008ad0 <_malloc_r+0xb0>
 8008af0:	0023      	movs	r3, r4
 8008af2:	6864      	ldr	r4, [r4, #4]
 8008af4:	e7a6      	b.n	8008a44 <_malloc_r+0x24>
 8008af6:	9c00      	ldr	r4, [sp, #0]
 8008af8:	6863      	ldr	r3, [r4, #4]
 8008afa:	9300      	str	r3, [sp, #0]
 8008afc:	e7ad      	b.n	8008a5a <_malloc_r+0x3a>
 8008afe:	001a      	movs	r2, r3
 8008b00:	685b      	ldr	r3, [r3, #4]
 8008b02:	42a3      	cmp	r3, r4
 8008b04:	d1fb      	bne.n	8008afe <_malloc_r+0xde>
 8008b06:	2300      	movs	r3, #0
 8008b08:	e7da      	b.n	8008ac0 <_malloc_r+0xa0>
 8008b0a:	230c      	movs	r3, #12
 8008b0c:	0028      	movs	r0, r5
 8008b0e:	602b      	str	r3, [r5, #0]
 8008b10:	f000 f80e 	bl	8008b30 <__malloc_unlock>
 8008b14:	e7c6      	b.n	8008aa4 <_malloc_r+0x84>
 8008b16:	6007      	str	r7, [r0, #0]
 8008b18:	e7da      	b.n	8008ad0 <_malloc_r+0xb0>
 8008b1a:	46c0      	nop			@ (mov r8, r8)
 8008b1c:	2000054c 	.word	0x2000054c

08008b20 <__malloc_lock>:
 8008b20:	b510      	push	{r4, lr}
 8008b22:	4802      	ldr	r0, [pc, #8]	@ (8008b2c <__malloc_lock+0xc>)
 8008b24:	f7ff f883 	bl	8007c2e <__retarget_lock_acquire_recursive>
 8008b28:	bd10      	pop	{r4, pc}
 8008b2a:	46c0      	nop			@ (mov r8, r8)
 8008b2c:	20000544 	.word	0x20000544

08008b30 <__malloc_unlock>:
 8008b30:	b510      	push	{r4, lr}
 8008b32:	4802      	ldr	r0, [pc, #8]	@ (8008b3c <__malloc_unlock+0xc>)
 8008b34:	f7ff f87c 	bl	8007c30 <__retarget_lock_release_recursive>
 8008b38:	bd10      	pop	{r4, pc}
 8008b3a:	46c0      	nop			@ (mov r8, r8)
 8008b3c:	20000544 	.word	0x20000544

08008b40 <_Balloc>:
 8008b40:	b570      	push	{r4, r5, r6, lr}
 8008b42:	69c5      	ldr	r5, [r0, #28]
 8008b44:	0006      	movs	r6, r0
 8008b46:	000c      	movs	r4, r1
 8008b48:	2d00      	cmp	r5, #0
 8008b4a:	d10e      	bne.n	8008b6a <_Balloc+0x2a>
 8008b4c:	2010      	movs	r0, #16
 8008b4e:	f7ff ff3b 	bl	80089c8 <malloc>
 8008b52:	1e02      	subs	r2, r0, #0
 8008b54:	61f0      	str	r0, [r6, #28]
 8008b56:	d104      	bne.n	8008b62 <_Balloc+0x22>
 8008b58:	216b      	movs	r1, #107	@ 0x6b
 8008b5a:	4b19      	ldr	r3, [pc, #100]	@ (8008bc0 <_Balloc+0x80>)
 8008b5c:	4819      	ldr	r0, [pc, #100]	@ (8008bc4 <_Balloc+0x84>)
 8008b5e:	f000 fe2d 	bl	80097bc <__assert_func>
 8008b62:	6045      	str	r5, [r0, #4]
 8008b64:	6085      	str	r5, [r0, #8]
 8008b66:	6005      	str	r5, [r0, #0]
 8008b68:	60c5      	str	r5, [r0, #12]
 8008b6a:	69f5      	ldr	r5, [r6, #28]
 8008b6c:	68eb      	ldr	r3, [r5, #12]
 8008b6e:	2b00      	cmp	r3, #0
 8008b70:	d013      	beq.n	8008b9a <_Balloc+0x5a>
 8008b72:	69f3      	ldr	r3, [r6, #28]
 8008b74:	00a2      	lsls	r2, r4, #2
 8008b76:	68db      	ldr	r3, [r3, #12]
 8008b78:	189b      	adds	r3, r3, r2
 8008b7a:	6818      	ldr	r0, [r3, #0]
 8008b7c:	2800      	cmp	r0, #0
 8008b7e:	d118      	bne.n	8008bb2 <_Balloc+0x72>
 8008b80:	2101      	movs	r1, #1
 8008b82:	000d      	movs	r5, r1
 8008b84:	40a5      	lsls	r5, r4
 8008b86:	1d6a      	adds	r2, r5, #5
 8008b88:	0030      	movs	r0, r6
 8008b8a:	0092      	lsls	r2, r2, #2
 8008b8c:	f000 fe34 	bl	80097f8 <_calloc_r>
 8008b90:	2800      	cmp	r0, #0
 8008b92:	d00c      	beq.n	8008bae <_Balloc+0x6e>
 8008b94:	6044      	str	r4, [r0, #4]
 8008b96:	6085      	str	r5, [r0, #8]
 8008b98:	e00d      	b.n	8008bb6 <_Balloc+0x76>
 8008b9a:	2221      	movs	r2, #33	@ 0x21
 8008b9c:	2104      	movs	r1, #4
 8008b9e:	0030      	movs	r0, r6
 8008ba0:	f000 fe2a 	bl	80097f8 <_calloc_r>
 8008ba4:	69f3      	ldr	r3, [r6, #28]
 8008ba6:	60e8      	str	r0, [r5, #12]
 8008ba8:	68db      	ldr	r3, [r3, #12]
 8008baa:	2b00      	cmp	r3, #0
 8008bac:	d1e1      	bne.n	8008b72 <_Balloc+0x32>
 8008bae:	2000      	movs	r0, #0
 8008bb0:	bd70      	pop	{r4, r5, r6, pc}
 8008bb2:	6802      	ldr	r2, [r0, #0]
 8008bb4:	601a      	str	r2, [r3, #0]
 8008bb6:	2300      	movs	r3, #0
 8008bb8:	6103      	str	r3, [r0, #16]
 8008bba:	60c3      	str	r3, [r0, #12]
 8008bbc:	e7f8      	b.n	8008bb0 <_Balloc+0x70>
 8008bbe:	46c0      	nop			@ (mov r8, r8)
 8008bc0:	08009c85 	.word	0x08009c85
 8008bc4:	08009d05 	.word	0x08009d05

08008bc8 <_Bfree>:
 8008bc8:	b570      	push	{r4, r5, r6, lr}
 8008bca:	69c6      	ldr	r6, [r0, #28]
 8008bcc:	0005      	movs	r5, r0
 8008bce:	000c      	movs	r4, r1
 8008bd0:	2e00      	cmp	r6, #0
 8008bd2:	d10e      	bne.n	8008bf2 <_Bfree+0x2a>
 8008bd4:	2010      	movs	r0, #16
 8008bd6:	f7ff fef7 	bl	80089c8 <malloc>
 8008bda:	1e02      	subs	r2, r0, #0
 8008bdc:	61e8      	str	r0, [r5, #28]
 8008bde:	d104      	bne.n	8008bea <_Bfree+0x22>
 8008be0:	218f      	movs	r1, #143	@ 0x8f
 8008be2:	4b09      	ldr	r3, [pc, #36]	@ (8008c08 <_Bfree+0x40>)
 8008be4:	4809      	ldr	r0, [pc, #36]	@ (8008c0c <_Bfree+0x44>)
 8008be6:	f000 fde9 	bl	80097bc <__assert_func>
 8008bea:	6046      	str	r6, [r0, #4]
 8008bec:	6086      	str	r6, [r0, #8]
 8008bee:	6006      	str	r6, [r0, #0]
 8008bf0:	60c6      	str	r6, [r0, #12]
 8008bf2:	2c00      	cmp	r4, #0
 8008bf4:	d007      	beq.n	8008c06 <_Bfree+0x3e>
 8008bf6:	69eb      	ldr	r3, [r5, #28]
 8008bf8:	6862      	ldr	r2, [r4, #4]
 8008bfa:	68db      	ldr	r3, [r3, #12]
 8008bfc:	0092      	lsls	r2, r2, #2
 8008bfe:	189b      	adds	r3, r3, r2
 8008c00:	681a      	ldr	r2, [r3, #0]
 8008c02:	6022      	str	r2, [r4, #0]
 8008c04:	601c      	str	r4, [r3, #0]
 8008c06:	bd70      	pop	{r4, r5, r6, pc}
 8008c08:	08009c85 	.word	0x08009c85
 8008c0c:	08009d05 	.word	0x08009d05

08008c10 <__multadd>:
 8008c10:	b5f7      	push	{r0, r1, r2, r4, r5, r6, r7, lr}
 8008c12:	000f      	movs	r7, r1
 8008c14:	9001      	str	r0, [sp, #4]
 8008c16:	000c      	movs	r4, r1
 8008c18:	001e      	movs	r6, r3
 8008c1a:	2000      	movs	r0, #0
 8008c1c:	690d      	ldr	r5, [r1, #16]
 8008c1e:	3714      	adds	r7, #20
 8008c20:	683b      	ldr	r3, [r7, #0]
 8008c22:	3001      	adds	r0, #1
 8008c24:	b299      	uxth	r1, r3
 8008c26:	4351      	muls	r1, r2
 8008c28:	0c1b      	lsrs	r3, r3, #16
 8008c2a:	4353      	muls	r3, r2
 8008c2c:	1989      	adds	r1, r1, r6
 8008c2e:	0c0e      	lsrs	r6, r1, #16
 8008c30:	199b      	adds	r3, r3, r6
 8008c32:	0c1e      	lsrs	r6, r3, #16
 8008c34:	b289      	uxth	r1, r1
 8008c36:	041b      	lsls	r3, r3, #16
 8008c38:	185b      	adds	r3, r3, r1
 8008c3a:	c708      	stmia	r7!, {r3}
 8008c3c:	4285      	cmp	r5, r0
 8008c3e:	dcef      	bgt.n	8008c20 <__multadd+0x10>
 8008c40:	2e00      	cmp	r6, #0
 8008c42:	d022      	beq.n	8008c8a <__multadd+0x7a>
 8008c44:	68a3      	ldr	r3, [r4, #8]
 8008c46:	42ab      	cmp	r3, r5
 8008c48:	dc19      	bgt.n	8008c7e <__multadd+0x6e>
 8008c4a:	6861      	ldr	r1, [r4, #4]
 8008c4c:	9801      	ldr	r0, [sp, #4]
 8008c4e:	3101      	adds	r1, #1
 8008c50:	f7ff ff76 	bl	8008b40 <_Balloc>
 8008c54:	1e07      	subs	r7, r0, #0
 8008c56:	d105      	bne.n	8008c64 <__multadd+0x54>
 8008c58:	003a      	movs	r2, r7
 8008c5a:	21ba      	movs	r1, #186	@ 0xba
 8008c5c:	4b0c      	ldr	r3, [pc, #48]	@ (8008c90 <__multadd+0x80>)
 8008c5e:	480d      	ldr	r0, [pc, #52]	@ (8008c94 <__multadd+0x84>)
 8008c60:	f000 fdac 	bl	80097bc <__assert_func>
 8008c64:	0021      	movs	r1, r4
 8008c66:	6922      	ldr	r2, [r4, #16]
 8008c68:	310c      	adds	r1, #12
 8008c6a:	3202      	adds	r2, #2
 8008c6c:	0092      	lsls	r2, r2, #2
 8008c6e:	300c      	adds	r0, #12
 8008c70:	f000 fd9a 	bl	80097a8 <memcpy>
 8008c74:	0021      	movs	r1, r4
 8008c76:	9801      	ldr	r0, [sp, #4]
 8008c78:	f7ff ffa6 	bl	8008bc8 <_Bfree>
 8008c7c:	003c      	movs	r4, r7
 8008c7e:	1d2b      	adds	r3, r5, #4
 8008c80:	009b      	lsls	r3, r3, #2
 8008c82:	18e3      	adds	r3, r4, r3
 8008c84:	3501      	adds	r5, #1
 8008c86:	605e      	str	r6, [r3, #4]
 8008c88:	6125      	str	r5, [r4, #16]
 8008c8a:	0020      	movs	r0, r4
 8008c8c:	bdfe      	pop	{r1, r2, r3, r4, r5, r6, r7, pc}
 8008c8e:	46c0      	nop			@ (mov r8, r8)
 8008c90:	08009cf4 	.word	0x08009cf4
 8008c94:	08009d05 	.word	0x08009d05

08008c98 <__hi0bits>:
 8008c98:	2280      	movs	r2, #128	@ 0x80
 8008c9a:	0003      	movs	r3, r0
 8008c9c:	0252      	lsls	r2, r2, #9
 8008c9e:	2000      	movs	r0, #0
 8008ca0:	4293      	cmp	r3, r2
 8008ca2:	d201      	bcs.n	8008ca8 <__hi0bits+0x10>
 8008ca4:	041b      	lsls	r3, r3, #16
 8008ca6:	3010      	adds	r0, #16
 8008ca8:	2280      	movs	r2, #128	@ 0x80
 8008caa:	0452      	lsls	r2, r2, #17
 8008cac:	4293      	cmp	r3, r2
 8008cae:	d201      	bcs.n	8008cb4 <__hi0bits+0x1c>
 8008cb0:	3008      	adds	r0, #8
 8008cb2:	021b      	lsls	r3, r3, #8
 8008cb4:	2280      	movs	r2, #128	@ 0x80
 8008cb6:	0552      	lsls	r2, r2, #21
 8008cb8:	4293      	cmp	r3, r2
 8008cba:	d201      	bcs.n	8008cc0 <__hi0bits+0x28>
 8008cbc:	3004      	adds	r0, #4
 8008cbe:	011b      	lsls	r3, r3, #4
 8008cc0:	2280      	movs	r2, #128	@ 0x80
 8008cc2:	05d2      	lsls	r2, r2, #23
 8008cc4:	4293      	cmp	r3, r2
 8008cc6:	d201      	bcs.n	8008ccc <__hi0bits+0x34>
 8008cc8:	3002      	adds	r0, #2
 8008cca:	009b      	lsls	r3, r3, #2
 8008ccc:	2b00      	cmp	r3, #0
 8008cce:	db03      	blt.n	8008cd8 <__hi0bits+0x40>
 8008cd0:	3001      	adds	r0, #1
 8008cd2:	4213      	tst	r3, r2
 8008cd4:	d100      	bne.n	8008cd8 <__hi0bits+0x40>
 8008cd6:	2020      	movs	r0, #32
 8008cd8:	4770      	bx	lr

08008cda <__lo0bits>:
 8008cda:	6803      	ldr	r3, [r0, #0]
 8008cdc:	0001      	movs	r1, r0
 8008cde:	2207      	movs	r2, #7
 8008ce0:	0018      	movs	r0, r3
 8008ce2:	4010      	ands	r0, r2
 8008ce4:	4213      	tst	r3, r2
 8008ce6:	d00d      	beq.n	8008d04 <__lo0bits+0x2a>
 8008ce8:	3a06      	subs	r2, #6
 8008cea:	2000      	movs	r0, #0
 8008cec:	4213      	tst	r3, r2
 8008cee:	d105      	bne.n	8008cfc <__lo0bits+0x22>
 8008cf0:	3002      	adds	r0, #2
 8008cf2:	4203      	tst	r3, r0
 8008cf4:	d003      	beq.n	8008cfe <__lo0bits+0x24>
 8008cf6:	40d3      	lsrs	r3, r2
 8008cf8:	0010      	movs	r0, r2
 8008cfa:	600b      	str	r3, [r1, #0]
 8008cfc:	4770      	bx	lr
 8008cfe:	089b      	lsrs	r3, r3, #2
 8008d00:	600b      	str	r3, [r1, #0]
 8008d02:	e7fb      	b.n	8008cfc <__lo0bits+0x22>
 8008d04:	b29a      	uxth	r2, r3
 8008d06:	2a00      	cmp	r2, #0
 8008d08:	d101      	bne.n	8008d0e <__lo0bits+0x34>
 8008d0a:	2010      	movs	r0, #16
 8008d0c:	0c1b      	lsrs	r3, r3, #16
 8008d0e:	b2da      	uxtb	r2, r3
 8008d10:	2a00      	cmp	r2, #0
 8008d12:	d101      	bne.n	8008d18 <__lo0bits+0x3e>
 8008d14:	3008      	adds	r0, #8
 8008d16:	0a1b      	lsrs	r3, r3, #8
 8008d18:	071a      	lsls	r2, r3, #28
 8008d1a:	d101      	bne.n	8008d20 <__lo0bits+0x46>
 8008d1c:	3004      	adds	r0, #4
 8008d1e:	091b      	lsrs	r3, r3, #4
 8008d20:	079a      	lsls	r2, r3, #30
 8008d22:	d101      	bne.n	8008d28 <__lo0bits+0x4e>
 8008d24:	3002      	adds	r0, #2
 8008d26:	089b      	lsrs	r3, r3, #2
 8008d28:	07da      	lsls	r2, r3, #31
 8008d2a:	d4e9      	bmi.n	8008d00 <__lo0bits+0x26>
 8008d2c:	3001      	adds	r0, #1
 8008d2e:	085b      	lsrs	r3, r3, #1
 8008d30:	d1e6      	bne.n	8008d00 <__lo0bits+0x26>
 8008d32:	2020      	movs	r0, #32
 8008d34:	e7e2      	b.n	8008cfc <__lo0bits+0x22>
	...

08008d38 <__i2b>:
 8008d38:	b510      	push	{r4, lr}
 8008d3a:	000c      	movs	r4, r1
 8008d3c:	2101      	movs	r1, #1
 8008d3e:	f7ff feff 	bl	8008b40 <_Balloc>
 8008d42:	2800      	cmp	r0, #0
 8008d44:	d107      	bne.n	8008d56 <__i2b+0x1e>
 8008d46:	2146      	movs	r1, #70	@ 0x46
 8008d48:	4c05      	ldr	r4, [pc, #20]	@ (8008d60 <__i2b+0x28>)
 8008d4a:	0002      	movs	r2, r0
 8008d4c:	4b05      	ldr	r3, [pc, #20]	@ (8008d64 <__i2b+0x2c>)
 8008d4e:	0020      	movs	r0, r4
 8008d50:	31ff      	adds	r1, #255	@ 0xff
 8008d52:	f000 fd33 	bl	80097bc <__assert_func>
 8008d56:	2301      	movs	r3, #1
 8008d58:	6144      	str	r4, [r0, #20]
 8008d5a:	6103      	str	r3, [r0, #16]
 8008d5c:	bd10      	pop	{r4, pc}
 8008d5e:	46c0      	nop			@ (mov r8, r8)
 8008d60:	08009d05 	.word	0x08009d05
 8008d64:	08009cf4 	.word	0x08009cf4

08008d68 <__multiply>:
 8008d68:	b5f0      	push	{r4, r5, r6, r7, lr}
 8008d6a:	0014      	movs	r4, r2
 8008d6c:	690a      	ldr	r2, [r1, #16]
 8008d6e:	6923      	ldr	r3, [r4, #16]
 8008d70:	000d      	movs	r5, r1
 8008d72:	b089      	sub	sp, #36	@ 0x24
 8008d74:	429a      	cmp	r2, r3
 8008d76:	db02      	blt.n	8008d7e <__multiply+0x16>
 8008d78:	0023      	movs	r3, r4
 8008d7a:	000c      	movs	r4, r1
 8008d7c:	001d      	movs	r5, r3
 8008d7e:	6927      	ldr	r7, [r4, #16]
 8008d80:	692e      	ldr	r6, [r5, #16]
 8008d82:	6861      	ldr	r1, [r4, #4]
 8008d84:	19bb      	adds	r3, r7, r6
 8008d86:	9300      	str	r3, [sp, #0]
 8008d88:	68a3      	ldr	r3, [r4, #8]
 8008d8a:	19ba      	adds	r2, r7, r6
 8008d8c:	4293      	cmp	r3, r2
 8008d8e:	da00      	bge.n	8008d92 <__multiply+0x2a>
 8008d90:	3101      	adds	r1, #1
 8008d92:	f7ff fed5 	bl	8008b40 <_Balloc>
 8008d96:	4684      	mov	ip, r0
 8008d98:	2800      	cmp	r0, #0
 8008d9a:	d106      	bne.n	8008daa <__multiply+0x42>
 8008d9c:	21b1      	movs	r1, #177	@ 0xb1
 8008d9e:	4662      	mov	r2, ip
 8008da0:	4b44      	ldr	r3, [pc, #272]	@ (8008eb4 <__multiply+0x14c>)
 8008da2:	4845      	ldr	r0, [pc, #276]	@ (8008eb8 <__multiply+0x150>)
 8008da4:	0049      	lsls	r1, r1, #1
 8008da6:	f000 fd09 	bl	80097bc <__assert_func>
 8008daa:	0002      	movs	r2, r0
 8008dac:	19bb      	adds	r3, r7, r6
 8008dae:	3214      	adds	r2, #20
 8008db0:	009b      	lsls	r3, r3, #2
 8008db2:	18d3      	adds	r3, r2, r3
 8008db4:	9301      	str	r3, [sp, #4]
 8008db6:	2100      	movs	r1, #0
 8008db8:	0013      	movs	r3, r2
 8008dba:	9801      	ldr	r0, [sp, #4]
 8008dbc:	4283      	cmp	r3, r0
 8008dbe:	d328      	bcc.n	8008e12 <__multiply+0xaa>
 8008dc0:	0023      	movs	r3, r4
 8008dc2:	00bf      	lsls	r7, r7, #2
 8008dc4:	3314      	adds	r3, #20
 8008dc6:	9304      	str	r3, [sp, #16]
 8008dc8:	3514      	adds	r5, #20
 8008dca:	19db      	adds	r3, r3, r7
 8008dcc:	00b6      	lsls	r6, r6, #2
 8008dce:	9302      	str	r3, [sp, #8]
 8008dd0:	19ab      	adds	r3, r5, r6
 8008dd2:	9307      	str	r3, [sp, #28]
 8008dd4:	2304      	movs	r3, #4
 8008dd6:	9305      	str	r3, [sp, #20]
 8008dd8:	0023      	movs	r3, r4
 8008dda:	9902      	ldr	r1, [sp, #8]
 8008ddc:	3315      	adds	r3, #21
 8008dde:	4299      	cmp	r1, r3
 8008de0:	d305      	bcc.n	8008dee <__multiply+0x86>
 8008de2:	1b0c      	subs	r4, r1, r4
 8008de4:	3c15      	subs	r4, #21
 8008de6:	08a4      	lsrs	r4, r4, #2
 8008de8:	3401      	adds	r4, #1
 8008dea:	00a3      	lsls	r3, r4, #2
 8008dec:	9305      	str	r3, [sp, #20]
 8008dee:	9b07      	ldr	r3, [sp, #28]
 8008df0:	429d      	cmp	r5, r3
 8008df2:	d310      	bcc.n	8008e16 <__multiply+0xae>
 8008df4:	9b00      	ldr	r3, [sp, #0]
 8008df6:	2b00      	cmp	r3, #0
 8008df8:	dd05      	ble.n	8008e06 <__multiply+0x9e>
 8008dfa:	9b01      	ldr	r3, [sp, #4]
 8008dfc:	3b04      	subs	r3, #4
 8008dfe:	9301      	str	r3, [sp, #4]
 8008e00:	681b      	ldr	r3, [r3, #0]
 8008e02:	2b00      	cmp	r3, #0
 8008e04:	d052      	beq.n	8008eac <__multiply+0x144>
 8008e06:	4663      	mov	r3, ip
 8008e08:	4660      	mov	r0, ip
 8008e0a:	9a00      	ldr	r2, [sp, #0]
 8008e0c:	611a      	str	r2, [r3, #16]
 8008e0e:	b009      	add	sp, #36	@ 0x24
 8008e10:	bdf0      	pop	{r4, r5, r6, r7, pc}
 8008e12:	c302      	stmia	r3!, {r1}
 8008e14:	e7d1      	b.n	8008dba <__multiply+0x52>
 8008e16:	682c      	ldr	r4, [r5, #0]
 8008e18:	b2a4      	uxth	r4, r4
 8008e1a:	2c00      	cmp	r4, #0
 8008e1c:	d01f      	beq.n	8008e5e <__multiply+0xf6>
 8008e1e:	2300      	movs	r3, #0
 8008e20:	0017      	movs	r7, r2
 8008e22:	9e04      	ldr	r6, [sp, #16]
 8008e24:	9303      	str	r3, [sp, #12]
 8008e26:	ce08      	ldmia	r6!, {r3}
 8008e28:	6839      	ldr	r1, [r7, #0]
 8008e2a:	9306      	str	r3, [sp, #24]
 8008e2c:	466b      	mov	r3, sp
 8008e2e:	8b1b      	ldrh	r3, [r3, #24]
 8008e30:	b288      	uxth	r0, r1
 8008e32:	4363      	muls	r3, r4
 8008e34:	181b      	adds	r3, r3, r0
 8008e36:	9803      	ldr	r0, [sp, #12]
 8008e38:	0c09      	lsrs	r1, r1, #16
 8008e3a:	181b      	adds	r3, r3, r0
 8008e3c:	9806      	ldr	r0, [sp, #24]
 8008e3e:	0c00      	lsrs	r0, r0, #16
 8008e40:	4360      	muls	r0, r4
 8008e42:	1840      	adds	r0, r0, r1
 8008e44:	0c19      	lsrs	r1, r3, #16
 8008e46:	1841      	adds	r1, r0, r1
 8008e48:	0c08      	lsrs	r0, r1, #16
 8008e4a:	b29b      	uxth	r3, r3
 8008e4c:	0409      	lsls	r1, r1, #16
 8008e4e:	4319      	orrs	r1, r3
 8008e50:	9b02      	ldr	r3, [sp, #8]
 8008e52:	9003      	str	r0, [sp, #12]
 8008e54:	c702      	stmia	r7!, {r1}
 8008e56:	42b3      	cmp	r3, r6
 8008e58:	d8e5      	bhi.n	8008e26 <__multiply+0xbe>
 8008e5a:	9b05      	ldr	r3, [sp, #20]
 8008e5c:	50d0      	str	r0, [r2, r3]
 8008e5e:	682c      	ldr	r4, [r5, #0]
 8008e60:	0c24      	lsrs	r4, r4, #16
 8008e62:	d020      	beq.n	8008ea6 <__multiply+0x13e>
 8008e64:	2100      	movs	r1, #0
 8008e66:	0010      	movs	r0, r2
 8008e68:	6813      	ldr	r3, [r2, #0]
 8008e6a:	9e04      	ldr	r6, [sp, #16]
 8008e6c:	9103      	str	r1, [sp, #12]
 8008e6e:	6831      	ldr	r1, [r6, #0]
 8008e70:	6807      	ldr	r7, [r0, #0]
 8008e72:	b289      	uxth	r1, r1
 8008e74:	4361      	muls	r1, r4
 8008e76:	0c3f      	lsrs	r7, r7, #16
 8008e78:	19c9      	adds	r1, r1, r7
 8008e7a:	9f03      	ldr	r7, [sp, #12]
 8008e7c:	b29b      	uxth	r3, r3
 8008e7e:	19c9      	adds	r1, r1, r7
 8008e80:	040f      	lsls	r7, r1, #16
 8008e82:	431f      	orrs	r7, r3
 8008e84:	6007      	str	r7, [r0, #0]
 8008e86:	ce80      	ldmia	r6!, {r7}
 8008e88:	6843      	ldr	r3, [r0, #4]
 8008e8a:	0c3f      	lsrs	r7, r7, #16
 8008e8c:	4367      	muls	r7, r4
 8008e8e:	b29b      	uxth	r3, r3
 8008e90:	0c09      	lsrs	r1, r1, #16
 8008e92:	18fb      	adds	r3, r7, r3
 8008e94:	185b      	adds	r3, r3, r1
 8008e96:	0c19      	lsrs	r1, r3, #16
 8008e98:	9103      	str	r1, [sp, #12]
 8008e9a:	9902      	ldr	r1, [sp, #8]
 8008e9c:	3004      	adds	r0, #4
 8008e9e:	42b1      	cmp	r1, r6
 8008ea0:	d8e5      	bhi.n	8008e6e <__multiply+0x106>
 8008ea2:	9905      	ldr	r1, [sp, #20]
 8008ea4:	5053      	str	r3, [r2, r1]
 8008ea6:	3504      	adds	r5, #4
 8008ea8:	3204      	adds	r2, #4
 8008eaa:	e7a0      	b.n	8008dee <__multiply+0x86>
 8008eac:	9b00      	ldr	r3, [sp, #0]
 8008eae:	3b01      	subs	r3, #1
 8008eb0:	9300      	str	r3, [sp, #0]
 8008eb2:	e79f      	b.n	8008df4 <__multiply+0x8c>
 8008eb4:	08009cf4 	.word	0x08009cf4
 8008eb8:	08009d05 	.word	0x08009d05

08008ebc <__pow5mult>:
 8008ebc:	b5f7      	push	{r0, r1, r2, r4, r5, r6, r7, lr}
 8008ebe:	2303      	movs	r3, #3
 8008ec0:	0015      	movs	r5, r2
 8008ec2:	0007      	movs	r7, r0
 8008ec4:	000e      	movs	r6, r1
 8008ec6:	401a      	ands	r2, r3
 8008ec8:	421d      	tst	r5, r3
 8008eca:	d008      	beq.n	8008ede <__pow5mult+0x22>
 8008ecc:	4925      	ldr	r1, [pc, #148]	@ (8008f64 <__pow5mult+0xa8>)
 8008ece:	3a01      	subs	r2, #1
 8008ed0:	0092      	lsls	r2, r2, #2
 8008ed2:	5852      	ldr	r2, [r2, r1]
 8008ed4:	2300      	movs	r3, #0
 8008ed6:	0031      	movs	r1, r6
 8008ed8:	f7ff fe9a 	bl	8008c10 <__multadd>
 8008edc:	0006      	movs	r6, r0
 8008ede:	10ad      	asrs	r5, r5, #2
 8008ee0:	d03d      	beq.n	8008f5e <__pow5mult+0xa2>
 8008ee2:	69fc      	ldr	r4, [r7, #28]
 8008ee4:	2c00      	cmp	r4, #0
 8008ee6:	d10f      	bne.n	8008f08 <__pow5mult+0x4c>
 8008ee8:	2010      	movs	r0, #16
 8008eea:	f7ff fd6d 	bl	80089c8 <malloc>
 8008eee:	1e02      	subs	r2, r0, #0
 8008ef0:	61f8      	str	r0, [r7, #28]
 8008ef2:	d105      	bne.n	8008f00 <__pow5mult+0x44>
 8008ef4:	21b4      	movs	r1, #180	@ 0xb4
 8008ef6:	4b1c      	ldr	r3, [pc, #112]	@ (8008f68 <__pow5mult+0xac>)
 8008ef8:	481c      	ldr	r0, [pc, #112]	@ (8008f6c <__pow5mult+0xb0>)
 8008efa:	31ff      	adds	r1, #255	@ 0xff
 8008efc:	f000 fc5e 	bl	80097bc <__assert_func>
 8008f00:	6044      	str	r4, [r0, #4]
 8008f02:	6084      	str	r4, [r0, #8]
 8008f04:	6004      	str	r4, [r0, #0]
 8008f06:	60c4      	str	r4, [r0, #12]
 8008f08:	69fb      	ldr	r3, [r7, #28]
 8008f0a:	689c      	ldr	r4, [r3, #8]
 8008f0c:	9301      	str	r3, [sp, #4]
 8008f0e:	2c00      	cmp	r4, #0
 8008f10:	d108      	bne.n	8008f24 <__pow5mult+0x68>
 8008f12:	0038      	movs	r0, r7
 8008f14:	4916      	ldr	r1, [pc, #88]	@ (8008f70 <__pow5mult+0xb4>)
 8008f16:	f7ff ff0f 	bl	8008d38 <__i2b>
 8008f1a:	9b01      	ldr	r3, [sp, #4]
 8008f1c:	0004      	movs	r4, r0
 8008f1e:	6098      	str	r0, [r3, #8]
 8008f20:	2300      	movs	r3, #0
 8008f22:	6003      	str	r3, [r0, #0]
 8008f24:	2301      	movs	r3, #1
 8008f26:	421d      	tst	r5, r3
 8008f28:	d00a      	beq.n	8008f40 <__pow5mult+0x84>
 8008f2a:	0031      	movs	r1, r6
 8008f2c:	0022      	movs	r2, r4
 8008f2e:	0038      	movs	r0, r7
 8008f30:	f7ff ff1a 	bl	8008d68 <__multiply>
 8008f34:	0031      	movs	r1, r6
 8008f36:	9001      	str	r0, [sp, #4]
 8008f38:	0038      	movs	r0, r7
 8008f3a:	f7ff fe45 	bl	8008bc8 <_Bfree>
 8008f3e:	9e01      	ldr	r6, [sp, #4]
 8008f40:	106d      	asrs	r5, r5, #1
 8008f42:	d00c      	beq.n	8008f5e <__pow5mult+0xa2>
 8008f44:	6820      	ldr	r0, [r4, #0]
 8008f46:	2800      	cmp	r0, #0
 8008f48:	d107      	bne.n	8008f5a <__pow5mult+0x9e>
 8008f4a:	0022      	movs	r2, r4
 8008f4c:	0021      	movs	r1, r4
 8008f4e:	0038      	movs	r0, r7
 8008f50:	f7ff ff0a 	bl	8008d68 <__multiply>
 8008f54:	2300      	movs	r3, #0
 8008f56:	6020      	str	r0, [r4, #0]
 8008f58:	6003      	str	r3, [r0, #0]
 8008f5a:	0004      	movs	r4, r0
 8008f5c:	e7e2      	b.n	8008f24 <__pow5mult+0x68>
 8008f5e:	0030      	movs	r0, r6
 8008f60:	bdfe      	pop	{r1, r2, r3, r4, r5, r6, r7, pc}
 8008f62:	46c0      	nop			@ (mov r8, r8)
 8008f64:	08009db8 	.word	0x08009db8
 8008f68:	08009c85 	.word	0x08009c85
 8008f6c:	08009d05 	.word	0x08009d05
 8008f70:	00000271 	.word	0x00000271

08008f74 <__lshift>:
 8008f74:	b5f0      	push	{r4, r5, r6, r7, lr}
 8008f76:	000c      	movs	r4, r1
 8008f78:	0016      	movs	r6, r2
 8008f7a:	6923      	ldr	r3, [r4, #16]
 8008f7c:	1157      	asrs	r7, r2, #5
 8008f7e:	b085      	sub	sp, #20
 8008f80:	18fb      	adds	r3, r7, r3
 8008f82:	9301      	str	r3, [sp, #4]
 8008f84:	3301      	adds	r3, #1
 8008f86:	9300      	str	r3, [sp, #0]
 8008f88:	6849      	ldr	r1, [r1, #4]
 8008f8a:	68a3      	ldr	r3, [r4, #8]
 8008f8c:	9002      	str	r0, [sp, #8]
 8008f8e:	9a00      	ldr	r2, [sp, #0]
 8008f90:	4293      	cmp	r3, r2
 8008f92:	db10      	blt.n	8008fb6 <__lshift+0x42>
 8008f94:	9802      	ldr	r0, [sp, #8]
 8008f96:	f7ff fdd3 	bl	8008b40 <_Balloc>
 8008f9a:	2300      	movs	r3, #0
 8008f9c:	0001      	movs	r1, r0
 8008f9e:	0005      	movs	r5, r0
 8008fa0:	001a      	movs	r2, r3
 8008fa2:	3114      	adds	r1, #20
 8008fa4:	4298      	cmp	r0, r3
 8008fa6:	d10c      	bne.n	8008fc2 <__lshift+0x4e>
 8008fa8:	21ef      	movs	r1, #239	@ 0xef
 8008faa:	002a      	movs	r2, r5
 8008fac:	4b25      	ldr	r3, [pc, #148]	@ (8009044 <__lshift+0xd0>)
 8008fae:	4826      	ldr	r0, [pc, #152]	@ (8009048 <__lshift+0xd4>)
 8008fb0:	0049      	lsls	r1, r1, #1
 8008fb2:	f000 fc03 	bl	80097bc <__assert_func>
 8008fb6:	3101      	adds	r1, #1
 8008fb8:	005b      	lsls	r3, r3, #1
 8008fba:	e7e8      	b.n	8008f8e <__lshift+0x1a>
 8008fbc:	0098      	lsls	r0, r3, #2
 8008fbe:	500a      	str	r2, [r1, r0]
 8008fc0:	3301      	adds	r3, #1
 8008fc2:	42bb      	cmp	r3, r7
 8008fc4:	dbfa      	blt.n	8008fbc <__lshift+0x48>
 8008fc6:	43fb      	mvns	r3, r7
 8008fc8:	17db      	asrs	r3, r3, #31
 8008fca:	401f      	ands	r7, r3
 8008fcc:	00bf      	lsls	r7, r7, #2
 8008fce:	0023      	movs	r3, r4
 8008fd0:	201f      	movs	r0, #31
 8008fd2:	19c9      	adds	r1, r1, r7
 8008fd4:	0037      	movs	r7, r6
 8008fd6:	6922      	ldr	r2, [r4, #16]
 8008fd8:	3314      	adds	r3, #20
 8008fda:	0092      	lsls	r2, r2, #2
 8008fdc:	189a      	adds	r2, r3, r2
 8008fde:	4007      	ands	r7, r0
 8008fe0:	4206      	tst	r6, r0
 8008fe2:	d029      	beq.n	8009038 <__lshift+0xc4>
 8008fe4:	3001      	adds	r0, #1
 8008fe6:	1bc0      	subs	r0, r0, r7
 8008fe8:	9003      	str	r0, [sp, #12]
 8008fea:	468c      	mov	ip, r1
 8008fec:	2000      	movs	r0, #0
 8008fee:	681e      	ldr	r6, [r3, #0]
 8008ff0:	40be      	lsls	r6, r7
 8008ff2:	4306      	orrs	r6, r0
 8008ff4:	4660      	mov	r0, ip
 8008ff6:	c040      	stmia	r0!, {r6}
 8008ff8:	4684      	mov	ip, r0
 8008ffa:	9e03      	ldr	r6, [sp, #12]
 8008ffc:	cb01      	ldmia	r3!, {r0}
 8008ffe:	40f0      	lsrs	r0, r6
 8009000:	429a      	cmp	r2, r3
 8009002:	d8f4      	bhi.n	8008fee <__lshift+0x7a>
 8009004:	0026      	movs	r6, r4
 8009006:	3615      	adds	r6, #21
 8009008:	2304      	movs	r3, #4
 800900a:	42b2      	cmp	r2, r6
 800900c:	d304      	bcc.n	8009018 <__lshift+0xa4>
 800900e:	1b13      	subs	r3, r2, r4
 8009010:	3b15      	subs	r3, #21
 8009012:	089b      	lsrs	r3, r3, #2
 8009014:	3301      	adds	r3, #1
 8009016:	009b      	lsls	r3, r3, #2
 8009018:	50c8      	str	r0, [r1, r3]
 800901a:	2800      	cmp	r0, #0
 800901c:	d002      	beq.n	8009024 <__lshift+0xb0>
 800901e:	9b01      	ldr	r3, [sp, #4]
 8009020:	3302      	adds	r3, #2
 8009022:	9300      	str	r3, [sp, #0]
 8009024:	9b00      	ldr	r3, [sp, #0]
 8009026:	9802      	ldr	r0, [sp, #8]
 8009028:	3b01      	subs	r3, #1
 800902a:	0021      	movs	r1, r4
 800902c:	612b      	str	r3, [r5, #16]
 800902e:	f7ff fdcb 	bl	8008bc8 <_Bfree>
 8009032:	0028      	movs	r0, r5
 8009034:	b005      	add	sp, #20
 8009036:	bdf0      	pop	{r4, r5, r6, r7, pc}
 8009038:	cb01      	ldmia	r3!, {r0}
 800903a:	c101      	stmia	r1!, {r0}
 800903c:	429a      	cmp	r2, r3
 800903e:	d8fb      	bhi.n	8009038 <__lshift+0xc4>
 8009040:	e7f0      	b.n	8009024 <__lshift+0xb0>
 8009042:	46c0      	nop			@ (mov r8, r8)
 8009044:	08009cf4 	.word	0x08009cf4
 8009048:	08009d05 	.word	0x08009d05

0800904c <__mcmp>:
 800904c:	b530      	push	{r4, r5, lr}
 800904e:	690b      	ldr	r3, [r1, #16]
 8009050:	6904      	ldr	r4, [r0, #16]
 8009052:	0002      	movs	r2, r0
 8009054:	1ae0      	subs	r0, r4, r3
 8009056:	429c      	cmp	r4, r3
 8009058:	d10f      	bne.n	800907a <__mcmp+0x2e>
 800905a:	3214      	adds	r2, #20
 800905c:	009b      	lsls	r3, r3, #2
 800905e:	3114      	adds	r1, #20
 8009060:	0014      	movs	r4, r2
 8009062:	18c9      	adds	r1, r1, r3
 8009064:	18d2      	adds	r2, r2, r3
 8009066:	3a04      	subs	r2, #4
 8009068:	3904      	subs	r1, #4
 800906a:	6815      	ldr	r5, [r2, #0]
 800906c:	680b      	ldr	r3, [r1, #0]
 800906e:	429d      	cmp	r5, r3
 8009070:	d004      	beq.n	800907c <__mcmp+0x30>
 8009072:	2001      	movs	r0, #1
 8009074:	429d      	cmp	r5, r3
 8009076:	d200      	bcs.n	800907a <__mcmp+0x2e>
 8009078:	3802      	subs	r0, #2
 800907a:	bd30      	pop	{r4, r5, pc}
 800907c:	4294      	cmp	r4, r2
 800907e:	d3f2      	bcc.n	8009066 <__mcmp+0x1a>
 8009080:	e7fb      	b.n	800907a <__mcmp+0x2e>
	...

08009084 <__mdiff>:
 8009084:	b5f0      	push	{r4, r5, r6, r7, lr}
 8009086:	000c      	movs	r4, r1
 8009088:	b087      	sub	sp, #28
 800908a:	9000      	str	r0, [sp, #0]
 800908c:	0011      	movs	r1, r2
 800908e:	0020      	movs	r0, r4
 8009090:	0017      	movs	r7, r2
 8009092:	f7ff ffdb 	bl	800904c <__mcmp>
 8009096:	1e05      	subs	r5, r0, #0
 8009098:	d110      	bne.n	80090bc <__mdiff+0x38>
 800909a:	0001      	movs	r1, r0
 800909c:	9800      	ldr	r0, [sp, #0]
 800909e:	f7ff fd4f 	bl	8008b40 <_Balloc>
 80090a2:	1e02      	subs	r2, r0, #0
 80090a4:	d104      	bne.n	80090b0 <__mdiff+0x2c>
 80090a6:	4b40      	ldr	r3, [pc, #256]	@ (80091a8 <__mdiff+0x124>)
 80090a8:	4840      	ldr	r0, [pc, #256]	@ (80091ac <__mdiff+0x128>)
 80090aa:	4941      	ldr	r1, [pc, #260]	@ (80091b0 <__mdiff+0x12c>)
 80090ac:	f000 fb86 	bl	80097bc <__assert_func>
 80090b0:	2301      	movs	r3, #1
 80090b2:	6145      	str	r5, [r0, #20]
 80090b4:	6103      	str	r3, [r0, #16]
 80090b6:	0010      	movs	r0, r2
 80090b8:	b007      	add	sp, #28
 80090ba:	bdf0      	pop	{r4, r5, r6, r7, pc}
 80090bc:	2600      	movs	r6, #0
 80090be:	42b0      	cmp	r0, r6
 80090c0:	da03      	bge.n	80090ca <__mdiff+0x46>
 80090c2:	0023      	movs	r3, r4
 80090c4:	003c      	movs	r4, r7
 80090c6:	001f      	movs	r7, r3
 80090c8:	3601      	adds	r6, #1
 80090ca:	6861      	ldr	r1, [r4, #4]
 80090cc:	9800      	ldr	r0, [sp, #0]
 80090ce:	f7ff fd37 	bl	8008b40 <_Balloc>
 80090d2:	1e02      	subs	r2, r0, #0
 80090d4:	d103      	bne.n	80090de <__mdiff+0x5a>
 80090d6:	4b34      	ldr	r3, [pc, #208]	@ (80091a8 <__mdiff+0x124>)
 80090d8:	4834      	ldr	r0, [pc, #208]	@ (80091ac <__mdiff+0x128>)
 80090da:	4936      	ldr	r1, [pc, #216]	@ (80091b4 <__mdiff+0x130>)
 80090dc:	e7e6      	b.n	80090ac <__mdiff+0x28>
 80090de:	6923      	ldr	r3, [r4, #16]
 80090e0:	3414      	adds	r4, #20
 80090e2:	9300      	str	r3, [sp, #0]
 80090e4:	009b      	lsls	r3, r3, #2
 80090e6:	18e3      	adds	r3, r4, r3
 80090e8:	0021      	movs	r1, r4
 80090ea:	9401      	str	r4, [sp, #4]
 80090ec:	003c      	movs	r4, r7
 80090ee:	9302      	str	r3, [sp, #8]
 80090f0:	693b      	ldr	r3, [r7, #16]
 80090f2:	3414      	adds	r4, #20
 80090f4:	009b      	lsls	r3, r3, #2
 80090f6:	18e3      	adds	r3, r4, r3
 80090f8:	9303      	str	r3, [sp, #12]
 80090fa:	0003      	movs	r3, r0
 80090fc:	60c6      	str	r6, [r0, #12]
 80090fe:	468c      	mov	ip, r1
 8009100:	2000      	movs	r0, #0
 8009102:	3314      	adds	r3, #20
 8009104:	9304      	str	r3, [sp, #16]
 8009106:	9305      	str	r3, [sp, #20]
 8009108:	4663      	mov	r3, ip
 800910a:	cb20      	ldmia	r3!, {r5}
 800910c:	b2a9      	uxth	r1, r5
 800910e:	000e      	movs	r6, r1
 8009110:	469c      	mov	ip, r3
 8009112:	cc08      	ldmia	r4!, {r3}
 8009114:	0c2d      	lsrs	r5, r5, #16
 8009116:	b299      	uxth	r1, r3
 8009118:	1a71      	subs	r1, r6, r1
 800911a:	1809      	adds	r1, r1, r0
 800911c:	0c1b      	lsrs	r3, r3, #16
 800911e:	1408      	asrs	r0, r1, #16
 8009120:	1aeb      	subs	r3, r5, r3
 8009122:	181b      	adds	r3, r3, r0
 8009124:	1418      	asrs	r0, r3, #16
 8009126:	b289      	uxth	r1, r1
 8009128:	041b      	lsls	r3, r3, #16
 800912a:	4319      	orrs	r1, r3
 800912c:	9b05      	ldr	r3, [sp, #20]
 800912e:	c302      	stmia	r3!, {r1}
 8009130:	9305      	str	r3, [sp, #20]
 8009132:	9b03      	ldr	r3, [sp, #12]
 8009134:	42a3      	cmp	r3, r4
 8009136:	d8e7      	bhi.n	8009108 <__mdiff+0x84>
 8009138:	0039      	movs	r1, r7
 800913a:	9c03      	ldr	r4, [sp, #12]
 800913c:	3115      	adds	r1, #21
 800913e:	2304      	movs	r3, #4
 8009140:	428c      	cmp	r4, r1
 8009142:	d304      	bcc.n	800914e <__mdiff+0xca>
 8009144:	1be3      	subs	r3, r4, r7
 8009146:	3b15      	subs	r3, #21
 8009148:	089b      	lsrs	r3, r3, #2
 800914a:	3301      	adds	r3, #1
 800914c:	009b      	lsls	r3, r3, #2
 800914e:	9901      	ldr	r1, [sp, #4]
 8009150:	18cd      	adds	r5, r1, r3
 8009152:	9904      	ldr	r1, [sp, #16]
 8009154:	002e      	movs	r6, r5
 8009156:	18cb      	adds	r3, r1, r3
 8009158:	001f      	movs	r7, r3
 800915a:	9902      	ldr	r1, [sp, #8]
 800915c:	428e      	cmp	r6, r1
 800915e:	d311      	bcc.n	8009184 <__mdiff+0x100>
 8009160:	9c02      	ldr	r4, [sp, #8]
 8009162:	1ee9      	subs	r1, r5, #3
 8009164:	2000      	movs	r0, #0
 8009166:	428c      	cmp	r4, r1
 8009168:	d304      	bcc.n	8009174 <__mdiff+0xf0>
 800916a:	0021      	movs	r1, r4
 800916c:	3103      	adds	r1, #3
 800916e:	1b49      	subs	r1, r1, r5
 8009170:	0889      	lsrs	r1, r1, #2
 8009172:	0088      	lsls	r0, r1, #2
 8009174:	181b      	adds	r3, r3, r0
 8009176:	3b04      	subs	r3, #4
 8009178:	6819      	ldr	r1, [r3, #0]
 800917a:	2900      	cmp	r1, #0
 800917c:	d010      	beq.n	80091a0 <__mdiff+0x11c>
 800917e:	9b00      	ldr	r3, [sp, #0]
 8009180:	6113      	str	r3, [r2, #16]
 8009182:	e798      	b.n	80090b6 <__mdiff+0x32>
 8009184:	4684      	mov	ip, r0
 8009186:	ce02      	ldmia	r6!, {r1}
 8009188:	b288      	uxth	r0, r1
 800918a:	4460      	add	r0, ip
 800918c:	1400      	asrs	r0, r0, #16
 800918e:	0c0c      	lsrs	r4, r1, #16
 8009190:	1904      	adds	r4, r0, r4
 8009192:	4461      	add	r1, ip
 8009194:	1420      	asrs	r0, r4, #16
 8009196:	b289      	uxth	r1, r1
 8009198:	0424      	lsls	r4, r4, #16
 800919a:	4321      	orrs	r1, r4
 800919c:	c702      	stmia	r7!, {r1}
 800919e:	e7dc      	b.n	800915a <__mdiff+0xd6>
 80091a0:	9900      	ldr	r1, [sp, #0]
 80091a2:	3901      	subs	r1, #1
 80091a4:	9100      	str	r1, [sp, #0]
 80091a6:	e7e6      	b.n	8009176 <__mdiff+0xf2>
 80091a8:	08009cf4 	.word	0x08009cf4
 80091ac:	08009d05 	.word	0x08009d05
 80091b0:	00000237 	.word	0x00000237
 80091b4:	00000245 	.word	0x00000245

080091b8 <__d2b>:
 80091b8:	b5f7      	push	{r0, r1, r2, r4, r5, r6, r7, lr}
 80091ba:	2101      	movs	r1, #1
 80091bc:	0016      	movs	r6, r2
 80091be:	001f      	movs	r7, r3
 80091c0:	f7ff fcbe 	bl	8008b40 <_Balloc>
 80091c4:	1e04      	subs	r4, r0, #0
 80091c6:	d105      	bne.n	80091d4 <__d2b+0x1c>
 80091c8:	0022      	movs	r2, r4
 80091ca:	4b25      	ldr	r3, [pc, #148]	@ (8009260 <__d2b+0xa8>)
 80091cc:	4825      	ldr	r0, [pc, #148]	@ (8009264 <__d2b+0xac>)
 80091ce:	4926      	ldr	r1, [pc, #152]	@ (8009268 <__d2b+0xb0>)
 80091d0:	f000 faf4 	bl	80097bc <__assert_func>
 80091d4:	033b      	lsls	r3, r7, #12
 80091d6:	007d      	lsls	r5, r7, #1
 80091d8:	0b1b      	lsrs	r3, r3, #12
 80091da:	0d6d      	lsrs	r5, r5, #21
 80091dc:	d002      	beq.n	80091e4 <__d2b+0x2c>
 80091de:	2280      	movs	r2, #128	@ 0x80
 80091e0:	0352      	lsls	r2, r2, #13
 80091e2:	4313      	orrs	r3, r2
 80091e4:	9301      	str	r3, [sp, #4]
 80091e6:	2e00      	cmp	r6, #0
 80091e8:	d025      	beq.n	8009236 <__d2b+0x7e>
 80091ea:	4668      	mov	r0, sp
 80091ec:	9600      	str	r6, [sp, #0]
 80091ee:	f7ff fd74 	bl	8008cda <__lo0bits>
 80091f2:	9b01      	ldr	r3, [sp, #4]
 80091f4:	9900      	ldr	r1, [sp, #0]
 80091f6:	2800      	cmp	r0, #0
 80091f8:	d01b      	beq.n	8009232 <__d2b+0x7a>
 80091fa:	2220      	movs	r2, #32
 80091fc:	001e      	movs	r6, r3
 80091fe:	1a12      	subs	r2, r2, r0
 8009200:	4096      	lsls	r6, r2
 8009202:	0032      	movs	r2, r6
 8009204:	40c3      	lsrs	r3, r0
 8009206:	430a      	orrs	r2, r1
 8009208:	6162      	str	r2, [r4, #20]
 800920a:	9301      	str	r3, [sp, #4]
 800920c:	9e01      	ldr	r6, [sp, #4]
 800920e:	61a6      	str	r6, [r4, #24]
 8009210:	1e73      	subs	r3, r6, #1
 8009212:	419e      	sbcs	r6, r3
 8009214:	3601      	adds	r6, #1
 8009216:	6126      	str	r6, [r4, #16]
 8009218:	2d00      	cmp	r5, #0
 800921a:	d014      	beq.n	8009246 <__d2b+0x8e>
 800921c:	2635      	movs	r6, #53	@ 0x35
 800921e:	4b13      	ldr	r3, [pc, #76]	@ (800926c <__d2b+0xb4>)
 8009220:	18ed      	adds	r5, r5, r3
 8009222:	9b08      	ldr	r3, [sp, #32]
 8009224:	182d      	adds	r5, r5, r0
 8009226:	601d      	str	r5, [r3, #0]
 8009228:	9b09      	ldr	r3, [sp, #36]	@ 0x24
 800922a:	1a36      	subs	r6, r6, r0
 800922c:	601e      	str	r6, [r3, #0]
 800922e:	0020      	movs	r0, r4
 8009230:	bdfe      	pop	{r1, r2, r3, r4, r5, r6, r7, pc}
 8009232:	6161      	str	r1, [r4, #20]
 8009234:	e7ea      	b.n	800920c <__d2b+0x54>
 8009236:	a801      	add	r0, sp, #4
 8009238:	f7ff fd4f 	bl	8008cda <__lo0bits>
 800923c:	9b01      	ldr	r3, [sp, #4]
 800923e:	2601      	movs	r6, #1
 8009240:	6163      	str	r3, [r4, #20]
 8009242:	3020      	adds	r0, #32
 8009244:	e7e7      	b.n	8009216 <__d2b+0x5e>
 8009246:	4b0a      	ldr	r3, [pc, #40]	@ (8009270 <__d2b+0xb8>)
 8009248:	18c0      	adds	r0, r0, r3
 800924a:	9b08      	ldr	r3, [sp, #32]
 800924c:	6018      	str	r0, [r3, #0]
 800924e:	4b09      	ldr	r3, [pc, #36]	@ (8009274 <__d2b+0xbc>)
 8009250:	18f3      	adds	r3, r6, r3
 8009252:	009b      	lsls	r3, r3, #2
 8009254:	18e3      	adds	r3, r4, r3
 8009256:	6958      	ldr	r0, [r3, #20]
 8009258:	f7ff fd1e 	bl	8008c98 <__hi0bits>
 800925c:	0176      	lsls	r6, r6, #5
 800925e:	e7e3      	b.n	8009228 <__d2b+0x70>
 8009260:	08009cf4 	.word	0x08009cf4
 8009264:	08009d05 	.word	0x08009d05
 8009268:	0000030f 	.word	0x0000030f
 800926c:	fffffbcd 	.word	0xfffffbcd
 8009270:	fffffbce 	.word	0xfffffbce
 8009274:	3fffffff 	.word	0x3fffffff

08009278 <__sfputc_r>:
 8009278:	6893      	ldr	r3, [r2, #8]
 800927a:	b510      	push	{r4, lr}
 800927c:	3b01      	subs	r3, #1
 800927e:	6093      	str	r3, [r2, #8]
 8009280:	2b00      	cmp	r3, #0
 8009282:	da04      	bge.n	800928e <__sfputc_r+0x16>
 8009284:	6994      	ldr	r4, [r2, #24]
 8009286:	42a3      	cmp	r3, r4
 8009288:	db07      	blt.n	800929a <__sfputc_r+0x22>
 800928a:	290a      	cmp	r1, #10
 800928c:	d005      	beq.n	800929a <__sfputc_r+0x22>
 800928e:	6813      	ldr	r3, [r2, #0]
 8009290:	1c58      	adds	r0, r3, #1
 8009292:	6010      	str	r0, [r2, #0]
 8009294:	7019      	strb	r1, [r3, #0]
 8009296:	0008      	movs	r0, r1
 8009298:	bd10      	pop	{r4, pc}
 800929a:	f7fe fb91 	bl	80079c0 <__swbuf_r>
 800929e:	0001      	movs	r1, r0
 80092a0:	e7f9      	b.n	8009296 <__sfputc_r+0x1e>

080092a2 <__sfputs_r>:
 80092a2:	b5f8      	push	{r3, r4, r5, r6, r7, lr}
 80092a4:	0006      	movs	r6, r0
 80092a6:	000f      	movs	r7, r1
 80092a8:	0014      	movs	r4, r2
 80092aa:	18d5      	adds	r5, r2, r3
 80092ac:	42ac      	cmp	r4, r5
 80092ae:	d101      	bne.n	80092b4 <__sfputs_r+0x12>
 80092b0:	2000      	movs	r0, #0
 80092b2:	e007      	b.n	80092c4 <__sfputs_r+0x22>
 80092b4:	7821      	ldrb	r1, [r4, #0]
 80092b6:	003a      	movs	r2, r7
 80092b8:	0030      	movs	r0, r6
 80092ba:	f7ff ffdd 	bl	8009278 <__sfputc_r>
 80092be:	3401      	adds	r4, #1
 80092c0:	1c43      	adds	r3, r0, #1
 80092c2:	d1f3      	bne.n	80092ac <__sfputs_r+0xa>
 80092c4:	bdf8      	pop	{r3, r4, r5, r6, r7, pc}
	...

080092c8 <_vfiprintf_r>:
 80092c8:	b5f0      	push	{r4, r5, r6, r7, lr}
 80092ca:	b0a1      	sub	sp, #132	@ 0x84
 80092cc:	000f      	movs	r7, r1
 80092ce:	0015      	movs	r5, r2
 80092d0:	001e      	movs	r6, r3
 80092d2:	9003      	str	r0, [sp, #12]
 80092d4:	2800      	cmp	r0, #0
 80092d6:	d004      	beq.n	80092e2 <_vfiprintf_r+0x1a>
 80092d8:	6a03      	ldr	r3, [r0, #32]
 80092da:	2b00      	cmp	r3, #0
 80092dc:	d101      	bne.n	80092e2 <_vfiprintf_r+0x1a>
 80092de:	f7fe fa7f 	bl	80077e0 <__sinit>
 80092e2:	6e7b      	ldr	r3, [r7, #100]	@ 0x64
 80092e4:	07db      	lsls	r3, r3, #31
 80092e6:	d405      	bmi.n	80092f4 <_vfiprintf_r+0x2c>
 80092e8:	89bb      	ldrh	r3, [r7, #12]
 80092ea:	059b      	lsls	r3, r3, #22
 80092ec:	d402      	bmi.n	80092f4 <_vfiprintf_r+0x2c>
 80092ee:	6db8      	ldr	r0, [r7, #88]	@ 0x58
 80092f0:	f7fe fc9d 	bl	8007c2e <__retarget_lock_acquire_recursive>
 80092f4:	89bb      	ldrh	r3, [r7, #12]
 80092f6:	071b      	lsls	r3, r3, #28
 80092f8:	d502      	bpl.n	8009300 <_vfiprintf_r+0x38>
 80092fa:	693b      	ldr	r3, [r7, #16]
 80092fc:	2b00      	cmp	r3, #0
 80092fe:	d113      	bne.n	8009328 <_vfiprintf_r+0x60>
 8009300:	0039      	movs	r1, r7
 8009302:	9803      	ldr	r0, [sp, #12]
 8009304:	f7fe fb9e 	bl	8007a44 <__swsetup_r>
 8009308:	2800      	cmp	r0, #0
 800930a:	d00d      	beq.n	8009328 <_vfiprintf_r+0x60>
 800930c:	6e7b      	ldr	r3, [r7, #100]	@ 0x64
 800930e:	07db      	lsls	r3, r3, #31
 8009310:	d503      	bpl.n	800931a <_vfiprintf_r+0x52>
 8009312:	2001      	movs	r0, #1
 8009314:	4240      	negs	r0, r0
 8009316:	b021      	add	sp, #132	@ 0x84
 8009318:	bdf0      	pop	{r4, r5, r6, r7, pc}
 800931a:	89bb      	ldrh	r3, [r7, #12]
 800931c:	059b      	lsls	r3, r3, #22
 800931e:	d4f8      	bmi.n	8009312 <_vfiprintf_r+0x4a>
 8009320:	6db8      	ldr	r0, [r7, #88]	@ 0x58
 8009322:	f7fe fc85 	bl	8007c30 <__retarget_lock_release_recursive>
 8009326:	e7f4      	b.n	8009312 <_vfiprintf_r+0x4a>
 8009328:	2300      	movs	r3, #0
 800932a:	ac08      	add	r4, sp, #32
 800932c:	6163      	str	r3, [r4, #20]
 800932e:	3320      	adds	r3, #32
 8009330:	7663      	strb	r3, [r4, #25]
 8009332:	3310      	adds	r3, #16
 8009334:	76a3      	strb	r3, [r4, #26]
 8009336:	9607      	str	r6, [sp, #28]
 8009338:	002e      	movs	r6, r5
 800933a:	7833      	ldrb	r3, [r6, #0]
 800933c:	2b00      	cmp	r3, #0
 800933e:	d001      	beq.n	8009344 <_vfiprintf_r+0x7c>
 8009340:	2b25      	cmp	r3, #37	@ 0x25
 8009342:	d148      	bne.n	80093d6 <_vfiprintf_r+0x10e>
 8009344:	1b73      	subs	r3, r6, r5
 8009346:	9305      	str	r3, [sp, #20]
 8009348:	42ae      	cmp	r6, r5
 800934a:	d00b      	beq.n	8009364 <_vfiprintf_r+0x9c>
 800934c:	002a      	movs	r2, r5
 800934e:	0039      	movs	r1, r7
 8009350:	9803      	ldr	r0, [sp, #12]
 8009352:	f7ff ffa6 	bl	80092a2 <__sfputs_r>
 8009356:	3001      	adds	r0, #1
 8009358:	d100      	bne.n	800935c <_vfiprintf_r+0x94>
 800935a:	e0ae      	b.n	80094ba <_vfiprintf_r+0x1f2>
 800935c:	6963      	ldr	r3, [r4, #20]
 800935e:	9a05      	ldr	r2, [sp, #20]
 8009360:	189b      	adds	r3, r3, r2
 8009362:	6163      	str	r3, [r4, #20]
 8009364:	7833      	ldrb	r3, [r6, #0]
 8009366:	2b00      	cmp	r3, #0
 8009368:	d100      	bne.n	800936c <_vfiprintf_r+0xa4>
 800936a:	e0a6      	b.n	80094ba <_vfiprintf_r+0x1f2>
 800936c:	2201      	movs	r2, #1
 800936e:	2300      	movs	r3, #0
 8009370:	4252      	negs	r2, r2
 8009372:	6062      	str	r2, [r4, #4]
 8009374:	a904      	add	r1, sp, #16
 8009376:	3254      	adds	r2, #84	@ 0x54
 8009378:	1852      	adds	r2, r2, r1
 800937a:	1c75      	adds	r5, r6, #1
 800937c:	6023      	str	r3, [r4, #0]
 800937e:	60e3      	str	r3, [r4, #12]
 8009380:	60a3      	str	r3, [r4, #8]
 8009382:	7013      	strb	r3, [r2, #0]
 8009384:	65a3      	str	r3, [r4, #88]	@ 0x58
 8009386:	4b59      	ldr	r3, [pc, #356]	@ (80094ec <_vfiprintf_r+0x224>)
 8009388:	2205      	movs	r2, #5
 800938a:	0018      	movs	r0, r3
 800938c:	7829      	ldrb	r1, [r5, #0]
 800938e:	9305      	str	r3, [sp, #20]
 8009390:	f7fe fc4f 	bl	8007c32 <memchr>
 8009394:	1c6e      	adds	r6, r5, #1
 8009396:	2800      	cmp	r0, #0
 8009398:	d11f      	bne.n	80093da <_vfiprintf_r+0x112>
 800939a:	6822      	ldr	r2, [r4, #0]
 800939c:	06d3      	lsls	r3, r2, #27
 800939e:	d504      	bpl.n	80093aa <_vfiprintf_r+0xe2>
 80093a0:	2353      	movs	r3, #83	@ 0x53
 80093a2:	a904      	add	r1, sp, #16
 80093a4:	185b      	adds	r3, r3, r1
 80093a6:	2120      	movs	r1, #32
 80093a8:	7019      	strb	r1, [r3, #0]
 80093aa:	0713      	lsls	r3, r2, #28
 80093ac:	d504      	bpl.n	80093b8 <_vfiprintf_r+0xf0>
 80093ae:	2353      	movs	r3, #83	@ 0x53
 80093b0:	a904      	add	r1, sp, #16
 80093b2:	185b      	adds	r3, r3, r1
 80093b4:	212b      	movs	r1, #43	@ 0x2b
 80093b6:	7019      	strb	r1, [r3, #0]
 80093b8:	782b      	ldrb	r3, [r5, #0]
 80093ba:	2b2a      	cmp	r3, #42	@ 0x2a
 80093bc:	d016      	beq.n	80093ec <_vfiprintf_r+0x124>
 80093be:	002e      	movs	r6, r5
 80093c0:	2100      	movs	r1, #0
 80093c2:	200a      	movs	r0, #10
 80093c4:	68e3      	ldr	r3, [r4, #12]
 80093c6:	7832      	ldrb	r2, [r6, #0]
 80093c8:	1c75      	adds	r5, r6, #1
 80093ca:	3a30      	subs	r2, #48	@ 0x30
 80093cc:	2a09      	cmp	r2, #9
 80093ce:	d950      	bls.n	8009472 <_vfiprintf_r+0x1aa>
 80093d0:	2900      	cmp	r1, #0
 80093d2:	d111      	bne.n	80093f8 <_vfiprintf_r+0x130>
 80093d4:	e017      	b.n	8009406 <_vfiprintf_r+0x13e>
 80093d6:	3601      	adds	r6, #1
 80093d8:	e7af      	b.n	800933a <_vfiprintf_r+0x72>
 80093da:	9b05      	ldr	r3, [sp, #20]
 80093dc:	6822      	ldr	r2, [r4, #0]
 80093de:	1ac0      	subs	r0, r0, r3
 80093e0:	2301      	movs	r3, #1
 80093e2:	4083      	lsls	r3, r0
 80093e4:	4313      	orrs	r3, r2
 80093e6:	0035      	movs	r5, r6
 80093e8:	6023      	str	r3, [r4, #0]
 80093ea:	e7cc      	b.n	8009386 <_vfiprintf_r+0xbe>
 80093ec:	9b07      	ldr	r3, [sp, #28]
 80093ee:	1d19      	adds	r1, r3, #4
 80093f0:	681b      	ldr	r3, [r3, #0]
 80093f2:	9107      	str	r1, [sp, #28]
 80093f4:	2b00      	cmp	r3, #0
 80093f6:	db01      	blt.n	80093fc <_vfiprintf_r+0x134>
 80093f8:	930b      	str	r3, [sp, #44]	@ 0x2c
 80093fa:	e004      	b.n	8009406 <_vfiprintf_r+0x13e>
 80093fc:	425b      	negs	r3, r3
 80093fe:	60e3      	str	r3, [r4, #12]
 8009400:	2302      	movs	r3, #2
 8009402:	4313      	orrs	r3, r2
 8009404:	6023      	str	r3, [r4, #0]
 8009406:	7833      	ldrb	r3, [r6, #0]
 8009408:	2b2e      	cmp	r3, #46	@ 0x2e
 800940a:	d10c      	bne.n	8009426 <_vfiprintf_r+0x15e>
 800940c:	7873      	ldrb	r3, [r6, #1]
 800940e:	2b2a      	cmp	r3, #42	@ 0x2a
 8009410:	d134      	bne.n	800947c <_vfiprintf_r+0x1b4>
 8009412:	9b07      	ldr	r3, [sp, #28]
 8009414:	3602      	adds	r6, #2
 8009416:	1d1a      	adds	r2, r3, #4
 8009418:	681b      	ldr	r3, [r3, #0]
 800941a:	9207      	str	r2, [sp, #28]
 800941c:	2b00      	cmp	r3, #0
 800941e:	da01      	bge.n	8009424 <_vfiprintf_r+0x15c>
 8009420:	2301      	movs	r3, #1
 8009422:	425b      	negs	r3, r3
 8009424:	9309      	str	r3, [sp, #36]	@ 0x24
 8009426:	4d32      	ldr	r5, [pc, #200]	@ (80094f0 <_vfiprintf_r+0x228>)
 8009428:	2203      	movs	r2, #3
 800942a:	0028      	movs	r0, r5
 800942c:	7831      	ldrb	r1, [r6, #0]
 800942e:	f7fe fc00 	bl	8007c32 <memchr>
 8009432:	2800      	cmp	r0, #0
 8009434:	d006      	beq.n	8009444 <_vfiprintf_r+0x17c>
 8009436:	2340      	movs	r3, #64	@ 0x40
 8009438:	1b40      	subs	r0, r0, r5
 800943a:	4083      	lsls	r3, r0
 800943c:	6822      	ldr	r2, [r4, #0]
 800943e:	3601      	adds	r6, #1
 8009440:	4313      	orrs	r3, r2
 8009442:	6023      	str	r3, [r4, #0]
 8009444:	7831      	ldrb	r1, [r6, #0]
 8009446:	2206      	movs	r2, #6
 8009448:	482a      	ldr	r0, [pc, #168]	@ (80094f4 <_vfiprintf_r+0x22c>)
 800944a:	1c75      	adds	r5, r6, #1
 800944c:	7621      	strb	r1, [r4, #24]
 800944e:	f7fe fbf0 	bl	8007c32 <memchr>
 8009452:	2800      	cmp	r0, #0
 8009454:	d040      	beq.n	80094d8 <_vfiprintf_r+0x210>
 8009456:	4b28      	ldr	r3, [pc, #160]	@ (80094f8 <_vfiprintf_r+0x230>)
 8009458:	2b00      	cmp	r3, #0
 800945a:	d122      	bne.n	80094a2 <_vfiprintf_r+0x1da>
 800945c:	2207      	movs	r2, #7
 800945e:	9b07      	ldr	r3, [sp, #28]
 8009460:	3307      	adds	r3, #7
 8009462:	4393      	bics	r3, r2
 8009464:	3308      	adds	r3, #8
 8009466:	9307      	str	r3, [sp, #28]
 8009468:	6963      	ldr	r3, [r4, #20]
 800946a:	9a04      	ldr	r2, [sp, #16]
 800946c:	189b      	adds	r3, r3, r2
 800946e:	6163      	str	r3, [r4, #20]
 8009470:	e762      	b.n	8009338 <_vfiprintf_r+0x70>
 8009472:	4343      	muls	r3, r0
 8009474:	002e      	movs	r6, r5
 8009476:	2101      	movs	r1, #1
 8009478:	189b      	adds	r3, r3, r2
 800947a:	e7a4      	b.n	80093c6 <_vfiprintf_r+0xfe>
 800947c:	2300      	movs	r3, #0
 800947e:	200a      	movs	r0, #10
 8009480:	0019      	movs	r1, r3
 8009482:	3601      	adds	r6, #1
 8009484:	6063      	str	r3, [r4, #4]
 8009486:	7832      	ldrb	r2, [r6, #0]
 8009488:	1c75      	adds	r5, r6, #1
 800948a:	3a30      	subs	r2, #48	@ 0x30
 800948c:	2a09      	cmp	r2, #9
 800948e:	d903      	bls.n	8009498 <_vfiprintf_r+0x1d0>
 8009490:	2b00      	cmp	r3, #0
 8009492:	d0c8      	beq.n	8009426 <_vfiprintf_r+0x15e>
 8009494:	9109      	str	r1, [sp, #36]	@ 0x24
 8009496:	e7c6      	b.n	8009426 <_vfiprintf_r+0x15e>
 8009498:	4341      	muls	r1, r0
 800949a:	002e      	movs	r6, r5
 800949c:	2301      	movs	r3, #1
 800949e:	1889      	adds	r1, r1, r2
 80094a0:	e7f1      	b.n	8009486 <_vfiprintf_r+0x1be>
 80094a2:	aa07      	add	r2, sp, #28
 80094a4:	9200      	str	r2, [sp, #0]
 80094a6:	0021      	movs	r1, r4
 80094a8:	003a      	movs	r2, r7
 80094aa:	4b14      	ldr	r3, [pc, #80]	@ (80094fc <_vfiprintf_r+0x234>)
 80094ac:	9803      	ldr	r0, [sp, #12]
 80094ae:	f7fd fd4d 	bl	8006f4c <_printf_float>
 80094b2:	9004      	str	r0, [sp, #16]
 80094b4:	9b04      	ldr	r3, [sp, #16]
 80094b6:	3301      	adds	r3, #1
 80094b8:	d1d6      	bne.n	8009468 <_vfiprintf_r+0x1a0>
 80094ba:	6e7b      	ldr	r3, [r7, #100]	@ 0x64
 80094bc:	07db      	lsls	r3, r3, #31
 80094be:	d405      	bmi.n	80094cc <_vfiprintf_r+0x204>
 80094c0:	89bb      	ldrh	r3, [r7, #12]
 80094c2:	059b      	lsls	r3, r3, #22
 80094c4:	d402      	bmi.n	80094cc <_vfiprintf_r+0x204>
 80094c6:	6db8      	ldr	r0, [r7, #88]	@ 0x58
 80094c8:	f7fe fbb2 	bl	8007c30 <__retarget_lock_release_recursive>
 80094cc:	89bb      	ldrh	r3, [r7, #12]
 80094ce:	065b      	lsls	r3, r3, #25
 80094d0:	d500      	bpl.n	80094d4 <_vfiprintf_r+0x20c>
 80094d2:	e71e      	b.n	8009312 <_vfiprintf_r+0x4a>
 80094d4:	980d      	ldr	r0, [sp, #52]	@ 0x34
 80094d6:	e71e      	b.n	8009316 <_vfiprintf_r+0x4e>
 80094d8:	aa07      	add	r2, sp, #28
 80094da:	9200      	str	r2, [sp, #0]
 80094dc:	0021      	movs	r1, r4
 80094de:	003a      	movs	r2, r7
 80094e0:	4b06      	ldr	r3, [pc, #24]	@ (80094fc <_vfiprintf_r+0x234>)
 80094e2:	9803      	ldr	r0, [sp, #12]
 80094e4:	f7fd ffe0 	bl	80074a8 <_printf_i>
 80094e8:	e7e3      	b.n	80094b2 <_vfiprintf_r+0x1ea>
 80094ea:	46c0      	nop			@ (mov r8, r8)
 80094ec:	08009d5e 	.word	0x08009d5e
 80094f0:	08009d64 	.word	0x08009d64
 80094f4:	08009d68 	.word	0x08009d68
 80094f8:	08006f4d 	.word	0x08006f4d
 80094fc:	080092a3 	.word	0x080092a3

08009500 <__sflush_r>:
 8009500:	b5f7      	push	{r0, r1, r2, r4, r5, r6, r7, lr}
 8009502:	220c      	movs	r2, #12
 8009504:	5e8b      	ldrsh	r3, [r1, r2]
 8009506:	0005      	movs	r5, r0
 8009508:	000c      	movs	r4, r1
 800950a:	071a      	lsls	r2, r3, #28
 800950c:	d456      	bmi.n	80095bc <__sflush_r+0xbc>
 800950e:	684a      	ldr	r2, [r1, #4]
 8009510:	2a00      	cmp	r2, #0
 8009512:	dc02      	bgt.n	800951a <__sflush_r+0x1a>
 8009514:	6c0a      	ldr	r2, [r1, #64]	@ 0x40
 8009516:	2a00      	cmp	r2, #0
 8009518:	dd4e      	ble.n	80095b8 <__sflush_r+0xb8>
 800951a:	6ae7      	ldr	r7, [r4, #44]	@ 0x2c
 800951c:	2f00      	cmp	r7, #0
 800951e:	d04b      	beq.n	80095b8 <__sflush_r+0xb8>
 8009520:	2200      	movs	r2, #0
 8009522:	2080      	movs	r0, #128	@ 0x80
 8009524:	682e      	ldr	r6, [r5, #0]
 8009526:	602a      	str	r2, [r5, #0]
 8009528:	001a      	movs	r2, r3
 800952a:	0140      	lsls	r0, r0, #5
 800952c:	6a21      	ldr	r1, [r4, #32]
 800952e:	4002      	ands	r2, r0
 8009530:	4203      	tst	r3, r0
 8009532:	d033      	beq.n	800959c <__sflush_r+0x9c>
 8009534:	6d62      	ldr	r2, [r4, #84]	@ 0x54
 8009536:	89a3      	ldrh	r3, [r4, #12]
 8009538:	075b      	lsls	r3, r3, #29
 800953a:	d506      	bpl.n	800954a <__sflush_r+0x4a>
 800953c:	6863      	ldr	r3, [r4, #4]
 800953e:	1ad2      	subs	r2, r2, r3
 8009540:	6b63      	ldr	r3, [r4, #52]	@ 0x34
 8009542:	2b00      	cmp	r3, #0
 8009544:	d001      	beq.n	800954a <__sflush_r+0x4a>
 8009546:	6c23      	ldr	r3, [r4, #64]	@ 0x40
 8009548:	1ad2      	subs	r2, r2, r3
 800954a:	2300      	movs	r3, #0
 800954c:	0028      	movs	r0, r5
 800954e:	6ae7      	ldr	r7, [r4, #44]	@ 0x2c
 8009550:	6a21      	ldr	r1, [r4, #32]
 8009552:	47b8      	blx	r7
 8009554:	89a2      	ldrh	r2, [r4, #12]
 8009556:	1c43      	adds	r3, r0, #1
 8009558:	d106      	bne.n	8009568 <__sflush_r+0x68>
 800955a:	6829      	ldr	r1, [r5, #0]
 800955c:	291d      	cmp	r1, #29
 800955e:	d846      	bhi.n	80095ee <__sflush_r+0xee>
 8009560:	4b29      	ldr	r3, [pc, #164]	@ (8009608 <__sflush_r+0x108>)
 8009562:	40cb      	lsrs	r3, r1
 8009564:	07db      	lsls	r3, r3, #31
 8009566:	d542      	bpl.n	80095ee <__sflush_r+0xee>
 8009568:	2300      	movs	r3, #0
 800956a:	6063      	str	r3, [r4, #4]
 800956c:	6923      	ldr	r3, [r4, #16]
 800956e:	6023      	str	r3, [r4, #0]
 8009570:	04d2      	lsls	r2, r2, #19
 8009572:	d505      	bpl.n	8009580 <__sflush_r+0x80>
 8009574:	1c43      	adds	r3, r0, #1
 8009576:	d102      	bne.n	800957e <__sflush_r+0x7e>
 8009578:	682b      	ldr	r3, [r5, #0]
 800957a:	2b00      	cmp	r3, #0
 800957c:	d100      	bne.n	8009580 <__sflush_r+0x80>
 800957e:	6560      	str	r0, [r4, #84]	@ 0x54
 8009580:	6b61      	ldr	r1, [r4, #52]	@ 0x34
 8009582:	602e      	str	r6, [r5, #0]
 8009584:	2900      	cmp	r1, #0
 8009586:	d017      	beq.n	80095b8 <__sflush_r+0xb8>
 8009588:	0023      	movs	r3, r4
 800958a:	3344      	adds	r3, #68	@ 0x44
 800958c:	4299      	cmp	r1, r3
 800958e:	d002      	beq.n	8009596 <__sflush_r+0x96>
 8009590:	0028      	movs	r0, r5
 8009592:	f7ff f9cf 	bl	8008934 <_free_r>
 8009596:	2300      	movs	r3, #0
 8009598:	6363      	str	r3, [r4, #52]	@ 0x34
 800959a:	e00d      	b.n	80095b8 <__sflush_r+0xb8>
 800959c:	2301      	movs	r3, #1
 800959e:	0028      	movs	r0, r5
 80095a0:	47b8      	blx	r7
 80095a2:	0002      	movs	r2, r0
 80095a4:	1c43      	adds	r3, r0, #1
 80095a6:	d1c6      	bne.n	8009536 <__sflush_r+0x36>
 80095a8:	682b      	ldr	r3, [r5, #0]
 80095aa:	2b00      	cmp	r3, #0
 80095ac:	d0c3      	beq.n	8009536 <__sflush_r+0x36>
 80095ae:	2b1d      	cmp	r3, #29
 80095b0:	d001      	beq.n	80095b6 <__sflush_r+0xb6>
 80095b2:	2b16      	cmp	r3, #22
 80095b4:	d11a      	bne.n	80095ec <__sflush_r+0xec>
 80095b6:	602e      	str	r6, [r5, #0]
 80095b8:	2000      	movs	r0, #0
 80095ba:	e01e      	b.n	80095fa <__sflush_r+0xfa>
 80095bc:	690e      	ldr	r6, [r1, #16]
 80095be:	2e00      	cmp	r6, #0
 80095c0:	d0fa      	beq.n	80095b8 <__sflush_r+0xb8>
 80095c2:	680f      	ldr	r7, [r1, #0]
 80095c4:	600e      	str	r6, [r1, #0]
 80095c6:	1bba      	subs	r2, r7, r6
 80095c8:	9201      	str	r2, [sp, #4]
 80095ca:	2200      	movs	r2, #0
 80095cc:	079b      	lsls	r3, r3, #30
 80095ce:	d100      	bne.n	80095d2 <__sflush_r+0xd2>
 80095d0:	694a      	ldr	r2, [r1, #20]
 80095d2:	60a2      	str	r2, [r4, #8]
 80095d4:	9b01      	ldr	r3, [sp, #4]
 80095d6:	2b00      	cmp	r3, #0
 80095d8:	ddee      	ble.n	80095b8 <__sflush_r+0xb8>
 80095da:	6aa3      	ldr	r3, [r4, #40]	@ 0x28
 80095dc:	0032      	movs	r2, r6
 80095de:	001f      	movs	r7, r3
 80095e0:	0028      	movs	r0, r5
 80095e2:	9b01      	ldr	r3, [sp, #4]
 80095e4:	6a21      	ldr	r1, [r4, #32]
 80095e6:	47b8      	blx	r7
 80095e8:	2800      	cmp	r0, #0
 80095ea:	dc07      	bgt.n	80095fc <__sflush_r+0xfc>
 80095ec:	89a2      	ldrh	r2, [r4, #12]
 80095ee:	2340      	movs	r3, #64	@ 0x40
 80095f0:	2001      	movs	r0, #1
 80095f2:	4313      	orrs	r3, r2
 80095f4:	b21b      	sxth	r3, r3
 80095f6:	81a3      	strh	r3, [r4, #12]
 80095f8:	4240      	negs	r0, r0
 80095fa:	bdfe      	pop	{r1, r2, r3, r4, r5, r6, r7, pc}
 80095fc:	9b01      	ldr	r3, [sp, #4]
 80095fe:	1836      	adds	r6, r6, r0
 8009600:	1a1b      	subs	r3, r3, r0
 8009602:	9301      	str	r3, [sp, #4]
 8009604:	e7e6      	b.n	80095d4 <__sflush_r+0xd4>
 8009606:	46c0      	nop			@ (mov r8, r8)
 8009608:	20400001 	.word	0x20400001

0800960c <_fflush_r>:
 800960c:	690b      	ldr	r3, [r1, #16]
 800960e:	b570      	push	{r4, r5, r6, lr}
 8009610:	0005      	movs	r5, r0
 8009612:	000c      	movs	r4, r1
 8009614:	2b00      	cmp	r3, #0
 8009616:	d102      	bne.n	800961e <_fflush_r+0x12>
 8009618:	2500      	movs	r5, #0
 800961a:	0028      	movs	r0, r5
 800961c:	bd70      	pop	{r4, r5, r6, pc}
 800961e:	2800      	cmp	r0, #0
 8009620:	d004      	beq.n	800962c <_fflush_r+0x20>
 8009622:	6a03      	ldr	r3, [r0, #32]
 8009624:	2b00      	cmp	r3, #0
 8009626:	d101      	bne.n	800962c <_fflush_r+0x20>
 8009628:	f7fe f8da 	bl	80077e0 <__sinit>
 800962c:	220c      	movs	r2, #12
 800962e:	5ea3      	ldrsh	r3, [r4, r2]
 8009630:	2b00      	cmp	r3, #0
 8009632:	d0f1      	beq.n	8009618 <_fflush_r+0xc>
 8009634:	6e62      	ldr	r2, [r4, #100]	@ 0x64
 8009636:	07d2      	lsls	r2, r2, #31
 8009638:	d404      	bmi.n	8009644 <_fflush_r+0x38>
 800963a:	059b      	lsls	r3, r3, #22
 800963c:	d402      	bmi.n	8009644 <_fflush_r+0x38>
 800963e:	6da0      	ldr	r0, [r4, #88]	@ 0x58
 8009640:	f7fe faf5 	bl	8007c2e <__retarget_lock_acquire_recursive>
 8009644:	0028      	movs	r0, r5
 8009646:	0021      	movs	r1, r4
 8009648:	f7ff ff5a 	bl	8009500 <__sflush_r>
 800964c:	6e63      	ldr	r3, [r4, #100]	@ 0x64
 800964e:	0005      	movs	r5, r0
 8009650:	07db      	lsls	r3, r3, #31
 8009652:	d4e2      	bmi.n	800961a <_fflush_r+0xe>
 8009654:	89a3      	ldrh	r3, [r4, #12]
 8009656:	059b      	lsls	r3, r3, #22
 8009658:	d4df      	bmi.n	800961a <_fflush_r+0xe>
 800965a:	6da0      	ldr	r0, [r4, #88]	@ 0x58
 800965c:	f7fe fae8 	bl	8007c30 <__retarget_lock_release_recursive>
 8009660:	e7db      	b.n	800961a <_fflush_r+0xe>
	...

08009664 <__swhatbuf_r>:
 8009664:	b570      	push	{r4, r5, r6, lr}
 8009666:	000e      	movs	r6, r1
 8009668:	001d      	movs	r5, r3
 800966a:	230e      	movs	r3, #14
 800966c:	5ec9      	ldrsh	r1, [r1, r3]
 800966e:	0014      	movs	r4, r2
 8009670:	b096      	sub	sp, #88	@ 0x58
 8009672:	2900      	cmp	r1, #0
 8009674:	da0c      	bge.n	8009690 <__swhatbuf_r+0x2c>
 8009676:	89b2      	ldrh	r2, [r6, #12]
 8009678:	2380      	movs	r3, #128	@ 0x80
 800967a:	0011      	movs	r1, r2
 800967c:	4019      	ands	r1, r3
 800967e:	421a      	tst	r2, r3
 8009680:	d114      	bne.n	80096ac <__swhatbuf_r+0x48>
 8009682:	2380      	movs	r3, #128	@ 0x80
 8009684:	00db      	lsls	r3, r3, #3
 8009686:	2000      	movs	r0, #0
 8009688:	6029      	str	r1, [r5, #0]
 800968a:	6023      	str	r3, [r4, #0]
 800968c:	b016      	add	sp, #88	@ 0x58
 800968e:	bd70      	pop	{r4, r5, r6, pc}
 8009690:	466a      	mov	r2, sp
 8009692:	f000 f853 	bl	800973c <_fstat_r>
 8009696:	2800      	cmp	r0, #0
 8009698:	dbed      	blt.n	8009676 <__swhatbuf_r+0x12>
 800969a:	23f0      	movs	r3, #240	@ 0xf0
 800969c:	9901      	ldr	r1, [sp, #4]
 800969e:	021b      	lsls	r3, r3, #8
 80096a0:	4019      	ands	r1, r3
 80096a2:	4b04      	ldr	r3, [pc, #16]	@ (80096b4 <__swhatbuf_r+0x50>)
 80096a4:	18c9      	adds	r1, r1, r3
 80096a6:	424b      	negs	r3, r1
 80096a8:	4159      	adcs	r1, r3
 80096aa:	e7ea      	b.n	8009682 <__swhatbuf_r+0x1e>
 80096ac:	2100      	movs	r1, #0
 80096ae:	2340      	movs	r3, #64	@ 0x40
 80096b0:	e7e9      	b.n	8009686 <__swhatbuf_r+0x22>
 80096b2:	46c0      	nop			@ (mov r8, r8)
 80096b4:	ffffe000 	.word	0xffffe000

080096b8 <__smakebuf_r>:
 80096b8:	b5f0      	push	{r4, r5, r6, r7, lr}
 80096ba:	2602      	movs	r6, #2
 80096bc:	898b      	ldrh	r3, [r1, #12]
 80096be:	0005      	movs	r5, r0
 80096c0:	000c      	movs	r4, r1
 80096c2:	b085      	sub	sp, #20
 80096c4:	4233      	tst	r3, r6
 80096c6:	d007      	beq.n	80096d8 <__smakebuf_r+0x20>
 80096c8:	0023      	movs	r3, r4
 80096ca:	3347      	adds	r3, #71	@ 0x47
 80096cc:	6023      	str	r3, [r4, #0]
 80096ce:	6123      	str	r3, [r4, #16]
 80096d0:	2301      	movs	r3, #1
 80096d2:	6163      	str	r3, [r4, #20]
 80096d4:	b005      	add	sp, #20
 80096d6:	bdf0      	pop	{r4, r5, r6, r7, pc}
 80096d8:	ab03      	add	r3, sp, #12
 80096da:	aa02      	add	r2, sp, #8
 80096dc:	f7ff ffc2 	bl	8009664 <__swhatbuf_r>
 80096e0:	9f02      	ldr	r7, [sp, #8]
 80096e2:	9001      	str	r0, [sp, #4]
 80096e4:	0039      	movs	r1, r7
 80096e6:	0028      	movs	r0, r5
 80096e8:	f7ff f99a 	bl	8008a20 <_malloc_r>
 80096ec:	2800      	cmp	r0, #0
 80096ee:	d108      	bne.n	8009702 <__smakebuf_r+0x4a>
 80096f0:	220c      	movs	r2, #12
 80096f2:	5ea3      	ldrsh	r3, [r4, r2]
 80096f4:	059a      	lsls	r2, r3, #22
 80096f6:	d4ed      	bmi.n	80096d4 <__smakebuf_r+0x1c>
 80096f8:	2203      	movs	r2, #3
 80096fa:	4393      	bics	r3, r2
 80096fc:	431e      	orrs	r6, r3
 80096fe:	81a6      	strh	r6, [r4, #12]
 8009700:	e7e2      	b.n	80096c8 <__smakebuf_r+0x10>
 8009702:	2380      	movs	r3, #128	@ 0x80
 8009704:	89a2      	ldrh	r2, [r4, #12]
 8009706:	6020      	str	r0, [r4, #0]
 8009708:	4313      	orrs	r3, r2
 800970a:	81a3      	strh	r3, [r4, #12]
 800970c:	9b03      	ldr	r3, [sp, #12]
 800970e:	6120      	str	r0, [r4, #16]
 8009710:	6167      	str	r7, [r4, #20]
 8009712:	2b00      	cmp	r3, #0
 8009714:	d00c      	beq.n	8009730 <__smakebuf_r+0x78>
 8009716:	0028      	movs	r0, r5
 8009718:	230e      	movs	r3, #14
 800971a:	5ee1      	ldrsh	r1, [r4, r3]
 800971c:	f000 f820 	bl	8009760 <_isatty_r>
 8009720:	2800      	cmp	r0, #0
 8009722:	d005      	beq.n	8009730 <__smakebuf_r+0x78>
 8009724:	2303      	movs	r3, #3
 8009726:	89a2      	ldrh	r2, [r4, #12]
 8009728:	439a      	bics	r2, r3
 800972a:	3b02      	subs	r3, #2
 800972c:	4313      	orrs	r3, r2
 800972e:	81a3      	strh	r3, [r4, #12]
 8009730:	89a3      	ldrh	r3, [r4, #12]
 8009732:	9a01      	ldr	r2, [sp, #4]
 8009734:	4313      	orrs	r3, r2
 8009736:	81a3      	strh	r3, [r4, #12]
 8009738:	e7cc      	b.n	80096d4 <__smakebuf_r+0x1c>
	...

0800973c <_fstat_r>:
 800973c:	2300      	movs	r3, #0
 800973e:	b570      	push	{r4, r5, r6, lr}
 8009740:	4d06      	ldr	r5, [pc, #24]	@ (800975c <_fstat_r+0x20>)
 8009742:	0004      	movs	r4, r0
 8009744:	0008      	movs	r0, r1
 8009746:	0011      	movs	r1, r2
 8009748:	602b      	str	r3, [r5, #0]
 800974a:	f7fa fba8 	bl	8003e9e <_fstat>
 800974e:	1c43      	adds	r3, r0, #1
 8009750:	d103      	bne.n	800975a <_fstat_r+0x1e>
 8009752:	682b      	ldr	r3, [r5, #0]
 8009754:	2b00      	cmp	r3, #0
 8009756:	d000      	beq.n	800975a <_fstat_r+0x1e>
 8009758:	6023      	str	r3, [r4, #0]
 800975a:	bd70      	pop	{r4, r5, r6, pc}
 800975c:	20000540 	.word	0x20000540

08009760 <_isatty_r>:
 8009760:	2300      	movs	r3, #0
 8009762:	b570      	push	{r4, r5, r6, lr}
 8009764:	4d06      	ldr	r5, [pc, #24]	@ (8009780 <_isatty_r+0x20>)
 8009766:	0004      	movs	r4, r0
 8009768:	0008      	movs	r0, r1
 800976a:	602b      	str	r3, [r5, #0]
 800976c:	f7fa fba5 	bl	8003eba <_isatty>
 8009770:	1c43      	adds	r3, r0, #1
 8009772:	d103      	bne.n	800977c <_isatty_r+0x1c>
 8009774:	682b      	ldr	r3, [r5, #0]
 8009776:	2b00      	cmp	r3, #0
 8009778:	d000      	beq.n	800977c <_isatty_r+0x1c>
 800977a:	6023      	str	r3, [r4, #0]
 800977c:	bd70      	pop	{r4, r5, r6, pc}
 800977e:	46c0      	nop			@ (mov r8, r8)
 8009780:	20000540 	.word	0x20000540

08009784 <_sbrk_r>:
 8009784:	2300      	movs	r3, #0
 8009786:	b570      	push	{r4, r5, r6, lr}
 8009788:	4d06      	ldr	r5, [pc, #24]	@ (80097a4 <_sbrk_r+0x20>)
 800978a:	0004      	movs	r4, r0
 800978c:	0008      	movs	r0, r1
 800978e:	602b      	str	r3, [r5, #0]
 8009790:	f7fa fba8 	bl	8003ee4 <_sbrk>
 8009794:	1c43      	adds	r3, r0, #1
 8009796:	d103      	bne.n	80097a0 <_sbrk_r+0x1c>
 8009798:	682b      	ldr	r3, [r5, #0]
 800979a:	2b00      	cmp	r3, #0
 800979c:	d000      	beq.n	80097a0 <_sbrk_r+0x1c>
 800979e:	6023      	str	r3, [r4, #0]
 80097a0:	bd70      	pop	{r4, r5, r6, pc}
 80097a2:	46c0      	nop			@ (mov r8, r8)
 80097a4:	20000540 	.word	0x20000540

080097a8 <memcpy>:
 80097a8:	2300      	movs	r3, #0
 80097aa:	b510      	push	{r4, lr}
 80097ac:	429a      	cmp	r2, r3
 80097ae:	d100      	bne.n	80097b2 <memcpy+0xa>
 80097b0:	bd10      	pop	{r4, pc}
 80097b2:	5ccc      	ldrb	r4, [r1, r3]
 80097b4:	54c4      	strb	r4, [r0, r3]
 80097b6:	3301      	adds	r3, #1
 80097b8:	e7f8      	b.n	80097ac <memcpy+0x4>
	...

080097bc <__assert_func>:
 80097bc:	b57f      	push	{r0, r1, r2, r3, r4, r5, r6, lr}
 80097be:	0014      	movs	r4, r2
 80097c0:	001a      	movs	r2, r3
 80097c2:	4b09      	ldr	r3, [pc, #36]	@ (80097e8 <__assert_func+0x2c>)
 80097c4:	0005      	movs	r5, r0
 80097c6:	681b      	ldr	r3, [r3, #0]
 80097c8:	000e      	movs	r6, r1
 80097ca:	68d8      	ldr	r0, [r3, #12]
 80097cc:	4b07      	ldr	r3, [pc, #28]	@ (80097ec <__assert_func+0x30>)
 80097ce:	2c00      	cmp	r4, #0
 80097d0:	d101      	bne.n	80097d6 <__assert_func+0x1a>
 80097d2:	4b07      	ldr	r3, [pc, #28]	@ (80097f0 <__assert_func+0x34>)
 80097d4:	001c      	movs	r4, r3
 80097d6:	4907      	ldr	r1, [pc, #28]	@ (80097f4 <__assert_func+0x38>)
 80097d8:	9301      	str	r3, [sp, #4]
 80097da:	9402      	str	r4, [sp, #8]
 80097dc:	002b      	movs	r3, r5
 80097de:	9600      	str	r6, [sp, #0]
 80097e0:	f000 f856 	bl	8009890 <fiprintf>
 80097e4:	f000 f864 	bl	80098b0 <abort>
 80097e8:	2000001c 	.word	0x2000001c
 80097ec:	08009d79 	.word	0x08009d79
 80097f0:	08009db4 	.word	0x08009db4
 80097f4:	08009d86 	.word	0x08009d86

080097f8 <_calloc_r>:
 80097f8:	b570      	push	{r4, r5, r6, lr}
 80097fa:	0c0b      	lsrs	r3, r1, #16
 80097fc:	0c15      	lsrs	r5, r2, #16
 80097fe:	2b00      	cmp	r3, #0
 8009800:	d11e      	bne.n	8009840 <_calloc_r+0x48>
 8009802:	2d00      	cmp	r5, #0
 8009804:	d10c      	bne.n	8009820 <_calloc_r+0x28>
 8009806:	b289      	uxth	r1, r1
 8009808:	b294      	uxth	r4, r2
 800980a:	434c      	muls	r4, r1
 800980c:	0021      	movs	r1, r4
 800980e:	f7ff f907 	bl	8008a20 <_malloc_r>
 8009812:	1e05      	subs	r5, r0, #0
 8009814:	d01b      	beq.n	800984e <_calloc_r+0x56>
 8009816:	0022      	movs	r2, r4
 8009818:	2100      	movs	r1, #0
 800981a:	f7fe f983 	bl	8007b24 <memset>
 800981e:	e016      	b.n	800984e <_calloc_r+0x56>
 8009820:	1c2b      	adds	r3, r5, #0
 8009822:	1c0c      	adds	r4, r1, #0
 8009824:	b289      	uxth	r1, r1
 8009826:	b292      	uxth	r2, r2
 8009828:	434a      	muls	r2, r1
 800982a:	b29b      	uxth	r3, r3
 800982c:	b2a1      	uxth	r1, r4
 800982e:	4359      	muls	r1, r3
 8009830:	0c14      	lsrs	r4, r2, #16
 8009832:	190c      	adds	r4, r1, r4
 8009834:	0c23      	lsrs	r3, r4, #16
 8009836:	d107      	bne.n	8009848 <_calloc_r+0x50>
 8009838:	0424      	lsls	r4, r4, #16
 800983a:	b292      	uxth	r2, r2
 800983c:	4314      	orrs	r4, r2
 800983e:	e7e5      	b.n	800980c <_calloc_r+0x14>
 8009840:	2d00      	cmp	r5, #0
 8009842:	d101      	bne.n	8009848 <_calloc_r+0x50>
 8009844:	1c14      	adds	r4, r2, #0
 8009846:	e7ed      	b.n	8009824 <_calloc_r+0x2c>
 8009848:	230c      	movs	r3, #12
 800984a:	2500      	movs	r5, #0
 800984c:	6003      	str	r3, [r0, #0]
 800984e:	0028      	movs	r0, r5
 8009850:	bd70      	pop	{r4, r5, r6, pc}

08009852 <__ascii_mbtowc>:
 8009852:	b082      	sub	sp, #8
 8009854:	2900      	cmp	r1, #0
 8009856:	d100      	bne.n	800985a <__ascii_mbtowc+0x8>
 8009858:	a901      	add	r1, sp, #4
 800985a:	1e10      	subs	r0, r2, #0
 800985c:	d006      	beq.n	800986c <__ascii_mbtowc+0x1a>
 800985e:	2b00      	cmp	r3, #0
 8009860:	d006      	beq.n	8009870 <__ascii_mbtowc+0x1e>
 8009862:	7813      	ldrb	r3, [r2, #0]
 8009864:	600b      	str	r3, [r1, #0]
 8009866:	7810      	ldrb	r0, [r2, #0]
 8009868:	1e43      	subs	r3, r0, #1
 800986a:	4198      	sbcs	r0, r3
 800986c:	b002      	add	sp, #8
 800986e:	4770      	bx	lr
 8009870:	2002      	movs	r0, #2
 8009872:	4240      	negs	r0, r0
 8009874:	e7fa      	b.n	800986c <__ascii_mbtowc+0x1a>

08009876 <__ascii_wctomb>:
 8009876:	0003      	movs	r3, r0
 8009878:	1e08      	subs	r0, r1, #0
 800987a:	d005      	beq.n	8009888 <__ascii_wctomb+0x12>
 800987c:	2aff      	cmp	r2, #255	@ 0xff
 800987e:	d904      	bls.n	800988a <__ascii_wctomb+0x14>
 8009880:	228a      	movs	r2, #138	@ 0x8a
 8009882:	2001      	movs	r0, #1
 8009884:	601a      	str	r2, [r3, #0]
 8009886:	4240      	negs	r0, r0
 8009888:	4770      	bx	lr
 800988a:	2001      	movs	r0, #1
 800988c:	700a      	strb	r2, [r1, #0]
 800988e:	e7fb      	b.n	8009888 <__ascii_wctomb+0x12>

08009890 <fiprintf>:
 8009890:	b40e      	push	{r1, r2, r3}
 8009892:	b517      	push	{r0, r1, r2, r4, lr}
 8009894:	4c05      	ldr	r4, [pc, #20]	@ (80098ac <fiprintf+0x1c>)
 8009896:	ab05      	add	r3, sp, #20
 8009898:	cb04      	ldmia	r3!, {r2}
 800989a:	0001      	movs	r1, r0
 800989c:	6820      	ldr	r0, [r4, #0]
 800989e:	9301      	str	r3, [sp, #4]
 80098a0:	f7ff fd12 	bl	80092c8 <_vfiprintf_r>
 80098a4:	bc1e      	pop	{r1, r2, r3, r4}
 80098a6:	bc08      	pop	{r3}
 80098a8:	b003      	add	sp, #12
 80098aa:	4718      	bx	r3
 80098ac:	2000001c 	.word	0x2000001c

080098b0 <abort>:
 80098b0:	2006      	movs	r0, #6
 80098b2:	b510      	push	{r4, lr}
 80098b4:	f000 f82c 	bl	8009910 <raise>
 80098b8:	2001      	movs	r0, #1
 80098ba:	f7fa faa0 	bl	8003dfe <_exit>

080098be <_raise_r>:
 80098be:	b570      	push	{r4, r5, r6, lr}
 80098c0:	0004      	movs	r4, r0
 80098c2:	000d      	movs	r5, r1
 80098c4:	291f      	cmp	r1, #31
 80098c6:	d904      	bls.n	80098d2 <_raise_r+0x14>
 80098c8:	2316      	movs	r3, #22
 80098ca:	6003      	str	r3, [r0, #0]
 80098cc:	2001      	movs	r0, #1
 80098ce:	4240      	negs	r0, r0
 80098d0:	bd70      	pop	{r4, r5, r6, pc}
 80098d2:	6bc3      	ldr	r3, [r0, #60]	@ 0x3c
 80098d4:	2b00      	cmp	r3, #0
 80098d6:	d004      	beq.n	80098e2 <_raise_r+0x24>
 80098d8:	008a      	lsls	r2, r1, #2
 80098da:	189b      	adds	r3, r3, r2
 80098dc:	681a      	ldr	r2, [r3, #0]
 80098de:	2a00      	cmp	r2, #0
 80098e0:	d108      	bne.n	80098f4 <_raise_r+0x36>
 80098e2:	0020      	movs	r0, r4
 80098e4:	f000 f830 	bl	8009948 <_getpid_r>
 80098e8:	002a      	movs	r2, r5
 80098ea:	0001      	movs	r1, r0
 80098ec:	0020      	movs	r0, r4
 80098ee:	f000 f819 	bl	8009924 <_kill_r>
 80098f2:	e7ed      	b.n	80098d0 <_raise_r+0x12>
 80098f4:	2a01      	cmp	r2, #1
 80098f6:	d009      	beq.n	800990c <_raise_r+0x4e>
 80098f8:	1c51      	adds	r1, r2, #1
 80098fa:	d103      	bne.n	8009904 <_raise_r+0x46>
 80098fc:	2316      	movs	r3, #22
 80098fe:	6003      	str	r3, [r0, #0]
 8009900:	2001      	movs	r0, #1
 8009902:	e7e5      	b.n	80098d0 <_raise_r+0x12>
 8009904:	2100      	movs	r1, #0
 8009906:	0028      	movs	r0, r5
 8009908:	6019      	str	r1, [r3, #0]
 800990a:	4790      	blx	r2
 800990c:	2000      	movs	r0, #0
 800990e:	e7df      	b.n	80098d0 <_raise_r+0x12>

08009910 <raise>:
 8009910:	b510      	push	{r4, lr}
 8009912:	4b03      	ldr	r3, [pc, #12]	@ (8009920 <raise+0x10>)
 8009914:	0001      	movs	r1, r0
 8009916:	6818      	ldr	r0, [r3, #0]
 8009918:	f7ff ffd1 	bl	80098be <_raise_r>
 800991c:	bd10      	pop	{r4, pc}
 800991e:	46c0      	nop			@ (mov r8, r8)
 8009920:	2000001c 	.word	0x2000001c

08009924 <_kill_r>:
 8009924:	2300      	movs	r3, #0
 8009926:	b570      	push	{r4, r5, r6, lr}
 8009928:	4d06      	ldr	r5, [pc, #24]	@ (8009944 <_kill_r+0x20>)
 800992a:	0004      	movs	r4, r0
 800992c:	0008      	movs	r0, r1
 800992e:	0011      	movs	r1, r2
 8009930:	602b      	str	r3, [r5, #0]
 8009932:	f7fa fa54 	bl	8003dde <_kill>
 8009936:	1c43      	adds	r3, r0, #1
 8009938:	d103      	bne.n	8009942 <_kill_r+0x1e>
 800993a:	682b      	ldr	r3, [r5, #0]
 800993c:	2b00      	cmp	r3, #0
 800993e:	d000      	beq.n	8009942 <_kill_r+0x1e>
 8009940:	6023      	str	r3, [r4, #0]
 8009942:	bd70      	pop	{r4, r5, r6, pc}
 8009944:	20000540 	.word	0x20000540

08009948 <_getpid_r>:
 8009948:	b510      	push	{r4, lr}
 800994a:	f7fa fa42 	bl	8003dd2 <_getpid>
 800994e:	bd10      	pop	{r4, pc}

08009950 <_init>:
 8009950:	b5f8      	push	{r3, r4, r5, r6, r7, lr}
 8009952:	46c0      	nop			@ (mov r8, r8)
 8009954:	bcf8      	pop	{r3, r4, r5, r6, r7}
 8009956:	bc08      	pop	{r3}
 8009958:	469e      	mov	lr, r3
 800995a:	4770      	bx	lr

0800995c <_fini>:
 800995c:	b5f8      	push	{r3, r4, r5, r6, r7, lr}
 800995e:	46c0      	nop			@ (mov r8, r8)
 8009960:	bcf8      	pop	{r3, r4, r5, r6, r7}
 8009962:	bc08      	pop	{r3}
 8009964:	469e      	mov	lr, r3
 8009966:	4770      	bx	lr
