
ECE500_2025_Fall_Jordan_Thacker.elf:     file format elf32-littlearm

Sections:
Idx Name          Size      VMA       LMA       File off  Algn
  0 .isr_vector   000000bc  08000000  08000000  00001000  2**0
                  CONTENTS, ALLOC, LOAD, READONLY, DATA
  1 .text         000035d4  080000bc  080000bc  000010bc  2**2
                  CONTENTS, ALLOC, LOAD, READONLY, CODE
  2 .rodata       000000d8  08003690  08003690  00004690  2**2
                  CONTENTS, ALLOC, LOAD, READONLY, DATA
  3 .ARM.extab    00000000  08003768  08003768  00005068  2**0
                  CONTENTS, READONLY
  4 .ARM          00000008  08003768  08003768  00004768  2**2
                  CONTENTS, ALLOC, LOAD, READONLY, DATA
  5 .preinit_array 00000000  08003770  08003770  00005068  2**0
                  CONTENTS, ALLOC, LOAD, DATA
  6 .init_array   00000004  08003770  08003770  00004770  2**2
                  CONTENTS, ALLOC, LOAD, READONLY, DATA
  7 .fini_array   00000004  08003774  08003774  00004774  2**2
                  CONTENTS, ALLOC, LOAD, READONLY, DATA
  8 .data         00000068  20000000  08003778  00005000  2**2
                  CONTENTS, ALLOC, LOAD, DATA
  9 .bss          00000204  20000068  080037e0  00005068  2**2
                  ALLOC
 10 ._user_heap_stack 00000604  2000026c  080037e0  0000526c  2**0
                  ALLOC
 11 .ARM.attributes 00000028  00000000  00000000  00005068  2**0
                  CONTENTS, READONLY
 12 .debug_info   0000b9fc  00000000  00000000  00005090  2**0
                  CONTENTS, READONLY, DEBUGGING, OCTETS
 13 .debug_abbrev 00001e84  00000000  00000000  00010a8c  2**0
                  CONTENTS, READONLY, DEBUGGING, OCTETS
 14 .debug_aranges 00000920  00000000  00000000  00012910  2**3
                  CONTENTS, READONLY, DEBUGGING, OCTETS
 15 .debug_rnglists 000006f3  00000000  00000000  00013230  2**0
                  CONTENTS, READONLY, DEBUGGING, OCTETS
 16 .debug_macro  00018ae7  00000000  00000000  00013923  2**0
                  CONTENTS, READONLY, DEBUGGING, OCTETS
 17 .debug_line   0000c6b1  00000000  00000000  0002c40a  2**0
                  CONTENTS, READONLY, DEBUGGING, OCTETS
 18 .debug_str    000984fa  00000000  00000000  00038abb  2**0
                  CONTENTS, READONLY, DEBUGGING, OCTETS
 19 .comment      00000043  00000000  00000000  000d0fb5  2**0
                  CONTENTS, READONLY
 20 .debug_frame  00002568  00000000  00000000  000d0ff8  2**2
                  CONTENTS, READONLY, DEBUGGING, OCTETS
 21 .debug_line_str 0000007b  00000000  00000000  000d3560  2**0
                  CONTENTS, READONLY, DEBUGGING, OCTETS

Disassembly of section .text:

080000bc <__do_global_dtors_aux>:
 80000bc:	b510      	push	{r4, lr}
 80000be:	4c06      	ldr	r4, [pc, #24]	@ (80000d8 <__do_global_dtors_aux+0x1c>)
 80000c0:	7823      	ldrb	r3, [r4, #0]
 80000c2:	2b00      	cmp	r3, #0
 80000c4:	d107      	bne.n	80000d6 <__do_global_dtors_aux+0x1a>
 80000c6:	4b05      	ldr	r3, [pc, #20]	@ (80000dc <__do_global_dtors_aux+0x20>)
 80000c8:	2b00      	cmp	r3, #0
 80000ca:	d002      	beq.n	80000d2 <__do_global_dtors_aux+0x16>
 80000cc:	4804      	ldr	r0, [pc, #16]	@ (80000e0 <__do_global_dtors_aux+0x24>)
 80000ce:	e000      	b.n	80000d2 <__do_global_dtors_aux+0x16>
 80000d0:	bf00      	nop
 80000d2:	2301      	movs	r3, #1
 80000d4:	7023      	strb	r3, [r4, #0]
 80000d6:	bd10      	pop	{r4, pc}
 80000d8:	20000068 	.word	0x20000068
 80000dc:	00000000 	.word	0x00000000
 80000e0:	08003678 	.word	0x08003678

080000e4 <frame_dummy>:
 80000e4:	4b04      	ldr	r3, [pc, #16]	@ (80000f8 <frame_dummy+0x14>)
 80000e6:	b510      	push	{r4, lr}
 80000e8:	2b00      	cmp	r3, #0
 80000ea:	d003      	beq.n	80000f4 <frame_dummy+0x10>
 80000ec:	4903      	ldr	r1, [pc, #12]	@ (80000fc <frame_dummy+0x18>)
 80000ee:	4804      	ldr	r0, [pc, #16]	@ (8000100 <frame_dummy+0x1c>)
 80000f0:	e000      	b.n	80000f4 <frame_dummy+0x10>
 80000f2:	bf00      	nop
 80000f4:	bd10      	pop	{r4, pc}
 80000f6:	46c0      	nop			@ (mov r8, r8)
 80000f8:	00000000 	.word	0x00000000
 80000fc:	2000006c 	.word	0x2000006c
 8000100:	08003678 	.word	0x08003678

08000104 <__udivsi3>:
 8000104:	2200      	movs	r2, #0
 8000106:	0843      	lsrs	r3, r0, #1
 8000108:	428b      	cmp	r3, r1
 800010a:	d374      	bcc.n	80001f6 <__udivsi3+0xf2>
 800010c:	0903      	lsrs	r3, r0, #4
 800010e:	428b      	cmp	r3, r1
 8000110:	d35f      	bcc.n	80001d2 <__udivsi3+0xce>
 8000112:	0a03      	lsrs	r3, r0, #8
 8000114:	428b      	cmp	r3, r1
 8000116:	d344      	bcc.n	80001a2 <__udivsi3+0x9e>
 8000118:	0b03      	lsrs	r3, r0, #12
 800011a:	428b      	cmp	r3, r1
 800011c:	d328      	bcc.n	8000170 <__udivsi3+0x6c>
 800011e:	0c03      	lsrs	r3, r0, #16
 8000120:	428b      	cmp	r3, r1
 8000122:	d30d      	bcc.n	8000140 <__udivsi3+0x3c>
 8000124:	22ff      	movs	r2, #255	@ 0xff
 8000126:	0209      	lsls	r1, r1, #8
 8000128:	ba12      	rev	r2, r2
 800012a:	0c03      	lsrs	r3, r0, #16
 800012c:	428b      	cmp	r3, r1
 800012e:	d302      	bcc.n	8000136 <__udivsi3+0x32>
 8000130:	1212      	asrs	r2, r2, #8
 8000132:	0209      	lsls	r1, r1, #8
 8000134:	d065      	beq.n	8000202 <__udivsi3+0xfe>
 8000136:	0b03      	lsrs	r3, r0, #12
 8000138:	428b      	cmp	r3, r1
 800013a:	d319      	bcc.n	8000170 <__udivsi3+0x6c>
 800013c:	e000      	b.n	8000140 <__udivsi3+0x3c>
 800013e:	0a09      	lsrs	r1, r1, #8
 8000140:	0bc3      	lsrs	r3, r0, #15
 8000142:	428b      	cmp	r3, r1
 8000144:	d301      	bcc.n	800014a <__udivsi3+0x46>
 8000146:	03cb      	lsls	r3, r1, #15
 8000148:	1ac0      	subs	r0, r0, r3
 800014a:	4152      	adcs	r2, r2
 800014c:	0b83      	lsrs	r3, r0, #14
 800014e:	428b      	cmp	r3, r1
 8000150:	d301      	bcc.n	8000156 <__udivsi3+0x52>
 8000152:	038b      	lsls	r3, r1, #14
 8000154:	1ac0      	subs	r0, r0, r3
 8000156:	4152      	adcs	r2, r2
 8000158:	0b43      	lsrs	r3, r0, #13
 800015a:	428b      	cmp	r3, r1
 800015c:	d301      	bcc.n	8000162 <__udivsi3+0x5e>
 800015e:	034b      	lsls	r3, r1, #13
 8000160:	1ac0      	subs	r0, r0, r3
 8000162:	4152      	adcs	r2, r2
 8000164:	0b03      	lsrs	r3, r0, #12
 8000166:	428b      	cmp	r3, r1
 8000168:	d301      	bcc.n	800016e <__udivsi3+0x6a>
 800016a:	030b      	lsls	r3, r1, #12
 800016c:	1ac0      	subs	r0, r0, r3
 800016e:	4152      	adcs	r2, r2
 8000170:	0ac3      	lsrs	r3, r0, #11
 8000172:	428b      	cmp	r3, r1
 8000174:	d301      	bcc.n	800017a <__udivsi3+0x76>
 8000176:	02cb      	lsls	r3, r1, #11
 8000178:	1ac0      	subs	r0, r0, r3
 800017a:	4152      	adcs	r2, r2
 800017c:	0a83      	lsrs	r3, r0, #10
 800017e:	428b      	cmp	r3, r1
 8000180:	d301      	bcc.n	8000186 <__udivsi3+0x82>
 8000182:	028b      	lsls	r3, r1, #10
 8000184:	1ac0      	subs	r0, r0, r3
 8000186:	4152      	adcs	r2, r2
 8000188:	0a43      	lsrs	r3, r0, #9
 800018a:	428b      	cmp	r3, r1
 800018c:	d301      	bcc.n	8000192 <__udivsi3+0x8e>
 800018e:	024b      	lsls	r3, r1, #9
 8000190:	1ac0      	subs	r0, r0, r3
 8000192:	4152      	adcs	r2, r2
 8000194:	0a03      	lsrs	r3, r0, #8
 8000196:	428b      	cmp	r3, r1
 8000198:	d301      	bcc.n	800019e <__udivsi3+0x9a>
 800019a:	020b      	lsls	r3, r1, #8
 800019c:	1ac0      	subs	r0, r0, r3
 800019e:	4152      	adcs	r2, r2
 80001a0:	d2cd      	bcs.n	800013e <__udivsi3+0x3a>
 80001a2:	09c3      	lsrs	r3, r0, #7
 80001a4:	428b      	cmp	r3, r1
 80001a6:	d301      	bcc.n	80001ac <__udivsi3+0xa8>
 80001a8:	01cb      	lsls	r3, r1, #7
 80001aa:	1ac0      	subs	r0, r0, r3
 80001ac:	4152      	adcs	r2, r2
 80001ae:	0983      	lsrs	r3, r0, #6
 80001b0:	428b      	cmp	r3, r1
 80001b2:	d301      	bcc.n	80001b8 <__udivsi3+0xb4>
 80001b4:	018b      	lsls	r3, r1, #6
 80001b6:	1ac0      	subs	r0, r0, r3
 80001b8:	4152      	adcs	r2, r2
 80001ba:	0943      	lsrs	r3, r0, #5
 80001bc:	428b      	cmp	r3, r1
 80001be:	d301      	bcc.n	80001c4 <__udivsi3+0xc0>
 80001c0:	014b      	lsls	r3, r1, #5
 80001c2:	1ac0      	subs	r0, r0, r3
 80001c4:	4152      	adcs	r2, r2
 80001c6:	0903      	lsrs	r3, r0, #4
 80001c8:	428b      	cmp	r3, r1
 80001ca:	d301      	bcc.n	80001d0 <__udivsi3+0xcc>
 80001cc:	010b      	lsls	r3, r1, #4
 80001ce:	1ac0      	subs	r0, r0, r3
 80001d0:	4152      	adcs	r2, r2
 80001d2:	08c3      	lsrs	r3, r0, #3
 80001d4:	428b      	cmp	r3, r1
 80001d6:	d301      	bcc.n	80001dc <__udivsi3+0xd8>
 80001d8:	00cb      	lsls	r3, r1, #3
 80001da:	1ac0      	subs	r0, r0, r3
 80001dc:	4152      	adcs	r2, r2
 80001de:	0883      	lsrs	r3, r0, #2
 80001e0:	428b      	cmp	r3, r1
 80001e2:	d301      	bcc.n	80001e8 <__udivsi3+0xe4>
 80001e4:	008b      	lsls	r3, r1, #2
 80001e6:	1ac0      	subs	r0, r0, r3
 80001e8:	4152      	adcs	r2, r2
 80001ea:	0843      	lsrs	r3, r0, #1
 80001ec:	428b      	cmp	r3, r1
 80001ee:	d301      	bcc.n	80001f4 <__udivsi3+0xf0>
 80001f0:	004b      	lsls	r3, r1, #1
 80001f2:	1ac0      	subs	r0, r0, r3
 80001f4:	4152      	adcs	r2, r2
 80001f6:	1a41      	subs	r1, r0, r1
 80001f8:	d200      	bcs.n	80001fc <__udivsi3+0xf8>
 80001fa:	4601      	mov	r1, r0
 80001fc:	4152      	adcs	r2, r2
 80001fe:	4610      	mov	r0, r2
 8000200:	4770      	bx	lr
 8000202:	e7ff      	b.n	8000204 <__udivsi3+0x100>
 8000204:	b501      	push	{r0, lr}
 8000206:	2000      	movs	r0, #0
 8000208:	f000 f8f0 	bl	80003ec <__aeabi_idiv0>
 800020c:	bd02      	pop	{r1, pc}
 800020e:	46c0      	nop			@ (mov r8, r8)

08000210 <__aeabi_uidivmod>:
 8000210:	2900      	cmp	r1, #0
 8000212:	d0f7      	beq.n	8000204 <__udivsi3+0x100>
 8000214:	e776      	b.n	8000104 <__udivsi3>
 8000216:	4770      	bx	lr

08000218 <__divsi3>:
 8000218:	4603      	mov	r3, r0
 800021a:	430b      	orrs	r3, r1
 800021c:	d47f      	bmi.n	800031e <__divsi3+0x106>
 800021e:	2200      	movs	r2, #0
 8000220:	0843      	lsrs	r3, r0, #1
 8000222:	428b      	cmp	r3, r1
 8000224:	d374      	bcc.n	8000310 <__divsi3+0xf8>
 8000226:	0903      	lsrs	r3, r0, #4
 8000228:	428b      	cmp	r3, r1
 800022a:	d35f      	bcc.n	80002ec <__divsi3+0xd4>
 800022c:	0a03      	lsrs	r3, r0, #8
 800022e:	428b      	cmp	r3, r1
 8000230:	d344      	bcc.n	80002bc <__divsi3+0xa4>
 8000232:	0b03      	lsrs	r3, r0, #12
 8000234:	428b      	cmp	r3, r1
 8000236:	d328      	bcc.n	800028a <__divsi3+0x72>
 8000238:	0c03      	lsrs	r3, r0, #16
 800023a:	428b      	cmp	r3, r1
 800023c:	d30d      	bcc.n	800025a <__divsi3+0x42>
 800023e:	22ff      	movs	r2, #255	@ 0xff
 8000240:	0209      	lsls	r1, r1, #8
 8000242:	ba12      	rev	r2, r2
 8000244:	0c03      	lsrs	r3, r0, #16
 8000246:	428b      	cmp	r3, r1
 8000248:	d302      	bcc.n	8000250 <__divsi3+0x38>
 800024a:	1212      	asrs	r2, r2, #8
 800024c:	0209      	lsls	r1, r1, #8
 800024e:	d065      	beq.n	800031c <__divsi3+0x104>
 8000250:	0b03      	lsrs	r3, r0, #12
 8000252:	428b      	cmp	r3, r1
 8000254:	d319      	bcc.n	800028a <__divsi3+0x72>
 8000256:	e000      	b.n	800025a <__divsi3+0x42>
 8000258:	0a09      	lsrs	r1, r1, #8
 800025a:	0bc3      	lsrs	r3, r0, #15
 800025c:	428b      	cmp	r3, r1
 800025e:	d301      	bcc.n	8000264 <__divsi3+0x4c>
 8000260:	03cb      	lsls	r3, r1, #15
 8000262:	1ac0      	subs	r0, r0, r3
 8000264:	4152      	adcs	r2, r2
 8000266:	0b83      	lsrs	r3, r0, #14
 8000268:	428b      	cmp	r3, r1
 800026a:	d301      	bcc.n	8000270 <__divsi3+0x58>
 800026c:	038b      	lsls	r3, r1, #14
 800026e:	1ac0      	subs	r0, r0, r3
 8000270:	4152      	adcs	r2, r2
 8000272:	0b43      	lsrs	r3, r0, #13
 8000274:	428b      	cmp	r3, r1
 8000276:	d301      	bcc.n	800027c <__divsi3+0x64>
 8000278:	034b      	lsls	r3, r1, #13
 800027a:	1ac0      	subs	r0, r0, r3
 800027c:	4152      	adcs	r2, r2
 800027e:	0b03      	lsrs	r3, r0, #12
 8000280:	428b      	cmp	r3, r1
 8000282:	d301      	bcc.n	8000288 <__divsi3+0x70>
 8000284:	030b      	lsls	r3, r1, #12
 8000286:	1ac0      	subs	r0, r0, r3
 8000288:	4152      	adcs	r2, r2
 800028a:	0ac3      	lsrs	r3, r0, #11
 800028c:	428b      	cmp	r3, r1
 800028e:	d301      	bcc.n	8000294 <__divsi3+0x7c>
 8000290:	02cb      	lsls	r3, r1, #11
 8000292:	1ac0      	subs	r0, r0, r3
 8000294:	4152      	adcs	r2, r2
 8000296:	0a83      	lsrs	r3, r0, #10
 8000298:	428b      	cmp	r3, r1
 800029a:	d301      	bcc.n	80002a0 <__divsi3+0x88>
 800029c:	028b      	lsls	r3, r1, #10
 800029e:	1ac0      	subs	r0, r0, r3
 80002a0:	4152      	adcs	r2, r2
 80002a2:	0a43      	lsrs	r3, r0, #9
 80002a4:	428b      	cmp	r3, r1
 80002a6:	d301      	bcc.n	80002ac <__divsi3+0x94>
 80002a8:	024b      	lsls	r3, r1, #9
 80002aa:	1ac0      	subs	r0, r0, r3
 80002ac:	4152      	adcs	r2, r2
 80002ae:	0a03      	lsrs	r3, r0, #8
 80002b0:	428b      	cmp	r3, r1
 80002b2:	d301      	bcc.n	80002b8 <__divsi3+0xa0>
 80002b4:	020b      	lsls	r3, r1, #8
 80002b6:	1ac0      	subs	r0, r0, r3
 80002b8:	4152      	adcs	r2, r2
 80002ba:	d2cd      	bcs.n	8000258 <__divsi3+0x40>
 80002bc:	09c3      	lsrs	r3, r0, #7
 80002be:	428b      	cmp	r3, r1
 80002c0:	d301      	bcc.n	80002c6 <__divsi3+0xae>
 80002c2:	01cb      	lsls	r3, r1, #7
 80002c4:	1ac0      	subs	r0, r0, r3
 80002c6:	4152      	adcs	r2, r2
 80002c8:	0983      	lsrs	r3, r0, #6
 80002ca:	428b      	cmp	r3, r1
 80002cc:	d301      	bcc.n	80002d2 <__divsi3+0xba>
 80002ce:	018b      	lsls	r3, r1, #6
 80002d0:	1ac0      	subs	r0, r0, r3
 80002d2:	4152      	adcs	r2, r2
 80002d4:	0943      	lsrs	r3, r0, #5
 80002d6:	428b      	cmp	r3, r1
 80002d8:	d301      	bcc.n	80002de <__divsi3+0xc6>
 80002da:	014b      	lsls	r3, r1, #5
 80002dc:	1ac0      	subs	r0, r0, r3
 80002de:	4152      	adcs	r2, r2
 80002e0:	0903      	lsrs	r3, r0, #4
 80002e2:	428b      	cmp	r3, r1
 80002e4:	d301      	bcc.n	80002ea <__divsi3+0xd2>
 80002e6:	010b      	lsls	r3, r1, #4
 80002e8:	1ac0      	subs	r0, r0, r3
 80002ea:	4152      	adcs	r2, r2
 80002ec:	08c3      	lsrs	r3, r0, #3
 80002ee:	428b      	cmp	r3, r1
 80002f0:	d301      	bcc.n	80002f6 <__divsi3+0xde>
 80002f2:	00cb      	lsls	r3, r1, #3
 80002f4:	1ac0      	subs	r0, r0, r3
 80002f6:	4152      	adcs	r2, r2
 80002f8:	0883      	lsrs	r3, r0, #2
 80002fa:	428b      	cmp	r3, r1
 80002fc:	d301      	bcc.n	8000302 <__divsi3+0xea>
 80002fe:	008b      	lsls	r3, r1, #2
 8000300:	1ac0      	subs	r0, r0, r3
 8000302:	4152      	adcs	r2, r2
 8000304:	0843      	lsrs	r3, r0, #1
 8000306:	428b      	cmp	r3, r1
 8000308:	d301      	bcc.n	800030e <__divsi3+0xf6>
 800030a:	004b      	lsls	r3, r1, #1
 800030c:	1ac0      	subs	r0, r0, r3
 800030e:	4152      	adcs	r2, r2
 8000310:	1a41      	subs	r1, r0, r1
 8000312:	d200      	bcs.n	8000316 <__divsi3+0xfe>
 8000314:	4601      	mov	r1, r0
 8000316:	4152      	adcs	r2, r2
 8000318:	4610      	mov	r0, r2
 800031a:	4770      	bx	lr
 800031c:	e05d      	b.n	80003da <__divsi3+0x1c2>
 800031e:	0fca      	lsrs	r2, r1, #31
 8000320:	d000      	beq.n	8000324 <__divsi3+0x10c>
 8000322:	4249      	negs	r1, r1
 8000324:	1003      	asrs	r3, r0, #32
 8000326:	d300      	bcc.n	800032a <__divsi3+0x112>
 8000328:	4240      	negs	r0, r0
 800032a:	4053      	eors	r3, r2
 800032c:	2200      	movs	r2, #0
 800032e:	469c      	mov	ip, r3
 8000330:	0903      	lsrs	r3, r0, #4
 8000332:	428b      	cmp	r3, r1
 8000334:	d32d      	bcc.n	8000392 <__divsi3+0x17a>
 8000336:	0a03      	lsrs	r3, r0, #8
 8000338:	428b      	cmp	r3, r1
 800033a:	d312      	bcc.n	8000362 <__divsi3+0x14a>
 800033c:	22fc      	movs	r2, #252	@ 0xfc
 800033e:	0189      	lsls	r1, r1, #6
 8000340:	ba12      	rev	r2, r2
 8000342:	0a03      	lsrs	r3, r0, #8
 8000344:	428b      	cmp	r3, r1
 8000346:	d30c      	bcc.n	8000362 <__divsi3+0x14a>
 8000348:	0189      	lsls	r1, r1, #6
 800034a:	1192      	asrs	r2, r2, #6
 800034c:	428b      	cmp	r3, r1
 800034e:	d308      	bcc.n	8000362 <__divsi3+0x14a>
 8000350:	0189      	lsls	r1, r1, #6
 8000352:	1192      	asrs	r2, r2, #6
 8000354:	428b      	cmp	r3, r1
 8000356:	d304      	bcc.n	8000362 <__divsi3+0x14a>
 8000358:	0189      	lsls	r1, r1, #6
 800035a:	d03a      	beq.n	80003d2 <__divsi3+0x1ba>
 800035c:	1192      	asrs	r2, r2, #6
 800035e:	e000      	b.n	8000362 <__divsi3+0x14a>
 8000360:	0989      	lsrs	r1, r1, #6
 8000362:	09c3      	lsrs	r3, r0, #7
 8000364:	428b      	cmp	r3, r1
 8000366:	d301      	bcc.n	800036c <__divsi3+0x154>
 8000368:	01cb      	lsls	r3, r1, #7
 800036a:	1ac0      	subs	r0, r0, r3
 800036c:	4152      	adcs	r2, r2
 800036e:	0983      	lsrs	r3, r0, #6
 8000370:	428b      	cmp	r3, r1
 8000372:	d301      	bcc.n	8000378 <__divsi3+0x160>
 8000374:	018b      	lsls	r3, r1, #6
 8000376:	1ac0      	subs	r0, r0, r3
 8000378:	4152      	adcs	r2, r2
 800037a:	0943      	lsrs	r3, r0, #5
 800037c:	428b      	cmp	r3, r1
 800037e:	d301      	bcc.n	8000384 <__divsi3+0x16c>
 8000380:	014b      	lsls	r3, r1, #5
 8000382:	1ac0      	subs	r0, r0, r3
 8000384:	4152      	adcs	r2, r2
 8000386:	0903      	lsrs	r3, r0, #4
 8000388:	428b      	cmp	r3, r1
 800038a:	d301      	bcc.n	8000390 <__divsi3+0x178>
 800038c:	010b      	lsls	r3, r1, #4
 800038e:	1ac0      	subs	r0, r0, r3
 8000390:	4152      	adcs	r2, r2
 8000392:	08c3      	lsrs	r3, r0, #3
 8000394:	428b      	cmp	r3, r1
 8000396:	d301      	bcc.n	800039c <__divsi3+0x184>
 8000398:	00cb      	lsls	r3, r1, #3
 800039a:	1ac0      	subs	r0, r0, r3
 800039c:	4152      	adcs	r2, r2
 800039e:	0883      	lsrs	r3, r0, #2
 80003a0:	428b      	cmp	r3, r1
 80003a2:	d301      	bcc.n	80003a8 <__divsi3+0x190>
 80003a4:	008b      	lsls	r3, r1, #2
 80003a6:	1ac0      	subs	r0, r0, r3
 80003a8:	4152      	adcs	r2, r2
 80003aa:	d2d9      	bcs.n	8000360 <__divsi3+0x148>
 80003ac:	0843      	lsrs	r3, r0, #1
 80003ae:	428b      	cmp	r3, r1
 80003b0:	d301      	bcc.n	80003b6 <__divsi3+0x19e>
 80003b2:	004b      	lsls	r3, r1, #1
 80003b4:	1ac0      	subs	r0, r0, r3
 80003b6:	4152      	adcs	r2, r2
 80003b8:	1a41      	subs	r1, r0, r1
 80003ba:	d200      	bcs.n	80003be <__divsi3+0x1a6>
 80003bc:	4601      	mov	r1, r0
 80003be:	4663      	mov	r3, ip
 80003c0:	4152      	adcs	r2, r2
 80003c2:	105b      	asrs	r3, r3, #1
 80003c4:	4610      	mov	r0, r2
 80003c6:	d301      	bcc.n	80003cc <__divsi3+0x1b4>
 80003c8:	4240      	negs	r0, r0
 80003ca:	2b00      	cmp	r3, #0
 80003cc:	d500      	bpl.n	80003d0 <__divsi3+0x1b8>
 80003ce:	4249      	negs	r1, r1
 80003d0:	4770      	bx	lr
 80003d2:	4663      	mov	r3, ip
 80003d4:	105b      	asrs	r3, r3, #1
 80003d6:	d300      	bcc.n	80003da <__divsi3+0x1c2>
 80003d8:	4240      	negs	r0, r0
 80003da:	b501      	push	{r0, lr}
 80003dc:	2000      	movs	r0, #0
 80003de:	f000 f805 	bl	80003ec <__aeabi_idiv0>
 80003e2:	bd02      	pop	{r1, pc}

080003e4 <__aeabi_idivmod>:
 80003e4:	2900      	cmp	r1, #0
 80003e6:	d0f8      	beq.n	80003da <__divsi3+0x1c2>
 80003e8:	e716      	b.n	8000218 <__divsi3>
 80003ea:	4770      	bx	lr

080003ec <__aeabi_idiv0>:
 80003ec:	4770      	bx	lr
 80003ee:	46c0      	nop			@ (mov r8, r8)

080003f0 <__aeabi_uldivmod>:
 80003f0:	2b00      	cmp	r3, #0
 80003f2:	d111      	bne.n	8000418 <__aeabi_uldivmod+0x28>
 80003f4:	2a00      	cmp	r2, #0
 80003f6:	d10f      	bne.n	8000418 <__aeabi_uldivmod+0x28>
 80003f8:	2900      	cmp	r1, #0
 80003fa:	d100      	bne.n	80003fe <__aeabi_uldivmod+0xe>
 80003fc:	2800      	cmp	r0, #0
 80003fe:	d002      	beq.n	8000406 <__aeabi_uldivmod+0x16>
 8000400:	2100      	movs	r1, #0
 8000402:	43c9      	mvns	r1, r1
 8000404:	0008      	movs	r0, r1
 8000406:	b407      	push	{r0, r1, r2}
 8000408:	4802      	ldr	r0, [pc, #8]	@ (8000414 <__aeabi_uldivmod+0x24>)
 800040a:	a102      	add	r1, pc, #8	@ (adr r1, 8000414 <__aeabi_uldivmod+0x24>)
 800040c:	1840      	adds	r0, r0, r1
 800040e:	9002      	str	r0, [sp, #8]
 8000410:	bd03      	pop	{r0, r1, pc}
 8000412:	46c0      	nop			@ (mov r8, r8)
 8000414:	ffffffd9 	.word	0xffffffd9
 8000418:	b403      	push	{r0, r1}
 800041a:	4668      	mov	r0, sp
 800041c:	b501      	push	{r0, lr}
 800041e:	9802      	ldr	r0, [sp, #8]
 8000420:	f000 f806 	bl	8000430 <__udivmoddi4>
 8000424:	9b01      	ldr	r3, [sp, #4]
 8000426:	469e      	mov	lr, r3
 8000428:	b002      	add	sp, #8
 800042a:	bc0c      	pop	{r2, r3}
 800042c:	4770      	bx	lr
 800042e:	46c0      	nop			@ (mov r8, r8)

08000430 <__udivmoddi4>:
 8000430:	b5f0      	push	{r4, r5, r6, r7, lr}
 8000432:	4657      	mov	r7, sl
 8000434:	464e      	mov	r6, r9
 8000436:	4645      	mov	r5, r8
 8000438:	46de      	mov	lr, fp
 800043a:	b5e0      	push	{r5, r6, r7, lr}
 800043c:	0004      	movs	r4, r0
 800043e:	000d      	movs	r5, r1
 8000440:	4692      	mov	sl, r2
 8000442:	4699      	mov	r9, r3
 8000444:	b083      	sub	sp, #12
 8000446:	428b      	cmp	r3, r1
 8000448:	d830      	bhi.n	80004ac <__udivmoddi4+0x7c>
 800044a:	d02d      	beq.n	80004a8 <__udivmoddi4+0x78>
 800044c:	4649      	mov	r1, r9
 800044e:	4650      	mov	r0, sl
 8000450:	f000 f8ba 	bl	80005c8 <__clzdi2>
 8000454:	0029      	movs	r1, r5
 8000456:	0006      	movs	r6, r0
 8000458:	0020      	movs	r0, r4
 800045a:	f000 f8b5 	bl	80005c8 <__clzdi2>
 800045e:	1a33      	subs	r3, r6, r0
 8000460:	4698      	mov	r8, r3
 8000462:	3b20      	subs	r3, #32
 8000464:	d434      	bmi.n	80004d0 <__udivmoddi4+0xa0>
 8000466:	469b      	mov	fp, r3
 8000468:	4653      	mov	r3, sl
 800046a:	465a      	mov	r2, fp
 800046c:	4093      	lsls	r3, r2
 800046e:	4642      	mov	r2, r8
 8000470:	001f      	movs	r7, r3
 8000472:	4653      	mov	r3, sl
 8000474:	4093      	lsls	r3, r2
 8000476:	001e      	movs	r6, r3
 8000478:	42af      	cmp	r7, r5
 800047a:	d83b      	bhi.n	80004f4 <__udivmoddi4+0xc4>
 800047c:	42af      	cmp	r7, r5
 800047e:	d100      	bne.n	8000482 <__udivmoddi4+0x52>
 8000480:	e079      	b.n	8000576 <__udivmoddi4+0x146>
 8000482:	465b      	mov	r3, fp
 8000484:	1ba4      	subs	r4, r4, r6
 8000486:	41bd      	sbcs	r5, r7
 8000488:	2b00      	cmp	r3, #0
 800048a:	da00      	bge.n	800048e <__udivmoddi4+0x5e>
 800048c:	e076      	b.n	800057c <__udivmoddi4+0x14c>
 800048e:	2200      	movs	r2, #0
 8000490:	2300      	movs	r3, #0
 8000492:	9200      	str	r2, [sp, #0]
 8000494:	9301      	str	r3, [sp, #4]
 8000496:	2301      	movs	r3, #1
 8000498:	465a      	mov	r2, fp
 800049a:	4093      	lsls	r3, r2
 800049c:	9301      	str	r3, [sp, #4]
 800049e:	2301      	movs	r3, #1
 80004a0:	4642      	mov	r2, r8
 80004a2:	4093      	lsls	r3, r2
 80004a4:	9300      	str	r3, [sp, #0]
 80004a6:	e029      	b.n	80004fc <__udivmoddi4+0xcc>
 80004a8:	4282      	cmp	r2, r0
 80004aa:	d9cf      	bls.n	800044c <__udivmoddi4+0x1c>
 80004ac:	2200      	movs	r2, #0
 80004ae:	2300      	movs	r3, #0
 80004b0:	9200      	str	r2, [sp, #0]
 80004b2:	9301      	str	r3, [sp, #4]
 80004b4:	9b0c      	ldr	r3, [sp, #48]	@ 0x30
 80004b6:	2b00      	cmp	r3, #0
 80004b8:	d001      	beq.n	80004be <__udivmoddi4+0x8e>
 80004ba:	601c      	str	r4, [r3, #0]
 80004bc:	605d      	str	r5, [r3, #4]
 80004be:	9800      	ldr	r0, [sp, #0]
 80004c0:	9901      	ldr	r1, [sp, #4]
 80004c2:	b003      	add	sp, #12
 80004c4:	bcf0      	pop	{r4, r5, r6, r7}
 80004c6:	46bb      	mov	fp, r7
 80004c8:	46b2      	mov	sl, r6
 80004ca:	46a9      	mov	r9, r5
 80004cc:	46a0      	mov	r8, r4
 80004ce:	bdf0      	pop	{r4, r5, r6, r7, pc}
 80004d0:	4642      	mov	r2, r8
 80004d2:	469b      	mov	fp, r3
 80004d4:	2320      	movs	r3, #32
 80004d6:	1a9b      	subs	r3, r3, r2
 80004d8:	4652      	mov	r2, sl
 80004da:	40da      	lsrs	r2, r3
 80004dc:	4641      	mov	r1, r8
 80004de:	0013      	movs	r3, r2
 80004e0:	464a      	mov	r2, r9
 80004e2:	408a      	lsls	r2, r1
 80004e4:	0017      	movs	r7, r2
 80004e6:	4642      	mov	r2, r8
 80004e8:	431f      	orrs	r7, r3
 80004ea:	4653      	mov	r3, sl
 80004ec:	4093      	lsls	r3, r2
 80004ee:	001e      	movs	r6, r3
 80004f0:	42af      	cmp	r7, r5
 80004f2:	d9c3      	bls.n	800047c <__udivmoddi4+0x4c>
 80004f4:	2200      	movs	r2, #0
 80004f6:	2300      	movs	r3, #0
 80004f8:	9200      	str	r2, [sp, #0]
 80004fa:	9301      	str	r3, [sp, #4]
 80004fc:	4643      	mov	r3, r8
 80004fe:	2b00      	cmp	r3, #0
 8000500:	d0d8      	beq.n	80004b4 <__udivmoddi4+0x84>
 8000502:	07fb      	lsls	r3, r7, #31
 8000504:	0872      	lsrs	r2, r6, #1
 8000506:	431a      	orrs	r2, r3
 8000508:	4646      	mov	r6, r8
 800050a:	087b      	lsrs	r3, r7, #1
 800050c:	e00e      	b.n	800052c <__udivmoddi4+0xfc>
 800050e:	42ab      	cmp	r3, r5
 8000510:	d101      	bne.n	8000516 <__udivmoddi4+0xe6>
 8000512:	42a2      	cmp	r2, r4
 8000514:	d80c      	bhi.n	8000530 <__udivmoddi4+0x100>
 8000516:	1aa4      	subs	r4, r4, r2
 8000518:	419d      	sbcs	r5, r3
 800051a:	2001      	movs	r0, #1
 800051c:	1924      	adds	r4, r4, r4
 800051e:	416d      	adcs	r5, r5
 8000520:	2100      	movs	r1, #0
 8000522:	3e01      	subs	r6, #1
 8000524:	1824      	adds	r4, r4, r0
 8000526:	414d      	adcs	r5, r1
 8000528:	2e00      	cmp	r6, #0
 800052a:	d006      	beq.n	800053a <__udivmoddi4+0x10a>
 800052c:	42ab      	cmp	r3, r5
 800052e:	d9ee      	bls.n	800050e <__udivmoddi4+0xde>
 8000530:	3e01      	subs	r6, #1
 8000532:	1924      	adds	r4, r4, r4
 8000534:	416d      	adcs	r5, r5
 8000536:	2e00      	cmp	r6, #0
 8000538:	d1f8      	bne.n	800052c <__udivmoddi4+0xfc>
 800053a:	9800      	ldr	r0, [sp, #0]
 800053c:	9901      	ldr	r1, [sp, #4]
 800053e:	465b      	mov	r3, fp
 8000540:	1900      	adds	r0, r0, r4
 8000542:	4169      	adcs	r1, r5
 8000544:	2b00      	cmp	r3, #0
 8000546:	db24      	blt.n	8000592 <__udivmoddi4+0x162>
 8000548:	002b      	movs	r3, r5
 800054a:	465a      	mov	r2, fp
 800054c:	4644      	mov	r4, r8
 800054e:	40d3      	lsrs	r3, r2
 8000550:	002a      	movs	r2, r5
 8000552:	40e2      	lsrs	r2, r4
 8000554:	001c      	movs	r4, r3
 8000556:	465b      	mov	r3, fp
 8000558:	0015      	movs	r5, r2
 800055a:	2b00      	cmp	r3, #0
 800055c:	db2a      	blt.n	80005b4 <__udivmoddi4+0x184>
 800055e:	0026      	movs	r6, r4
 8000560:	409e      	lsls	r6, r3
 8000562:	0033      	movs	r3, r6
 8000564:	0026      	movs	r6, r4
 8000566:	4647      	mov	r7, r8
 8000568:	40be      	lsls	r6, r7
 800056a:	0032      	movs	r2, r6
 800056c:	1a80      	subs	r0, r0, r2
 800056e:	4199      	sbcs	r1, r3
 8000570:	9000      	str	r0, [sp, #0]
 8000572:	9101      	str	r1, [sp, #4]
 8000574:	e79e      	b.n	80004b4 <__udivmoddi4+0x84>
 8000576:	42a3      	cmp	r3, r4
 8000578:	d8bc      	bhi.n	80004f4 <__udivmoddi4+0xc4>
 800057a:	e782      	b.n	8000482 <__udivmoddi4+0x52>
 800057c:	4642      	mov	r2, r8
 800057e:	2320      	movs	r3, #32
 8000580:	2100      	movs	r1, #0
 8000582:	1a9b      	subs	r3, r3, r2
 8000584:	2200      	movs	r2, #0
 8000586:	9100      	str	r1, [sp, #0]
 8000588:	9201      	str	r2, [sp, #4]
 800058a:	2201      	movs	r2, #1
 800058c:	40da      	lsrs	r2, r3
 800058e:	9201      	str	r2, [sp, #4]
 8000590:	e785      	b.n	800049e <__udivmoddi4+0x6e>
 8000592:	4642      	mov	r2, r8
 8000594:	2320      	movs	r3, #32
 8000596:	1a9b      	subs	r3, r3, r2
 8000598:	002a      	movs	r2, r5
 800059a:	4646      	mov	r6, r8
 800059c:	409a      	lsls	r2, r3
 800059e:	0023      	movs	r3, r4
 80005a0:	40f3      	lsrs	r3, r6
 80005a2:	4644      	mov	r4, r8
 80005a4:	4313      	orrs	r3, r2
 80005a6:	002a      	movs	r2, r5
 80005a8:	40e2      	lsrs	r2, r4
 80005aa:	001c      	movs	r4, r3
 80005ac:	465b      	mov	r3, fp
 80005ae:	0015      	movs	r5, r2
 80005b0:	2b00      	cmp	r3, #0
 80005b2:	dad4      	bge.n	800055e <__udivmoddi4+0x12e>
 80005b4:	4642      	mov	r2, r8
 80005b6:	002f      	movs	r7, r5
 80005b8:	2320      	movs	r3, #32
 80005ba:	0026      	movs	r6, r4
 80005bc:	4097      	lsls	r7, r2
 80005be:	1a9b      	subs	r3, r3, r2
 80005c0:	40de      	lsrs	r6, r3
 80005c2:	003b      	movs	r3, r7
 80005c4:	4333      	orrs	r3, r6
 80005c6:	e7cd      	b.n	8000564 <__udivmoddi4+0x134>

080005c8 <__clzdi2>:
 80005c8:	b510      	push	{r4, lr}
 80005ca:	2900      	cmp	r1, #0
 80005cc:	d103      	bne.n	80005d6 <__clzdi2+0xe>
 80005ce:	f000 f807 	bl	80005e0 <__clzsi2>
 80005d2:	3020      	adds	r0, #32
 80005d4:	e002      	b.n	80005dc <__clzdi2+0x14>
 80005d6:	0008      	movs	r0, r1
 80005d8:	f000 f802 	bl	80005e0 <__clzsi2>
 80005dc:	bd10      	pop	{r4, pc}
 80005de:	46c0      	nop			@ (mov r8, r8)

080005e0 <__clzsi2>:
 80005e0:	211c      	movs	r1, #28
 80005e2:	2301      	movs	r3, #1
 80005e4:	041b      	lsls	r3, r3, #16
 80005e6:	4298      	cmp	r0, r3
 80005e8:	d301      	bcc.n	80005ee <__clzsi2+0xe>
 80005ea:	0c00      	lsrs	r0, r0, #16
 80005ec:	3910      	subs	r1, #16
 80005ee:	0a1b      	lsrs	r3, r3, #8
 80005f0:	4298      	cmp	r0, r3
 80005f2:	d301      	bcc.n	80005f8 <__clzsi2+0x18>
 80005f4:	0a00      	lsrs	r0, r0, #8
 80005f6:	3908      	subs	r1, #8
 80005f8:	091b      	lsrs	r3, r3, #4
 80005fa:	4298      	cmp	r0, r3
 80005fc:	d301      	bcc.n	8000602 <__clzsi2+0x22>
 80005fe:	0900      	lsrs	r0, r0, #4
 8000600:	3904      	subs	r1, #4
 8000602:	a202      	add	r2, pc, #8	@ (adr r2, 800060c <__clzsi2+0x2c>)
 8000604:	5c10      	ldrb	r0, [r2, r0]
 8000606:	1840      	adds	r0, r0, r1
 8000608:	4770      	bx	lr
 800060a:	46c0      	nop			@ (mov r8, r8)
 800060c:	02020304 	.word	0x02020304
 8000610:	01010101 	.word	0x01010101
	...

0800061c <main>:
/**
  * @brief  The application entry point.
  * @retval int
  */
int main(void)
{
 800061c:	b580      	push	{r7, lr}
 800061e:	af00      	add	r7, sp, #0
  /* USER CODE END 1 */

  /* MCU Configuration--------------------------------------------------------*/

  /* Reset of all peripherals, Initializes the Flash interface and the Systick. */
  HAL_Init();
 8000620:	f000 fa7e 	bl	8000b20 <HAL_Init>

  /* USER CODE BEGIN Init */
  /* USER CODE END Init */

  /* Configure the system clock */
  SystemClock_Config();
 8000624:	f000 f81e 	bl	8000664 <SystemClock_Config>

  /* USER CODE BEGIN SysInit */
  /* USER CODE END SysInit */

  /* Initialize all configured peripherals */
  MX_GPIO_Init();
 8000628:	f000 f8b2 	bl	8000790 <MX_GPIO_Init>
  MX_USART2_UART_Init();
 800062c:	f000 f862 	bl	80006f4 <MX_USART2_UART_Init>
  /* USER CODE BEGIN 2 */
  printf("\r\n=== ECE-500 Printf + LED Demo ===\r\n");
 8000630:	4b0a      	ldr	r3, [pc, #40]	@ (800065c <main+0x40>)
 8000632:	0018      	movs	r0, r3
 8000634:	f002 fc56 	bl	8002ee4 <puts>
  while (1)
  {
    /* USER CODE END WHILE */

    /* USER CODE BEGIN 3 */
    printf("Hello from ECE-500 — McKay Thacker\r\n");
 8000638:	4b09      	ldr	r3, [pc, #36]	@ (8000660 <main+0x44>)
 800063a:	0018      	movs	r0, r3
 800063c:	f002 fc52 	bl	8002ee4 <puts>
    HAL_GPIO_TogglePin(LED_GREEN_GPIO_Port, LED_GREEN_Pin);
 8000640:	23a0      	movs	r3, #160	@ 0xa0
 8000642:	05db      	lsls	r3, r3, #23
 8000644:	2120      	movs	r1, #32
 8000646:	0018      	movs	r0, r3
 8000648:	f000 fd49 	bl	80010de <HAL_GPIO_TogglePin>
    HAL_Delay(1000);
 800064c:	23fa      	movs	r3, #250	@ 0xfa
 800064e:	009b      	lsls	r3, r3, #2
 8000650:	0018      	movs	r0, r3
 8000652:	f000 faeb 	bl	8000c2c <HAL_Delay>
    printf("Hello from ECE-500 — McKay Thacker\r\n");
 8000656:	46c0      	nop			@ (mov r8, r8)
 8000658:	e7ee      	b.n	8000638 <main+0x1c>
 800065a:	46c0      	nop			@ (mov r8, r8)
 800065c:	08003690 	.word	0x08003690
 8000660:	080036b8 	.word	0x080036b8

08000664 <SystemClock_Config>:
/**
  * @brief System Clock Configuration
  * @retval None
  */
void SystemClock_Config(void)
{
 8000664:	b590      	push	{r4, r7, lr}
 8000666:	b093      	sub	sp, #76	@ 0x4c
 8000668:	af00      	add	r7, sp, #0
  RCC_OscInitTypeDef RCC_OscInitStruct = {0};
 800066a:	2410      	movs	r4, #16
 800066c:	193b      	adds	r3, r7, r4
 800066e:	0018      	movs	r0, r3
 8000670:	2338      	movs	r3, #56	@ 0x38
 8000672:	001a      	movs	r2, r3
 8000674:	2100      	movs	r1, #0
 8000676:	f002 fd2b 	bl	80030d0 <memset>
  RCC_ClkInitTypeDef RCC_ClkInitStruct = {0};
 800067a:	003b      	movs	r3, r7
 800067c:	0018      	movs	r0, r3
 800067e:	2310      	movs	r3, #16
 8000680:	001a      	movs	r2, r3
 8000682:	2100      	movs	r1, #0
 8000684:	f002 fd24 	bl	80030d0 <memset>

  /** Configure the main internal regulator output voltage
  */
  HAL_PWREx_ControlVoltageScaling(PWR_REGULATOR_VOLTAGE_SCALE1);
 8000688:	2380      	movs	r3, #128	@ 0x80
 800068a:	009b      	lsls	r3, r3, #2
 800068c:	0018      	movs	r0, r3
 800068e:	f000 fd41 	bl	8001114 <HAL_PWREx_ControlVoltageScaling>

  /** Initializes the RCC Oscillators according to the specified parameters
  * in the RCC_OscInitTypeDef structure.
  */
  RCC_OscInitStruct.OscillatorType = RCC_OSCILLATORTYPE_HSI;
 8000692:	193b      	adds	r3, r7, r4
 8000694:	2202      	movs	r2, #2
 8000696:	601a      	str	r2, [r3, #0]
  RCC_OscInitStruct.HSIState = RCC_HSI_ON;
 8000698:	193b      	adds	r3, r7, r4
 800069a:	2280      	movs	r2, #128	@ 0x80
 800069c:	0052      	lsls	r2, r2, #1
 800069e:	60da      	str	r2, [r3, #12]
  RCC_OscInitStruct.HSIDiv = RCC_HSI_DIV1;
 80006a0:	193b      	adds	r3, r7, r4
 80006a2:	2200      	movs	r2, #0
 80006a4:	611a      	str	r2, [r3, #16]
  RCC_OscInitStruct.HSICalibrationValue = RCC_HSICALIBRATION_DEFAULT;
 80006a6:	193b      	adds	r3, r7, r4
 80006a8:	2240      	movs	r2, #64	@ 0x40
 80006aa:	615a      	str	r2, [r3, #20]
  RCC_OscInitStruct.PLL.PLLState = RCC_PLL_NONE;
 80006ac:	193b      	adds	r3, r7, r4
 80006ae:	2200      	movs	r2, #0
 80006b0:	61da      	str	r2, [r3, #28]
  if (HAL_RCC_OscConfig(&RCC_OscInitStruct) != HAL_OK)
 80006b2:	193b      	adds	r3, r7, r4
 80006b4:	0018      	movs	r0, r3
 80006b6:	f000 fd79 	bl	80011ac <HAL_RCC_OscConfig>
 80006ba:	1e03      	subs	r3, r0, #0
 80006bc:	d001      	beq.n	80006c2 <SystemClock_Config+0x5e>
  {
    Error_Handler();
 80006be:	f000 f8b7 	bl	8000830 <Error_Handler>
  }

  /** Initializes the CPU, AHB and APB buses clocks
  */
  RCC_ClkInitStruct.ClockType = RCC_CLOCKTYPE_HCLK|RCC_CLOCKTYPE_SYSCLK
 80006c2:	003b      	movs	r3, r7
 80006c4:	2207      	movs	r2, #7
 80006c6:	601a      	str	r2, [r3, #0]
                              |RCC_CLOCKTYPE_PCLK1;
  RCC_ClkInitStruct.SYSCLKSource = RCC_SYSCLKSOURCE_HSI;
 80006c8:	003b      	movs	r3, r7
 80006ca:	2200      	movs	r2, #0
 80006cc:	605a      	str	r2, [r3, #4]
  RCC_ClkInitStruct.AHBCLKDivider = RCC_SYSCLK_DIV1;
 80006ce:	003b      	movs	r3, r7
 80006d0:	2200      	movs	r2, #0
 80006d2:	609a      	str	r2, [r3, #8]
  RCC_ClkInitStruct.APB1CLKDivider = RCC_HCLK_DIV1;
 80006d4:	003b      	movs	r3, r7
 80006d6:	2200      	movs	r2, #0
 80006d8:	60da      	str	r2, [r3, #12]

  if (HAL_RCC_ClockConfig(&RCC_ClkInitStruct, FLASH_LATENCY_0) != HAL_OK)
 80006da:	003b      	movs	r3, r7
 80006dc:	2100      	movs	r1, #0
 80006de:	0018      	movs	r0, r3
 80006e0:	f001 f87e 	bl	80017e0 <HAL_RCC_ClockConfig>
 80006e4:	1e03      	subs	r3, r0, #0
 80006e6:	d001      	beq.n	80006ec <SystemClock_Config+0x88>
  {
    Error_Handler();
 80006e8:	f000 f8a2 	bl	8000830 <Error_Handler>
  }
}
 80006ec:	46c0      	nop			@ (mov r8, r8)
 80006ee:	46bd      	mov	sp, r7
 80006f0:	b013      	add	sp, #76	@ 0x4c
 80006f2:	bd90      	pop	{r4, r7, pc}

080006f4 <MX_USART2_UART_Init>:
  * @brief USART2 Initialization Function
  * @param None
  * @retval None
  */
static void MX_USART2_UART_Init(void)
{
 80006f4:	b580      	push	{r7, lr}
 80006f6:	af00      	add	r7, sp, #0
  /* USER CODE BEGIN USART2_Init 0 */
  /* USER CODE END USART2_Init 0 */

  /* USER CODE BEGIN USART2_Init 1 */
  /* USER CODE END USART2_Init 1 */
  huart2.Instance = USART2;
 80006f8:	4b23      	ldr	r3, [pc, #140]	@ (8000788 <MX_USART2_UART_Init+0x94>)
 80006fa:	4a24      	ldr	r2, [pc, #144]	@ (800078c <MX_USART2_UART_Init+0x98>)
 80006fc:	601a      	str	r2, [r3, #0]
  huart2.Init.BaudRate = 115200;
 80006fe:	4b22      	ldr	r3, [pc, #136]	@ (8000788 <MX_USART2_UART_Init+0x94>)
 8000700:	22e1      	movs	r2, #225	@ 0xe1
 8000702:	0252      	lsls	r2, r2, #9
 8000704:	605a      	str	r2, [r3, #4]
  huart2.Init.WordLength = UART_WORDLENGTH_8B;
 8000706:	4b20      	ldr	r3, [pc, #128]	@ (8000788 <MX_USART2_UART_Init+0x94>)
 8000708:	2200      	movs	r2, #0
 800070a:	609a      	str	r2, [r3, #8]
  huart2.Init.StopBits = UART_STOPBITS_1;
 800070c:	4b1e      	ldr	r3, [pc, #120]	@ (8000788 <MX_USART2_UART_Init+0x94>)
 800070e:	2200      	movs	r2, #0
 8000710:	60da      	str	r2, [r3, #12]
  huart2.Init.Parity = UART_PARITY_NONE;
 8000712:	4b1d      	ldr	r3, [pc, #116]	@ (8000788 <MX_USART2_UART_Init+0x94>)
 8000714:	2200      	movs	r2, #0
 8000716:	611a      	str	r2, [r3, #16]
  huart2.Init.Mode = UART_MODE_TX_RX;
 8000718:	4b1b      	ldr	r3, [pc, #108]	@ (8000788 <MX_USART2_UART_Init+0x94>)
 800071a:	220c      	movs	r2, #12
 800071c:	615a      	str	r2, [r3, #20]
  huart2.Init.HwFlowCtl = UART_HWCONTROL_NONE;
 800071e:	4b1a      	ldr	r3, [pc, #104]	@ (8000788 <MX_USART2_UART_Init+0x94>)
 8000720:	2200      	movs	r2, #0
 8000722:	619a      	str	r2, [r3, #24]
  huart2.Init.OverSampling = UART_OVERSAMPLING_16;
 8000724:	4b18      	ldr	r3, [pc, #96]	@ (8000788 <MX_USART2_UART_Init+0x94>)
 8000726:	2200      	movs	r2, #0
 8000728:	61da      	str	r2, [r3, #28]
  huart2.Init.OneBitSampling = UART_ONE_BIT_SAMPLE_DISABLE;
 800072a:	4b17      	ldr	r3, [pc, #92]	@ (8000788 <MX_USART2_UART_Init+0x94>)
 800072c:	2200      	movs	r2, #0
 800072e:	621a      	str	r2, [r3, #32]
  huart2.Init.ClockPrescaler = UART_PRESCALER_DIV1;
 8000730:	4b15      	ldr	r3, [pc, #84]	@ (8000788 <MX_USART2_UART_Init+0x94>)
 8000732:	2200      	movs	r2, #0
 8000734:	625a      	str	r2, [r3, #36]	@ 0x24
  huart2.AdvancedInit.AdvFeatureInit = UART_ADVFEATURE_NO_INIT;
 8000736:	4b14      	ldr	r3, [pc, #80]	@ (8000788 <MX_USART2_UART_Init+0x94>)
 8000738:	2200      	movs	r2, #0
 800073a:	629a      	str	r2, [r3, #40]	@ 0x28
  if (HAL_UART_Init(&huart2) != HAL_OK)
 800073c:	4b12      	ldr	r3, [pc, #72]	@ (8000788 <MX_USART2_UART_Init+0x94>)
 800073e:	0018      	movs	r0, r3
 8000740:	f001 fbb0 	bl	8001ea4 <HAL_UART_Init>
 8000744:	1e03      	subs	r3, r0, #0
 8000746:	d001      	beq.n	800074c <MX_USART2_UART_Init+0x58>
  {
    Error_Handler();
 8000748:	f000 f872 	bl	8000830 <Error_Handler>
  }
  if (HAL_UARTEx_SetTxFifoThreshold(&huart2, UART_TXFIFO_THRESHOLD_1_8) != HAL_OK)
 800074c:	4b0e      	ldr	r3, [pc, #56]	@ (8000788 <MX_USART2_UART_Init+0x94>)
 800074e:	2100      	movs	r1, #0
 8000750:	0018      	movs	r0, r3
 8000752:	f002 f9cd 	bl	8002af0 <HAL_UARTEx_SetTxFifoThreshold>
 8000756:	1e03      	subs	r3, r0, #0
 8000758:	d001      	beq.n	800075e <MX_USART2_UART_Init+0x6a>
  {
    Error_Handler();
 800075a:	f000 f869 	bl	8000830 <Error_Handler>
  }
  if (HAL_UARTEx_SetRxFifoThreshold(&huart2, UART_RXFIFO_THRESHOLD_1_8) != HAL_OK)
 800075e:	4b0a      	ldr	r3, [pc, #40]	@ (8000788 <MX_USART2_UART_Init+0x94>)
 8000760:	2100      	movs	r1, #0
 8000762:	0018      	movs	r0, r3
 8000764:	f002 fa04 	bl	8002b70 <HAL_UARTEx_SetRxFifoThreshold>
 8000768:	1e03      	subs	r3, r0, #0
 800076a:	d001      	beq.n	8000770 <MX_USART2_UART_Init+0x7c>
  {
    Error_Handler();
 800076c:	f000 f860 	bl	8000830 <Error_Handler>
  }
  if (HAL_UARTEx_DisableFifoMode(&huart2) != HAL_OK)
 8000770:	4b05      	ldr	r3, [pc, #20]	@ (8000788 <MX_USART2_UART_Init+0x94>)
 8000772:	0018      	movs	r0, r3
 8000774:	f002 f982 	bl	8002a7c <HAL_UARTEx_DisableFifoMode>
 8000778:	1e03      	subs	r3, r0, #0
 800077a:	d001      	beq.n	8000780 <MX_USART2_UART_Init+0x8c>
  {
    Error_Handler();
 800077c:	f000 f858 	bl	8000830 <Error_Handler>
  }
  /* USER CODE BEGIN USART2_Init 2 */
  /* USER CODE END USART2_Init 2 */
}
 8000780:	46c0      	nop			@ (mov r8, r8)
 8000782:	46bd      	mov	sp, r7
 8000784:	bd80      	pop	{r7, pc}
 8000786:	46c0      	nop			@ (mov r8, r8)
 8000788:	20000084 	.word	0x20000084
 800078c:	40004400 	.word	0x40004400

08000790 <MX_GPIO_Init>:
  * @brief GPIO Initialization Function
  * @param None
  * @retval None
  */
static void MX_GPIO_Init(void)
{
 8000790:	b590      	push	{r4, r7, lr}
 8000792:	b089      	sub	sp, #36	@ 0x24
 8000794:	af00      	add	r7, sp, #0
  GPIO_InitTypeDef GPIO_InitStruct = {0};
 8000796:	240c      	movs	r4, #12
 8000798:	193b      	adds	r3, r7, r4
 800079a:	0018      	movs	r0, r3
 800079c:	2314      	movs	r3, #20
 800079e:	001a      	movs	r2, r3
 80007a0:	2100      	movs	r1, #0
 80007a2:	f002 fc95 	bl	80030d0 <memset>
  /* USER CODE BEGIN MX_GPIO_Init_1 */
  /* USER CODE END MX_GPIO_Init_1 */

  /* GPIO Ports Clock Enable */
  __HAL_RCC_GPIOC_CLK_ENABLE();
 80007a6:	4b21      	ldr	r3, [pc, #132]	@ (800082c <MX_GPIO_Init+0x9c>)
 80007a8:	6b5a      	ldr	r2, [r3, #52]	@ 0x34
 80007aa:	4b20      	ldr	r3, [pc, #128]	@ (800082c <MX_GPIO_Init+0x9c>)
 80007ac:	2104      	movs	r1, #4
 80007ae:	430a      	orrs	r2, r1
 80007b0:	635a      	str	r2, [r3, #52]	@ 0x34
 80007b2:	4b1e      	ldr	r3, [pc, #120]	@ (800082c <MX_GPIO_Init+0x9c>)
 80007b4:	6b5b      	ldr	r3, [r3, #52]	@ 0x34
 80007b6:	2204      	movs	r2, #4
 80007b8:	4013      	ands	r3, r2
 80007ba:	60bb      	str	r3, [r7, #8]
 80007bc:	68bb      	ldr	r3, [r7, #8]
  __HAL_RCC_GPIOF_CLK_ENABLE();
 80007be:	4b1b      	ldr	r3, [pc, #108]	@ (800082c <MX_GPIO_Init+0x9c>)
 80007c0:	6b5a      	ldr	r2, [r3, #52]	@ 0x34
 80007c2:	4b1a      	ldr	r3, [pc, #104]	@ (800082c <MX_GPIO_Init+0x9c>)
 80007c4:	2120      	movs	r1, #32
 80007c6:	430a      	orrs	r2, r1
 80007c8:	635a      	str	r2, [r3, #52]	@ 0x34
 80007ca:	4b18      	ldr	r3, [pc, #96]	@ (800082c <MX_GPIO_Init+0x9c>)
 80007cc:	6b5b      	ldr	r3, [r3, #52]	@ 0x34
 80007ce:	2220      	movs	r2, #32
 80007d0:	4013      	ands	r3, r2
 80007d2:	607b      	str	r3, [r7, #4]
 80007d4:	687b      	ldr	r3, [r7, #4]
  __HAL_RCC_GPIOA_CLK_ENABLE();
 80007d6:	4b15      	ldr	r3, [pc, #84]	@ (800082c <MX_GPIO_Init+0x9c>)
 80007d8:	6b5a      	ldr	r2, [r3, #52]	@ 0x34
 80007da:	4b14      	ldr	r3, [pc, #80]	@ (800082c <MX_GPIO_Init+0x9c>)
 80007dc:	2101      	movs	r1, #1
 80007de:	430a      	orrs	r2, r1
 80007e0:	635a      	str	r2, [r3, #52]	@ 0x34
 80007e2:	4b12      	ldr	r3, [pc, #72]	@ (800082c <MX_GPIO_Init+0x9c>)
 80007e4:	6b5b      	ldr	r3, [r3, #52]	@ 0x34
 80007e6:	2201      	movs	r2, #1
 80007e8:	4013      	ands	r3, r2
 80007ea:	603b      	str	r3, [r7, #0]
 80007ec:	683b      	ldr	r3, [r7, #0]

  /*Configure GPIO pin Output Level */
  HAL_GPIO_WritePin(LED_GREEN_GPIO_Port, LED_GREEN_Pin, GPIO_PIN_RESET);
 80007ee:	23a0      	movs	r3, #160	@ 0xa0
 80007f0:	05db      	lsls	r3, r3, #23
 80007f2:	2200      	movs	r2, #0
 80007f4:	2120      	movs	r1, #32
 80007f6:	0018      	movs	r0, r3
 80007f8:	f000 fc54 	bl	80010a4 <HAL_GPIO_WritePin>

  /*Configure GPIO pin : LED_GREEN_Pin */
  GPIO_InitStruct.Pin = LED_GREEN_Pin;
 80007fc:	0021      	movs	r1, r4
 80007fe:	187b      	adds	r3, r7, r1
 8000800:	2220      	movs	r2, #32
 8000802:	601a      	str	r2, [r3, #0]
  GPIO_InitStruct.Mode = GPIO_MODE_OUTPUT_PP;
 8000804:	187b      	adds	r3, r7, r1
 8000806:	2201      	movs	r2, #1
 8000808:	605a      	str	r2, [r3, #4]
  GPIO_InitStruct.Pull = GPIO_NOPULL;
 800080a:	187b      	adds	r3, r7, r1
 800080c:	2200      	movs	r2, #0
 800080e:	609a      	str	r2, [r3, #8]
  GPIO_InitStruct.Speed = GPIO_SPEED_FREQ_HIGH;
 8000810:	187b      	adds	r3, r7, r1
 8000812:	2202      	movs	r2, #2
 8000814:	60da      	str	r2, [r3, #12]
  HAL_GPIO_Init(LED_GREEN_GPIO_Port, &GPIO_InitStruct);
 8000816:	187a      	adds	r2, r7, r1
 8000818:	23a0      	movs	r3, #160	@ 0xa0
 800081a:	05db      	lsls	r3, r3, #23
 800081c:	0011      	movs	r1, r2
 800081e:	0018      	movs	r0, r3
 8000820:	f000 fadc 	bl	8000ddc <HAL_GPIO_Init>

  /* USER CODE BEGIN MX_GPIO_Init_2 */
  /* USER CODE END MX_GPIO_Init_2 */
}
 8000824:	46c0      	nop			@ (mov r8, r8)
 8000826:	46bd      	mov	sp, r7
 8000828:	b009      	add	sp, #36	@ 0x24
 800082a:	bd90      	pop	{r4, r7, pc}
 800082c:	40021000 	.word	0x40021000

08000830 <Error_Handler>:
/**
  * @brief  This function is executed in case of error occurrence.
  * @retval None
  */
void Error_Handler(void)
{
 8000830:	b580      	push	{r7, lr}
 8000832:	af00      	add	r7, sp, #0
  \details Disables IRQ interrupts by setting the I-bit in the CPSR.
           Can only be executed in Privileged modes.
 */
__STATIC_FORCEINLINE void __disable_irq(void)
{
  __ASM volatile ("cpsid i" : : : "memory");
 8000834:	b672      	cpsid	i
}
 8000836:	46c0      	nop			@ (mov r8, r8)
  /* USER CODE BEGIN Error_Handler_Debug */
  __disable_irq();
  while (1)
 8000838:	46c0      	nop			@ (mov r8, r8)
 800083a:	e7fd      	b.n	8000838 <Error_Handler+0x8>

0800083c <__io_write>:
    uint8_t c = (uint8_t)ch;
    HAL_UART_Transmit(&PRINTF_UART, &c, 1, HAL_MAX_DELAY);
    return ch;
}

int __io_write(const char *buf, int len) {
 800083c:	b580      	push	{r7, lr}
 800083e:	b082      	sub	sp, #8
 8000840:	af00      	add	r7, sp, #0
 8000842:	6078      	str	r0, [r7, #4]
 8000844:	6039      	str	r1, [r7, #0]
    HAL_UART_Transmit(&PRINTF_UART, (uint8_t*)buf, (uint16_t)len, HAL_MAX_DELAY);
 8000846:	683b      	ldr	r3, [r7, #0]
 8000848:	b29a      	uxth	r2, r3
 800084a:	2301      	movs	r3, #1
 800084c:	425b      	negs	r3, r3
 800084e:	6879      	ldr	r1, [r7, #4]
 8000850:	4803      	ldr	r0, [pc, #12]	@ (8000860 <__io_write+0x24>)
 8000852:	f001 fb7d 	bl	8001f50 <HAL_UART_Transmit>
    return len;
 8000856:	683b      	ldr	r3, [r7, #0]
}
 8000858:	0018      	movs	r0, r3
 800085a:	46bd      	mov	sp, r7
 800085c:	b002      	add	sp, #8
 800085e:	bd80      	pop	{r7, pc}
 8000860:	20000084 	.word	0x20000084

08000864 <_write>:

int _write(int file, char *ptr, int len) {
 8000864:	b580      	push	{r7, lr}
 8000866:	b084      	sub	sp, #16
 8000868:	af00      	add	r7, sp, #0
 800086a:	60f8      	str	r0, [r7, #12]
 800086c:	60b9      	str	r1, [r7, #8]
 800086e:	607a      	str	r2, [r7, #4]
    (void)file;
    return __io_write(ptr, len);
 8000870:	687a      	ldr	r2, [r7, #4]
 8000872:	68bb      	ldr	r3, [r7, #8]
 8000874:	0011      	movs	r1, r2
 8000876:	0018      	movs	r0, r3
 8000878:	f7ff ffe0 	bl	800083c <__io_write>
 800087c:	0003      	movs	r3, r0
}
 800087e:	0018      	movs	r0, r3
 8000880:	46bd      	mov	sp, r7
 8000882:	b004      	add	sp, #16
 8000884:	bd80      	pop	{r7, pc}
	...

08000888 <HAL_MspInit>:
/* USER CODE END 0 */
/**
  * Initializes the Global MSP.
  */
void HAL_MspInit(void)
{
 8000888:	b580      	push	{r7, lr}
 800088a:	b082      	sub	sp, #8
 800088c:	af00      	add	r7, sp, #0

  /* USER CODE BEGIN MspInit 0 */

  /* USER CODE END MspInit 0 */

  __HAL_RCC_SYSCFG_CLK_ENABLE();
 800088e:	4b0f      	ldr	r3, [pc, #60]	@ (80008cc <HAL_MspInit+0x44>)
 8000890:	6c1a      	ldr	r2, [r3, #64]	@ 0x40
 8000892:	4b0e      	ldr	r3, [pc, #56]	@ (80008cc <HAL_MspInit+0x44>)
 8000894:	2101      	movs	r1, #1
 8000896:	430a      	orrs	r2, r1
 8000898:	641a      	str	r2, [r3, #64]	@ 0x40
 800089a:	4b0c      	ldr	r3, [pc, #48]	@ (80008cc <HAL_MspInit+0x44>)
 800089c:	6c1b      	ldr	r3, [r3, #64]	@ 0x40
 800089e:	2201      	movs	r2, #1
 80008a0:	4013      	ands	r3, r2
 80008a2:	607b      	str	r3, [r7, #4]
 80008a4:	687b      	ldr	r3, [r7, #4]
  __HAL_RCC_PWR_CLK_ENABLE();
 80008a6:	4b09      	ldr	r3, [pc, #36]	@ (80008cc <HAL_MspInit+0x44>)
 80008a8:	6bda      	ldr	r2, [r3, #60]	@ 0x3c
 80008aa:	4b08      	ldr	r3, [pc, #32]	@ (80008cc <HAL_MspInit+0x44>)
 80008ac:	2180      	movs	r1, #128	@ 0x80
 80008ae:	0549      	lsls	r1, r1, #21
 80008b0:	430a      	orrs	r2, r1
 80008b2:	63da      	str	r2, [r3, #60]	@ 0x3c
 80008b4:	4b05      	ldr	r3, [pc, #20]	@ (80008cc <HAL_MspInit+0x44>)
 80008b6:	6bda      	ldr	r2, [r3, #60]	@ 0x3c
 80008b8:	2380      	movs	r3, #128	@ 0x80
 80008ba:	055b      	lsls	r3, r3, #21
 80008bc:	4013      	ands	r3, r2
 80008be:	603b      	str	r3, [r7, #0]
 80008c0:	683b      	ldr	r3, [r7, #0]
  /* System interrupt init*/

  /* USER CODE BEGIN MspInit 1 */

  /* USER CODE END MspInit 1 */
}
 80008c2:	46c0      	nop			@ (mov r8, r8)
 80008c4:	46bd      	mov	sp, r7
 80008c6:	b002      	add	sp, #8
 80008c8:	bd80      	pop	{r7, pc}
 80008ca:	46c0      	nop			@ (mov r8, r8)
 80008cc:	40021000 	.word	0x40021000

080008d0 <HAL_UART_MspInit>:
  * This function configures the hardware resources used in this example
  * @param huart: UART handle pointer
  * @retval None
  */
void HAL_UART_MspInit(UART_HandleTypeDef* huart)
{
 80008d0:	b590      	push	{r4, r7, lr}
 80008d2:	b097      	sub	sp, #92	@ 0x5c
 80008d4:	af00      	add	r7, sp, #0
 80008d6:	6078      	str	r0, [r7, #4]
  GPIO_InitTypeDef GPIO_InitStruct = {0};
 80008d8:	2344      	movs	r3, #68	@ 0x44
 80008da:	18fb      	adds	r3, r7, r3
 80008dc:	0018      	movs	r0, r3
 80008de:	2314      	movs	r3, #20
 80008e0:	001a      	movs	r2, r3
 80008e2:	2100      	movs	r1, #0
 80008e4:	f002 fbf4 	bl	80030d0 <memset>
  RCC_PeriphCLKInitTypeDef PeriphClkInit = {0};
 80008e8:	2410      	movs	r4, #16
 80008ea:	193b      	adds	r3, r7, r4
 80008ec:	0018      	movs	r0, r3
 80008ee:	2334      	movs	r3, #52	@ 0x34
 80008f0:	001a      	movs	r2, r3
 80008f2:	2100      	movs	r1, #0
 80008f4:	f002 fbec 	bl	80030d0 <memset>
  if(huart->Instance==USART2)
 80008f8:	687b      	ldr	r3, [r7, #4]
 80008fa:	681b      	ldr	r3, [r3, #0]
 80008fc:	4a22      	ldr	r2, [pc, #136]	@ (8000988 <HAL_UART_MspInit+0xb8>)
 80008fe:	4293      	cmp	r3, r2
 8000900:	d13e      	bne.n	8000980 <HAL_UART_MspInit+0xb0>

    /* USER CODE END USART2_MspInit 0 */

  /** Initializes the peripherals clocks
  */
    PeriphClkInit.PeriphClockSelection = RCC_PERIPHCLK_USART2;
 8000902:	193b      	adds	r3, r7, r4
 8000904:	2202      	movs	r2, #2
 8000906:	601a      	str	r2, [r3, #0]
    PeriphClkInit.Usart2ClockSelection = RCC_USART2CLKSOURCE_PCLK1;
 8000908:	193b      	adds	r3, r7, r4
 800090a:	2200      	movs	r2, #0
 800090c:	609a      	str	r2, [r3, #8]
    if (HAL_RCCEx_PeriphCLKConfig(&PeriphClkInit) != HAL_OK)
 800090e:	193b      	adds	r3, r7, r4
 8000910:	0018      	movs	r0, r3
 8000912:	f001 f90f 	bl	8001b34 <HAL_RCCEx_PeriphCLKConfig>
 8000916:	1e03      	subs	r3, r0, #0
 8000918:	d001      	beq.n	800091e <HAL_UART_MspInit+0x4e>
    {
      Error_Handler();
 800091a:	f7ff ff89 	bl	8000830 <Error_Handler>
    }

    /* Peripheral clock enable */
    __HAL_RCC_USART2_CLK_ENABLE();
 800091e:	4b1b      	ldr	r3, [pc, #108]	@ (800098c <HAL_UART_MspInit+0xbc>)
 8000920:	6bda      	ldr	r2, [r3, #60]	@ 0x3c
 8000922:	4b1a      	ldr	r3, [pc, #104]	@ (800098c <HAL_UART_MspInit+0xbc>)
 8000924:	2180      	movs	r1, #128	@ 0x80
 8000926:	0289      	lsls	r1, r1, #10
 8000928:	430a      	orrs	r2, r1
 800092a:	63da      	str	r2, [r3, #60]	@ 0x3c
 800092c:	4b17      	ldr	r3, [pc, #92]	@ (800098c <HAL_UART_MspInit+0xbc>)
 800092e:	6bda      	ldr	r2, [r3, #60]	@ 0x3c
 8000930:	2380      	movs	r3, #128	@ 0x80
 8000932:	029b      	lsls	r3, r3, #10
 8000934:	4013      	ands	r3, r2
 8000936:	60fb      	str	r3, [r7, #12]
 8000938:	68fb      	ldr	r3, [r7, #12]

    __HAL_RCC_GPIOA_CLK_ENABLE();
 800093a:	4b14      	ldr	r3, [pc, #80]	@ (800098c <HAL_UART_MspInit+0xbc>)
 800093c:	6b5a      	ldr	r2, [r3, #52]	@ 0x34
 800093e:	4b13      	ldr	r3, [pc, #76]	@ (800098c <HAL_UART_MspInit+0xbc>)
 8000940:	2101      	movs	r1, #1
 8000942:	430a      	orrs	r2, r1
 8000944:	635a      	str	r2, [r3, #52]	@ 0x34
 8000946:	4b11      	ldr	r3, [pc, #68]	@ (800098c <HAL_UART_MspInit+0xbc>)
 8000948:	6b5b      	ldr	r3, [r3, #52]	@ 0x34
 800094a:	2201      	movs	r2, #1
 800094c:	4013      	ands	r3, r2
 800094e:	60bb      	str	r3, [r7, #8]
 8000950:	68bb      	ldr	r3, [r7, #8]
    /**USART2 GPIO Configuration
    PA2     ------> USART2_TX
    PA3     ------> USART2_RX
    */
    GPIO_InitStruct.Pin = USART2_TX_Pin|USART2_RX_Pin;
 8000952:	2144      	movs	r1, #68	@ 0x44
 8000954:	187b      	adds	r3, r7, r1
 8000956:	220c      	movs	r2, #12
 8000958:	601a      	str	r2, [r3, #0]
    GPIO_InitStruct.Mode = GPIO_MODE_AF_PP;
 800095a:	187b      	adds	r3, r7, r1
 800095c:	2202      	movs	r2, #2
 800095e:	605a      	str	r2, [r3, #4]
    GPIO_InitStruct.Pull = GPIO_PULLUP;
 8000960:	187b      	adds	r3, r7, r1
 8000962:	2201      	movs	r2, #1
 8000964:	609a      	str	r2, [r3, #8]
    GPIO_InitStruct.Speed = GPIO_SPEED_FREQ_LOW;
 8000966:	187b      	adds	r3, r7, r1
 8000968:	2200      	movs	r2, #0
 800096a:	60da      	str	r2, [r3, #12]
    GPIO_InitStruct.Alternate = GPIO_AF1_USART2;
 800096c:	187b      	adds	r3, r7, r1
 800096e:	2201      	movs	r2, #1
 8000970:	611a      	str	r2, [r3, #16]
    HAL_GPIO_Init(GPIOA, &GPIO_InitStruct);
 8000972:	187a      	adds	r2, r7, r1
 8000974:	23a0      	movs	r3, #160	@ 0xa0
 8000976:	05db      	lsls	r3, r3, #23
 8000978:	0011      	movs	r1, r2
 800097a:	0018      	movs	r0, r3
 800097c:	f000 fa2e 	bl	8000ddc <HAL_GPIO_Init>

    /* USER CODE END USART2_MspInit 1 */

  }

}
 8000980:	46c0      	nop			@ (mov r8, r8)
 8000982:	46bd      	mov	sp, r7
 8000984:	b017      	add	sp, #92	@ 0x5c
 8000986:	bd90      	pop	{r4, r7, pc}
 8000988:	40004400 	.word	0x40004400
 800098c:	40021000 	.word	0x40021000

08000990 <NMI_Handler>:
/******************************************************************************/
/**
  * @brief This function handles Non maskable interrupt.
  */
void NMI_Handler(void)
{
 8000990:	b580      	push	{r7, lr}
 8000992:	af00      	add	r7, sp, #0
  /* USER CODE BEGIN NonMaskableInt_IRQn 0 */

  /* USER CODE END NonMaskableInt_IRQn 0 */
  /* USER CODE BEGIN NonMaskableInt_IRQn 1 */
   while (1)
 8000994:	46c0      	nop			@ (mov r8, r8)
 8000996:	e7fd      	b.n	8000994 <NMI_Handler+0x4>

08000998 <HardFault_Handler>:

/**
  * @brief This function handles Hard fault interrupt.
  */
void HardFault_Handler(void)
{
 8000998:	b580      	push	{r7, lr}
 800099a:	af00      	add	r7, sp, #0
  /* USER CODE BEGIN HardFault_IRQn 0 */

  /* USER CODE END HardFault_IRQn 0 */
  while (1)
 800099c:	46c0      	nop			@ (mov r8, r8)
 800099e:	e7fd      	b.n	800099c <HardFault_Handler+0x4>

080009a0 <SVC_Handler>:

/**
  * @brief This function handles System service call via SWI instruction.
  */
void SVC_Handler(void)
{
 80009a0:	b580      	push	{r7, lr}
 80009a2:	af00      	add	r7, sp, #0

  /* USER CODE END SVC_IRQn 0 */
  /* USER CODE BEGIN SVC_IRQn 1 */

  /* USER CODE END SVC_IRQn 1 */
}
 80009a4:	46c0      	nop			@ (mov r8, r8)
 80009a6:	46bd      	mov	sp, r7
 80009a8:	bd80      	pop	{r7, pc}

080009aa <PendSV_Handler>:

/**
  * @brief This function handles Pendable request for system service.
  */
void PendSV_Handler(void)
{
 80009aa:	b580      	push	{r7, lr}
 80009ac:	af00      	add	r7, sp, #0

  /* USER CODE END PendSV_IRQn 0 */
  /* USER CODE BEGIN PendSV_IRQn 1 */

  /* USER CODE END PendSV_IRQn 1 */
}
 80009ae:	46c0      	nop			@ (mov r8, r8)
 80009b0:	46bd      	mov	sp, r7
 80009b2:	bd80      	pop	{r7, pc}

080009b4 <SysTick_Handler>:

/**
  * @brief This function handles System tick timer.
  */
void SysTick_Handler(void)
{
 80009b4:	b580      	push	{r7, lr}
 80009b6:	af00      	add	r7, sp, #0
  /* USER CODE BEGIN SysTick_IRQn 0 */

  /* USER CODE END SysTick_IRQn 0 */
  HAL_IncTick();
 80009b8:	f000 f91c 	bl	8000bf4 <HAL_IncTick>
  /* USER CODE BEGIN SysTick_IRQn 1 */

  /* USER CODE END SysTick_IRQn 1 */
}
 80009bc:	46c0      	nop			@ (mov r8, r8)
 80009be:	46bd      	mov	sp, r7
 80009c0:	bd80      	pop	{r7, pc}

080009c2 <_read>:
  _kill(status, -1);
  while (1) {}    /* Make sure we hang here */
}

__attribute__((weak)) int _read(int file, char *ptr, int len)
{
 80009c2:	b580      	push	{r7, lr}
 80009c4:	b086      	sub	sp, #24
 80009c6:	af00      	add	r7, sp, #0
 80009c8:	60f8      	str	r0, [r7, #12]
 80009ca:	60b9      	str	r1, [r7, #8]
 80009cc:	607a      	str	r2, [r7, #4]
  (void)file;
  int DataIdx;

  for (DataIdx = 0; DataIdx < len; DataIdx++)
 80009ce:	2300      	movs	r3, #0
 80009d0:	617b      	str	r3, [r7, #20]
 80009d2:	e00a      	b.n	80009ea <_read+0x28>
  {
    *ptr++ = __io_getchar();
 80009d4:	e000      	b.n	80009d8 <_read+0x16>
 80009d6:	bf00      	nop
 80009d8:	0001      	movs	r1, r0
 80009da:	68bb      	ldr	r3, [r7, #8]
 80009dc:	1c5a      	adds	r2, r3, #1
 80009de:	60ba      	str	r2, [r7, #8]
 80009e0:	b2ca      	uxtb	r2, r1
 80009e2:	701a      	strb	r2, [r3, #0]
  for (DataIdx = 0; DataIdx < len; DataIdx++)
 80009e4:	697b      	ldr	r3, [r7, #20]
 80009e6:	3301      	adds	r3, #1
 80009e8:	617b      	str	r3, [r7, #20]
 80009ea:	697a      	ldr	r2, [r7, #20]
 80009ec:	687b      	ldr	r3, [r7, #4]
 80009ee:	429a      	cmp	r2, r3
 80009f0:	dbf0      	blt.n	80009d4 <_read+0x12>
  }

  return len;
 80009f2:	687b      	ldr	r3, [r7, #4]
}
 80009f4:	0018      	movs	r0, r3
 80009f6:	46bd      	mov	sp, r7
 80009f8:	b006      	add	sp, #24
 80009fa:	bd80      	pop	{r7, pc}

080009fc <_close>:
  }
  return len;
}

int _close(int file)
{
 80009fc:	b580      	push	{r7, lr}
 80009fe:	b082      	sub	sp, #8
 8000a00:	af00      	add	r7, sp, #0
 8000a02:	6078      	str	r0, [r7, #4]
  (void)file;
  return -1;
 8000a04:	2301      	movs	r3, #1
 8000a06:	425b      	negs	r3, r3
}
 8000a08:	0018      	movs	r0, r3
 8000a0a:	46bd      	mov	sp, r7
 8000a0c:	b002      	add	sp, #8
 8000a0e:	bd80      	pop	{r7, pc}

08000a10 <_fstat>:


int _fstat(int file, struct stat *st)
{
 8000a10:	b580      	push	{r7, lr}
 8000a12:	b082      	sub	sp, #8
 8000a14:	af00      	add	r7, sp, #0
 8000a16:	6078      	str	r0, [r7, #4]
 8000a18:	6039      	str	r1, [r7, #0]
  (void)file;
  st->st_mode = S_IFCHR;
 8000a1a:	683b      	ldr	r3, [r7, #0]
 8000a1c:	2280      	movs	r2, #128	@ 0x80
 8000a1e:	0192      	lsls	r2, r2, #6
 8000a20:	605a      	str	r2, [r3, #4]
  return 0;
 8000a22:	2300      	movs	r3, #0
}
 8000a24:	0018      	movs	r0, r3
 8000a26:	46bd      	mov	sp, r7
 8000a28:	b002      	add	sp, #8
 8000a2a:	bd80      	pop	{r7, pc}

08000a2c <_isatty>:

int _isatty(int file)
{
 8000a2c:	b580      	push	{r7, lr}
 8000a2e:	b082      	sub	sp, #8
 8000a30:	af00      	add	r7, sp, #0
 8000a32:	6078      	str	r0, [r7, #4]
  (void)file;
  return 1;
 8000a34:	2301      	movs	r3, #1
}
 8000a36:	0018      	movs	r0, r3
 8000a38:	46bd      	mov	sp, r7
 8000a3a:	b002      	add	sp, #8
 8000a3c:	bd80      	pop	{r7, pc}

08000a3e <_lseek>:

int _lseek(int file, int ptr, int dir)
{
 8000a3e:	b580      	push	{r7, lr}
 8000a40:	b084      	sub	sp, #16
 8000a42:	af00      	add	r7, sp, #0
 8000a44:	60f8      	str	r0, [r7, #12]
 8000a46:	60b9      	str	r1, [r7, #8]
 8000a48:	607a      	str	r2, [r7, #4]
  (void)file;
  (void)ptr;
  (void)dir;
  return 0;
 8000a4a:	2300      	movs	r3, #0
}
 8000a4c:	0018      	movs	r0, r3
 8000a4e:	46bd      	mov	sp, r7
 8000a50:	b004      	add	sp, #16
 8000a52:	bd80      	pop	{r7, pc}

08000a54 <_sbrk>:
 *
 * @param incr Memory size
 * @return Pointer to allocated memory
 */
void *_sbrk(ptrdiff_t incr)
{
 8000a54:	b580      	push	{r7, lr}
 8000a56:	b086      	sub	sp, #24
 8000a58:	af00      	add	r7, sp, #0
 8000a5a:	6078      	str	r0, [r7, #4]
  extern uint8_t _end; /* Symbol defined in the linker script */
  extern uint8_t _estack; /* Symbol defined in the linker script */
  extern uint32_t _Min_Stack_Size; /* Symbol defined in the linker script */
  const uint32_t stack_limit = (uint32_t)&_estack - (uint32_t)&_Min_Stack_Size;
 8000a5c:	4a14      	ldr	r2, [pc, #80]	@ (8000ab0 <_sbrk+0x5c>)
 8000a5e:	4b15      	ldr	r3, [pc, #84]	@ (8000ab4 <_sbrk+0x60>)
 8000a60:	1ad3      	subs	r3, r2, r3
 8000a62:	617b      	str	r3, [r7, #20]
  const uint8_t *max_heap = (uint8_t *)stack_limit;
 8000a64:	697b      	ldr	r3, [r7, #20]
 8000a66:	613b      	str	r3, [r7, #16]
  uint8_t *prev_heap_end;

  /* Initialize heap end at first call */
  if (NULL == __sbrk_heap_end)
 8000a68:	4b13      	ldr	r3, [pc, #76]	@ (8000ab8 <_sbrk+0x64>)
 8000a6a:	681b      	ldr	r3, [r3, #0]
 8000a6c:	2b00      	cmp	r3, #0
 8000a6e:	d102      	bne.n	8000a76 <_sbrk+0x22>
  {
    __sbrk_heap_end = &_end;
 8000a70:	4b11      	ldr	r3, [pc, #68]	@ (8000ab8 <_sbrk+0x64>)
 8000a72:	4a12      	ldr	r2, [pc, #72]	@ (8000abc <_sbrk+0x68>)
 8000a74:	601a      	str	r2, [r3, #0]
  }

  /* Protect heap from growing into the reserved MSP stack */
  if (__sbrk_heap_end + incr > max_heap)
 8000a76:	4b10      	ldr	r3, [pc, #64]	@ (8000ab8 <_sbrk+0x64>)
 8000a78:	681a      	ldr	r2, [r3, #0]
 8000a7a:	687b      	ldr	r3, [r7, #4]
 8000a7c:	18d3      	adds	r3, r2, r3
 8000a7e:	693a      	ldr	r2, [r7, #16]
 8000a80:	429a      	cmp	r2, r3
 8000a82:	d207      	bcs.n	8000a94 <_sbrk+0x40>
  {
    errno = ENOMEM;
 8000a84:	f002 fb7a 	bl	800317c <__errno>
 8000a88:	0003      	movs	r3, r0
 8000a8a:	220c      	movs	r2, #12
 8000a8c:	601a      	str	r2, [r3, #0]
    return (void *)-1;
 8000a8e:	2301      	movs	r3, #1
 8000a90:	425b      	negs	r3, r3
 8000a92:	e009      	b.n	8000aa8 <_sbrk+0x54>
  }

  prev_heap_end = __sbrk_heap_end;
 8000a94:	4b08      	ldr	r3, [pc, #32]	@ (8000ab8 <_sbrk+0x64>)
 8000a96:	681b      	ldr	r3, [r3, #0]
 8000a98:	60fb      	str	r3, [r7, #12]
  __sbrk_heap_end += incr;
 8000a9a:	4b07      	ldr	r3, [pc, #28]	@ (8000ab8 <_sbrk+0x64>)
 8000a9c:	681a      	ldr	r2, [r3, #0]
 8000a9e:	687b      	ldr	r3, [r7, #4]
 8000aa0:	18d2      	adds	r2, r2, r3
 8000aa2:	4b05      	ldr	r3, [pc, #20]	@ (8000ab8 <_sbrk+0x64>)
 8000aa4:	601a      	str	r2, [r3, #0]

  return (void *)prev_heap_end;
 8000aa6:	68fb      	ldr	r3, [r7, #12]
}
 8000aa8:	0018      	movs	r0, r3
 8000aaa:	46bd      	mov	sp, r7
 8000aac:	b006      	add	sp, #24
 8000aae:	bd80      	pop	{r7, pc}
 8000ab0:	20009000 	.word	0x20009000
 8000ab4:	00000400 	.word	0x00000400
 8000ab8:	20000118 	.word	0x20000118
 8000abc:	20000270 	.word	0x20000270

08000ac0 <SystemInit>:
  * @brief  Setup the microcontroller system.
  * @param  None
  * @retval None
  */
void SystemInit(void)
{
 8000ac0:	b580      	push	{r7, lr}
 8000ac2:	af00      	add	r7, sp, #0
  /* Configure the Vector Table location -------------------------------------*/
#if defined(USER_VECT_TAB_ADDRESS)
  SCB->VTOR = VECT_TAB_BASE_ADDRESS | VECT_TAB_OFFSET; /* Vector Table Relocation */
#endif /* USER_VECT_TAB_ADDRESS */
}
 8000ac4:	46c0      	nop			@ (mov r8, r8)
 8000ac6:	46bd      	mov	sp, r7
 8000ac8:	bd80      	pop	{r7, pc}
	...

08000acc <Reset_Handler>:

  .section .text.Reset_Handler
  .weak Reset_Handler
  .type Reset_Handler, %function
Reset_Handler:
  ldr   r0, =_estack
 8000acc:	480d      	ldr	r0, [pc, #52]	@ (8000b04 <LoopForever+0x2>)
  mov   sp, r0          /* set stack pointer */
 8000ace:	4685      	mov	sp, r0

/* Call the clock system initialization function.*/
  bl  SystemInit
 8000ad0:	f7ff fff6 	bl	8000ac0 <SystemInit>

/* Copy the data segment initializers from flash to SRAM */
  ldr r0, =_sdata
 8000ad4:	480c      	ldr	r0, [pc, #48]	@ (8000b08 <LoopForever+0x6>)
  ldr r1, =_edata
 8000ad6:	490d      	ldr	r1, [pc, #52]	@ (8000b0c <LoopForever+0xa>)
  ldr r2, =_sidata
 8000ad8:	4a0d      	ldr	r2, [pc, #52]	@ (8000b10 <LoopForever+0xe>)
  movs r3, #0
 8000ada:	2300      	movs	r3, #0
  b LoopCopyDataInit
 8000adc:	e002      	b.n	8000ae4 <LoopCopyDataInit>

08000ade <CopyDataInit>:

CopyDataInit:
  ldr r4, [r2, r3]
 8000ade:	58d4      	ldr	r4, [r2, r3]
  str r4, [r0, r3]
 8000ae0:	50c4      	str	r4, [r0, r3]
  adds r3, r3, #4
 8000ae2:	3304      	adds	r3, #4

08000ae4 <LoopCopyDataInit>:

LoopCopyDataInit:
  adds r4, r0, r3
 8000ae4:	18c4      	adds	r4, r0, r3
  cmp r4, r1
 8000ae6:	428c      	cmp	r4, r1
  bcc CopyDataInit
 8000ae8:	d3f9      	bcc.n	8000ade <CopyDataInit>

/* Zero fill the bss segment. */
  ldr r2, =_sbss
 8000aea:	4a0a      	ldr	r2, [pc, #40]	@ (8000b14 <LoopForever+0x12>)
  ldr r4, =_ebss
 8000aec:	4c0a      	ldr	r4, [pc, #40]	@ (8000b18 <LoopForever+0x16>)
  movs r3, #0
 8000aee:	2300      	movs	r3, #0
  b LoopFillZerobss
 8000af0:	e001      	b.n	8000af6 <LoopFillZerobss>

08000af2 <FillZerobss>:

FillZerobss:
  str  r3, [r2]
 8000af2:	6013      	str	r3, [r2, #0]
  adds r2, r2, #4
 8000af4:	3204      	adds	r2, #4

08000af6 <LoopFillZerobss>:

LoopFillZerobss:
  cmp r2, r4
 8000af6:	42a2      	cmp	r2, r4
  bcc FillZerobss
 8000af8:	d3fb      	bcc.n	8000af2 <FillZerobss>

/* Call static constructors */
  bl __libc_init_array
 8000afa:	f002 fb45 	bl	8003188 <__libc_init_array>
/* Call the application s entry point.*/
  bl main
 8000afe:	f7ff fd8d 	bl	800061c <main>

08000b02 <LoopForever>:

LoopForever:
  b LoopForever
 8000b02:	e7fe      	b.n	8000b02 <LoopForever>
  ldr   r0, =_estack
 8000b04:	20009000 	.word	0x20009000
  ldr r0, =_sdata
 8000b08:	20000000 	.word	0x20000000
  ldr r1, =_edata
 8000b0c:	20000068 	.word	0x20000068
  ldr r2, =_sidata
 8000b10:	08003778 	.word	0x08003778
  ldr r2, =_sbss
 8000b14:	20000068 	.word	0x20000068
  ldr r4, =_ebss
 8000b18:	2000026c 	.word	0x2000026c

08000b1c <ADC1_COMP_IRQHandler>:
 * @retval None
*/
  .section .text.Default_Handler,"ax",%progbits
Default_Handler:
Infinite_Loop:
  b Infinite_Loop
 8000b1c:	e7fe      	b.n	8000b1c <ADC1_COMP_IRQHandler>
	...

08000b20 <HAL_Init>:
  *         each 1ms in the SysTick_Handler() interrupt handler.
  *
  * @retval HAL status
  */
HAL_StatusTypeDef HAL_Init(void)
{
 8000b20:	b580      	push	{r7, lr}
 8000b22:	b082      	sub	sp, #8
 8000b24:	af00      	add	r7, sp, #0
  HAL_StatusTypeDef  status = HAL_OK;
 8000b26:	1dfb      	adds	r3, r7, #7
 8000b28:	2200      	movs	r2, #0
 8000b2a:	701a      	strb	r2, [r3, #0]
#if (INSTRUCTION_CACHE_ENABLE == 0U)
  __HAL_FLASH_INSTRUCTION_CACHE_DISABLE();
#endif /* INSTRUCTION_CACHE_ENABLE */

#if (PREFETCH_ENABLE != 0U)
  __HAL_FLASH_PREFETCH_BUFFER_ENABLE();
 8000b2c:	4b0b      	ldr	r3, [pc, #44]	@ (8000b5c <HAL_Init+0x3c>)
 8000b2e:	681a      	ldr	r2, [r3, #0]
 8000b30:	4b0a      	ldr	r3, [pc, #40]	@ (8000b5c <HAL_Init+0x3c>)
 8000b32:	2180      	movs	r1, #128	@ 0x80
 8000b34:	0049      	lsls	r1, r1, #1
 8000b36:	430a      	orrs	r2, r1
 8000b38:	601a      	str	r2, [r3, #0]
#endif /* PREFETCH_ENABLE */

  /* Use SysTick as time base source and configure 1ms tick (default clock after Reset is HSI) */
  if (HAL_InitTick(TICK_INT_PRIORITY) != HAL_OK)
 8000b3a:	2000      	movs	r0, #0
 8000b3c:	f000 f810 	bl	8000b60 <HAL_InitTick>
 8000b40:	1e03      	subs	r3, r0, #0
 8000b42:	d003      	beq.n	8000b4c <HAL_Init+0x2c>
  {
    status = HAL_ERROR;
 8000b44:	1dfb      	adds	r3, r7, #7
 8000b46:	2201      	movs	r2, #1
 8000b48:	701a      	strb	r2, [r3, #0]
 8000b4a:	e001      	b.n	8000b50 <HAL_Init+0x30>
  }
  else
  {
  /* Init the low level hardware */
  HAL_MspInit();
 8000b4c:	f7ff fe9c 	bl	8000888 <HAL_MspInit>
  }

  /* Return function status */
  return status;
 8000b50:	1dfb      	adds	r3, r7, #7
 8000b52:	781b      	ldrb	r3, [r3, #0]
}
 8000b54:	0018      	movs	r0, r3
 8000b56:	46bd      	mov	sp, r7
 8000b58:	b002      	add	sp, #8
 8000b5a:	bd80      	pop	{r7, pc}
 8000b5c:	40022000 	.word	0x40022000

08000b60 <HAL_InitTick>:
  *       implementation  in user file.
  * @param TickPriority Tick interrupt priority.
  * @retval HAL status
  */
__weak HAL_StatusTypeDef HAL_InitTick(uint32_t TickPriority)
{
 8000b60:	b590      	push	{r4, r7, lr}
 8000b62:	b085      	sub	sp, #20
 8000b64:	af00      	add	r7, sp, #0
 8000b66:	6078      	str	r0, [r7, #4]
  HAL_StatusTypeDef  status = HAL_OK;
 8000b68:	230f      	movs	r3, #15
 8000b6a:	18fb      	adds	r3, r7, r3
 8000b6c:	2200      	movs	r2, #0
 8000b6e:	701a      	strb	r2, [r3, #0]

  /* Check uwTickFreq for MisraC 2012 (even if uwTickFreq is a enum type that doesn't take the value zero)*/ 
  if ((uint32_t)uwTickFreq != 0U)
 8000b70:	4b1d      	ldr	r3, [pc, #116]	@ (8000be8 <HAL_InitTick+0x88>)
 8000b72:	781b      	ldrb	r3, [r3, #0]
 8000b74:	2b00      	cmp	r3, #0
 8000b76:	d02b      	beq.n	8000bd0 <HAL_InitTick+0x70>
  {
    /*Configure the SysTick to have interrupt in 1ms time basis*/
    if (HAL_SYSTICK_Config(SystemCoreClock / (1000U /(uint32_t)uwTickFreq)) == 0U)
 8000b78:	4b1c      	ldr	r3, [pc, #112]	@ (8000bec <HAL_InitTick+0x8c>)
 8000b7a:	681c      	ldr	r4, [r3, #0]
 8000b7c:	4b1a      	ldr	r3, [pc, #104]	@ (8000be8 <HAL_InitTick+0x88>)
 8000b7e:	781b      	ldrb	r3, [r3, #0]
 8000b80:	0019      	movs	r1, r3
 8000b82:	23fa      	movs	r3, #250	@ 0xfa
 8000b84:	0098      	lsls	r0, r3, #2
 8000b86:	f7ff fabd 	bl	8000104 <__udivsi3>
 8000b8a:	0003      	movs	r3, r0
 8000b8c:	0019      	movs	r1, r3
 8000b8e:	0020      	movs	r0, r4
 8000b90:	f7ff fab8 	bl	8000104 <__udivsi3>
 8000b94:	0003      	movs	r3, r0
 8000b96:	0018      	movs	r0, r3
 8000b98:	f000 f913 	bl	8000dc2 <HAL_SYSTICK_Config>
 8000b9c:	1e03      	subs	r3, r0, #0
 8000b9e:	d112      	bne.n	8000bc6 <HAL_InitTick+0x66>
    {
      /* Configure the SysTick IRQ priority */
      if (TickPriority < (1UL << __NVIC_PRIO_BITS))
 8000ba0:	687b      	ldr	r3, [r7, #4]
 8000ba2:	2b03      	cmp	r3, #3
 8000ba4:	d80a      	bhi.n	8000bbc <HAL_InitTick+0x5c>
      {
        HAL_NVIC_SetPriority(SysTick_IRQn, TickPriority, 0U);
 8000ba6:	6879      	ldr	r1, [r7, #4]
 8000ba8:	2301      	movs	r3, #1
 8000baa:	425b      	negs	r3, r3
 8000bac:	2200      	movs	r2, #0
 8000bae:	0018      	movs	r0, r3
 8000bb0:	f000 f8f2 	bl	8000d98 <HAL_NVIC_SetPriority>
        uwTickPrio = TickPriority;
 8000bb4:	4b0e      	ldr	r3, [pc, #56]	@ (8000bf0 <HAL_InitTick+0x90>)
 8000bb6:	687a      	ldr	r2, [r7, #4]
 8000bb8:	601a      	str	r2, [r3, #0]
 8000bba:	e00d      	b.n	8000bd8 <HAL_InitTick+0x78>
      }
      else
      {
        status = HAL_ERROR;
 8000bbc:	230f      	movs	r3, #15
 8000bbe:	18fb      	adds	r3, r7, r3
 8000bc0:	2201      	movs	r2, #1
 8000bc2:	701a      	strb	r2, [r3, #0]
 8000bc4:	e008      	b.n	8000bd8 <HAL_InitTick+0x78>
      }
    }
    else
    {
      status = HAL_ERROR;
 8000bc6:	230f      	movs	r3, #15
 8000bc8:	18fb      	adds	r3, r7, r3
 8000bca:	2201      	movs	r2, #1
 8000bcc:	701a      	strb	r2, [r3, #0]
 8000bce:	e003      	b.n	8000bd8 <HAL_InitTick+0x78>
    }
  }
  else
  {
    status = HAL_ERROR;
 8000bd0:	230f      	movs	r3, #15
 8000bd2:	18fb      	adds	r3, r7, r3
 8000bd4:	2201      	movs	r2, #1
 8000bd6:	701a      	strb	r2, [r3, #0]
  }

  /* Return function status */
  return status;
 8000bd8:	230f      	movs	r3, #15
 8000bda:	18fb      	adds	r3, r7, r3
 8000bdc:	781b      	ldrb	r3, [r3, #0]
}
 8000bde:	0018      	movs	r0, r3
 8000be0:	46bd      	mov	sp, r7
 8000be2:	b005      	add	sp, #20
 8000be4:	bd90      	pop	{r4, r7, pc}
 8000be6:	46c0      	nop			@ (mov r8, r8)
 8000be8:	20000008 	.word	0x20000008
 8000bec:	20000000 	.word	0x20000000
 8000bf0:	20000004 	.word	0x20000004

08000bf4 <HAL_IncTick>:
  * @note This function is declared as __weak to be overwritten in case of other
  *      implementations in user file.
  * @retval None
  */
__weak void HAL_IncTick(void)
{
 8000bf4:	b580      	push	{r7, lr}
 8000bf6:	af00      	add	r7, sp, #0
  uwTick += (uint32_t)uwTickFreq;
 8000bf8:	4b05      	ldr	r3, [pc, #20]	@ (8000c10 <HAL_IncTick+0x1c>)
 8000bfa:	781b      	ldrb	r3, [r3, #0]
 8000bfc:	001a      	movs	r2, r3
 8000bfe:	4b05      	ldr	r3, [pc, #20]	@ (8000c14 <HAL_IncTick+0x20>)
 8000c00:	681b      	ldr	r3, [r3, #0]
 8000c02:	18d2      	adds	r2, r2, r3
 8000c04:	4b03      	ldr	r3, [pc, #12]	@ (8000c14 <HAL_IncTick+0x20>)
 8000c06:	601a      	str	r2, [r3, #0]
}
 8000c08:	46c0      	nop			@ (mov r8, r8)
 8000c0a:	46bd      	mov	sp, r7
 8000c0c:	bd80      	pop	{r7, pc}
 8000c0e:	46c0      	nop			@ (mov r8, r8)
 8000c10:	20000008 	.word	0x20000008
 8000c14:	2000011c 	.word	0x2000011c

08000c18 <HAL_GetTick>:
  * @note This function is declared as __weak to be overwritten in case of other
  *       implementations in user file.
  * @retval tick value
  */
__weak uint32_t HAL_GetTick(void)
{
 8000c18:	b580      	push	{r7, lr}
 8000c1a:	af00      	add	r7, sp, #0
  return uwTick;
 8000c1c:	4b02      	ldr	r3, [pc, #8]	@ (8000c28 <HAL_GetTick+0x10>)
 8000c1e:	681b      	ldr	r3, [r3, #0]
}
 8000c20:	0018      	movs	r0, r3
 8000c22:	46bd      	mov	sp, r7
 8000c24:	bd80      	pop	{r7, pc}
 8000c26:	46c0      	nop			@ (mov r8, r8)
 8000c28:	2000011c 	.word	0x2000011c

08000c2c <HAL_Delay>:
  *       implementations in user file.
  * @param Delay  specifies the delay time length, in milliseconds.
  * @retval None
  */
__weak void HAL_Delay(uint32_t Delay)
{
 8000c2c:	b580      	push	{r7, lr}
 8000c2e:	b084      	sub	sp, #16
 8000c30:	af00      	add	r7, sp, #0
 8000c32:	6078      	str	r0, [r7, #4]
  uint32_t tickstart = HAL_GetTick();
 8000c34:	f7ff fff0 	bl	8000c18 <HAL_GetTick>
 8000c38:	0003      	movs	r3, r0
 8000c3a:	60bb      	str	r3, [r7, #8]
  uint32_t wait = Delay;
 8000c3c:	687b      	ldr	r3, [r7, #4]
 8000c3e:	60fb      	str	r3, [r7, #12]

  /* Add a freq to guarantee minimum wait */
  if (wait < HAL_MAX_DELAY)
 8000c40:	68fb      	ldr	r3, [r7, #12]
 8000c42:	3301      	adds	r3, #1
 8000c44:	d005      	beq.n	8000c52 <HAL_Delay+0x26>
  {
    wait += (uint32_t)(uwTickFreq);
 8000c46:	4b0a      	ldr	r3, [pc, #40]	@ (8000c70 <HAL_Delay+0x44>)
 8000c48:	781b      	ldrb	r3, [r3, #0]
 8000c4a:	001a      	movs	r2, r3
 8000c4c:	68fb      	ldr	r3, [r7, #12]
 8000c4e:	189b      	adds	r3, r3, r2
 8000c50:	60fb      	str	r3, [r7, #12]
  }

  while ((HAL_GetTick() - tickstart) < wait)
 8000c52:	46c0      	nop			@ (mov r8, r8)
 8000c54:	f7ff ffe0 	bl	8000c18 <HAL_GetTick>
 8000c58:	0002      	movs	r2, r0
 8000c5a:	68bb      	ldr	r3, [r7, #8]
 8000c5c:	1ad3      	subs	r3, r2, r3
 8000c5e:	68fa      	ldr	r2, [r7, #12]
 8000c60:	429a      	cmp	r2, r3
 8000c62:	d8f7      	bhi.n	8000c54 <HAL_Delay+0x28>
  {
  }
}
 8000c64:	46c0      	nop			@ (mov r8, r8)
 8000c66:	46c0      	nop			@ (mov r8, r8)
 8000c68:	46bd      	mov	sp, r7
 8000c6a:	b004      	add	sp, #16
 8000c6c:	bd80      	pop	{r7, pc}
 8000c6e:	46c0      	nop			@ (mov r8, r8)
 8000c70:	20000008 	.word	0x20000008

08000c74 <__NVIC_SetPriority>:
  \param [in]      IRQn  Interrupt number.
  \param [in]  priority  Priority to set.
  \note    The priority cannot be set for every processor exception.
 */
__STATIC_INLINE void __NVIC_SetPriority(IRQn_Type IRQn, uint32_t priority)
{
 8000c74:	b590      	push	{r4, r7, lr}
 8000c76:	b083      	sub	sp, #12
 8000c78:	af00      	add	r7, sp, #0
 8000c7a:	0002      	movs	r2, r0
 8000c7c:	6039      	str	r1, [r7, #0]
 8000c7e:	1dfb      	adds	r3, r7, #7
 8000c80:	701a      	strb	r2, [r3, #0]
  if ((int32_t)(IRQn) >= 0)
 8000c82:	1dfb      	adds	r3, r7, #7
 8000c84:	781b      	ldrb	r3, [r3, #0]
 8000c86:	2b7f      	cmp	r3, #127	@ 0x7f
 8000c88:	d828      	bhi.n	8000cdc <__NVIC_SetPriority+0x68>
  {
    NVIC->IP[_IP_IDX(IRQn)]  = ((uint32_t)(NVIC->IP[_IP_IDX(IRQn)]  & ~(0xFFUL << _BIT_SHIFT(IRQn))) |
 8000c8a:	4a2f      	ldr	r2, [pc, #188]	@ (8000d48 <__NVIC_SetPriority+0xd4>)
 8000c8c:	1dfb      	adds	r3, r7, #7
 8000c8e:	781b      	ldrb	r3, [r3, #0]
 8000c90:	b25b      	sxtb	r3, r3
 8000c92:	089b      	lsrs	r3, r3, #2
 8000c94:	33c0      	adds	r3, #192	@ 0xc0
 8000c96:	009b      	lsls	r3, r3, #2
 8000c98:	589b      	ldr	r3, [r3, r2]
 8000c9a:	1dfa      	adds	r2, r7, #7
 8000c9c:	7812      	ldrb	r2, [r2, #0]
 8000c9e:	0011      	movs	r1, r2
 8000ca0:	2203      	movs	r2, #3
 8000ca2:	400a      	ands	r2, r1
 8000ca4:	00d2      	lsls	r2, r2, #3
 8000ca6:	21ff      	movs	r1, #255	@ 0xff
 8000ca8:	4091      	lsls	r1, r2
 8000caa:	000a      	movs	r2, r1
 8000cac:	43d2      	mvns	r2, r2
 8000cae:	401a      	ands	r2, r3
 8000cb0:	0011      	movs	r1, r2
       (((priority << (8U - __NVIC_PRIO_BITS)) & (uint32_t)0xFFUL) << _BIT_SHIFT(IRQn)));
 8000cb2:	683b      	ldr	r3, [r7, #0]
 8000cb4:	019b      	lsls	r3, r3, #6
 8000cb6:	22ff      	movs	r2, #255	@ 0xff
 8000cb8:	401a      	ands	r2, r3
 8000cba:	1dfb      	adds	r3, r7, #7
 8000cbc:	781b      	ldrb	r3, [r3, #0]
 8000cbe:	0018      	movs	r0, r3
 8000cc0:	2303      	movs	r3, #3
 8000cc2:	4003      	ands	r3, r0
 8000cc4:	00db      	lsls	r3, r3, #3
 8000cc6:	409a      	lsls	r2, r3
    NVIC->IP[_IP_IDX(IRQn)]  = ((uint32_t)(NVIC->IP[_IP_IDX(IRQn)]  & ~(0xFFUL << _BIT_SHIFT(IRQn))) |
 8000cc8:	481f      	ldr	r0, [pc, #124]	@ (8000d48 <__NVIC_SetPriority+0xd4>)
 8000cca:	1dfb      	adds	r3, r7, #7
 8000ccc:	781b      	ldrb	r3, [r3, #0]
 8000cce:	b25b      	sxtb	r3, r3
 8000cd0:	089b      	lsrs	r3, r3, #2
 8000cd2:	430a      	orrs	r2, r1
 8000cd4:	33c0      	adds	r3, #192	@ 0xc0
 8000cd6:	009b      	lsls	r3, r3, #2
 8000cd8:	501a      	str	r2, [r3, r0]
  else
  {
    SCB->SHP[_SHP_IDX(IRQn)] = ((uint32_t)(SCB->SHP[_SHP_IDX(IRQn)] & ~(0xFFUL << _BIT_SHIFT(IRQn))) |
       (((priority << (8U - __NVIC_PRIO_BITS)) & (uint32_t)0xFFUL) << _BIT_SHIFT(IRQn)));
  }
}
 8000cda:	e031      	b.n	8000d40 <__NVIC_SetPriority+0xcc>
    SCB->SHP[_SHP_IDX(IRQn)] = ((uint32_t)(SCB->SHP[_SHP_IDX(IRQn)] & ~(0xFFUL << _BIT_SHIFT(IRQn))) |
 8000cdc:	4a1b      	ldr	r2, [pc, #108]	@ (8000d4c <__NVIC_SetPriority+0xd8>)
 8000cde:	1dfb      	adds	r3, r7, #7
 8000ce0:	781b      	ldrb	r3, [r3, #0]
 8000ce2:	0019      	movs	r1, r3
 8000ce4:	230f      	movs	r3, #15
 8000ce6:	400b      	ands	r3, r1
 8000ce8:	3b08      	subs	r3, #8
 8000cea:	089b      	lsrs	r3, r3, #2
 8000cec:	3306      	adds	r3, #6
 8000cee:	009b      	lsls	r3, r3, #2
 8000cf0:	18d3      	adds	r3, r2, r3
 8000cf2:	3304      	adds	r3, #4
 8000cf4:	681b      	ldr	r3, [r3, #0]
 8000cf6:	1dfa      	adds	r2, r7, #7
 8000cf8:	7812      	ldrb	r2, [r2, #0]
 8000cfa:	0011      	movs	r1, r2
 8000cfc:	2203      	movs	r2, #3
 8000cfe:	400a      	ands	r2, r1
 8000d00:	00d2      	lsls	r2, r2, #3
 8000d02:	21ff      	movs	r1, #255	@ 0xff
 8000d04:	4091      	lsls	r1, r2
 8000d06:	000a      	movs	r2, r1
 8000d08:	43d2      	mvns	r2, r2
 8000d0a:	401a      	ands	r2, r3
 8000d0c:	0011      	movs	r1, r2
       (((priority << (8U - __NVIC_PRIO_BITS)) & (uint32_t)0xFFUL) << _BIT_SHIFT(IRQn)));
 8000d0e:	683b      	ldr	r3, [r7, #0]
 8000d10:	019b      	lsls	r3, r3, #6
 8000d12:	22ff      	movs	r2, #255	@ 0xff
 8000d14:	401a      	ands	r2, r3
 8000d16:	1dfb      	adds	r3, r7, #7
 8000d18:	781b      	ldrb	r3, [r3, #0]
 8000d1a:	0018      	movs	r0, r3
 8000d1c:	2303      	movs	r3, #3
 8000d1e:	4003      	ands	r3, r0
 8000d20:	00db      	lsls	r3, r3, #3
 8000d22:	409a      	lsls	r2, r3
    SCB->SHP[_SHP_IDX(IRQn)] = ((uint32_t)(SCB->SHP[_SHP_IDX(IRQn)] & ~(0xFFUL << _BIT_SHIFT(IRQn))) |
 8000d24:	4809      	ldr	r0, [pc, #36]	@ (8000d4c <__NVIC_SetPriority+0xd8>)
 8000d26:	1dfb      	adds	r3, r7, #7
 8000d28:	781b      	ldrb	r3, [r3, #0]
 8000d2a:	001c      	movs	r4, r3
 8000d2c:	230f      	movs	r3, #15
 8000d2e:	4023      	ands	r3, r4
 8000d30:	3b08      	subs	r3, #8
 8000d32:	089b      	lsrs	r3, r3, #2
 8000d34:	430a      	orrs	r2, r1
 8000d36:	3306      	adds	r3, #6
 8000d38:	009b      	lsls	r3, r3, #2
 8000d3a:	18c3      	adds	r3, r0, r3
 8000d3c:	3304      	adds	r3, #4
 8000d3e:	601a      	str	r2, [r3, #0]
}
 8000d40:	46c0      	nop			@ (mov r8, r8)
 8000d42:	46bd      	mov	sp, r7
 8000d44:	b003      	add	sp, #12
 8000d46:	bd90      	pop	{r4, r7, pc}
 8000d48:	e000e100 	.word	0xe000e100
 8000d4c:	e000ed00 	.word	0xe000ed00

08000d50 <SysTick_Config>:
  \note    When the variable <b>__Vendor_SysTickConfig</b> is set to 1, then the
           function <b>SysTick_Config</b> is not included. In this case, the file <b><i>device</i>.h</b>
           must contain a vendor-specific implementation of this function.
 */
__STATIC_INLINE uint32_t SysTick_Config(uint32_t ticks)
{
 8000d50:	b580      	push	{r7, lr}
 8000d52:	b082      	sub	sp, #8
 8000d54:	af00      	add	r7, sp, #0
 8000d56:	6078      	str	r0, [r7, #4]
  if ((ticks - 1UL) > SysTick_LOAD_RELOAD_Msk)
 8000d58:	687b      	ldr	r3, [r7, #4]
 8000d5a:	1e5a      	subs	r2, r3, #1
 8000d5c:	2380      	movs	r3, #128	@ 0x80
 8000d5e:	045b      	lsls	r3, r3, #17
 8000d60:	429a      	cmp	r2, r3
 8000d62:	d301      	bcc.n	8000d68 <SysTick_Config+0x18>
  {
    return (1UL);                                                   /* Reload value impossible */
 8000d64:	2301      	movs	r3, #1
 8000d66:	e010      	b.n	8000d8a <SysTick_Config+0x3a>
  }

  SysTick->LOAD  = (uint32_t)(ticks - 1UL);                         /* set reload register */
 8000d68:	4b0a      	ldr	r3, [pc, #40]	@ (8000d94 <SysTick_Config+0x44>)
 8000d6a:	687a      	ldr	r2, [r7, #4]
 8000d6c:	3a01      	subs	r2, #1
 8000d6e:	605a      	str	r2, [r3, #4]
  NVIC_SetPriority (SysTick_IRQn, (1UL << __NVIC_PRIO_BITS) - 1UL); /* set Priority for Systick Interrupt */
 8000d70:	2301      	movs	r3, #1
 8000d72:	425b      	negs	r3, r3
 8000d74:	2103      	movs	r1, #3
 8000d76:	0018      	movs	r0, r3
 8000d78:	f7ff ff7c 	bl	8000c74 <__NVIC_SetPriority>
  SysTick->VAL   = 0UL;                                             /* Load the SysTick Counter Value */
 8000d7c:	4b05      	ldr	r3, [pc, #20]	@ (8000d94 <SysTick_Config+0x44>)
 8000d7e:	2200      	movs	r2, #0
 8000d80:	609a      	str	r2, [r3, #8]
  SysTick->CTRL  = SysTick_CTRL_CLKSOURCE_Msk |
 8000d82:	4b04      	ldr	r3, [pc, #16]	@ (8000d94 <SysTick_Config+0x44>)
 8000d84:	2207      	movs	r2, #7
 8000d86:	601a      	str	r2, [r3, #0]
                   SysTick_CTRL_TICKINT_Msk   |
                   SysTick_CTRL_ENABLE_Msk;                         /* Enable SysTick IRQ and SysTick Timer */
  return (0UL);                                                     /* Function successful */
 8000d88:	2300      	movs	r3, #0
}
 8000d8a:	0018      	movs	r0, r3
 8000d8c:	46bd      	mov	sp, r7
 8000d8e:	b002      	add	sp, #8
 8000d90:	bd80      	pop	{r7, pc}
 8000d92:	46c0      	nop			@ (mov r8, r8)
 8000d94:	e000e010 	.word	0xe000e010

08000d98 <HAL_NVIC_SetPriority>:
  *         with stm32g0xx devices, this parameter is a dummy value and it is ignored, because
  *         no subpriority supported in Cortex M0+ based products.
  * @retval None
  */
void HAL_NVIC_SetPriority(IRQn_Type IRQn, uint32_t PreemptPriority, uint32_t SubPriority)
{
 8000d98:	b580      	push	{r7, lr}
 8000d9a:	b084      	sub	sp, #16
 8000d9c:	af00      	add	r7, sp, #0
 8000d9e:	60b9      	str	r1, [r7, #8]
 8000da0:	607a      	str	r2, [r7, #4]
 8000da2:	210f      	movs	r1, #15
 8000da4:	187b      	adds	r3, r7, r1
 8000da6:	1c02      	adds	r2, r0, #0
 8000da8:	701a      	strb	r2, [r3, #0]
  /* Prevent unused argument(s) compilation warning */
  UNUSED(SubPriority);

  /* Check the parameters */
  assert_param(IS_NVIC_PREEMPTION_PRIORITY(PreemptPriority));
  NVIC_SetPriority(IRQn, PreemptPriority);
 8000daa:	68ba      	ldr	r2, [r7, #8]
 8000dac:	187b      	adds	r3, r7, r1
 8000dae:	781b      	ldrb	r3, [r3, #0]
 8000db0:	b25b      	sxtb	r3, r3
 8000db2:	0011      	movs	r1, r2
 8000db4:	0018      	movs	r0, r3
 8000db6:	f7ff ff5d 	bl	8000c74 <__NVIC_SetPriority>
}
 8000dba:	46c0      	nop			@ (mov r8, r8)
 8000dbc:	46bd      	mov	sp, r7
 8000dbe:	b004      	add	sp, #16
 8000dc0:	bd80      	pop	{r7, pc}

08000dc2 <HAL_SYSTICK_Config>:
  * @param  TicksNumb Specifies the ticks Number of ticks between two interrupts.
  * @retval status:  - 0  Function succeeded.
  *                  - 1  Function failed.
  */
uint32_t HAL_SYSTICK_Config(uint32_t TicksNumb)
{
 8000dc2:	b580      	push	{r7, lr}
 8000dc4:	b082      	sub	sp, #8
 8000dc6:	af00      	add	r7, sp, #0
 8000dc8:	6078      	str	r0, [r7, #4]
  return SysTick_Config(TicksNumb);
 8000dca:	687b      	ldr	r3, [r7, #4]
 8000dcc:	0018      	movs	r0, r3
 8000dce:	f7ff ffbf 	bl	8000d50 <SysTick_Config>
 8000dd2:	0003      	movs	r3, r0
}
 8000dd4:	0018      	movs	r0, r3
 8000dd6:	46bd      	mov	sp, r7
 8000dd8:	b002      	add	sp, #8
 8000dda:	bd80      	pop	{r7, pc}

08000ddc <HAL_GPIO_Init>:
  * @param  GPIO_Init pointer to a GPIO_InitTypeDef structure that contains
  *         the configuration information for the specified GPIO peripheral.
  * @retval None
  */
void HAL_GPIO_Init(GPIO_TypeDef  *GPIOx, GPIO_InitTypeDef *GPIO_Init)
{
 8000ddc:	b580      	push	{r7, lr}
 8000dde:	b086      	sub	sp, #24
 8000de0:	af00      	add	r7, sp, #0
 8000de2:	6078      	str	r0, [r7, #4]
 8000de4:	6039      	str	r1, [r7, #0]
  uint32_t position = 0x00u;
 8000de6:	2300      	movs	r3, #0
 8000de8:	617b      	str	r3, [r7, #20]
  assert_param(IS_GPIO_ALL_INSTANCE(GPIOx));
  assert_param(IS_GPIO_PIN(GPIO_Init->Pin));
  assert_param(IS_GPIO_MODE(GPIO_Init->Mode));

  /* Configure the port pins */
  while (((GPIO_Init->Pin) >> position) != 0x00u)
 8000dea:	e147      	b.n	800107c <HAL_GPIO_Init+0x2a0>
  {
    /* Get current io position */
    iocurrent = (GPIO_Init->Pin) & (1uL << position);
 8000dec:	683b      	ldr	r3, [r7, #0]
 8000dee:	681b      	ldr	r3, [r3, #0]
 8000df0:	2101      	movs	r1, #1
 8000df2:	697a      	ldr	r2, [r7, #20]
 8000df4:	4091      	lsls	r1, r2
 8000df6:	000a      	movs	r2, r1
 8000df8:	4013      	ands	r3, r2
 8000dfa:	60fb      	str	r3, [r7, #12]

    if (iocurrent != 0x00u)
 8000dfc:	68fb      	ldr	r3, [r7, #12]
 8000dfe:	2b00      	cmp	r3, #0
 8000e00:	d100      	bne.n	8000e04 <HAL_GPIO_Init+0x28>
 8000e02:	e138      	b.n	8001076 <HAL_GPIO_Init+0x29a>
    {
      /*--------------------- GPIO Mode Configuration ------------------------*/
      /* In case of Output or Alternate function mode selection */
      if (((GPIO_Init->Mode & GPIO_MODE) == MODE_OUTPUT) || ((GPIO_Init->Mode & GPIO_MODE) == MODE_AF))
 8000e04:	683b      	ldr	r3, [r7, #0]
 8000e06:	685b      	ldr	r3, [r3, #4]
 8000e08:	2203      	movs	r2, #3
 8000e0a:	4013      	ands	r3, r2
 8000e0c:	2b01      	cmp	r3, #1
 8000e0e:	d005      	beq.n	8000e1c <HAL_GPIO_Init+0x40>
 8000e10:	683b      	ldr	r3, [r7, #0]
 8000e12:	685b      	ldr	r3, [r3, #4]
 8000e14:	2203      	movs	r2, #3
 8000e16:	4013      	ands	r3, r2
 8000e18:	2b02      	cmp	r3, #2
 8000e1a:	d130      	bne.n	8000e7e <HAL_GPIO_Init+0xa2>
      {
        /* Check the Speed parameter */
        assert_param(IS_GPIO_SPEED(GPIO_Init->Speed));

        /* Configure the IO Speed */
        temp = GPIOx->OSPEEDR;
 8000e1c:	687b      	ldr	r3, [r7, #4]
 8000e1e:	689b      	ldr	r3, [r3, #8]
 8000e20:	613b      	str	r3, [r7, #16]
        temp &= ~(GPIO_OSPEEDR_OSPEED0 << (position * 2u));
 8000e22:	697b      	ldr	r3, [r7, #20]
 8000e24:	005b      	lsls	r3, r3, #1
 8000e26:	2203      	movs	r2, #3
 8000e28:	409a      	lsls	r2, r3
 8000e2a:	0013      	movs	r3, r2
 8000e2c:	43da      	mvns	r2, r3
 8000e2e:	693b      	ldr	r3, [r7, #16]
 8000e30:	4013      	ands	r3, r2
 8000e32:	613b      	str	r3, [r7, #16]
        temp |= (GPIO_Init->Speed << (position * 2u));
 8000e34:	683b      	ldr	r3, [r7, #0]
 8000e36:	68da      	ldr	r2, [r3, #12]
 8000e38:	697b      	ldr	r3, [r7, #20]
 8000e3a:	005b      	lsls	r3, r3, #1
 8000e3c:	409a      	lsls	r2, r3
 8000e3e:	0013      	movs	r3, r2
 8000e40:	693a      	ldr	r2, [r7, #16]
 8000e42:	4313      	orrs	r3, r2
 8000e44:	613b      	str	r3, [r7, #16]
        GPIOx->OSPEEDR = temp;
 8000e46:	687b      	ldr	r3, [r7, #4]
 8000e48:	693a      	ldr	r2, [r7, #16]
 8000e4a:	609a      	str	r2, [r3, #8]

        /* Configure the IO Output Type */
        temp = GPIOx->OTYPER;
 8000e4c:	687b      	ldr	r3, [r7, #4]
 8000e4e:	685b      	ldr	r3, [r3, #4]
 8000e50:	613b      	str	r3, [r7, #16]
        temp &= ~(GPIO_OTYPER_OT0 << position) ;
 8000e52:	2201      	movs	r2, #1
 8000e54:	697b      	ldr	r3, [r7, #20]
 8000e56:	409a      	lsls	r2, r3
 8000e58:	0013      	movs	r3, r2
 8000e5a:	43da      	mvns	r2, r3
 8000e5c:	693b      	ldr	r3, [r7, #16]
 8000e5e:	4013      	ands	r3, r2
 8000e60:	613b      	str	r3, [r7, #16]
        temp |= (((GPIO_Init->Mode & OUTPUT_TYPE) >> OUTPUT_TYPE_Pos) << position);
 8000e62:	683b      	ldr	r3, [r7, #0]
 8000e64:	685b      	ldr	r3, [r3, #4]
 8000e66:	091b      	lsrs	r3, r3, #4
 8000e68:	2201      	movs	r2, #1
 8000e6a:	401a      	ands	r2, r3
 8000e6c:	697b      	ldr	r3, [r7, #20]
 8000e6e:	409a      	lsls	r2, r3
 8000e70:	0013      	movs	r3, r2
 8000e72:	693a      	ldr	r2, [r7, #16]
 8000e74:	4313      	orrs	r3, r2
 8000e76:	613b      	str	r3, [r7, #16]
        GPIOx->OTYPER = temp;
 8000e78:	687b      	ldr	r3, [r7, #4]
 8000e7a:	693a      	ldr	r2, [r7, #16]
 8000e7c:	605a      	str	r2, [r3, #4]
      }

      if ((GPIO_Init->Mode & GPIO_MODE) != MODE_ANALOG)
 8000e7e:	683b      	ldr	r3, [r7, #0]
 8000e80:	685b      	ldr	r3, [r3, #4]
 8000e82:	2203      	movs	r2, #3
 8000e84:	4013      	ands	r3, r2
 8000e86:	2b03      	cmp	r3, #3
 8000e88:	d017      	beq.n	8000eba <HAL_GPIO_Init+0xde>
      {
        /* Check the Pull parameter */
        assert_param(IS_GPIO_PULL(GPIO_Init->Pull));

        /* Activate the Pull-up or Pull down resistor for the current IO */
        temp = GPIOx->PUPDR;
 8000e8a:	687b      	ldr	r3, [r7, #4]
 8000e8c:	68db      	ldr	r3, [r3, #12]
 8000e8e:	613b      	str	r3, [r7, #16]
        temp &= ~(GPIO_PUPDR_PUPD0 << (position * 2u));
 8000e90:	697b      	ldr	r3, [r7, #20]
 8000e92:	005b      	lsls	r3, r3, #1
 8000e94:	2203      	movs	r2, #3
 8000e96:	409a      	lsls	r2, r3
 8000e98:	0013      	movs	r3, r2
 8000e9a:	43da      	mvns	r2, r3
 8000e9c:	693b      	ldr	r3, [r7, #16]
 8000e9e:	4013      	ands	r3, r2
 8000ea0:	613b      	str	r3, [r7, #16]
        temp |= ((GPIO_Init->Pull) << (position * 2u));
 8000ea2:	683b      	ldr	r3, [r7, #0]
 8000ea4:	689a      	ldr	r2, [r3, #8]
 8000ea6:	697b      	ldr	r3, [r7, #20]
 8000ea8:	005b      	lsls	r3, r3, #1
 8000eaa:	409a      	lsls	r2, r3
 8000eac:	0013      	movs	r3, r2
 8000eae:	693a      	ldr	r2, [r7, #16]
 8000eb0:	4313      	orrs	r3, r2
 8000eb2:	613b      	str	r3, [r7, #16]
        GPIOx->PUPDR = temp;
 8000eb4:	687b      	ldr	r3, [r7, #4]
 8000eb6:	693a      	ldr	r2, [r7, #16]
 8000eb8:	60da      	str	r2, [r3, #12]
      }

      /* In case of Alternate function mode selection */
      if ((GPIO_Init->Mode & GPIO_MODE) == MODE_AF)
 8000eba:	683b      	ldr	r3, [r7, #0]
 8000ebc:	685b      	ldr	r3, [r3, #4]
 8000ebe:	2203      	movs	r2, #3
 8000ec0:	4013      	ands	r3, r2
 8000ec2:	2b02      	cmp	r3, #2
 8000ec4:	d123      	bne.n	8000f0e <HAL_GPIO_Init+0x132>
        /* Check the Alternate function parameters */
        assert_param(IS_GPIO_AF_INSTANCE(GPIOx));
        assert_param(IS_GPIO_AF(GPIO_Init->Alternate));

        /* Configure Alternate function mapped with the current IO */
        temp = GPIOx->AFR[position >> 3u];
 8000ec6:	697b      	ldr	r3, [r7, #20]
 8000ec8:	08da      	lsrs	r2, r3, #3
 8000eca:	687b      	ldr	r3, [r7, #4]
 8000ecc:	3208      	adds	r2, #8
 8000ece:	0092      	lsls	r2, r2, #2
 8000ed0:	58d3      	ldr	r3, [r2, r3]
 8000ed2:	613b      	str	r3, [r7, #16]
        temp &= ~(0xFu << ((position & 0x07u) * 4u));
 8000ed4:	697b      	ldr	r3, [r7, #20]
 8000ed6:	2207      	movs	r2, #7
 8000ed8:	4013      	ands	r3, r2
 8000eda:	009b      	lsls	r3, r3, #2
 8000edc:	220f      	movs	r2, #15
 8000ede:	409a      	lsls	r2, r3
 8000ee0:	0013      	movs	r3, r2
 8000ee2:	43da      	mvns	r2, r3
 8000ee4:	693b      	ldr	r3, [r7, #16]
 8000ee6:	4013      	ands	r3, r2
 8000ee8:	613b      	str	r3, [r7, #16]
        temp |= ((GPIO_Init->Alternate) << ((position & 0x07u) * 4u));
 8000eea:	683b      	ldr	r3, [r7, #0]
 8000eec:	691a      	ldr	r2, [r3, #16]
 8000eee:	697b      	ldr	r3, [r7, #20]
 8000ef0:	2107      	movs	r1, #7
 8000ef2:	400b      	ands	r3, r1
 8000ef4:	009b      	lsls	r3, r3, #2
 8000ef6:	409a      	lsls	r2, r3
 8000ef8:	0013      	movs	r3, r2
 8000efa:	693a      	ldr	r2, [r7, #16]
 8000efc:	4313      	orrs	r3, r2
 8000efe:	613b      	str	r3, [r7, #16]
        GPIOx->AFR[position >> 3u] = temp;
 8000f00:	697b      	ldr	r3, [r7, #20]
 8000f02:	08da      	lsrs	r2, r3, #3
 8000f04:	687b      	ldr	r3, [r7, #4]
 8000f06:	3208      	adds	r2, #8
 8000f08:	0092      	lsls	r2, r2, #2
 8000f0a:	6939      	ldr	r1, [r7, #16]
 8000f0c:	50d1      	str	r1, [r2, r3]
      }

      /* Configure IO Direction mode (Input, Output, Alternate or Analog) */
      temp = GPIOx->MODER;
 8000f0e:	687b      	ldr	r3, [r7, #4]
 8000f10:	681b      	ldr	r3, [r3, #0]
 8000f12:	613b      	str	r3, [r7, #16]
      temp &= ~(GPIO_MODER_MODE0 << (position * 2u));
 8000f14:	697b      	ldr	r3, [r7, #20]
 8000f16:	005b      	lsls	r3, r3, #1
 8000f18:	2203      	movs	r2, #3
 8000f1a:	409a      	lsls	r2, r3
 8000f1c:	0013      	movs	r3, r2
 8000f1e:	43da      	mvns	r2, r3
 8000f20:	693b      	ldr	r3, [r7, #16]
 8000f22:	4013      	ands	r3, r2
 8000f24:	613b      	str	r3, [r7, #16]
      temp |= ((GPIO_Init->Mode & GPIO_MODE) << (position * 2u));
 8000f26:	683b      	ldr	r3, [r7, #0]
 8000f28:	685b      	ldr	r3, [r3, #4]
 8000f2a:	2203      	movs	r2, #3
 8000f2c:	401a      	ands	r2, r3
 8000f2e:	697b      	ldr	r3, [r7, #20]
 8000f30:	005b      	lsls	r3, r3, #1
 8000f32:	409a      	lsls	r2, r3
 8000f34:	0013      	movs	r3, r2
 8000f36:	693a      	ldr	r2, [r7, #16]
 8000f38:	4313      	orrs	r3, r2
 8000f3a:	613b      	str	r3, [r7, #16]
      GPIOx->MODER = temp;
 8000f3c:	687b      	ldr	r3, [r7, #4]
 8000f3e:	693a      	ldr	r2, [r7, #16]
 8000f40:	601a      	str	r2, [r3, #0]

      /*--------------------- EXTI Mode Configuration ------------------------*/
      /* Configure the External Interrupt or event for the current IO */
      if ((GPIO_Init->Mode & EXTI_MODE) != 0x00u)
 8000f42:	683b      	ldr	r3, [r7, #0]
 8000f44:	685a      	ldr	r2, [r3, #4]
 8000f46:	23c0      	movs	r3, #192	@ 0xc0
 8000f48:	029b      	lsls	r3, r3, #10
 8000f4a:	4013      	ands	r3, r2
 8000f4c:	d100      	bne.n	8000f50 <HAL_GPIO_Init+0x174>
 8000f4e:	e092      	b.n	8001076 <HAL_GPIO_Init+0x29a>
      {
        temp = EXTI->EXTICR[position >> 2u];
 8000f50:	4a50      	ldr	r2, [pc, #320]	@ (8001094 <HAL_GPIO_Init+0x2b8>)
 8000f52:	697b      	ldr	r3, [r7, #20]
 8000f54:	089b      	lsrs	r3, r3, #2
 8000f56:	3318      	adds	r3, #24
 8000f58:	009b      	lsls	r3, r3, #2
 8000f5a:	589b      	ldr	r3, [r3, r2]
 8000f5c:	613b      	str	r3, [r7, #16]
        temp &= ~(0x0FuL << (8u * (position & 0x03u)));
 8000f5e:	697b      	ldr	r3, [r7, #20]
 8000f60:	2203      	movs	r2, #3
 8000f62:	4013      	ands	r3, r2
 8000f64:	00db      	lsls	r3, r3, #3
 8000f66:	220f      	movs	r2, #15
 8000f68:	409a      	lsls	r2, r3
 8000f6a:	0013      	movs	r3, r2
 8000f6c:	43da      	mvns	r2, r3
 8000f6e:	693b      	ldr	r3, [r7, #16]
 8000f70:	4013      	ands	r3, r2
 8000f72:	613b      	str	r3, [r7, #16]
        temp |= (GPIO_GET_INDEX(GPIOx) << (8u * (position & 0x03u)));
 8000f74:	687a      	ldr	r2, [r7, #4]
 8000f76:	23a0      	movs	r3, #160	@ 0xa0
 8000f78:	05db      	lsls	r3, r3, #23
 8000f7a:	429a      	cmp	r2, r3
 8000f7c:	d013      	beq.n	8000fa6 <HAL_GPIO_Init+0x1ca>
 8000f7e:	687b      	ldr	r3, [r7, #4]
 8000f80:	4a45      	ldr	r2, [pc, #276]	@ (8001098 <HAL_GPIO_Init+0x2bc>)
 8000f82:	4293      	cmp	r3, r2
 8000f84:	d00d      	beq.n	8000fa2 <HAL_GPIO_Init+0x1c6>
 8000f86:	687b      	ldr	r3, [r7, #4]
 8000f88:	4a44      	ldr	r2, [pc, #272]	@ (800109c <HAL_GPIO_Init+0x2c0>)
 8000f8a:	4293      	cmp	r3, r2
 8000f8c:	d007      	beq.n	8000f9e <HAL_GPIO_Init+0x1c2>
 8000f8e:	687b      	ldr	r3, [r7, #4]
 8000f90:	4a43      	ldr	r2, [pc, #268]	@ (80010a0 <HAL_GPIO_Init+0x2c4>)
 8000f92:	4293      	cmp	r3, r2
 8000f94:	d101      	bne.n	8000f9a <HAL_GPIO_Init+0x1be>
 8000f96:	2303      	movs	r3, #3
 8000f98:	e006      	b.n	8000fa8 <HAL_GPIO_Init+0x1cc>
 8000f9a:	2305      	movs	r3, #5
 8000f9c:	e004      	b.n	8000fa8 <HAL_GPIO_Init+0x1cc>
 8000f9e:	2302      	movs	r3, #2
 8000fa0:	e002      	b.n	8000fa8 <HAL_GPIO_Init+0x1cc>
 8000fa2:	2301      	movs	r3, #1
 8000fa4:	e000      	b.n	8000fa8 <HAL_GPIO_Init+0x1cc>
 8000fa6:	2300      	movs	r3, #0
 8000fa8:	697a      	ldr	r2, [r7, #20]
 8000faa:	2103      	movs	r1, #3
 8000fac:	400a      	ands	r2, r1
 8000fae:	00d2      	lsls	r2, r2, #3
 8000fb0:	4093      	lsls	r3, r2
 8000fb2:	693a      	ldr	r2, [r7, #16]
 8000fb4:	4313      	orrs	r3, r2
 8000fb6:	613b      	str	r3, [r7, #16]
        EXTI->EXTICR[position >> 2u] = temp;
 8000fb8:	4936      	ldr	r1, [pc, #216]	@ (8001094 <HAL_GPIO_Init+0x2b8>)
 8000fba:	697b      	ldr	r3, [r7, #20]
 8000fbc:	089b      	lsrs	r3, r3, #2
 8000fbe:	3318      	adds	r3, #24
 8000fc0:	009b      	lsls	r3, r3, #2
 8000fc2:	693a      	ldr	r2, [r7, #16]
 8000fc4:	505a      	str	r2, [r3, r1]

        /* Clear Rising Falling edge configuration */
        temp = EXTI->RTSR1;
 8000fc6:	4b33      	ldr	r3, [pc, #204]	@ (8001094 <HAL_GPIO_Init+0x2b8>)
 8000fc8:	681b      	ldr	r3, [r3, #0]
 8000fca:	613b      	str	r3, [r7, #16]
        temp &= ~(iocurrent);
 8000fcc:	68fb      	ldr	r3, [r7, #12]
 8000fce:	43da      	mvns	r2, r3
 8000fd0:	693b      	ldr	r3, [r7, #16]
 8000fd2:	4013      	ands	r3, r2
 8000fd4:	613b      	str	r3, [r7, #16]
        if ((GPIO_Init->Mode & TRIGGER_RISING) != 0x00u)
 8000fd6:	683b      	ldr	r3, [r7, #0]
 8000fd8:	685a      	ldr	r2, [r3, #4]
 8000fda:	2380      	movs	r3, #128	@ 0x80
 8000fdc:	035b      	lsls	r3, r3, #13
 8000fde:	4013      	ands	r3, r2
 8000fe0:	d003      	beq.n	8000fea <HAL_GPIO_Init+0x20e>
        {
          temp |= iocurrent;
 8000fe2:	693a      	ldr	r2, [r7, #16]
 8000fe4:	68fb      	ldr	r3, [r7, #12]
 8000fe6:	4313      	orrs	r3, r2
 8000fe8:	613b      	str	r3, [r7, #16]
        }
        EXTI->RTSR1 = temp;
 8000fea:	4b2a      	ldr	r3, [pc, #168]	@ (8001094 <HAL_GPIO_Init+0x2b8>)
 8000fec:	693a      	ldr	r2, [r7, #16]
 8000fee:	601a      	str	r2, [r3, #0]

        temp = EXTI->FTSR1;
 8000ff0:	4b28      	ldr	r3, [pc, #160]	@ (8001094 <HAL_GPIO_Init+0x2b8>)
 8000ff2:	685b      	ldr	r3, [r3, #4]
 8000ff4:	613b      	str	r3, [r7, #16]
        temp &= ~(iocurrent);
 8000ff6:	68fb      	ldr	r3, [r7, #12]
 8000ff8:	43da      	mvns	r2, r3
 8000ffa:	693b      	ldr	r3, [r7, #16]
 8000ffc:	4013      	ands	r3, r2
 8000ffe:	613b      	str	r3, [r7, #16]
        if ((GPIO_Init->Mode & TRIGGER_FALLING) != 0x00u)
 8001000:	683b      	ldr	r3, [r7, #0]
 8001002:	685a      	ldr	r2, [r3, #4]
 8001004:	2380      	movs	r3, #128	@ 0x80
 8001006:	039b      	lsls	r3, r3, #14
 8001008:	4013      	ands	r3, r2
 800100a:	d003      	beq.n	8001014 <HAL_GPIO_Init+0x238>
        {
          temp |= iocurrent;
 800100c:	693a      	ldr	r2, [r7, #16]
 800100e:	68fb      	ldr	r3, [r7, #12]
 8001010:	4313      	orrs	r3, r2
 8001012:	613b      	str	r3, [r7, #16]
        }
        EXTI->FTSR1 = temp;
 8001014:	4b1f      	ldr	r3, [pc, #124]	@ (8001094 <HAL_GPIO_Init+0x2b8>)
 8001016:	693a      	ldr	r2, [r7, #16]
 8001018:	605a      	str	r2, [r3, #4]

        /* Clear EXTI line configuration */
        temp = EXTI->EMR1;
 800101a:	4a1e      	ldr	r2, [pc, #120]	@ (8001094 <HAL_GPIO_Init+0x2b8>)
 800101c:	2384      	movs	r3, #132	@ 0x84
 800101e:	58d3      	ldr	r3, [r2, r3]
 8001020:	613b      	str	r3, [r7, #16]
        temp &= ~(iocurrent);
 8001022:	68fb      	ldr	r3, [r7, #12]
 8001024:	43da      	mvns	r2, r3
 8001026:	693b      	ldr	r3, [r7, #16]
 8001028:	4013      	ands	r3, r2
 800102a:	613b      	str	r3, [r7, #16]
        if ((GPIO_Init->Mode & EXTI_EVT) != 0x00u)
 800102c:	683b      	ldr	r3, [r7, #0]
 800102e:	685a      	ldr	r2, [r3, #4]
 8001030:	2380      	movs	r3, #128	@ 0x80
 8001032:	029b      	lsls	r3, r3, #10
 8001034:	4013      	ands	r3, r2
 8001036:	d003      	beq.n	8001040 <HAL_GPIO_Init+0x264>
        {
          temp |= iocurrent;
 8001038:	693a      	ldr	r2, [r7, #16]
 800103a:	68fb      	ldr	r3, [r7, #12]
 800103c:	4313      	orrs	r3, r2
 800103e:	613b      	str	r3, [r7, #16]
        }
        EXTI->EMR1 = temp;
 8001040:	4914      	ldr	r1, [pc, #80]	@ (8001094 <HAL_GPIO_Init+0x2b8>)
 8001042:	2284      	movs	r2, #132	@ 0x84
 8001044:	693b      	ldr	r3, [r7, #16]
 8001046:	508b      	str	r3, [r1, r2]

        temp = EXTI->IMR1;
 8001048:	4a12      	ldr	r2, [pc, #72]	@ (8001094 <HAL_GPIO_Init+0x2b8>)
 800104a:	2380      	movs	r3, #128	@ 0x80
 800104c:	58d3      	ldr	r3, [r2, r3]
 800104e:	613b      	str	r3, [r7, #16]
        temp &= ~(iocurrent);
 8001050:	68fb      	ldr	r3, [r7, #12]
 8001052:	43da      	mvns	r2, r3
 8001054:	693b      	ldr	r3, [r7, #16]
 8001056:	4013      	ands	r3, r2
 8001058:	613b      	str	r3, [r7, #16]
        if ((GPIO_Init->Mode & EXTI_IT) != 0x00u)
 800105a:	683b      	ldr	r3, [r7, #0]
 800105c:	685a      	ldr	r2, [r3, #4]
 800105e:	2380      	movs	r3, #128	@ 0x80
 8001060:	025b      	lsls	r3, r3, #9
 8001062:	4013      	ands	r3, r2
 8001064:	d003      	beq.n	800106e <HAL_GPIO_Init+0x292>
        {
          temp |= iocurrent;
 8001066:	693a      	ldr	r2, [r7, #16]
 8001068:	68fb      	ldr	r3, [r7, #12]
 800106a:	4313      	orrs	r3, r2
 800106c:	613b      	str	r3, [r7, #16]
        }
        EXTI->IMR1 = temp;
 800106e:	4909      	ldr	r1, [pc, #36]	@ (8001094 <HAL_GPIO_Init+0x2b8>)
 8001070:	2280      	movs	r2, #128	@ 0x80
 8001072:	693b      	ldr	r3, [r7, #16]
 8001074:	508b      	str	r3, [r1, r2]
      }
    }

    position++;
 8001076:	697b      	ldr	r3, [r7, #20]
 8001078:	3301      	adds	r3, #1
 800107a:	617b      	str	r3, [r7, #20]
  while (((GPIO_Init->Pin) >> position) != 0x00u)
 800107c:	683b      	ldr	r3, [r7, #0]
 800107e:	681a      	ldr	r2, [r3, #0]
 8001080:	697b      	ldr	r3, [r7, #20]
 8001082:	40da      	lsrs	r2, r3
 8001084:	1e13      	subs	r3, r2, #0
 8001086:	d000      	beq.n	800108a <HAL_GPIO_Init+0x2ae>
 8001088:	e6b0      	b.n	8000dec <HAL_GPIO_Init+0x10>
  }
}
 800108a:	46c0      	nop			@ (mov r8, r8)
 800108c:	46c0      	nop			@ (mov r8, r8)
 800108e:	46bd      	mov	sp, r7
 8001090:	b006      	add	sp, #24
 8001092:	bd80      	pop	{r7, pc}
 8001094:	40021800 	.word	0x40021800
 8001098:	50000400 	.word	0x50000400
 800109c:	50000800 	.word	0x50000800
 80010a0:	50000c00 	.word	0x50000c00

080010a4 <HAL_GPIO_WritePin>:
  *            @arg GPIO_PIN_RESET: to clear the port pin
  *            @arg GPIO_PIN_SET: to set the port pin
  * @retval None
  */
void HAL_GPIO_WritePin(GPIO_TypeDef *GPIOx, uint16_t GPIO_Pin, GPIO_PinState PinState)
{
 80010a4:	b580      	push	{r7, lr}
 80010a6:	b082      	sub	sp, #8
 80010a8:	af00      	add	r7, sp, #0
 80010aa:	6078      	str	r0, [r7, #4]
 80010ac:	0008      	movs	r0, r1
 80010ae:	0011      	movs	r1, r2
 80010b0:	1cbb      	adds	r3, r7, #2
 80010b2:	1c02      	adds	r2, r0, #0
 80010b4:	801a      	strh	r2, [r3, #0]
 80010b6:	1c7b      	adds	r3, r7, #1
 80010b8:	1c0a      	adds	r2, r1, #0
 80010ba:	701a      	strb	r2, [r3, #0]
  /* Check the parameters */
  assert_param(IS_GPIO_PIN(GPIO_Pin));
  assert_param(IS_GPIO_PIN_ACTION(PinState));

  if (PinState != GPIO_PIN_RESET)
 80010bc:	1c7b      	adds	r3, r7, #1
 80010be:	781b      	ldrb	r3, [r3, #0]
 80010c0:	2b00      	cmp	r3, #0
 80010c2:	d004      	beq.n	80010ce <HAL_GPIO_WritePin+0x2a>
  {
    GPIOx->BSRR = (uint32_t)GPIO_Pin;
 80010c4:	1cbb      	adds	r3, r7, #2
 80010c6:	881a      	ldrh	r2, [r3, #0]
 80010c8:	687b      	ldr	r3, [r7, #4]
 80010ca:	619a      	str	r2, [r3, #24]
  }
  else
  {
    GPIOx->BRR = (uint32_t)GPIO_Pin;
  }
}
 80010cc:	e003      	b.n	80010d6 <HAL_GPIO_WritePin+0x32>
    GPIOx->BRR = (uint32_t)GPIO_Pin;
 80010ce:	1cbb      	adds	r3, r7, #2
 80010d0:	881a      	ldrh	r2, [r3, #0]
 80010d2:	687b      	ldr	r3, [r7, #4]
 80010d4:	629a      	str	r2, [r3, #40]	@ 0x28
}
 80010d6:	46c0      	nop			@ (mov r8, r8)
 80010d8:	46bd      	mov	sp, r7
 80010da:	b002      	add	sp, #8
 80010dc:	bd80      	pop	{r7, pc}

080010de <HAL_GPIO_TogglePin>:
  * @param  GPIO_Pin specifies the pin to be toggled.
  *         This parameter can be any combination of GPIO_Pin_x where x can be (0..15).
  * @retval None
  */
void HAL_GPIO_TogglePin(GPIO_TypeDef *GPIOx, uint16_t GPIO_Pin)
{
 80010de:	b580      	push	{r7, lr}
 80010e0:	b084      	sub	sp, #16
 80010e2:	af00      	add	r7, sp, #0
 80010e4:	6078      	str	r0, [r7, #4]
 80010e6:	000a      	movs	r2, r1
 80010e8:	1cbb      	adds	r3, r7, #2
 80010ea:	801a      	strh	r2, [r3, #0]

  /* Check the parameters */
  assert_param(IS_GPIO_PIN(GPIO_Pin));

  /* get current Output Data Register value */
  odr = GPIOx->ODR;
 80010ec:	687b      	ldr	r3, [r7, #4]
 80010ee:	695b      	ldr	r3, [r3, #20]
 80010f0:	60fb      	str	r3, [r7, #12]

  /* Set selected pins that were at low level, and reset ones that were high */
  GPIOx->BSRR = ((odr & GPIO_Pin) << GPIO_NUMBER) | (~odr & GPIO_Pin);
 80010f2:	1cbb      	adds	r3, r7, #2
 80010f4:	881b      	ldrh	r3, [r3, #0]
 80010f6:	68fa      	ldr	r2, [r7, #12]
 80010f8:	4013      	ands	r3, r2
 80010fa:	041a      	lsls	r2, r3, #16
 80010fc:	68fb      	ldr	r3, [r7, #12]
 80010fe:	43db      	mvns	r3, r3
 8001100:	1cb9      	adds	r1, r7, #2
 8001102:	8809      	ldrh	r1, [r1, #0]
 8001104:	400b      	ands	r3, r1
 8001106:	431a      	orrs	r2, r3
 8001108:	687b      	ldr	r3, [r7, #4]
 800110a:	619a      	str	r2, [r3, #24]
}
 800110c:	46c0      	nop			@ (mov r8, r8)
 800110e:	46bd      	mov	sp, r7
 8001110:	b004      	add	sp, #16
 8001112:	bd80      	pop	{r7, pc}

08001114 <HAL_PWREx_ControlVoltageScaling>:
  *        cleared before returning the status. If the flag is not cleared within
  *        6 microseconds, HAL_TIMEOUT status is reported.
  * @retval HAL Status
  */
HAL_StatusTypeDef HAL_PWREx_ControlVoltageScaling(uint32_t VoltageScaling)
{
 8001114:	b580      	push	{r7, lr}
 8001116:	b084      	sub	sp, #16
 8001118:	af00      	add	r7, sp, #0
 800111a:	6078      	str	r0, [r7, #4]
  uint32_t wait_loop_index;

  assert_param(IS_PWR_VOLTAGE_SCALING_RANGE(VoltageScaling));

  /* Modify voltage scaling range */
  MODIFY_REG(PWR->CR1, PWR_CR1_VOS, VoltageScaling);
 800111c:	4b19      	ldr	r3, [pc, #100]	@ (8001184 <HAL_PWREx_ControlVoltageScaling+0x70>)
 800111e:	681b      	ldr	r3, [r3, #0]
 8001120:	4a19      	ldr	r2, [pc, #100]	@ (8001188 <HAL_PWREx_ControlVoltageScaling+0x74>)
 8001122:	4013      	ands	r3, r2
 8001124:	0019      	movs	r1, r3
 8001126:	4b17      	ldr	r3, [pc, #92]	@ (8001184 <HAL_PWREx_ControlVoltageScaling+0x70>)
 8001128:	687a      	ldr	r2, [r7, #4]
 800112a:	430a      	orrs	r2, r1
 800112c:	601a      	str	r2, [r3, #0]

  /* In case of Range 1 selected, we need to ensure that main regulator reaches new value */
  if (VoltageScaling == PWR_REGULATOR_VOLTAGE_SCALE1)
 800112e:	687a      	ldr	r2, [r7, #4]
 8001130:	2380      	movs	r3, #128	@ 0x80
 8001132:	009b      	lsls	r3, r3, #2
 8001134:	429a      	cmp	r2, r3
 8001136:	d11f      	bne.n	8001178 <HAL_PWREx_ControlVoltageScaling+0x64>
  {
    /* Set timeout value */
    wait_loop_index = ((PWR_VOSF_SETTING_DELAY_6_US * SystemCoreClock) / 1000000U) + 1U;
 8001138:	4b14      	ldr	r3, [pc, #80]	@ (800118c <HAL_PWREx_ControlVoltageScaling+0x78>)
 800113a:	681a      	ldr	r2, [r3, #0]
 800113c:	0013      	movs	r3, r2
 800113e:	005b      	lsls	r3, r3, #1
 8001140:	189b      	adds	r3, r3, r2
 8001142:	005b      	lsls	r3, r3, #1
 8001144:	4912      	ldr	r1, [pc, #72]	@ (8001190 <HAL_PWREx_ControlVoltageScaling+0x7c>)
 8001146:	0018      	movs	r0, r3
 8001148:	f7fe ffdc 	bl	8000104 <__udivsi3>
 800114c:	0003      	movs	r3, r0
 800114e:	3301      	adds	r3, #1
 8001150:	60fb      	str	r3, [r7, #12]

    /* Wait until VOSF is reset */
    while (HAL_IS_BIT_SET(PWR->SR2, PWR_SR2_VOSF))
 8001152:	e008      	b.n	8001166 <HAL_PWREx_ControlVoltageScaling+0x52>
    {
      if (wait_loop_index != 0U)
 8001154:	68fb      	ldr	r3, [r7, #12]
 8001156:	2b00      	cmp	r3, #0
 8001158:	d003      	beq.n	8001162 <HAL_PWREx_ControlVoltageScaling+0x4e>
      {
        wait_loop_index--;
 800115a:	68fb      	ldr	r3, [r7, #12]
 800115c:	3b01      	subs	r3, #1
 800115e:	60fb      	str	r3, [r7, #12]
 8001160:	e001      	b.n	8001166 <HAL_PWREx_ControlVoltageScaling+0x52>
      }
      else
      {
        return HAL_TIMEOUT;
 8001162:	2303      	movs	r3, #3
 8001164:	e009      	b.n	800117a <HAL_PWREx_ControlVoltageScaling+0x66>
    while (HAL_IS_BIT_SET(PWR->SR2, PWR_SR2_VOSF))
 8001166:	4b07      	ldr	r3, [pc, #28]	@ (8001184 <HAL_PWREx_ControlVoltageScaling+0x70>)
 8001168:	695a      	ldr	r2, [r3, #20]
 800116a:	2380      	movs	r3, #128	@ 0x80
 800116c:	00db      	lsls	r3, r3, #3
 800116e:	401a      	ands	r2, r3
 8001170:	2380      	movs	r3, #128	@ 0x80
 8001172:	00db      	lsls	r3, r3, #3
 8001174:	429a      	cmp	r2, r3
 8001176:	d0ed      	beq.n	8001154 <HAL_PWREx_ControlVoltageScaling+0x40>
      }
    }
  }

  return HAL_OK;
 8001178:	2300      	movs	r3, #0
}
 800117a:	0018      	movs	r0, r3
 800117c:	46bd      	mov	sp, r7
 800117e:	b004      	add	sp, #16
 8001180:	bd80      	pop	{r7, pc}
 8001182:	46c0      	nop			@ (mov r8, r8)
 8001184:	40007000 	.word	0x40007000
 8001188:	fffff9ff 	.word	0xfffff9ff
 800118c:	20000000 	.word	0x20000000
 8001190:	000f4240 	.word	0x000f4240

08001194 <LL_RCC_GetAPB1Prescaler>:
  *         @arg @ref LL_RCC_APB1_DIV_4
  *         @arg @ref LL_RCC_APB1_DIV_8
  *         @arg @ref LL_RCC_APB1_DIV_16
  */
__STATIC_INLINE uint32_t LL_RCC_GetAPB1Prescaler(void)
{
 8001194:	b580      	push	{r7, lr}
 8001196:	af00      	add	r7, sp, #0
  return (uint32_t)(READ_BIT(RCC->CFGR, RCC_CFGR_PPRE));
 8001198:	4b03      	ldr	r3, [pc, #12]	@ (80011a8 <LL_RCC_GetAPB1Prescaler+0x14>)
 800119a:	689a      	ldr	r2, [r3, #8]
 800119c:	23e0      	movs	r3, #224	@ 0xe0
 800119e:	01db      	lsls	r3, r3, #7
 80011a0:	4013      	ands	r3, r2
}
 80011a2:	0018      	movs	r0, r3
 80011a4:	46bd      	mov	sp, r7
 80011a6:	bd80      	pop	{r7, pc}
 80011a8:	40021000 	.word	0x40021000

080011ac <HAL_RCC_OscConfig>:
  *         supported by this function. User should request a transition to LSE Off
  *         first and then to LSE On or LSE Bypass.
  * @retval HAL status
  */
HAL_StatusTypeDef HAL_RCC_OscConfig(RCC_OscInitTypeDef  *RCC_OscInitStruct)
{
 80011ac:	b580      	push	{r7, lr}
 80011ae:	b088      	sub	sp, #32
 80011b0:	af00      	add	r7, sp, #0
 80011b2:	6078      	str	r0, [r7, #4]
  uint32_t tickstart;
  uint32_t temp_sysclksrc;
  uint32_t temp_pllckcfg;

  /* Check Null pointer */
  if (RCC_OscInitStruct == NULL)
 80011b4:	687b      	ldr	r3, [r7, #4]
 80011b6:	2b00      	cmp	r3, #0
 80011b8:	d101      	bne.n	80011be <HAL_RCC_OscConfig+0x12>
  {
    return HAL_ERROR;
 80011ba:	2301      	movs	r3, #1
 80011bc:	e2fe      	b.n	80017bc <HAL_RCC_OscConfig+0x610>

  /* Check the parameters */
  assert_param(IS_RCC_OSCILLATORTYPE(RCC_OscInitStruct->OscillatorType));

  /*------------------------------- HSE Configuration ------------------------*/
  if (((RCC_OscInitStruct->OscillatorType) & RCC_OSCILLATORTYPE_HSE) == RCC_OSCILLATORTYPE_HSE)
 80011be:	687b      	ldr	r3, [r7, #4]
 80011c0:	681b      	ldr	r3, [r3, #0]
 80011c2:	2201      	movs	r2, #1
 80011c4:	4013      	ands	r3, r2
 80011c6:	d100      	bne.n	80011ca <HAL_RCC_OscConfig+0x1e>
 80011c8:	e07c      	b.n	80012c4 <HAL_RCC_OscConfig+0x118>
  {
    /* Check the parameters */
    assert_param(IS_RCC_HSE(RCC_OscInitStruct->HSEState));

    temp_sysclksrc = __HAL_RCC_GET_SYSCLK_SOURCE();
 80011ca:	4bc3      	ldr	r3, [pc, #780]	@ (80014d8 <HAL_RCC_OscConfig+0x32c>)
 80011cc:	689b      	ldr	r3, [r3, #8]
 80011ce:	2238      	movs	r2, #56	@ 0x38
 80011d0:	4013      	ands	r3, r2
 80011d2:	61bb      	str	r3, [r7, #24]
    temp_pllckcfg = __HAL_RCC_GET_PLL_OSCSOURCE();
 80011d4:	4bc0      	ldr	r3, [pc, #768]	@ (80014d8 <HAL_RCC_OscConfig+0x32c>)
 80011d6:	68db      	ldr	r3, [r3, #12]
 80011d8:	2203      	movs	r2, #3
 80011da:	4013      	ands	r3, r2
 80011dc:	617b      	str	r3, [r7, #20]

    /* When the HSE is used as system clock or clock source for PLL in these cases it is not allowed to be disabled */
    if (((temp_sysclksrc == RCC_SYSCLKSOURCE_STATUS_PLLCLK) && (temp_pllckcfg == RCC_PLLSOURCE_HSE))
 80011de:	69bb      	ldr	r3, [r7, #24]
 80011e0:	2b10      	cmp	r3, #16
 80011e2:	d102      	bne.n	80011ea <HAL_RCC_OscConfig+0x3e>
 80011e4:	697b      	ldr	r3, [r7, #20]
 80011e6:	2b03      	cmp	r3, #3
 80011e8:	d002      	beq.n	80011f0 <HAL_RCC_OscConfig+0x44>
        || (temp_sysclksrc == RCC_SYSCLKSOURCE_STATUS_HSE))
 80011ea:	69bb      	ldr	r3, [r7, #24]
 80011ec:	2b08      	cmp	r3, #8
 80011ee:	d10b      	bne.n	8001208 <HAL_RCC_OscConfig+0x5c>
    {
      if ((READ_BIT(RCC->CR, RCC_CR_HSERDY) != 0U) && (RCC_OscInitStruct->HSEState == RCC_HSE_OFF))
 80011f0:	4bb9      	ldr	r3, [pc, #740]	@ (80014d8 <HAL_RCC_OscConfig+0x32c>)
 80011f2:	681a      	ldr	r2, [r3, #0]
 80011f4:	2380      	movs	r3, #128	@ 0x80
 80011f6:	029b      	lsls	r3, r3, #10
 80011f8:	4013      	ands	r3, r2
 80011fa:	d062      	beq.n	80012c2 <HAL_RCC_OscConfig+0x116>
 80011fc:	687b      	ldr	r3, [r7, #4]
 80011fe:	685b      	ldr	r3, [r3, #4]
 8001200:	2b00      	cmp	r3, #0
 8001202:	d15e      	bne.n	80012c2 <HAL_RCC_OscConfig+0x116>
      {
        return HAL_ERROR;
 8001204:	2301      	movs	r3, #1
 8001206:	e2d9      	b.n	80017bc <HAL_RCC_OscConfig+0x610>
      }
    }
    else
    {
      /* Set the new HSE configuration ---------------------------------------*/
      __HAL_RCC_HSE_CONFIG(RCC_OscInitStruct->HSEState);
 8001208:	687b      	ldr	r3, [r7, #4]
 800120a:	685a      	ldr	r2, [r3, #4]
 800120c:	2380      	movs	r3, #128	@ 0x80
 800120e:	025b      	lsls	r3, r3, #9
 8001210:	429a      	cmp	r2, r3
 8001212:	d107      	bne.n	8001224 <HAL_RCC_OscConfig+0x78>
 8001214:	4bb0      	ldr	r3, [pc, #704]	@ (80014d8 <HAL_RCC_OscConfig+0x32c>)
 8001216:	681a      	ldr	r2, [r3, #0]
 8001218:	4baf      	ldr	r3, [pc, #700]	@ (80014d8 <HAL_RCC_OscConfig+0x32c>)
 800121a:	2180      	movs	r1, #128	@ 0x80
 800121c:	0249      	lsls	r1, r1, #9
 800121e:	430a      	orrs	r2, r1
 8001220:	601a      	str	r2, [r3, #0]
 8001222:	e020      	b.n	8001266 <HAL_RCC_OscConfig+0xba>
 8001224:	687b      	ldr	r3, [r7, #4]
 8001226:	685a      	ldr	r2, [r3, #4]
 8001228:	23a0      	movs	r3, #160	@ 0xa0
 800122a:	02db      	lsls	r3, r3, #11
 800122c:	429a      	cmp	r2, r3
 800122e:	d10e      	bne.n	800124e <HAL_RCC_OscConfig+0xa2>
 8001230:	4ba9      	ldr	r3, [pc, #676]	@ (80014d8 <HAL_RCC_OscConfig+0x32c>)
 8001232:	681a      	ldr	r2, [r3, #0]
 8001234:	4ba8      	ldr	r3, [pc, #672]	@ (80014d8 <HAL_RCC_OscConfig+0x32c>)
 8001236:	2180      	movs	r1, #128	@ 0x80
 8001238:	02c9      	lsls	r1, r1, #11
 800123a:	430a      	orrs	r2, r1
 800123c:	601a      	str	r2, [r3, #0]
 800123e:	4ba6      	ldr	r3, [pc, #664]	@ (80014d8 <HAL_RCC_OscConfig+0x32c>)
 8001240:	681a      	ldr	r2, [r3, #0]
 8001242:	4ba5      	ldr	r3, [pc, #660]	@ (80014d8 <HAL_RCC_OscConfig+0x32c>)
 8001244:	2180      	movs	r1, #128	@ 0x80
 8001246:	0249      	lsls	r1, r1, #9
 8001248:	430a      	orrs	r2, r1
 800124a:	601a      	str	r2, [r3, #0]
 800124c:	e00b      	b.n	8001266 <HAL_RCC_OscConfig+0xba>
 800124e:	4ba2      	ldr	r3, [pc, #648]	@ (80014d8 <HAL_RCC_OscConfig+0x32c>)
 8001250:	681a      	ldr	r2, [r3, #0]
 8001252:	4ba1      	ldr	r3, [pc, #644]	@ (80014d8 <HAL_RCC_OscConfig+0x32c>)
 8001254:	49a1      	ldr	r1, [pc, #644]	@ (80014dc <HAL_RCC_OscConfig+0x330>)
 8001256:	400a      	ands	r2, r1
 8001258:	601a      	str	r2, [r3, #0]
 800125a:	4b9f      	ldr	r3, [pc, #636]	@ (80014d8 <HAL_RCC_OscConfig+0x32c>)
 800125c:	681a      	ldr	r2, [r3, #0]
 800125e:	4b9e      	ldr	r3, [pc, #632]	@ (80014d8 <HAL_RCC_OscConfig+0x32c>)
 8001260:	499f      	ldr	r1, [pc, #636]	@ (80014e0 <HAL_RCC_OscConfig+0x334>)
 8001262:	400a      	ands	r2, r1
 8001264:	601a      	str	r2, [r3, #0]

      /* Check the HSE State */
      if (RCC_OscInitStruct->HSEState != RCC_HSE_OFF)
 8001266:	687b      	ldr	r3, [r7, #4]
 8001268:	685b      	ldr	r3, [r3, #4]
 800126a:	2b00      	cmp	r3, #0
 800126c:	d014      	beq.n	8001298 <HAL_RCC_OscConfig+0xec>
      {
        /* Get Start Tick*/
        tickstart = HAL_GetTick();
 800126e:	f7ff fcd3 	bl	8000c18 <HAL_GetTick>
 8001272:	0003      	movs	r3, r0
 8001274:	613b      	str	r3, [r7, #16]

        /* Wait till HSE is ready */
        while (READ_BIT(RCC->CR, RCC_CR_HSERDY) == 0U)
 8001276:	e008      	b.n	800128a <HAL_RCC_OscConfig+0xde>
        {
          if ((HAL_GetTick() - tickstart) > HSE_TIMEOUT_VALUE)
 8001278:	f7ff fcce 	bl	8000c18 <HAL_GetTick>
 800127c:	0002      	movs	r2, r0
 800127e:	693b      	ldr	r3, [r7, #16]
 8001280:	1ad3      	subs	r3, r2, r3
 8001282:	2b64      	cmp	r3, #100	@ 0x64
 8001284:	d901      	bls.n	800128a <HAL_RCC_OscConfig+0xde>
          {
            return HAL_TIMEOUT;
 8001286:	2303      	movs	r3, #3
 8001288:	e298      	b.n	80017bc <HAL_RCC_OscConfig+0x610>
        while (READ_BIT(RCC->CR, RCC_CR_HSERDY) == 0U)
 800128a:	4b93      	ldr	r3, [pc, #588]	@ (80014d8 <HAL_RCC_OscConfig+0x32c>)
 800128c:	681a      	ldr	r2, [r3, #0]
 800128e:	2380      	movs	r3, #128	@ 0x80
 8001290:	029b      	lsls	r3, r3, #10
 8001292:	4013      	ands	r3, r2
 8001294:	d0f0      	beq.n	8001278 <HAL_RCC_OscConfig+0xcc>
 8001296:	e015      	b.n	80012c4 <HAL_RCC_OscConfig+0x118>
        }
      }
      else
      {
        /* Get Start Tick*/
        tickstart = HAL_GetTick();
 8001298:	f7ff fcbe 	bl	8000c18 <HAL_GetTick>
 800129c:	0003      	movs	r3, r0
 800129e:	613b      	str	r3, [r7, #16]

        /* Wait till HSE is disabled */
        while (READ_BIT(RCC->CR, RCC_CR_HSERDY) != 0U)
 80012a0:	e008      	b.n	80012b4 <HAL_RCC_OscConfig+0x108>
        {
          if ((HAL_GetTick() - tickstart) > HSE_TIMEOUT_VALUE)
 80012a2:	f7ff fcb9 	bl	8000c18 <HAL_GetTick>
 80012a6:	0002      	movs	r2, r0
 80012a8:	693b      	ldr	r3, [r7, #16]
 80012aa:	1ad3      	subs	r3, r2, r3
 80012ac:	2b64      	cmp	r3, #100	@ 0x64
 80012ae:	d901      	bls.n	80012b4 <HAL_RCC_OscConfig+0x108>
          {
            return HAL_TIMEOUT;
 80012b0:	2303      	movs	r3, #3
 80012b2:	e283      	b.n	80017bc <HAL_RCC_OscConfig+0x610>
        while (READ_BIT(RCC->CR, RCC_CR_HSERDY) != 0U)
 80012b4:	4b88      	ldr	r3, [pc, #544]	@ (80014d8 <HAL_RCC_OscConfig+0x32c>)
 80012b6:	681a      	ldr	r2, [r3, #0]
 80012b8:	2380      	movs	r3, #128	@ 0x80
 80012ba:	029b      	lsls	r3, r3, #10
 80012bc:	4013      	ands	r3, r2
 80012be:	d1f0      	bne.n	80012a2 <HAL_RCC_OscConfig+0xf6>
 80012c0:	e000      	b.n	80012c4 <HAL_RCC_OscConfig+0x118>
      if ((READ_BIT(RCC->CR, RCC_CR_HSERDY) != 0U) && (RCC_OscInitStruct->HSEState == RCC_HSE_OFF))
 80012c2:	46c0      	nop			@ (mov r8, r8)
        }
      }
    }
  }
  /*----------------------------- HSI Configuration --------------------------*/
  if (((RCC_OscInitStruct->OscillatorType) & RCC_OSCILLATORTYPE_HSI) == RCC_OSCILLATORTYPE_HSI)
 80012c4:	687b      	ldr	r3, [r7, #4]
 80012c6:	681b      	ldr	r3, [r3, #0]
 80012c8:	2202      	movs	r2, #2
 80012ca:	4013      	ands	r3, r2
 80012cc:	d100      	bne.n	80012d0 <HAL_RCC_OscConfig+0x124>
 80012ce:	e099      	b.n	8001404 <HAL_RCC_OscConfig+0x258>
    assert_param(IS_RCC_HSI(RCC_OscInitStruct->HSIState));
    assert_param(IS_RCC_HSI_CALIBRATION_VALUE(RCC_OscInitStruct->HSICalibrationValue));
    assert_param(IS_RCC_HSIDIV(RCC_OscInitStruct->HSIDiv));

    /* Check if HSI16 is used as system clock or as PLL source when PLL is selected as system clock */
    temp_sysclksrc = __HAL_RCC_GET_SYSCLK_SOURCE();
 80012d0:	4b81      	ldr	r3, [pc, #516]	@ (80014d8 <HAL_RCC_OscConfig+0x32c>)
 80012d2:	689b      	ldr	r3, [r3, #8]
 80012d4:	2238      	movs	r2, #56	@ 0x38
 80012d6:	4013      	ands	r3, r2
 80012d8:	61bb      	str	r3, [r7, #24]
    temp_pllckcfg = __HAL_RCC_GET_PLL_OSCSOURCE();
 80012da:	4b7f      	ldr	r3, [pc, #508]	@ (80014d8 <HAL_RCC_OscConfig+0x32c>)
 80012dc:	68db      	ldr	r3, [r3, #12]
 80012de:	2203      	movs	r2, #3
 80012e0:	4013      	ands	r3, r2
 80012e2:	617b      	str	r3, [r7, #20]
    if (((temp_sysclksrc == RCC_SYSCLKSOURCE_STATUS_PLLCLK) && (temp_pllckcfg == RCC_PLLSOURCE_HSI))
 80012e4:	69bb      	ldr	r3, [r7, #24]
 80012e6:	2b10      	cmp	r3, #16
 80012e8:	d102      	bne.n	80012f0 <HAL_RCC_OscConfig+0x144>
 80012ea:	697b      	ldr	r3, [r7, #20]
 80012ec:	2b02      	cmp	r3, #2
 80012ee:	d002      	beq.n	80012f6 <HAL_RCC_OscConfig+0x14a>
        || (temp_sysclksrc == RCC_SYSCLKSOURCE_STATUS_HSI))
 80012f0:	69bb      	ldr	r3, [r7, #24]
 80012f2:	2b00      	cmp	r3, #0
 80012f4:	d135      	bne.n	8001362 <HAL_RCC_OscConfig+0x1b6>
    {
      /* When HSI is used as system clock or as PLL input clock it can not be disabled */
      if ((READ_BIT(RCC->CR, RCC_CR_HSIRDY) != 0U) && (RCC_OscInitStruct->HSIState == RCC_HSI_OFF))
 80012f6:	4b78      	ldr	r3, [pc, #480]	@ (80014d8 <HAL_RCC_OscConfig+0x32c>)
 80012f8:	681a      	ldr	r2, [r3, #0]
 80012fa:	2380      	movs	r3, #128	@ 0x80
 80012fc:	00db      	lsls	r3, r3, #3
 80012fe:	4013      	ands	r3, r2
 8001300:	d005      	beq.n	800130e <HAL_RCC_OscConfig+0x162>
 8001302:	687b      	ldr	r3, [r7, #4]
 8001304:	68db      	ldr	r3, [r3, #12]
 8001306:	2b00      	cmp	r3, #0
 8001308:	d101      	bne.n	800130e <HAL_RCC_OscConfig+0x162>
      {
        return HAL_ERROR;
 800130a:	2301      	movs	r3, #1
 800130c:	e256      	b.n	80017bc <HAL_RCC_OscConfig+0x610>
      }
      /* Otherwise, just the calibration is allowed */
      else
      {
        /* Adjusts the Internal High Speed oscillator (HSI) calibration value.*/
        __HAL_RCC_HSI_CALIBRATIONVALUE_ADJUST(RCC_OscInitStruct->HSICalibrationValue);
 800130e:	4b72      	ldr	r3, [pc, #456]	@ (80014d8 <HAL_RCC_OscConfig+0x32c>)
 8001310:	685b      	ldr	r3, [r3, #4]
 8001312:	4a74      	ldr	r2, [pc, #464]	@ (80014e4 <HAL_RCC_OscConfig+0x338>)
 8001314:	4013      	ands	r3, r2
 8001316:	0019      	movs	r1, r3
 8001318:	687b      	ldr	r3, [r7, #4]
 800131a:	695b      	ldr	r3, [r3, #20]
 800131c:	021a      	lsls	r2, r3, #8
 800131e:	4b6e      	ldr	r3, [pc, #440]	@ (80014d8 <HAL_RCC_OscConfig+0x32c>)
 8001320:	430a      	orrs	r2, r1
 8001322:	605a      	str	r2, [r3, #4]

        if (temp_sysclksrc == RCC_SYSCLKSOURCE_STATUS_HSI)
 8001324:	69bb      	ldr	r3, [r7, #24]
 8001326:	2b00      	cmp	r3, #0
 8001328:	d112      	bne.n	8001350 <HAL_RCC_OscConfig+0x1a4>
        {
          /* Adjust the HSI16 division factor */
          __HAL_RCC_HSI_CONFIG(RCC_OscInitStruct->HSIDiv);
 800132a:	4b6b      	ldr	r3, [pc, #428]	@ (80014d8 <HAL_RCC_OscConfig+0x32c>)
 800132c:	681b      	ldr	r3, [r3, #0]
 800132e:	4a6e      	ldr	r2, [pc, #440]	@ (80014e8 <HAL_RCC_OscConfig+0x33c>)
 8001330:	4013      	ands	r3, r2
 8001332:	0019      	movs	r1, r3
 8001334:	687b      	ldr	r3, [r7, #4]
 8001336:	691a      	ldr	r2, [r3, #16]
 8001338:	4b67      	ldr	r3, [pc, #412]	@ (80014d8 <HAL_RCC_OscConfig+0x32c>)
 800133a:	430a      	orrs	r2, r1
 800133c:	601a      	str	r2, [r3, #0]

          /* Update the SystemCoreClock global variable with HSISYS value  */
          SystemCoreClock = (HSI_VALUE / (1UL << ((READ_BIT(RCC->CR, RCC_CR_HSIDIV)) >> RCC_CR_HSIDIV_Pos)));
 800133e:	4b66      	ldr	r3, [pc, #408]	@ (80014d8 <HAL_RCC_OscConfig+0x32c>)
 8001340:	681b      	ldr	r3, [r3, #0]
 8001342:	0adb      	lsrs	r3, r3, #11
 8001344:	2207      	movs	r2, #7
 8001346:	4013      	ands	r3, r2
 8001348:	4a68      	ldr	r2, [pc, #416]	@ (80014ec <HAL_RCC_OscConfig+0x340>)
 800134a:	40da      	lsrs	r2, r3
 800134c:	4b68      	ldr	r3, [pc, #416]	@ (80014f0 <HAL_RCC_OscConfig+0x344>)
 800134e:	601a      	str	r2, [r3, #0]
        }

        /* Adapt Systick interrupt period */
        if (HAL_InitTick(uwTickPrio) != HAL_OK)
 8001350:	4b68      	ldr	r3, [pc, #416]	@ (80014f4 <HAL_RCC_OscConfig+0x348>)
 8001352:	681b      	ldr	r3, [r3, #0]
 8001354:	0018      	movs	r0, r3
 8001356:	f7ff fc03 	bl	8000b60 <HAL_InitTick>
 800135a:	1e03      	subs	r3, r0, #0
 800135c:	d051      	beq.n	8001402 <HAL_RCC_OscConfig+0x256>
        {
          return HAL_ERROR;
 800135e:	2301      	movs	r3, #1
 8001360:	e22c      	b.n	80017bc <HAL_RCC_OscConfig+0x610>
      }
    }
    else
    {
      /* Check the HSI State */
      if (RCC_OscInitStruct->HSIState != RCC_HSI_OFF)
 8001362:	687b      	ldr	r3, [r7, #4]
 8001364:	68db      	ldr	r3, [r3, #12]
 8001366:	2b00      	cmp	r3, #0
 8001368:	d030      	beq.n	80013cc <HAL_RCC_OscConfig+0x220>
      {
        /* Configure the HSI16 division factor */
        __HAL_RCC_HSI_CONFIG(RCC_OscInitStruct->HSIDiv);
 800136a:	4b5b      	ldr	r3, [pc, #364]	@ (80014d8 <HAL_RCC_OscConfig+0x32c>)
 800136c:	681b      	ldr	r3, [r3, #0]
 800136e:	4a5e      	ldr	r2, [pc, #376]	@ (80014e8 <HAL_RCC_OscConfig+0x33c>)
 8001370:	4013      	ands	r3, r2
 8001372:	0019      	movs	r1, r3
 8001374:	687b      	ldr	r3, [r7, #4]
 8001376:	691a      	ldr	r2, [r3, #16]
 8001378:	4b57      	ldr	r3, [pc, #348]	@ (80014d8 <HAL_RCC_OscConfig+0x32c>)
 800137a:	430a      	orrs	r2, r1
 800137c:	601a      	str	r2, [r3, #0]

        /* Enable the Internal High Speed oscillator (HSI16). */
        __HAL_RCC_HSI_ENABLE();
 800137e:	4b56      	ldr	r3, [pc, #344]	@ (80014d8 <HAL_RCC_OscConfig+0x32c>)
 8001380:	681a      	ldr	r2, [r3, #0]
 8001382:	4b55      	ldr	r3, [pc, #340]	@ (80014d8 <HAL_RCC_OscConfig+0x32c>)
 8001384:	2180      	movs	r1, #128	@ 0x80
 8001386:	0049      	lsls	r1, r1, #1
 8001388:	430a      	orrs	r2, r1
 800138a:	601a      	str	r2, [r3, #0]

        /* Get Start Tick*/
        tickstart = HAL_GetTick();
 800138c:	f7ff fc44 	bl	8000c18 <HAL_GetTick>
 8001390:	0003      	movs	r3, r0
 8001392:	613b      	str	r3, [r7, #16]

        /* Wait till HSI is ready */
        while (READ_BIT(RCC->CR, RCC_CR_HSIRDY) == 0U)
 8001394:	e008      	b.n	80013a8 <HAL_RCC_OscConfig+0x1fc>
        {
          if ((HAL_GetTick() - tickstart) > HSI_TIMEOUT_VALUE)
 8001396:	f7ff fc3f 	bl	8000c18 <HAL_GetTick>
 800139a:	0002      	movs	r2, r0
 800139c:	693b      	ldr	r3, [r7, #16]
 800139e:	1ad3      	subs	r3, r2, r3
 80013a0:	2b02      	cmp	r3, #2
 80013a2:	d901      	bls.n	80013a8 <HAL_RCC_OscConfig+0x1fc>
          {
            return HAL_TIMEOUT;
 80013a4:	2303      	movs	r3, #3
 80013a6:	e209      	b.n	80017bc <HAL_RCC_OscConfig+0x610>
        while (READ_BIT(RCC->CR, RCC_CR_HSIRDY) == 0U)
 80013a8:	4b4b      	ldr	r3, [pc, #300]	@ (80014d8 <HAL_RCC_OscConfig+0x32c>)
 80013aa:	681a      	ldr	r2, [r3, #0]
 80013ac:	2380      	movs	r3, #128	@ 0x80
 80013ae:	00db      	lsls	r3, r3, #3
 80013b0:	4013      	ands	r3, r2
 80013b2:	d0f0      	beq.n	8001396 <HAL_RCC_OscConfig+0x1ea>
          }
        }

        /* Adjusts the Internal High Speed oscillator (HSI) calibration value.*/
        __HAL_RCC_HSI_CALIBRATIONVALUE_ADJUST(RCC_OscInitStruct->HSICalibrationValue);
 80013b4:	4b48      	ldr	r3, [pc, #288]	@ (80014d8 <HAL_RCC_OscConfig+0x32c>)
 80013b6:	685b      	ldr	r3, [r3, #4]
 80013b8:	4a4a      	ldr	r2, [pc, #296]	@ (80014e4 <HAL_RCC_OscConfig+0x338>)
 80013ba:	4013      	ands	r3, r2
 80013bc:	0019      	movs	r1, r3
 80013be:	687b      	ldr	r3, [r7, #4]
 80013c0:	695b      	ldr	r3, [r3, #20]
 80013c2:	021a      	lsls	r2, r3, #8
 80013c4:	4b44      	ldr	r3, [pc, #272]	@ (80014d8 <HAL_RCC_OscConfig+0x32c>)
 80013c6:	430a      	orrs	r2, r1
 80013c8:	605a      	str	r2, [r3, #4]
 80013ca:	e01b      	b.n	8001404 <HAL_RCC_OscConfig+0x258>
      }
      else
      {
        /* Disable the Internal High Speed oscillator (HSI16). */
        __HAL_RCC_HSI_DISABLE();
 80013cc:	4b42      	ldr	r3, [pc, #264]	@ (80014d8 <HAL_RCC_OscConfig+0x32c>)
 80013ce:	681a      	ldr	r2, [r3, #0]
 80013d0:	4b41      	ldr	r3, [pc, #260]	@ (80014d8 <HAL_RCC_OscConfig+0x32c>)
 80013d2:	4949      	ldr	r1, [pc, #292]	@ (80014f8 <HAL_RCC_OscConfig+0x34c>)
 80013d4:	400a      	ands	r2, r1
 80013d6:	601a      	str	r2, [r3, #0]

        /* Get Start Tick*/
        tickstart = HAL_GetTick();
 80013d8:	f7ff fc1e 	bl	8000c18 <HAL_GetTick>
 80013dc:	0003      	movs	r3, r0
 80013de:	613b      	str	r3, [r7, #16]

        /* Wait till HSI is disabled */
        while (READ_BIT(RCC->CR, RCC_CR_HSIRDY) != 0U)
 80013e0:	e008      	b.n	80013f4 <HAL_RCC_OscConfig+0x248>
        {
          if ((HAL_GetTick() - tickstart) > HSI_TIMEOUT_VALUE)
 80013e2:	f7ff fc19 	bl	8000c18 <HAL_GetTick>
 80013e6:	0002      	movs	r2, r0
 80013e8:	693b      	ldr	r3, [r7, #16]
 80013ea:	1ad3      	subs	r3, r2, r3
 80013ec:	2b02      	cmp	r3, #2
 80013ee:	d901      	bls.n	80013f4 <HAL_RCC_OscConfig+0x248>
          {
            return HAL_TIMEOUT;
 80013f0:	2303      	movs	r3, #3
 80013f2:	e1e3      	b.n	80017bc <HAL_RCC_OscConfig+0x610>
        while (READ_BIT(RCC->CR, RCC_CR_HSIRDY) != 0U)
 80013f4:	4b38      	ldr	r3, [pc, #224]	@ (80014d8 <HAL_RCC_OscConfig+0x32c>)
 80013f6:	681a      	ldr	r2, [r3, #0]
 80013f8:	2380      	movs	r3, #128	@ 0x80
 80013fa:	00db      	lsls	r3, r3, #3
 80013fc:	4013      	ands	r3, r2
 80013fe:	d1f0      	bne.n	80013e2 <HAL_RCC_OscConfig+0x236>
 8001400:	e000      	b.n	8001404 <HAL_RCC_OscConfig+0x258>
      if ((READ_BIT(RCC->CR, RCC_CR_HSIRDY) != 0U) && (RCC_OscInitStruct->HSIState == RCC_HSI_OFF))
 8001402:	46c0      	nop			@ (mov r8, r8)
        }
      }
    }
  }
  /*------------------------------ LSI Configuration -------------------------*/
  if (((RCC_OscInitStruct->OscillatorType) & RCC_OSCILLATORTYPE_LSI) == RCC_OSCILLATORTYPE_LSI)
 8001404:	687b      	ldr	r3, [r7, #4]
 8001406:	681b      	ldr	r3, [r3, #0]
 8001408:	2208      	movs	r2, #8
 800140a:	4013      	ands	r3, r2
 800140c:	d047      	beq.n	800149e <HAL_RCC_OscConfig+0x2f2>
  {
    /* Check the parameters */
    assert_param(IS_RCC_LSI(RCC_OscInitStruct->LSIState));

    /* Check if LSI is used as system clock */
    if (__HAL_RCC_GET_SYSCLK_SOURCE() == RCC_SYSCLKSOURCE_STATUS_LSI)
 800140e:	4b32      	ldr	r3, [pc, #200]	@ (80014d8 <HAL_RCC_OscConfig+0x32c>)
 8001410:	689b      	ldr	r3, [r3, #8]
 8001412:	2238      	movs	r2, #56	@ 0x38
 8001414:	4013      	ands	r3, r2
 8001416:	2b18      	cmp	r3, #24
 8001418:	d10a      	bne.n	8001430 <HAL_RCC_OscConfig+0x284>
    {
      /* When LSI is used as system clock it will not be disabled */
      if ((((RCC->CSR) & RCC_CSR_LSIRDY) != 0U) && (RCC_OscInitStruct->LSIState == RCC_LSI_OFF))
 800141a:	4b2f      	ldr	r3, [pc, #188]	@ (80014d8 <HAL_RCC_OscConfig+0x32c>)
 800141c:	6e1b      	ldr	r3, [r3, #96]	@ 0x60
 800141e:	2202      	movs	r2, #2
 8001420:	4013      	ands	r3, r2
 8001422:	d03c      	beq.n	800149e <HAL_RCC_OscConfig+0x2f2>
 8001424:	687b      	ldr	r3, [r7, #4]
 8001426:	699b      	ldr	r3, [r3, #24]
 8001428:	2b00      	cmp	r3, #0
 800142a:	d138      	bne.n	800149e <HAL_RCC_OscConfig+0x2f2>
      {
        return HAL_ERROR;
 800142c:	2301      	movs	r3, #1
 800142e:	e1c5      	b.n	80017bc <HAL_RCC_OscConfig+0x610>
      }
    }
    else
    {
      /* Check the LSI State */
      if (RCC_OscInitStruct->LSIState != RCC_LSI_OFF)
 8001430:	687b      	ldr	r3, [r7, #4]
 8001432:	699b      	ldr	r3, [r3, #24]
 8001434:	2b00      	cmp	r3, #0
 8001436:	d019      	beq.n	800146c <HAL_RCC_OscConfig+0x2c0>
      {
        /* Enable the Internal Low Speed oscillator (LSI). */
        __HAL_RCC_LSI_ENABLE();
 8001438:	4b27      	ldr	r3, [pc, #156]	@ (80014d8 <HAL_RCC_OscConfig+0x32c>)
 800143a:	6e1a      	ldr	r2, [r3, #96]	@ 0x60
 800143c:	4b26      	ldr	r3, [pc, #152]	@ (80014d8 <HAL_RCC_OscConfig+0x32c>)
 800143e:	2101      	movs	r1, #1
 8001440:	430a      	orrs	r2, r1
 8001442:	661a      	str	r2, [r3, #96]	@ 0x60

        /* Get Start Tick*/
        tickstart = HAL_GetTick();
 8001444:	f7ff fbe8 	bl	8000c18 <HAL_GetTick>
 8001448:	0003      	movs	r3, r0
 800144a:	613b      	str	r3, [r7, #16]

        /* Wait till LSI is ready */
        while (READ_BIT(RCC->CSR, RCC_CSR_LSIRDY) == 0U)
 800144c:	e008      	b.n	8001460 <HAL_RCC_OscConfig+0x2b4>
        {
          if ((HAL_GetTick() - tickstart) > LSI_TIMEOUT_VALUE)
 800144e:	f7ff fbe3 	bl	8000c18 <HAL_GetTick>
 8001452:	0002      	movs	r2, r0
 8001454:	693b      	ldr	r3, [r7, #16]
 8001456:	1ad3      	subs	r3, r2, r3
 8001458:	2b02      	cmp	r3, #2
 800145a:	d901      	bls.n	8001460 <HAL_RCC_OscConfig+0x2b4>
          {
            return HAL_TIMEOUT;
 800145c:	2303      	movs	r3, #3
 800145e:	e1ad      	b.n	80017bc <HAL_RCC_OscConfig+0x610>
        while (READ_BIT(RCC->CSR, RCC_CSR_LSIRDY) == 0U)
 8001460:	4b1d      	ldr	r3, [pc, #116]	@ (80014d8 <HAL_RCC_OscConfig+0x32c>)
 8001462:	6e1b      	ldr	r3, [r3, #96]	@ 0x60
 8001464:	2202      	movs	r2, #2
 8001466:	4013      	ands	r3, r2
 8001468:	d0f1      	beq.n	800144e <HAL_RCC_OscConfig+0x2a2>
 800146a:	e018      	b.n	800149e <HAL_RCC_OscConfig+0x2f2>
        }
      }
      else
      {
        /* Disable the Internal Low Speed oscillator (LSI). */
        __HAL_RCC_LSI_DISABLE();
 800146c:	4b1a      	ldr	r3, [pc, #104]	@ (80014d8 <HAL_RCC_OscConfig+0x32c>)
 800146e:	6e1a      	ldr	r2, [r3, #96]	@ 0x60
 8001470:	4b19      	ldr	r3, [pc, #100]	@ (80014d8 <HAL_RCC_OscConfig+0x32c>)
 8001472:	2101      	movs	r1, #1
 8001474:	438a      	bics	r2, r1
 8001476:	661a      	str	r2, [r3, #96]	@ 0x60

        /* Get Start Tick*/
        tickstart = HAL_GetTick();
 8001478:	f7ff fbce 	bl	8000c18 <HAL_GetTick>
 800147c:	0003      	movs	r3, r0
 800147e:	613b      	str	r3, [r7, #16]

        /* Wait till LSI is disabled */
        while (READ_BIT(RCC->CSR, RCC_CSR_LSIRDY) != 0U)
 8001480:	e008      	b.n	8001494 <HAL_RCC_OscConfig+0x2e8>
        {
          if ((HAL_GetTick() - tickstart) > LSI_TIMEOUT_VALUE)
 8001482:	f7ff fbc9 	bl	8000c18 <HAL_GetTick>
 8001486:	0002      	movs	r2, r0
 8001488:	693b      	ldr	r3, [r7, #16]
 800148a:	1ad3      	subs	r3, r2, r3
 800148c:	2b02      	cmp	r3, #2
 800148e:	d901      	bls.n	8001494 <HAL_RCC_OscConfig+0x2e8>
          {
            return HAL_TIMEOUT;
 8001490:	2303      	movs	r3, #3
 8001492:	e193      	b.n	80017bc <HAL_RCC_OscConfig+0x610>
        while (READ_BIT(RCC->CSR, RCC_CSR_LSIRDY) != 0U)
 8001494:	4b10      	ldr	r3, [pc, #64]	@ (80014d8 <HAL_RCC_OscConfig+0x32c>)
 8001496:	6e1b      	ldr	r3, [r3, #96]	@ 0x60
 8001498:	2202      	movs	r2, #2
 800149a:	4013      	ands	r3, r2
 800149c:	d1f1      	bne.n	8001482 <HAL_RCC_OscConfig+0x2d6>
        }
      }
    }
  }
  /*------------------------------ LSE Configuration -------------------------*/
  if (((RCC_OscInitStruct->OscillatorType) & RCC_OSCILLATORTYPE_LSE) == RCC_OSCILLATORTYPE_LSE)
 800149e:	687b      	ldr	r3, [r7, #4]
 80014a0:	681b      	ldr	r3, [r3, #0]
 80014a2:	2204      	movs	r2, #4
 80014a4:	4013      	ands	r3, r2
 80014a6:	d100      	bne.n	80014aa <HAL_RCC_OscConfig+0x2fe>
 80014a8:	e0c6      	b.n	8001638 <HAL_RCC_OscConfig+0x48c>
  {
    FlagStatus       pwrclkchanged = RESET;
 80014aa:	231f      	movs	r3, #31
 80014ac:	18fb      	adds	r3, r7, r3
 80014ae:	2200      	movs	r2, #0
 80014b0:	701a      	strb	r2, [r3, #0]

    /* Check the parameters */
    assert_param(IS_RCC_LSE(RCC_OscInitStruct->LSEState));

    /* When the LSE is used as system clock, it is not allowed disable it */
    if (__HAL_RCC_GET_SYSCLK_SOURCE() == RCC_SYSCLKSOURCE_STATUS_LSE)
 80014b2:	4b09      	ldr	r3, [pc, #36]	@ (80014d8 <HAL_RCC_OscConfig+0x32c>)
 80014b4:	689b      	ldr	r3, [r3, #8]
 80014b6:	2238      	movs	r2, #56	@ 0x38
 80014b8:	4013      	ands	r3, r2
 80014ba:	2b20      	cmp	r3, #32
 80014bc:	d11e      	bne.n	80014fc <HAL_RCC_OscConfig+0x350>
    {
      if ((((RCC->BDCR) & RCC_BDCR_LSERDY) != 0U) && (RCC_OscInitStruct->LSEState == RCC_LSE_OFF))
 80014be:	4b06      	ldr	r3, [pc, #24]	@ (80014d8 <HAL_RCC_OscConfig+0x32c>)
 80014c0:	6ddb      	ldr	r3, [r3, #92]	@ 0x5c
 80014c2:	2202      	movs	r2, #2
 80014c4:	4013      	ands	r3, r2
 80014c6:	d100      	bne.n	80014ca <HAL_RCC_OscConfig+0x31e>
 80014c8:	e0b6      	b.n	8001638 <HAL_RCC_OscConfig+0x48c>
 80014ca:	687b      	ldr	r3, [r7, #4]
 80014cc:	689b      	ldr	r3, [r3, #8]
 80014ce:	2b00      	cmp	r3, #0
 80014d0:	d000      	beq.n	80014d4 <HAL_RCC_OscConfig+0x328>
 80014d2:	e0b1      	b.n	8001638 <HAL_RCC_OscConfig+0x48c>
      {
        return HAL_ERROR;
 80014d4:	2301      	movs	r3, #1
 80014d6:	e171      	b.n	80017bc <HAL_RCC_OscConfig+0x610>
 80014d8:	40021000 	.word	0x40021000
 80014dc:	fffeffff 	.word	0xfffeffff
 80014e0:	fffbffff 	.word	0xfffbffff
 80014e4:	ffff80ff 	.word	0xffff80ff
 80014e8:	ffffc7ff 	.word	0xffffc7ff
 80014ec:	00f42400 	.word	0x00f42400
 80014f0:	20000000 	.word	0x20000000
 80014f4:	20000004 	.word	0x20000004
 80014f8:	fffffeff 	.word	0xfffffeff
    }
    else
    {
      /* Update LSE configuration in Backup Domain control register    */
      /* Requires to enable write access to Backup Domain of necessary */
      if (__HAL_RCC_PWR_IS_CLK_DISABLED() != 0U)
 80014fc:	4bb1      	ldr	r3, [pc, #708]	@ (80017c4 <HAL_RCC_OscConfig+0x618>)
 80014fe:	6bda      	ldr	r2, [r3, #60]	@ 0x3c
 8001500:	2380      	movs	r3, #128	@ 0x80
 8001502:	055b      	lsls	r3, r3, #21
 8001504:	4013      	ands	r3, r2
 8001506:	d101      	bne.n	800150c <HAL_RCC_OscConfig+0x360>
 8001508:	2301      	movs	r3, #1
 800150a:	e000      	b.n	800150e <HAL_RCC_OscConfig+0x362>
 800150c:	2300      	movs	r3, #0
 800150e:	2b00      	cmp	r3, #0
 8001510:	d011      	beq.n	8001536 <HAL_RCC_OscConfig+0x38a>
      {
        __HAL_RCC_PWR_CLK_ENABLE();
 8001512:	4bac      	ldr	r3, [pc, #688]	@ (80017c4 <HAL_RCC_OscConfig+0x618>)
 8001514:	6bda      	ldr	r2, [r3, #60]	@ 0x3c
 8001516:	4bab      	ldr	r3, [pc, #684]	@ (80017c4 <HAL_RCC_OscConfig+0x618>)
 8001518:	2180      	movs	r1, #128	@ 0x80
 800151a:	0549      	lsls	r1, r1, #21
 800151c:	430a      	orrs	r2, r1
 800151e:	63da      	str	r2, [r3, #60]	@ 0x3c
 8001520:	4ba8      	ldr	r3, [pc, #672]	@ (80017c4 <HAL_RCC_OscConfig+0x618>)
 8001522:	6bda      	ldr	r2, [r3, #60]	@ 0x3c
 8001524:	2380      	movs	r3, #128	@ 0x80
 8001526:	055b      	lsls	r3, r3, #21
 8001528:	4013      	ands	r3, r2
 800152a:	60fb      	str	r3, [r7, #12]
 800152c:	68fb      	ldr	r3, [r7, #12]
        pwrclkchanged = SET;
 800152e:	231f      	movs	r3, #31
 8001530:	18fb      	adds	r3, r7, r3
 8001532:	2201      	movs	r2, #1
 8001534:	701a      	strb	r2, [r3, #0]
      }

      if (HAL_IS_BIT_CLR(PWR->CR1, PWR_CR1_DBP))
 8001536:	4ba4      	ldr	r3, [pc, #656]	@ (80017c8 <HAL_RCC_OscConfig+0x61c>)
 8001538:	681a      	ldr	r2, [r3, #0]
 800153a:	2380      	movs	r3, #128	@ 0x80
 800153c:	005b      	lsls	r3, r3, #1
 800153e:	4013      	ands	r3, r2
 8001540:	d11a      	bne.n	8001578 <HAL_RCC_OscConfig+0x3cc>
      {
        /* Enable write access to Backup domain */
        SET_BIT(PWR->CR1, PWR_CR1_DBP);
 8001542:	4ba1      	ldr	r3, [pc, #644]	@ (80017c8 <HAL_RCC_OscConfig+0x61c>)
 8001544:	681a      	ldr	r2, [r3, #0]
 8001546:	4ba0      	ldr	r3, [pc, #640]	@ (80017c8 <HAL_RCC_OscConfig+0x61c>)
 8001548:	2180      	movs	r1, #128	@ 0x80
 800154a:	0049      	lsls	r1, r1, #1
 800154c:	430a      	orrs	r2, r1
 800154e:	601a      	str	r2, [r3, #0]

        /* Wait for Backup domain Write protection disable */
        tickstart = HAL_GetTick();
 8001550:	f7ff fb62 	bl	8000c18 <HAL_GetTick>
 8001554:	0003      	movs	r3, r0
 8001556:	613b      	str	r3, [r7, #16]

        while (HAL_IS_BIT_CLR(PWR->CR1, PWR_CR1_DBP))
 8001558:	e008      	b.n	800156c <HAL_RCC_OscConfig+0x3c0>
        {
          if ((HAL_GetTick() - tickstart) > RCC_DBP_TIMEOUT_VALUE)
 800155a:	f7ff fb5d 	bl	8000c18 <HAL_GetTick>
 800155e:	0002      	movs	r2, r0
 8001560:	693b      	ldr	r3, [r7, #16]
 8001562:	1ad3      	subs	r3, r2, r3
 8001564:	2b02      	cmp	r3, #2
 8001566:	d901      	bls.n	800156c <HAL_RCC_OscConfig+0x3c0>
          {
            return HAL_TIMEOUT;
 8001568:	2303      	movs	r3, #3
 800156a:	e127      	b.n	80017bc <HAL_RCC_OscConfig+0x610>
        while (HAL_IS_BIT_CLR(PWR->CR1, PWR_CR1_DBP))
 800156c:	4b96      	ldr	r3, [pc, #600]	@ (80017c8 <HAL_RCC_OscConfig+0x61c>)
 800156e:	681a      	ldr	r2, [r3, #0]
 8001570:	2380      	movs	r3, #128	@ 0x80
 8001572:	005b      	lsls	r3, r3, #1
 8001574:	4013      	ands	r3, r2
 8001576:	d0f0      	beq.n	800155a <HAL_RCC_OscConfig+0x3ae>
          }
        }
      }

      /* Set the new LSE configuration -----------------------------------------*/
      __HAL_RCC_LSE_CONFIG(RCC_OscInitStruct->LSEState);
 8001578:	687b      	ldr	r3, [r7, #4]
 800157a:	689b      	ldr	r3, [r3, #8]
 800157c:	2b01      	cmp	r3, #1
 800157e:	d106      	bne.n	800158e <HAL_RCC_OscConfig+0x3e2>
 8001580:	4b90      	ldr	r3, [pc, #576]	@ (80017c4 <HAL_RCC_OscConfig+0x618>)
 8001582:	6dda      	ldr	r2, [r3, #92]	@ 0x5c
 8001584:	4b8f      	ldr	r3, [pc, #572]	@ (80017c4 <HAL_RCC_OscConfig+0x618>)
 8001586:	2101      	movs	r1, #1
 8001588:	430a      	orrs	r2, r1
 800158a:	65da      	str	r2, [r3, #92]	@ 0x5c
 800158c:	e01c      	b.n	80015c8 <HAL_RCC_OscConfig+0x41c>
 800158e:	687b      	ldr	r3, [r7, #4]
 8001590:	689b      	ldr	r3, [r3, #8]
 8001592:	2b05      	cmp	r3, #5
 8001594:	d10c      	bne.n	80015b0 <HAL_RCC_OscConfig+0x404>
 8001596:	4b8b      	ldr	r3, [pc, #556]	@ (80017c4 <HAL_RCC_OscConfig+0x618>)
 8001598:	6dda      	ldr	r2, [r3, #92]	@ 0x5c
 800159a:	4b8a      	ldr	r3, [pc, #552]	@ (80017c4 <HAL_RCC_OscConfig+0x618>)
 800159c:	2104      	movs	r1, #4
 800159e:	430a      	orrs	r2, r1
 80015a0:	65da      	str	r2, [r3, #92]	@ 0x5c
 80015a2:	4b88      	ldr	r3, [pc, #544]	@ (80017c4 <HAL_RCC_OscConfig+0x618>)
 80015a4:	6dda      	ldr	r2, [r3, #92]	@ 0x5c
 80015a6:	4b87      	ldr	r3, [pc, #540]	@ (80017c4 <HAL_RCC_OscConfig+0x618>)
 80015a8:	2101      	movs	r1, #1
 80015aa:	430a      	orrs	r2, r1
 80015ac:	65da      	str	r2, [r3, #92]	@ 0x5c
 80015ae:	e00b      	b.n	80015c8 <HAL_RCC_OscConfig+0x41c>
 80015b0:	4b84      	ldr	r3, [pc, #528]	@ (80017c4 <HAL_RCC_OscConfig+0x618>)
 80015b2:	6dda      	ldr	r2, [r3, #92]	@ 0x5c
 80015b4:	4b83      	ldr	r3, [pc, #524]	@ (80017c4 <HAL_RCC_OscConfig+0x618>)
 80015b6:	2101      	movs	r1, #1
 80015b8:	438a      	bics	r2, r1
 80015ba:	65da      	str	r2, [r3, #92]	@ 0x5c
 80015bc:	4b81      	ldr	r3, [pc, #516]	@ (80017c4 <HAL_RCC_OscConfig+0x618>)
 80015be:	6dda      	ldr	r2, [r3, #92]	@ 0x5c
 80015c0:	4b80      	ldr	r3, [pc, #512]	@ (80017c4 <HAL_RCC_OscConfig+0x618>)
 80015c2:	2104      	movs	r1, #4
 80015c4:	438a      	bics	r2, r1
 80015c6:	65da      	str	r2, [r3, #92]	@ 0x5c

      /* Check the LSE State */
      if (RCC_OscInitStruct->LSEState != RCC_LSE_OFF)
 80015c8:	687b      	ldr	r3, [r7, #4]
 80015ca:	689b      	ldr	r3, [r3, #8]
 80015cc:	2b00      	cmp	r3, #0
 80015ce:	d014      	beq.n	80015fa <HAL_RCC_OscConfig+0x44e>
      {
        /* Get Start Tick*/
        tickstart = HAL_GetTick();
 80015d0:	f7ff fb22 	bl	8000c18 <HAL_GetTick>
 80015d4:	0003      	movs	r3, r0
 80015d6:	613b      	str	r3, [r7, #16]

        /* Wait till LSE is ready */
        while (READ_BIT(RCC->BDCR, RCC_BDCR_LSERDY) == 0U)
 80015d8:	e009      	b.n	80015ee <HAL_RCC_OscConfig+0x442>
        {
          if ((HAL_GetTick() - tickstart) > RCC_LSE_TIMEOUT_VALUE)
 80015da:	f7ff fb1d 	bl	8000c18 <HAL_GetTick>
 80015de:	0002      	movs	r2, r0
 80015e0:	693b      	ldr	r3, [r7, #16]
 80015e2:	1ad3      	subs	r3, r2, r3
 80015e4:	4a79      	ldr	r2, [pc, #484]	@ (80017cc <HAL_RCC_OscConfig+0x620>)
 80015e6:	4293      	cmp	r3, r2
 80015e8:	d901      	bls.n	80015ee <HAL_RCC_OscConfig+0x442>
          {
            return HAL_TIMEOUT;
 80015ea:	2303      	movs	r3, #3
 80015ec:	e0e6      	b.n	80017bc <HAL_RCC_OscConfig+0x610>
        while (READ_BIT(RCC->BDCR, RCC_BDCR_LSERDY) == 0U)
 80015ee:	4b75      	ldr	r3, [pc, #468]	@ (80017c4 <HAL_RCC_OscConfig+0x618>)
 80015f0:	6ddb      	ldr	r3, [r3, #92]	@ 0x5c
 80015f2:	2202      	movs	r2, #2
 80015f4:	4013      	ands	r3, r2
 80015f6:	d0f0      	beq.n	80015da <HAL_RCC_OscConfig+0x42e>
 80015f8:	e013      	b.n	8001622 <HAL_RCC_OscConfig+0x476>
        }
      }
      else
      {
        /* Get Start Tick*/
        tickstart = HAL_GetTick();
 80015fa:	f7ff fb0d 	bl	8000c18 <HAL_GetTick>
 80015fe:	0003      	movs	r3, r0
 8001600:	613b      	str	r3, [r7, #16]

        /* Wait till LSE is disabled */
        while (READ_BIT(RCC->BDCR, RCC_BDCR_LSERDY) != 0U)
 8001602:	e009      	b.n	8001618 <HAL_RCC_OscConfig+0x46c>
        {
          if ((HAL_GetTick() - tickstart) > RCC_LSE_TIMEOUT_VALUE)
 8001604:	f7ff fb08 	bl	8000c18 <HAL_GetTick>
 8001608:	0002      	movs	r2, r0
 800160a:	693b      	ldr	r3, [r7, #16]
 800160c:	1ad3      	subs	r3, r2, r3
 800160e:	4a6f      	ldr	r2, [pc, #444]	@ (80017cc <HAL_RCC_OscConfig+0x620>)
 8001610:	4293      	cmp	r3, r2
 8001612:	d901      	bls.n	8001618 <HAL_RCC_OscConfig+0x46c>
          {
            return HAL_TIMEOUT;
 8001614:	2303      	movs	r3, #3
 8001616:	e0d1      	b.n	80017bc <HAL_RCC_OscConfig+0x610>
        while (READ_BIT(RCC->BDCR, RCC_BDCR_LSERDY) != 0U)
 8001618:	4b6a      	ldr	r3, [pc, #424]	@ (80017c4 <HAL_RCC_OscConfig+0x618>)
 800161a:	6ddb      	ldr	r3, [r3, #92]	@ 0x5c
 800161c:	2202      	movs	r2, #2
 800161e:	4013      	ands	r3, r2
 8001620:	d1f0      	bne.n	8001604 <HAL_RCC_OscConfig+0x458>
          }
        }
      }

      /* Restore clock configuration if changed */
      if (pwrclkchanged == SET)
 8001622:	231f      	movs	r3, #31
 8001624:	18fb      	adds	r3, r7, r3
 8001626:	781b      	ldrb	r3, [r3, #0]
 8001628:	2b01      	cmp	r3, #1
 800162a:	d105      	bne.n	8001638 <HAL_RCC_OscConfig+0x48c>
      {
        __HAL_RCC_PWR_CLK_DISABLE();
 800162c:	4b65      	ldr	r3, [pc, #404]	@ (80017c4 <HAL_RCC_OscConfig+0x618>)
 800162e:	6bda      	ldr	r2, [r3, #60]	@ 0x3c
 8001630:	4b64      	ldr	r3, [pc, #400]	@ (80017c4 <HAL_RCC_OscConfig+0x618>)
 8001632:	4967      	ldr	r1, [pc, #412]	@ (80017d0 <HAL_RCC_OscConfig+0x624>)
 8001634:	400a      	ands	r2, r1
 8001636:	63da      	str	r2, [r3, #60]	@ 0x3c
#endif /* RCC_HSI48_SUPPORT */
  /*-------------------------------- PLL Configuration -----------------------*/
  /* Check the parameters */
  assert_param(IS_RCC_PLL(RCC_OscInitStruct->PLL.PLLState));

  if (RCC_OscInitStruct->PLL.PLLState != RCC_PLL_NONE)
 8001638:	687b      	ldr	r3, [r7, #4]
 800163a:	69db      	ldr	r3, [r3, #28]
 800163c:	2b00      	cmp	r3, #0
 800163e:	d100      	bne.n	8001642 <HAL_RCC_OscConfig+0x496>
 8001640:	e0bb      	b.n	80017ba <HAL_RCC_OscConfig+0x60e>
  {
    /* Check if the PLL is used as system clock or not */
    if (__HAL_RCC_GET_SYSCLK_SOURCE() != RCC_SYSCLKSOURCE_STATUS_PLLCLK)
 8001642:	4b60      	ldr	r3, [pc, #384]	@ (80017c4 <HAL_RCC_OscConfig+0x618>)
 8001644:	689b      	ldr	r3, [r3, #8]
 8001646:	2238      	movs	r2, #56	@ 0x38
 8001648:	4013      	ands	r3, r2
 800164a:	2b10      	cmp	r3, #16
 800164c:	d100      	bne.n	8001650 <HAL_RCC_OscConfig+0x4a4>
 800164e:	e07b      	b.n	8001748 <HAL_RCC_OscConfig+0x59c>
    {
      if (RCC_OscInitStruct->PLL.PLLState == RCC_PLL_ON)
 8001650:	687b      	ldr	r3, [r7, #4]
 8001652:	69db      	ldr	r3, [r3, #28]
 8001654:	2b02      	cmp	r3, #2
 8001656:	d156      	bne.n	8001706 <HAL_RCC_OscConfig+0x55a>
        assert_param(IS_RCC_PLLQ_VALUE(RCC_OscInitStruct->PLL.PLLQ));
#endif /* RCC_PLLQ_SUPPORT */
        assert_param(IS_RCC_PLLR_VALUE(RCC_OscInitStruct->PLL.PLLR));

        /* Disable the main PLL. */
        __HAL_RCC_PLL_DISABLE();
 8001658:	4b5a      	ldr	r3, [pc, #360]	@ (80017c4 <HAL_RCC_OscConfig+0x618>)
 800165a:	681a      	ldr	r2, [r3, #0]
 800165c:	4b59      	ldr	r3, [pc, #356]	@ (80017c4 <HAL_RCC_OscConfig+0x618>)
 800165e:	495d      	ldr	r1, [pc, #372]	@ (80017d4 <HAL_RCC_OscConfig+0x628>)
 8001660:	400a      	ands	r2, r1
 8001662:	601a      	str	r2, [r3, #0]

        /* Get Start Tick*/
        tickstart = HAL_GetTick();
 8001664:	f7ff fad8 	bl	8000c18 <HAL_GetTick>
 8001668:	0003      	movs	r3, r0
 800166a:	613b      	str	r3, [r7, #16]

        /* Wait till PLL is ready */
        while (READ_BIT(RCC->CR, RCC_CR_PLLRDY) != 0U)
 800166c:	e008      	b.n	8001680 <HAL_RCC_OscConfig+0x4d4>
        {
          if ((HAL_GetTick() - tickstart) > PLL_TIMEOUT_VALUE)
 800166e:	f7ff fad3 	bl	8000c18 <HAL_GetTick>
 8001672:	0002      	movs	r2, r0
 8001674:	693b      	ldr	r3, [r7, #16]
 8001676:	1ad3      	subs	r3, r2, r3
 8001678:	2b02      	cmp	r3, #2
 800167a:	d901      	bls.n	8001680 <HAL_RCC_OscConfig+0x4d4>
          {
            return HAL_TIMEOUT;
 800167c:	2303      	movs	r3, #3
 800167e:	e09d      	b.n	80017bc <HAL_RCC_OscConfig+0x610>
        while (READ_BIT(RCC->CR, RCC_CR_PLLRDY) != 0U)
 8001680:	4b50      	ldr	r3, [pc, #320]	@ (80017c4 <HAL_RCC_OscConfig+0x618>)
 8001682:	681a      	ldr	r2, [r3, #0]
 8001684:	2380      	movs	r3, #128	@ 0x80
 8001686:	049b      	lsls	r3, r3, #18
 8001688:	4013      	ands	r3, r2
 800168a:	d1f0      	bne.n	800166e <HAL_RCC_OscConfig+0x4c2>
          }
        }

        /* Configure the main PLL clock source, multiplication and division factors. */
#if defined(RCC_PLLQ_SUPPORT)
        __HAL_RCC_PLL_CONFIG(RCC_OscInitStruct->PLL.PLLSource,
 800168c:	4b4d      	ldr	r3, [pc, #308]	@ (80017c4 <HAL_RCC_OscConfig+0x618>)
 800168e:	68db      	ldr	r3, [r3, #12]
 8001690:	4a51      	ldr	r2, [pc, #324]	@ (80017d8 <HAL_RCC_OscConfig+0x62c>)
 8001692:	4013      	ands	r3, r2
 8001694:	0019      	movs	r1, r3
 8001696:	687b      	ldr	r3, [r7, #4]
 8001698:	6a1a      	ldr	r2, [r3, #32]
 800169a:	687b      	ldr	r3, [r7, #4]
 800169c:	6a5b      	ldr	r3, [r3, #36]	@ 0x24
 800169e:	431a      	orrs	r2, r3
 80016a0:	687b      	ldr	r3, [r7, #4]
 80016a2:	6a9b      	ldr	r3, [r3, #40]	@ 0x28
 80016a4:	021b      	lsls	r3, r3, #8
 80016a6:	431a      	orrs	r2, r3
 80016a8:	687b      	ldr	r3, [r7, #4]
 80016aa:	6adb      	ldr	r3, [r3, #44]	@ 0x2c
 80016ac:	431a      	orrs	r2, r3
 80016ae:	687b      	ldr	r3, [r7, #4]
 80016b0:	6b1b      	ldr	r3, [r3, #48]	@ 0x30
 80016b2:	431a      	orrs	r2, r3
 80016b4:	687b      	ldr	r3, [r7, #4]
 80016b6:	6b5b      	ldr	r3, [r3, #52]	@ 0x34
 80016b8:	431a      	orrs	r2, r3
 80016ba:	4b42      	ldr	r3, [pc, #264]	@ (80017c4 <HAL_RCC_OscConfig+0x618>)
 80016bc:	430a      	orrs	r2, r1
 80016be:	60da      	str	r2, [r3, #12]
                             RCC_OscInitStruct->PLL.PLLP,
                             RCC_OscInitStruct->PLL.PLLR);
#endif /* RCC_PLLQ_SUPPORT */

        /* Enable the main PLL. */
        __HAL_RCC_PLL_ENABLE();
 80016c0:	4b40      	ldr	r3, [pc, #256]	@ (80017c4 <HAL_RCC_OscConfig+0x618>)
 80016c2:	681a      	ldr	r2, [r3, #0]
 80016c4:	4b3f      	ldr	r3, [pc, #252]	@ (80017c4 <HAL_RCC_OscConfig+0x618>)
 80016c6:	2180      	movs	r1, #128	@ 0x80
 80016c8:	0449      	lsls	r1, r1, #17
 80016ca:	430a      	orrs	r2, r1
 80016cc:	601a      	str	r2, [r3, #0]

        /* Enable PLLR Clock output. */
        __HAL_RCC_PLLCLKOUT_ENABLE(RCC_PLLRCLK);
 80016ce:	4b3d      	ldr	r3, [pc, #244]	@ (80017c4 <HAL_RCC_OscConfig+0x618>)
 80016d0:	68da      	ldr	r2, [r3, #12]
 80016d2:	4b3c      	ldr	r3, [pc, #240]	@ (80017c4 <HAL_RCC_OscConfig+0x618>)
 80016d4:	2180      	movs	r1, #128	@ 0x80
 80016d6:	0549      	lsls	r1, r1, #21
 80016d8:	430a      	orrs	r2, r1
 80016da:	60da      	str	r2, [r3, #12]

        /* Get Start Tick*/
        tickstart = HAL_GetTick();
 80016dc:	f7ff fa9c 	bl	8000c18 <HAL_GetTick>
 80016e0:	0003      	movs	r3, r0
 80016e2:	613b      	str	r3, [r7, #16]

        /* Wait till PLL is ready */
        while (READ_BIT(RCC->CR, RCC_CR_PLLRDY) == 0U)
 80016e4:	e008      	b.n	80016f8 <HAL_RCC_OscConfig+0x54c>
        {
          if ((HAL_GetTick() - tickstart) > PLL_TIMEOUT_VALUE)
 80016e6:	f7ff fa97 	bl	8000c18 <HAL_GetTick>
 80016ea:	0002      	movs	r2, r0
 80016ec:	693b      	ldr	r3, [r7, #16]
 80016ee:	1ad3      	subs	r3, r2, r3
 80016f0:	2b02      	cmp	r3, #2
 80016f2:	d901      	bls.n	80016f8 <HAL_RCC_OscConfig+0x54c>
          {
            return HAL_TIMEOUT;
 80016f4:	2303      	movs	r3, #3
 80016f6:	e061      	b.n	80017bc <HAL_RCC_OscConfig+0x610>
        while (READ_BIT(RCC->CR, RCC_CR_PLLRDY) == 0U)
 80016f8:	4b32      	ldr	r3, [pc, #200]	@ (80017c4 <HAL_RCC_OscConfig+0x618>)
 80016fa:	681a      	ldr	r2, [r3, #0]
 80016fc:	2380      	movs	r3, #128	@ 0x80
 80016fe:	049b      	lsls	r3, r3, #18
 8001700:	4013      	ands	r3, r2
 8001702:	d0f0      	beq.n	80016e6 <HAL_RCC_OscConfig+0x53a>
 8001704:	e059      	b.n	80017ba <HAL_RCC_OscConfig+0x60e>
        }
      }
      else
      {
        /* Disable the main PLL. */
        __HAL_RCC_PLL_DISABLE();
 8001706:	4b2f      	ldr	r3, [pc, #188]	@ (80017c4 <HAL_RCC_OscConfig+0x618>)
 8001708:	681a      	ldr	r2, [r3, #0]
 800170a:	4b2e      	ldr	r3, [pc, #184]	@ (80017c4 <HAL_RCC_OscConfig+0x618>)
 800170c:	4931      	ldr	r1, [pc, #196]	@ (80017d4 <HAL_RCC_OscConfig+0x628>)
 800170e:	400a      	ands	r2, r1
 8001710:	601a      	str	r2, [r3, #0]

        /* Get Start Tick*/
        tickstart = HAL_GetTick();
 8001712:	f7ff fa81 	bl	8000c18 <HAL_GetTick>
 8001716:	0003      	movs	r3, r0
 8001718:	613b      	str	r3, [r7, #16]

        /* Wait till PLL is disabled */
        while (READ_BIT(RCC->CR, RCC_CR_PLLRDY) != 0U)
 800171a:	e008      	b.n	800172e <HAL_RCC_OscConfig+0x582>
        {
          if ((HAL_GetTick() - tickstart) > PLL_TIMEOUT_VALUE)
 800171c:	f7ff fa7c 	bl	8000c18 <HAL_GetTick>
 8001720:	0002      	movs	r2, r0
 8001722:	693b      	ldr	r3, [r7, #16]
 8001724:	1ad3      	subs	r3, r2, r3
 8001726:	2b02      	cmp	r3, #2
 8001728:	d901      	bls.n	800172e <HAL_RCC_OscConfig+0x582>
          {
            return HAL_TIMEOUT;
 800172a:	2303      	movs	r3, #3
 800172c:	e046      	b.n	80017bc <HAL_RCC_OscConfig+0x610>
        while (READ_BIT(RCC->CR, RCC_CR_PLLRDY) != 0U)
 800172e:	4b25      	ldr	r3, [pc, #148]	@ (80017c4 <HAL_RCC_OscConfig+0x618>)
 8001730:	681a      	ldr	r2, [r3, #0]
 8001732:	2380      	movs	r3, #128	@ 0x80
 8001734:	049b      	lsls	r3, r3, #18
 8001736:	4013      	ands	r3, r2
 8001738:	d1f0      	bne.n	800171c <HAL_RCC_OscConfig+0x570>
          }
        }
        /* Unselect main PLL clock source and disable main PLL outputs to save power */
#if defined(RCC_PLLQ_SUPPORT)
        RCC->PLLCFGR &= ~(RCC_PLLCFGR_PLLSRC | RCC_PLLCFGR_PLLPEN | RCC_PLLCFGR_PLLQEN | RCC_PLLCFGR_PLLREN);
 800173a:	4b22      	ldr	r3, [pc, #136]	@ (80017c4 <HAL_RCC_OscConfig+0x618>)
 800173c:	68da      	ldr	r2, [r3, #12]
 800173e:	4b21      	ldr	r3, [pc, #132]	@ (80017c4 <HAL_RCC_OscConfig+0x618>)
 8001740:	4926      	ldr	r1, [pc, #152]	@ (80017dc <HAL_RCC_OscConfig+0x630>)
 8001742:	400a      	ands	r2, r1
 8001744:	60da      	str	r2, [r3, #12]
 8001746:	e038      	b.n	80017ba <HAL_RCC_OscConfig+0x60e>
      }
    }
    else
    {
      /* Check if there is a request to disable the PLL used as System clock source */
      if ((RCC_OscInitStruct->PLL.PLLState) == RCC_PLL_OFF)
 8001748:	687b      	ldr	r3, [r7, #4]
 800174a:	69db      	ldr	r3, [r3, #28]
 800174c:	2b01      	cmp	r3, #1
 800174e:	d101      	bne.n	8001754 <HAL_RCC_OscConfig+0x5a8>
      {
        return HAL_ERROR;
 8001750:	2301      	movs	r3, #1
 8001752:	e033      	b.n	80017bc <HAL_RCC_OscConfig+0x610>
      }
      else
      {
        /* Do not return HAL_ERROR if request repeats the current configuration */
        temp_pllckcfg = RCC->PLLCFGR;
 8001754:	4b1b      	ldr	r3, [pc, #108]	@ (80017c4 <HAL_RCC_OscConfig+0x618>)
 8001756:	68db      	ldr	r3, [r3, #12]
 8001758:	617b      	str	r3, [r7, #20]
        if ((READ_BIT(temp_pllckcfg, RCC_PLLCFGR_PLLSRC) != RCC_OscInitStruct->PLL.PLLSource) ||
 800175a:	697b      	ldr	r3, [r7, #20]
 800175c:	2203      	movs	r2, #3
 800175e:	401a      	ands	r2, r3
 8001760:	687b      	ldr	r3, [r7, #4]
 8001762:	6a1b      	ldr	r3, [r3, #32]
 8001764:	429a      	cmp	r2, r3
 8001766:	d126      	bne.n	80017b6 <HAL_RCC_OscConfig+0x60a>
            (READ_BIT(temp_pllckcfg, RCC_PLLCFGR_PLLM) != RCC_OscInitStruct->PLL.PLLM) ||
 8001768:	697b      	ldr	r3, [r7, #20]
 800176a:	2270      	movs	r2, #112	@ 0x70
 800176c:	401a      	ands	r2, r3
 800176e:	687b      	ldr	r3, [r7, #4]
 8001770:	6a5b      	ldr	r3, [r3, #36]	@ 0x24
        if ((READ_BIT(temp_pllckcfg, RCC_PLLCFGR_PLLSRC) != RCC_OscInitStruct->PLL.PLLSource) ||
 8001772:	429a      	cmp	r2, r3
 8001774:	d11f      	bne.n	80017b6 <HAL_RCC_OscConfig+0x60a>
            (READ_BIT(temp_pllckcfg, RCC_PLLCFGR_PLLN) != (RCC_OscInitStruct->PLL.PLLN << RCC_PLLCFGR_PLLN_Pos)) ||
 8001776:	697a      	ldr	r2, [r7, #20]
 8001778:	23fe      	movs	r3, #254	@ 0xfe
 800177a:	01db      	lsls	r3, r3, #7
 800177c:	401a      	ands	r2, r3
 800177e:	687b      	ldr	r3, [r7, #4]
 8001780:	6a9b      	ldr	r3, [r3, #40]	@ 0x28
 8001782:	021b      	lsls	r3, r3, #8
            (READ_BIT(temp_pllckcfg, RCC_PLLCFGR_PLLM) != RCC_OscInitStruct->PLL.PLLM) ||
 8001784:	429a      	cmp	r2, r3
 8001786:	d116      	bne.n	80017b6 <HAL_RCC_OscConfig+0x60a>
            (READ_BIT(temp_pllckcfg, RCC_PLLCFGR_PLLP) != RCC_OscInitStruct->PLL.PLLP) ||
 8001788:	697a      	ldr	r2, [r7, #20]
 800178a:	23f8      	movs	r3, #248	@ 0xf8
 800178c:	039b      	lsls	r3, r3, #14
 800178e:	401a      	ands	r2, r3
 8001790:	687b      	ldr	r3, [r7, #4]
 8001792:	6adb      	ldr	r3, [r3, #44]	@ 0x2c
            (READ_BIT(temp_pllckcfg, RCC_PLLCFGR_PLLN) != (RCC_OscInitStruct->PLL.PLLN << RCC_PLLCFGR_PLLN_Pos)) ||
 8001794:	429a      	cmp	r2, r3
 8001796:	d10e      	bne.n	80017b6 <HAL_RCC_OscConfig+0x60a>
#if defined (RCC_PLLQ_SUPPORT)
            (READ_BIT(temp_pllckcfg, RCC_PLLCFGR_PLLQ) != RCC_OscInitStruct->PLL.PLLQ) ||
 8001798:	697a      	ldr	r2, [r7, #20]
 800179a:	23e0      	movs	r3, #224	@ 0xe0
 800179c:	051b      	lsls	r3, r3, #20
 800179e:	401a      	ands	r2, r3
 80017a0:	687b      	ldr	r3, [r7, #4]
 80017a2:	6b1b      	ldr	r3, [r3, #48]	@ 0x30
            (READ_BIT(temp_pllckcfg, RCC_PLLCFGR_PLLP) != RCC_OscInitStruct->PLL.PLLP) ||
 80017a4:	429a      	cmp	r2, r3
 80017a6:	d106      	bne.n	80017b6 <HAL_RCC_OscConfig+0x60a>
#endif /* RCC_PLLQ_SUPPORT */
            (READ_BIT(temp_pllckcfg, RCC_PLLCFGR_PLLR) != RCC_OscInitStruct->PLL.PLLR))
 80017a8:	697b      	ldr	r3, [r7, #20]
 80017aa:	0f5b      	lsrs	r3, r3, #29
 80017ac:	075a      	lsls	r2, r3, #29
 80017ae:	687b      	ldr	r3, [r7, #4]
 80017b0:	6b5b      	ldr	r3, [r3, #52]	@ 0x34
            (READ_BIT(temp_pllckcfg, RCC_PLLCFGR_PLLQ) != RCC_OscInitStruct->PLL.PLLQ) ||
 80017b2:	429a      	cmp	r2, r3
 80017b4:	d001      	beq.n	80017ba <HAL_RCC_OscConfig+0x60e>
        {
          return HAL_ERROR;
 80017b6:	2301      	movs	r3, #1
 80017b8:	e000      	b.n	80017bc <HAL_RCC_OscConfig+0x610>
        }
      }
    }
  }
  return HAL_OK;
 80017ba:	2300      	movs	r3, #0
}
 80017bc:	0018      	movs	r0, r3
 80017be:	46bd      	mov	sp, r7
 80017c0:	b008      	add	sp, #32
 80017c2:	bd80      	pop	{r7, pc}
 80017c4:	40021000 	.word	0x40021000
 80017c8:	40007000 	.word	0x40007000
 80017cc:	00001388 	.word	0x00001388
 80017d0:	efffffff 	.word	0xefffffff
 80017d4:	feffffff 	.word	0xfeffffff
 80017d8:	11c1808c 	.word	0x11c1808c
 80017dc:	eefefffc 	.word	0xeefefffc

080017e0 <HAL_RCC_ClockConfig>:
  *         HPRE[3:0] bits to ensure that HCLK not exceed the maximum allowed frequency
  *         (for more details refer to section above "Initialization/de-initialization functions")
  * @retval None
  */
HAL_StatusTypeDef HAL_RCC_ClockConfig(RCC_ClkInitTypeDef  *RCC_ClkInitStruct, uint32_t FLatency)
{
 80017e0:	b580      	push	{r7, lr}
 80017e2:	b084      	sub	sp, #16
 80017e4:	af00      	add	r7, sp, #0
 80017e6:	6078      	str	r0, [r7, #4]
 80017e8:	6039      	str	r1, [r7, #0]
  uint32_t tickstart;

  /* Check Null pointer */
  if (RCC_ClkInitStruct == NULL)
 80017ea:	687b      	ldr	r3, [r7, #4]
 80017ec:	2b00      	cmp	r3, #0
 80017ee:	d101      	bne.n	80017f4 <HAL_RCC_ClockConfig+0x14>
  {
    return HAL_ERROR;
 80017f0:	2301      	movs	r3, #1
 80017f2:	e0e9      	b.n	80019c8 <HAL_RCC_ClockConfig+0x1e8>
  /* To correctly read data from FLASH memory, the number of wait states (LATENCY)
    must be correctly programmed according to the frequency of the FLASH clock
    (HCLK) and the supply voltage of the device. */

  /* Increasing the number of wait states because of higher CPU frequency */
  if (FLatency > __HAL_FLASH_GET_LATENCY())
 80017f4:	4b76      	ldr	r3, [pc, #472]	@ (80019d0 <HAL_RCC_ClockConfig+0x1f0>)
 80017f6:	681b      	ldr	r3, [r3, #0]
 80017f8:	2207      	movs	r2, #7
 80017fa:	4013      	ands	r3, r2
 80017fc:	683a      	ldr	r2, [r7, #0]
 80017fe:	429a      	cmp	r2, r3
 8001800:	d91e      	bls.n	8001840 <HAL_RCC_ClockConfig+0x60>
  {
    /* Program the new number of wait states to the LATENCY bits in the FLASH_ACR register */
    __HAL_FLASH_SET_LATENCY(FLatency);
 8001802:	4b73      	ldr	r3, [pc, #460]	@ (80019d0 <HAL_RCC_ClockConfig+0x1f0>)
 8001804:	681b      	ldr	r3, [r3, #0]
 8001806:	2207      	movs	r2, #7
 8001808:	4393      	bics	r3, r2
 800180a:	0019      	movs	r1, r3
 800180c:	4b70      	ldr	r3, [pc, #448]	@ (80019d0 <HAL_RCC_ClockConfig+0x1f0>)
 800180e:	683a      	ldr	r2, [r7, #0]
 8001810:	430a      	orrs	r2, r1
 8001812:	601a      	str	r2, [r3, #0]

    /* Check that the new number of wait states is taken into account to access the Flash
    memory by polling the FLASH_ACR register */
    tickstart = HAL_GetTick();
 8001814:	f7ff fa00 	bl	8000c18 <HAL_GetTick>
 8001818:	0003      	movs	r3, r0
 800181a:	60fb      	str	r3, [r7, #12]

    while ((FLASH->ACR & FLASH_ACR_LATENCY) != FLatency)
 800181c:	e009      	b.n	8001832 <HAL_RCC_ClockConfig+0x52>
    {
      if ((HAL_GetTick() - tickstart) > CLOCKSWITCH_TIMEOUT_VALUE)
 800181e:	f7ff f9fb 	bl	8000c18 <HAL_GetTick>
 8001822:	0002      	movs	r2, r0
 8001824:	68fb      	ldr	r3, [r7, #12]
 8001826:	1ad3      	subs	r3, r2, r3
 8001828:	4a6a      	ldr	r2, [pc, #424]	@ (80019d4 <HAL_RCC_ClockConfig+0x1f4>)
 800182a:	4293      	cmp	r3, r2
 800182c:	d901      	bls.n	8001832 <HAL_RCC_ClockConfig+0x52>
      {
        return HAL_TIMEOUT;
 800182e:	2303      	movs	r3, #3
 8001830:	e0ca      	b.n	80019c8 <HAL_RCC_ClockConfig+0x1e8>
    while ((FLASH->ACR & FLASH_ACR_LATENCY) != FLatency)
 8001832:	4b67      	ldr	r3, [pc, #412]	@ (80019d0 <HAL_RCC_ClockConfig+0x1f0>)
 8001834:	681b      	ldr	r3, [r3, #0]
 8001836:	2207      	movs	r2, #7
 8001838:	4013      	ands	r3, r2
 800183a:	683a      	ldr	r2, [r7, #0]
 800183c:	429a      	cmp	r2, r3
 800183e:	d1ee      	bne.n	800181e <HAL_RCC_ClockConfig+0x3e>
      }
    }
  }

  /*-------------------------- HCLK Configuration --------------------------*/
  if (((RCC_ClkInitStruct->ClockType) & RCC_CLOCKTYPE_HCLK) == RCC_CLOCKTYPE_HCLK)
 8001840:	687b      	ldr	r3, [r7, #4]
 8001842:	681b      	ldr	r3, [r3, #0]
 8001844:	2202      	movs	r2, #2
 8001846:	4013      	ands	r3, r2
 8001848:	d015      	beq.n	8001876 <HAL_RCC_ClockConfig+0x96>
  {
    /* Set the highest APB divider in order to ensure that we do not go through
       a non-spec phase whatever we decrease or increase HCLK. */
    if (((RCC_ClkInitStruct->ClockType) & RCC_CLOCKTYPE_PCLK1) == RCC_CLOCKTYPE_PCLK1)
 800184a:	687b      	ldr	r3, [r7, #4]
 800184c:	681b      	ldr	r3, [r3, #0]
 800184e:	2204      	movs	r2, #4
 8001850:	4013      	ands	r3, r2
 8001852:	d006      	beq.n	8001862 <HAL_RCC_ClockConfig+0x82>
    {
      MODIFY_REG(RCC->CFGR, RCC_CFGR_PPRE, RCC_HCLK_DIV16);
 8001854:	4b60      	ldr	r3, [pc, #384]	@ (80019d8 <HAL_RCC_ClockConfig+0x1f8>)
 8001856:	689a      	ldr	r2, [r3, #8]
 8001858:	4b5f      	ldr	r3, [pc, #380]	@ (80019d8 <HAL_RCC_ClockConfig+0x1f8>)
 800185a:	21e0      	movs	r1, #224	@ 0xe0
 800185c:	01c9      	lsls	r1, r1, #7
 800185e:	430a      	orrs	r2, r1
 8001860:	609a      	str	r2, [r3, #8]
    }

    /* Set the new HCLK clock divider */
    assert_param(IS_RCC_HCLK(RCC_ClkInitStruct->AHBCLKDivider));
    MODIFY_REG(RCC->CFGR, RCC_CFGR_HPRE, RCC_ClkInitStruct->AHBCLKDivider);
 8001862:	4b5d      	ldr	r3, [pc, #372]	@ (80019d8 <HAL_RCC_ClockConfig+0x1f8>)
 8001864:	689b      	ldr	r3, [r3, #8]
 8001866:	4a5d      	ldr	r2, [pc, #372]	@ (80019dc <HAL_RCC_ClockConfig+0x1fc>)
 8001868:	4013      	ands	r3, r2
 800186a:	0019      	movs	r1, r3
 800186c:	687b      	ldr	r3, [r7, #4]
 800186e:	689a      	ldr	r2, [r3, #8]
 8001870:	4b59      	ldr	r3, [pc, #356]	@ (80019d8 <HAL_RCC_ClockConfig+0x1f8>)
 8001872:	430a      	orrs	r2, r1
 8001874:	609a      	str	r2, [r3, #8]
  }

  /*------------------------- SYSCLK Configuration ---------------------------*/
  if (((RCC_ClkInitStruct->ClockType) & RCC_CLOCKTYPE_SYSCLK) == RCC_CLOCKTYPE_SYSCLK)
 8001876:	687b      	ldr	r3, [r7, #4]
 8001878:	681b      	ldr	r3, [r3, #0]
 800187a:	2201      	movs	r2, #1
 800187c:	4013      	ands	r3, r2
 800187e:	d057      	beq.n	8001930 <HAL_RCC_ClockConfig+0x150>
  {
    assert_param(IS_RCC_SYSCLKSOURCE(RCC_ClkInitStruct->SYSCLKSource));

    /* HSE is selected as System Clock Source */
    if (RCC_ClkInitStruct->SYSCLKSource == RCC_SYSCLKSOURCE_HSE)
 8001880:	687b      	ldr	r3, [r7, #4]
 8001882:	685b      	ldr	r3, [r3, #4]
 8001884:	2b01      	cmp	r3, #1
 8001886:	d107      	bne.n	8001898 <HAL_RCC_ClockConfig+0xb8>
    {
      /* Check the HSE ready flag */
      if (READ_BIT(RCC->CR, RCC_CR_HSERDY) == 0U)
 8001888:	4b53      	ldr	r3, [pc, #332]	@ (80019d8 <HAL_RCC_ClockConfig+0x1f8>)
 800188a:	681a      	ldr	r2, [r3, #0]
 800188c:	2380      	movs	r3, #128	@ 0x80
 800188e:	029b      	lsls	r3, r3, #10
 8001890:	4013      	ands	r3, r2
 8001892:	d12b      	bne.n	80018ec <HAL_RCC_ClockConfig+0x10c>
      {
        return HAL_ERROR;
 8001894:	2301      	movs	r3, #1
 8001896:	e097      	b.n	80019c8 <HAL_RCC_ClockConfig+0x1e8>
      }
    }
    /* PLL is selected as System Clock Source */
    else if (RCC_ClkInitStruct->SYSCLKSource == RCC_SYSCLKSOURCE_PLLCLK)
 8001898:	687b      	ldr	r3, [r7, #4]
 800189a:	685b      	ldr	r3, [r3, #4]
 800189c:	2b02      	cmp	r3, #2
 800189e:	d107      	bne.n	80018b0 <HAL_RCC_ClockConfig+0xd0>
    {
      /* Check the PLL ready flag */
      if (READ_BIT(RCC->CR, RCC_CR_PLLRDY) == 0U)
 80018a0:	4b4d      	ldr	r3, [pc, #308]	@ (80019d8 <HAL_RCC_ClockConfig+0x1f8>)
 80018a2:	681a      	ldr	r2, [r3, #0]
 80018a4:	2380      	movs	r3, #128	@ 0x80
 80018a6:	049b      	lsls	r3, r3, #18
 80018a8:	4013      	ands	r3, r2
 80018aa:	d11f      	bne.n	80018ec <HAL_RCC_ClockConfig+0x10c>
      {
        return HAL_ERROR;
 80018ac:	2301      	movs	r3, #1
 80018ae:	e08b      	b.n	80019c8 <HAL_RCC_ClockConfig+0x1e8>
      }
    }
    /* HSI is selected as System Clock Source */
    else if (RCC_ClkInitStruct->SYSCLKSource == RCC_SYSCLKSOURCE_HSI)
 80018b0:	687b      	ldr	r3, [r7, #4]
 80018b2:	685b      	ldr	r3, [r3, #4]
 80018b4:	2b00      	cmp	r3, #0
 80018b6:	d107      	bne.n	80018c8 <HAL_RCC_ClockConfig+0xe8>
    {
      /* Check the HSI ready flag */
      if (READ_BIT(RCC->CR, RCC_CR_HSIRDY) == 0U)
 80018b8:	4b47      	ldr	r3, [pc, #284]	@ (80019d8 <HAL_RCC_ClockConfig+0x1f8>)
 80018ba:	681a      	ldr	r2, [r3, #0]
 80018bc:	2380      	movs	r3, #128	@ 0x80
 80018be:	00db      	lsls	r3, r3, #3
 80018c0:	4013      	ands	r3, r2
 80018c2:	d113      	bne.n	80018ec <HAL_RCC_ClockConfig+0x10c>
      {
        return HAL_ERROR;
 80018c4:	2301      	movs	r3, #1
 80018c6:	e07f      	b.n	80019c8 <HAL_RCC_ClockConfig+0x1e8>
      }
    }
    /* LSI is selected as System Clock Source */
    else if (RCC_ClkInitStruct->SYSCLKSource == RCC_SYSCLKSOURCE_LSI)
 80018c8:	687b      	ldr	r3, [r7, #4]
 80018ca:	685b      	ldr	r3, [r3, #4]
 80018cc:	2b03      	cmp	r3, #3
 80018ce:	d106      	bne.n	80018de <HAL_RCC_ClockConfig+0xfe>
    {
      /* Check the LSI ready flag */
      if (READ_BIT(RCC->CSR, RCC_CSR_LSIRDY) == 0U)
 80018d0:	4b41      	ldr	r3, [pc, #260]	@ (80019d8 <HAL_RCC_ClockConfig+0x1f8>)
 80018d2:	6e1b      	ldr	r3, [r3, #96]	@ 0x60
 80018d4:	2202      	movs	r2, #2
 80018d6:	4013      	ands	r3, r2
 80018d8:	d108      	bne.n	80018ec <HAL_RCC_ClockConfig+0x10c>
      {
        return HAL_ERROR;
 80018da:	2301      	movs	r3, #1
 80018dc:	e074      	b.n	80019c8 <HAL_RCC_ClockConfig+0x1e8>
    }
    /* LSE is selected as System Clock Source */
    else
    {
      /* Check the LSE ready flag */
      if (READ_BIT(RCC->BDCR, RCC_BDCR_LSERDY) == 0U)
 80018de:	4b3e      	ldr	r3, [pc, #248]	@ (80019d8 <HAL_RCC_ClockConfig+0x1f8>)
 80018e0:	6ddb      	ldr	r3, [r3, #92]	@ 0x5c
 80018e2:	2202      	movs	r2, #2
 80018e4:	4013      	ands	r3, r2
 80018e6:	d101      	bne.n	80018ec <HAL_RCC_ClockConfig+0x10c>
      {
        return HAL_ERROR;
 80018e8:	2301      	movs	r3, #1
 80018ea:	e06d      	b.n	80019c8 <HAL_RCC_ClockConfig+0x1e8>
      }
    }
    MODIFY_REG(RCC->CFGR, RCC_CFGR_SW, RCC_ClkInitStruct->SYSCLKSource);
 80018ec:	4b3a      	ldr	r3, [pc, #232]	@ (80019d8 <HAL_RCC_ClockConfig+0x1f8>)
 80018ee:	689b      	ldr	r3, [r3, #8]
 80018f0:	2207      	movs	r2, #7
 80018f2:	4393      	bics	r3, r2
 80018f4:	0019      	movs	r1, r3
 80018f6:	687b      	ldr	r3, [r7, #4]
 80018f8:	685a      	ldr	r2, [r3, #4]
 80018fa:	4b37      	ldr	r3, [pc, #220]	@ (80019d8 <HAL_RCC_ClockConfig+0x1f8>)
 80018fc:	430a      	orrs	r2, r1
 80018fe:	609a      	str	r2, [r3, #8]

    /* Get Start Tick*/
    tickstart = HAL_GetTick();
 8001900:	f7ff f98a 	bl	8000c18 <HAL_GetTick>
 8001904:	0003      	movs	r3, r0
 8001906:	60fb      	str	r3, [r7, #12]

    while (__HAL_RCC_GET_SYSCLK_SOURCE() != (RCC_ClkInitStruct->SYSCLKSource << RCC_CFGR_SWS_Pos))
 8001908:	e009      	b.n	800191e <HAL_RCC_ClockConfig+0x13e>
    {
      if ((HAL_GetTick() - tickstart) > CLOCKSWITCH_TIMEOUT_VALUE)
 800190a:	f7ff f985 	bl	8000c18 <HAL_GetTick>
 800190e:	0002      	movs	r2, r0
 8001910:	68fb      	ldr	r3, [r7, #12]
 8001912:	1ad3      	subs	r3, r2, r3
 8001914:	4a2f      	ldr	r2, [pc, #188]	@ (80019d4 <HAL_RCC_ClockConfig+0x1f4>)
 8001916:	4293      	cmp	r3, r2
 8001918:	d901      	bls.n	800191e <HAL_RCC_ClockConfig+0x13e>
      {
        return HAL_TIMEOUT;
 800191a:	2303      	movs	r3, #3
 800191c:	e054      	b.n	80019c8 <HAL_RCC_ClockConfig+0x1e8>
    while (__HAL_RCC_GET_SYSCLK_SOURCE() != (RCC_ClkInitStruct->SYSCLKSource << RCC_CFGR_SWS_Pos))
 800191e:	4b2e      	ldr	r3, [pc, #184]	@ (80019d8 <HAL_RCC_ClockConfig+0x1f8>)
 8001920:	689b      	ldr	r3, [r3, #8]
 8001922:	2238      	movs	r2, #56	@ 0x38
 8001924:	401a      	ands	r2, r3
 8001926:	687b      	ldr	r3, [r7, #4]
 8001928:	685b      	ldr	r3, [r3, #4]
 800192a:	00db      	lsls	r3, r3, #3
 800192c:	429a      	cmp	r2, r3
 800192e:	d1ec      	bne.n	800190a <HAL_RCC_ClockConfig+0x12a>
      }
    }
  }

  /* Decreasing the number of wait states because of lower CPU frequency */
  if (FLatency < __HAL_FLASH_GET_LATENCY())
 8001930:	4b27      	ldr	r3, [pc, #156]	@ (80019d0 <HAL_RCC_ClockConfig+0x1f0>)
 8001932:	681b      	ldr	r3, [r3, #0]
 8001934:	2207      	movs	r2, #7
 8001936:	4013      	ands	r3, r2
 8001938:	683a      	ldr	r2, [r7, #0]
 800193a:	429a      	cmp	r2, r3
 800193c:	d21e      	bcs.n	800197c <HAL_RCC_ClockConfig+0x19c>
  {
    /* Program the new number of wait states to the LATENCY bits in the FLASH_ACR register */
    __HAL_FLASH_SET_LATENCY(FLatency);
 800193e:	4b24      	ldr	r3, [pc, #144]	@ (80019d0 <HAL_RCC_ClockConfig+0x1f0>)
 8001940:	681b      	ldr	r3, [r3, #0]
 8001942:	2207      	movs	r2, #7
 8001944:	4393      	bics	r3, r2
 8001946:	0019      	movs	r1, r3
 8001948:	4b21      	ldr	r3, [pc, #132]	@ (80019d0 <HAL_RCC_ClockConfig+0x1f0>)
 800194a:	683a      	ldr	r2, [r7, #0]
 800194c:	430a      	orrs	r2, r1
 800194e:	601a      	str	r2, [r3, #0]

    /* Check that the new number of wait states is taken into account to access the Flash
    memory by polling the FLASH_ACR register */
    tickstart = HAL_GetTick();
 8001950:	f7ff f962 	bl	8000c18 <HAL_GetTick>
 8001954:	0003      	movs	r3, r0
 8001956:	60fb      	str	r3, [r7, #12]

    while ((FLASH->ACR & FLASH_ACR_LATENCY) != FLatency)
 8001958:	e009      	b.n	800196e <HAL_RCC_ClockConfig+0x18e>
    {
      if ((HAL_GetTick() - tickstart) > CLOCKSWITCH_TIMEOUT_VALUE)
 800195a:	f7ff f95d 	bl	8000c18 <HAL_GetTick>
 800195e:	0002      	movs	r2, r0
 8001960:	68fb      	ldr	r3, [r7, #12]
 8001962:	1ad3      	subs	r3, r2, r3
 8001964:	4a1b      	ldr	r2, [pc, #108]	@ (80019d4 <HAL_RCC_ClockConfig+0x1f4>)
 8001966:	4293      	cmp	r3, r2
 8001968:	d901      	bls.n	800196e <HAL_RCC_ClockConfig+0x18e>
      {
        return HAL_TIMEOUT;
 800196a:	2303      	movs	r3, #3
 800196c:	e02c      	b.n	80019c8 <HAL_RCC_ClockConfig+0x1e8>
    while ((FLASH->ACR & FLASH_ACR_LATENCY) != FLatency)
 800196e:	4b18      	ldr	r3, [pc, #96]	@ (80019d0 <HAL_RCC_ClockConfig+0x1f0>)
 8001970:	681b      	ldr	r3, [r3, #0]
 8001972:	2207      	movs	r2, #7
 8001974:	4013      	ands	r3, r2
 8001976:	683a      	ldr	r2, [r7, #0]
 8001978:	429a      	cmp	r2, r3
 800197a:	d1ee      	bne.n	800195a <HAL_RCC_ClockConfig+0x17a>
      }
    }
  }

  /*-------------------------- PCLK1 Configuration ---------------------------*/
  if (((RCC_ClkInitStruct->ClockType) & RCC_CLOCKTYPE_PCLK1) == RCC_CLOCKTYPE_PCLK1)
 800197c:	687b      	ldr	r3, [r7, #4]
 800197e:	681b      	ldr	r3, [r3, #0]
 8001980:	2204      	movs	r2, #4
 8001982:	4013      	ands	r3, r2
 8001984:	d009      	beq.n	800199a <HAL_RCC_ClockConfig+0x1ba>
  {
    assert_param(IS_RCC_PCLK(RCC_ClkInitStruct->APB1CLKDivider));
    MODIFY_REG(RCC->CFGR, RCC_CFGR_PPRE, RCC_ClkInitStruct->APB1CLKDivider);
 8001986:	4b14      	ldr	r3, [pc, #80]	@ (80019d8 <HAL_RCC_ClockConfig+0x1f8>)
 8001988:	689b      	ldr	r3, [r3, #8]
 800198a:	4a15      	ldr	r2, [pc, #84]	@ (80019e0 <HAL_RCC_ClockConfig+0x200>)
 800198c:	4013      	ands	r3, r2
 800198e:	0019      	movs	r1, r3
 8001990:	687b      	ldr	r3, [r7, #4]
 8001992:	68da      	ldr	r2, [r3, #12]
 8001994:	4b10      	ldr	r3, [pc, #64]	@ (80019d8 <HAL_RCC_ClockConfig+0x1f8>)
 8001996:	430a      	orrs	r2, r1
 8001998:	609a      	str	r2, [r3, #8]
  }

  /* Update the SystemCoreClock global variable */
  SystemCoreClock = (HAL_RCC_GetSysClockFreq() >> ((AHBPrescTable[(RCC->CFGR & RCC_CFGR_HPRE) >> RCC_CFGR_HPRE_Pos]) & 0x1FU));
 800199a:	f000 f829 	bl	80019f0 <HAL_RCC_GetSysClockFreq>
 800199e:	0001      	movs	r1, r0
 80019a0:	4b0d      	ldr	r3, [pc, #52]	@ (80019d8 <HAL_RCC_ClockConfig+0x1f8>)
 80019a2:	689b      	ldr	r3, [r3, #8]
 80019a4:	0a1b      	lsrs	r3, r3, #8
 80019a6:	220f      	movs	r2, #15
 80019a8:	401a      	ands	r2, r3
 80019aa:	4b0e      	ldr	r3, [pc, #56]	@ (80019e4 <HAL_RCC_ClockConfig+0x204>)
 80019ac:	0092      	lsls	r2, r2, #2
 80019ae:	58d3      	ldr	r3, [r2, r3]
 80019b0:	221f      	movs	r2, #31
 80019b2:	4013      	ands	r3, r2
 80019b4:	000a      	movs	r2, r1
 80019b6:	40da      	lsrs	r2, r3
 80019b8:	4b0b      	ldr	r3, [pc, #44]	@ (80019e8 <HAL_RCC_ClockConfig+0x208>)
 80019ba:	601a      	str	r2, [r3, #0]

  /* Configure the source of time base considering new system clocks settings*/
  return HAL_InitTick(uwTickPrio);
 80019bc:	4b0b      	ldr	r3, [pc, #44]	@ (80019ec <HAL_RCC_ClockConfig+0x20c>)
 80019be:	681b      	ldr	r3, [r3, #0]
 80019c0:	0018      	movs	r0, r3
 80019c2:	f7ff f8cd 	bl	8000b60 <HAL_InitTick>
 80019c6:	0003      	movs	r3, r0
}
 80019c8:	0018      	movs	r0, r3
 80019ca:	46bd      	mov	sp, r7
 80019cc:	b004      	add	sp, #16
 80019ce:	bd80      	pop	{r7, pc}
 80019d0:	40022000 	.word	0x40022000
 80019d4:	00001388 	.word	0x00001388
 80019d8:	40021000 	.word	0x40021000
 80019dc:	fffff0ff 	.word	0xfffff0ff
 80019e0:	ffff8fff 	.word	0xffff8fff
 80019e4:	080036e0 	.word	0x080036e0
 80019e8:	20000000 	.word	0x20000000
 80019ec:	20000004 	.word	0x20000004

080019f0 <HAL_RCC_GetSysClockFreq>:
  *
  *
  * @retval SYSCLK frequency
  */
uint32_t HAL_RCC_GetSysClockFreq(void)
{
 80019f0:	b580      	push	{r7, lr}
 80019f2:	b086      	sub	sp, #24
 80019f4:	af00      	add	r7, sp, #0
  uint32_t pllvco, pllsource, pllr, pllm, hsidiv;
  uint32_t sysclockfreq;

  if (__HAL_RCC_GET_SYSCLK_SOURCE() == RCC_SYSCLKSOURCE_STATUS_HSI)
 80019f6:	4b3c      	ldr	r3, [pc, #240]	@ (8001ae8 <HAL_RCC_GetSysClockFreq+0xf8>)
 80019f8:	689b      	ldr	r3, [r3, #8]
 80019fa:	2238      	movs	r2, #56	@ 0x38
 80019fc:	4013      	ands	r3, r2
 80019fe:	d10f      	bne.n	8001a20 <HAL_RCC_GetSysClockFreq+0x30>
  {
    /* HSISYS can be derived for HSI16 */
    hsidiv = (1UL << ((READ_BIT(RCC->CR, RCC_CR_HSIDIV)) >> RCC_CR_HSIDIV_Pos));
 8001a00:	4b39      	ldr	r3, [pc, #228]	@ (8001ae8 <HAL_RCC_GetSysClockFreq+0xf8>)
 8001a02:	681b      	ldr	r3, [r3, #0]
 8001a04:	0adb      	lsrs	r3, r3, #11
 8001a06:	2207      	movs	r2, #7
 8001a08:	4013      	ands	r3, r2
 8001a0a:	2201      	movs	r2, #1
 8001a0c:	409a      	lsls	r2, r3
 8001a0e:	0013      	movs	r3, r2
 8001a10:	603b      	str	r3, [r7, #0]

    /* HSI used as system clock source */
    sysclockfreq = (HSI_VALUE / hsidiv);
 8001a12:	6839      	ldr	r1, [r7, #0]
 8001a14:	4835      	ldr	r0, [pc, #212]	@ (8001aec <HAL_RCC_GetSysClockFreq+0xfc>)
 8001a16:	f7fe fb75 	bl	8000104 <__udivsi3>
 8001a1a:	0003      	movs	r3, r0
 8001a1c:	613b      	str	r3, [r7, #16]
 8001a1e:	e05d      	b.n	8001adc <HAL_RCC_GetSysClockFreq+0xec>
  }
  else if (__HAL_RCC_GET_SYSCLK_SOURCE() == RCC_SYSCLKSOURCE_STATUS_HSE)
 8001a20:	4b31      	ldr	r3, [pc, #196]	@ (8001ae8 <HAL_RCC_GetSysClockFreq+0xf8>)
 8001a22:	689b      	ldr	r3, [r3, #8]
 8001a24:	2238      	movs	r2, #56	@ 0x38
 8001a26:	4013      	ands	r3, r2
 8001a28:	2b08      	cmp	r3, #8
 8001a2a:	d102      	bne.n	8001a32 <HAL_RCC_GetSysClockFreq+0x42>
  {
    /* HSE used as system clock source */
    sysclockfreq = HSE_VALUE;
 8001a2c:	4b30      	ldr	r3, [pc, #192]	@ (8001af0 <HAL_RCC_GetSysClockFreq+0x100>)
 8001a2e:	613b      	str	r3, [r7, #16]
 8001a30:	e054      	b.n	8001adc <HAL_RCC_GetSysClockFreq+0xec>
  }
  else if (__HAL_RCC_GET_SYSCLK_SOURCE() == RCC_SYSCLKSOURCE_STATUS_PLLCLK)
 8001a32:	4b2d      	ldr	r3, [pc, #180]	@ (8001ae8 <HAL_RCC_GetSysClockFreq+0xf8>)
 8001a34:	689b      	ldr	r3, [r3, #8]
 8001a36:	2238      	movs	r2, #56	@ 0x38
 8001a38:	4013      	ands	r3, r2
 8001a3a:	2b10      	cmp	r3, #16
 8001a3c:	d138      	bne.n	8001ab0 <HAL_RCC_GetSysClockFreq+0xc0>
    /* PLL used as system clock  source */

    /* PLL_VCO = ((HSE_VALUE or HSI_VALUE)/ PLLM) * PLLN
    SYSCLK = PLL_VCO / PLLR
    */
    pllsource = (RCC->PLLCFGR & RCC_PLLCFGR_PLLSRC);
 8001a3e:	4b2a      	ldr	r3, [pc, #168]	@ (8001ae8 <HAL_RCC_GetSysClockFreq+0xf8>)
 8001a40:	68db      	ldr	r3, [r3, #12]
 8001a42:	2203      	movs	r2, #3
 8001a44:	4013      	ands	r3, r2
 8001a46:	60fb      	str	r3, [r7, #12]
    pllm = ((RCC->PLLCFGR & RCC_PLLCFGR_PLLM) >> RCC_PLLCFGR_PLLM_Pos) + 1U ;
 8001a48:	4b27      	ldr	r3, [pc, #156]	@ (8001ae8 <HAL_RCC_GetSysClockFreq+0xf8>)
 8001a4a:	68db      	ldr	r3, [r3, #12]
 8001a4c:	091b      	lsrs	r3, r3, #4
 8001a4e:	2207      	movs	r2, #7
 8001a50:	4013      	ands	r3, r2
 8001a52:	3301      	adds	r3, #1
 8001a54:	60bb      	str	r3, [r7, #8]

    switch (pllsource)
 8001a56:	68fb      	ldr	r3, [r7, #12]
 8001a58:	2b03      	cmp	r3, #3
 8001a5a:	d10d      	bne.n	8001a78 <HAL_RCC_GetSysClockFreq+0x88>
    {
      case RCC_PLLSOURCE_HSE:  /* HSE used as PLL clock source */
        pllvco = (HSE_VALUE / pllm) * ((RCC->PLLCFGR & RCC_PLLCFGR_PLLN) >> RCC_PLLCFGR_PLLN_Pos);
 8001a5c:	68b9      	ldr	r1, [r7, #8]
 8001a5e:	4824      	ldr	r0, [pc, #144]	@ (8001af0 <HAL_RCC_GetSysClockFreq+0x100>)
 8001a60:	f7fe fb50 	bl	8000104 <__udivsi3>
 8001a64:	0003      	movs	r3, r0
 8001a66:	0019      	movs	r1, r3
 8001a68:	4b1f      	ldr	r3, [pc, #124]	@ (8001ae8 <HAL_RCC_GetSysClockFreq+0xf8>)
 8001a6a:	68db      	ldr	r3, [r3, #12]
 8001a6c:	0a1b      	lsrs	r3, r3, #8
 8001a6e:	227f      	movs	r2, #127	@ 0x7f
 8001a70:	4013      	ands	r3, r2
 8001a72:	434b      	muls	r3, r1
 8001a74:	617b      	str	r3, [r7, #20]
        break;
 8001a76:	e00d      	b.n	8001a94 <HAL_RCC_GetSysClockFreq+0xa4>

      case RCC_PLLSOURCE_HSI:  /* HSI16 used as PLL clock source */
      default:                 /* HSI16 used as PLL clock source */
        pllvco = (HSI_VALUE / pllm) * ((RCC->PLLCFGR & RCC_PLLCFGR_PLLN) >> RCC_PLLCFGR_PLLN_Pos) ;
 8001a78:	68b9      	ldr	r1, [r7, #8]
 8001a7a:	481c      	ldr	r0, [pc, #112]	@ (8001aec <HAL_RCC_GetSysClockFreq+0xfc>)
 8001a7c:	f7fe fb42 	bl	8000104 <__udivsi3>
 8001a80:	0003      	movs	r3, r0
 8001a82:	0019      	movs	r1, r3
 8001a84:	4b18      	ldr	r3, [pc, #96]	@ (8001ae8 <HAL_RCC_GetSysClockFreq+0xf8>)
 8001a86:	68db      	ldr	r3, [r3, #12]
 8001a88:	0a1b      	lsrs	r3, r3, #8
 8001a8a:	227f      	movs	r2, #127	@ 0x7f
 8001a8c:	4013      	ands	r3, r2
 8001a8e:	434b      	muls	r3, r1
 8001a90:	617b      	str	r3, [r7, #20]
        break;
 8001a92:	46c0      	nop			@ (mov r8, r8)
    }
    pllr = (((RCC->PLLCFGR & RCC_PLLCFGR_PLLR) >> RCC_PLLCFGR_PLLR_Pos) + 1U);
 8001a94:	4b14      	ldr	r3, [pc, #80]	@ (8001ae8 <HAL_RCC_GetSysClockFreq+0xf8>)
 8001a96:	68db      	ldr	r3, [r3, #12]
 8001a98:	0f5b      	lsrs	r3, r3, #29
 8001a9a:	2207      	movs	r2, #7
 8001a9c:	4013      	ands	r3, r2
 8001a9e:	3301      	adds	r3, #1
 8001aa0:	607b      	str	r3, [r7, #4]
    sysclockfreq = pllvco / pllr;
 8001aa2:	6879      	ldr	r1, [r7, #4]
 8001aa4:	6978      	ldr	r0, [r7, #20]
 8001aa6:	f7fe fb2d 	bl	8000104 <__udivsi3>
 8001aaa:	0003      	movs	r3, r0
 8001aac:	613b      	str	r3, [r7, #16]
 8001aae:	e015      	b.n	8001adc <HAL_RCC_GetSysClockFreq+0xec>
  }
  else if (__HAL_RCC_GET_SYSCLK_SOURCE() == RCC_SYSCLKSOURCE_STATUS_LSE)
 8001ab0:	4b0d      	ldr	r3, [pc, #52]	@ (8001ae8 <HAL_RCC_GetSysClockFreq+0xf8>)
 8001ab2:	689b      	ldr	r3, [r3, #8]
 8001ab4:	2238      	movs	r2, #56	@ 0x38
 8001ab6:	4013      	ands	r3, r2
 8001ab8:	2b20      	cmp	r3, #32
 8001aba:	d103      	bne.n	8001ac4 <HAL_RCC_GetSysClockFreq+0xd4>
  {
    /* LSE used as system clock source */
    sysclockfreq = LSE_VALUE;
 8001abc:	2380      	movs	r3, #128	@ 0x80
 8001abe:	021b      	lsls	r3, r3, #8
 8001ac0:	613b      	str	r3, [r7, #16]
 8001ac2:	e00b      	b.n	8001adc <HAL_RCC_GetSysClockFreq+0xec>
  }
  else if (__HAL_RCC_GET_SYSCLK_SOURCE() == RCC_SYSCLKSOURCE_STATUS_LSI)
 8001ac4:	4b08      	ldr	r3, [pc, #32]	@ (8001ae8 <HAL_RCC_GetSysClockFreq+0xf8>)
 8001ac6:	689b      	ldr	r3, [r3, #8]
 8001ac8:	2238      	movs	r2, #56	@ 0x38
 8001aca:	4013      	ands	r3, r2
 8001acc:	2b18      	cmp	r3, #24
 8001ace:	d103      	bne.n	8001ad8 <HAL_RCC_GetSysClockFreq+0xe8>
  {
    /* LSI used as system clock source */
    sysclockfreq = LSI_VALUE;
 8001ad0:	23fa      	movs	r3, #250	@ 0xfa
 8001ad2:	01db      	lsls	r3, r3, #7
 8001ad4:	613b      	str	r3, [r7, #16]
 8001ad6:	e001      	b.n	8001adc <HAL_RCC_GetSysClockFreq+0xec>
  }
  else
  {
    sysclockfreq = 0U;
 8001ad8:	2300      	movs	r3, #0
 8001ada:	613b      	str	r3, [r7, #16]
  }

  return sysclockfreq;
 8001adc:	693b      	ldr	r3, [r7, #16]
}
 8001ade:	0018      	movs	r0, r3
 8001ae0:	46bd      	mov	sp, r7
 8001ae2:	b006      	add	sp, #24
 8001ae4:	bd80      	pop	{r7, pc}
 8001ae6:	46c0      	nop			@ (mov r8, r8)
 8001ae8:	40021000 	.word	0x40021000
 8001aec:	00f42400 	.word	0x00f42400
 8001af0:	007a1200 	.word	0x007a1200

08001af4 <HAL_RCC_GetHCLKFreq>:
  *
  * @note   The SystemCoreClock CMSIS variable is used to store System Clock Frequency.
  * @retval HCLK frequency in Hz
  */
uint32_t HAL_RCC_GetHCLKFreq(void)
{
 8001af4:	b580      	push	{r7, lr}
 8001af6:	af00      	add	r7, sp, #0
  return SystemCoreClock;
 8001af8:	4b02      	ldr	r3, [pc, #8]	@ (8001b04 <HAL_RCC_GetHCLKFreq+0x10>)
 8001afa:	681b      	ldr	r3, [r3, #0]
}
 8001afc:	0018      	movs	r0, r3
 8001afe:	46bd      	mov	sp, r7
 8001b00:	bd80      	pop	{r7, pc}
 8001b02:	46c0      	nop			@ (mov r8, r8)
 8001b04:	20000000 	.word	0x20000000

08001b08 <HAL_RCC_GetPCLK1Freq>:
  * @note   Each time PCLK1 changes, this function must be called to update the
  *         right PCLK1 value. Otherwise, any configuration based on this function will be incorrect.
  * @retval PCLK1 frequency in Hz
  */
uint32_t HAL_RCC_GetPCLK1Freq(void)
{
 8001b08:	b5b0      	push	{r4, r5, r7, lr}
 8001b0a:	af00      	add	r7, sp, #0
  /* Get HCLK source and Compute PCLK1 frequency ---------------------------*/
  return ((uint32_t)(__LL_RCC_CALC_PCLK1_FREQ(HAL_RCC_GetHCLKFreq(), LL_RCC_GetAPB1Prescaler())));
 8001b0c:	f7ff fff2 	bl	8001af4 <HAL_RCC_GetHCLKFreq>
 8001b10:	0004      	movs	r4, r0
 8001b12:	f7ff fb3f 	bl	8001194 <LL_RCC_GetAPB1Prescaler>
 8001b16:	0003      	movs	r3, r0
 8001b18:	0b1a      	lsrs	r2, r3, #12
 8001b1a:	4b05      	ldr	r3, [pc, #20]	@ (8001b30 <HAL_RCC_GetPCLK1Freq+0x28>)
 8001b1c:	0092      	lsls	r2, r2, #2
 8001b1e:	58d3      	ldr	r3, [r2, r3]
 8001b20:	221f      	movs	r2, #31
 8001b22:	4013      	ands	r3, r2
 8001b24:	40dc      	lsrs	r4, r3
 8001b26:	0023      	movs	r3, r4
}
 8001b28:	0018      	movs	r0, r3
 8001b2a:	46bd      	mov	sp, r7
 8001b2c:	bdb0      	pop	{r4, r5, r7, pc}
 8001b2e:	46c0      	nop			@ (mov r8, r8)
 8001b30:	08003720 	.word	0x08003720

08001b34 <HAL_RCCEx_PeriphCLKConfig>:
  *         the RTC clock source: in this case the access to Backup domain is enabled.
  *
  * @retval HAL status
  */
HAL_StatusTypeDef HAL_RCCEx_PeriphCLKConfig(RCC_PeriphCLKInitTypeDef  *PeriphClkInit)
{
 8001b34:	b580      	push	{r7, lr}
 8001b36:	b086      	sub	sp, #24
 8001b38:	af00      	add	r7, sp, #0
 8001b3a:	6078      	str	r0, [r7, #4]
  uint32_t tmpregister;
  uint32_t tickstart;
  HAL_StatusTypeDef ret    = HAL_OK;   /* Intermediate status */
 8001b3c:	2313      	movs	r3, #19
 8001b3e:	18fb      	adds	r3, r7, r3
 8001b40:	2200      	movs	r2, #0
 8001b42:	701a      	strb	r2, [r3, #0]
  HAL_StatusTypeDef status = HAL_OK;   /* Final status */
 8001b44:	2312      	movs	r3, #18
 8001b46:	18fb      	adds	r3, r7, r3
 8001b48:	2200      	movs	r2, #0
 8001b4a:	701a      	strb	r2, [r3, #0]

  /* Check the parameters */
  assert_param(IS_RCC_PERIPHCLOCK(PeriphClkInit->PeriphClockSelection));

  /*-------------------------- RTC clock source configuration ----------------------*/
  if ((PeriphClkInit->PeriphClockSelection & RCC_PERIPHCLK_RTC) == RCC_PERIPHCLK_RTC)
 8001b4c:	687b      	ldr	r3, [r7, #4]
 8001b4e:	681a      	ldr	r2, [r3, #0]
 8001b50:	2380      	movs	r3, #128	@ 0x80
 8001b52:	029b      	lsls	r3, r3, #10
 8001b54:	4013      	ands	r3, r2
 8001b56:	d100      	bne.n	8001b5a <HAL_RCCEx_PeriphCLKConfig+0x26>
 8001b58:	e0a3      	b.n	8001ca2 <HAL_RCCEx_PeriphCLKConfig+0x16e>
  {
    FlagStatus       pwrclkchanged = RESET;
 8001b5a:	2011      	movs	r0, #17
 8001b5c:	183b      	adds	r3, r7, r0
 8001b5e:	2200      	movs	r2, #0
 8001b60:	701a      	strb	r2, [r3, #0]

    /* Check for RTC Parameters used to output RTCCLK */
    assert_param(IS_RCC_RTCCLKSOURCE(PeriphClkInit->RTCClockSelection));

    /* Enable Power Clock */
    if (__HAL_RCC_PWR_IS_CLK_DISABLED())
 8001b62:	4bc3      	ldr	r3, [pc, #780]	@ (8001e70 <HAL_RCCEx_PeriphCLKConfig+0x33c>)
 8001b64:	6bda      	ldr	r2, [r3, #60]	@ 0x3c
 8001b66:	2380      	movs	r3, #128	@ 0x80
 8001b68:	055b      	lsls	r3, r3, #21
 8001b6a:	4013      	ands	r3, r2
 8001b6c:	d110      	bne.n	8001b90 <HAL_RCCEx_PeriphCLKConfig+0x5c>
    {
      __HAL_RCC_PWR_CLK_ENABLE();
 8001b6e:	4bc0      	ldr	r3, [pc, #768]	@ (8001e70 <HAL_RCCEx_PeriphCLKConfig+0x33c>)
 8001b70:	6bda      	ldr	r2, [r3, #60]	@ 0x3c
 8001b72:	4bbf      	ldr	r3, [pc, #764]	@ (8001e70 <HAL_RCCEx_PeriphCLKConfig+0x33c>)
 8001b74:	2180      	movs	r1, #128	@ 0x80
 8001b76:	0549      	lsls	r1, r1, #21
 8001b78:	430a      	orrs	r2, r1
 8001b7a:	63da      	str	r2, [r3, #60]	@ 0x3c
 8001b7c:	4bbc      	ldr	r3, [pc, #752]	@ (8001e70 <HAL_RCCEx_PeriphCLKConfig+0x33c>)
 8001b7e:	6bda      	ldr	r2, [r3, #60]	@ 0x3c
 8001b80:	2380      	movs	r3, #128	@ 0x80
 8001b82:	055b      	lsls	r3, r3, #21
 8001b84:	4013      	ands	r3, r2
 8001b86:	60bb      	str	r3, [r7, #8]
 8001b88:	68bb      	ldr	r3, [r7, #8]
      pwrclkchanged = SET;
 8001b8a:	183b      	adds	r3, r7, r0
 8001b8c:	2201      	movs	r2, #1
 8001b8e:	701a      	strb	r2, [r3, #0]
    }

    /* Enable write access to Backup domain */
    SET_BIT(PWR->CR1, PWR_CR1_DBP);
 8001b90:	4bb8      	ldr	r3, [pc, #736]	@ (8001e74 <HAL_RCCEx_PeriphCLKConfig+0x340>)
 8001b92:	681a      	ldr	r2, [r3, #0]
 8001b94:	4bb7      	ldr	r3, [pc, #732]	@ (8001e74 <HAL_RCCEx_PeriphCLKConfig+0x340>)
 8001b96:	2180      	movs	r1, #128	@ 0x80
 8001b98:	0049      	lsls	r1, r1, #1
 8001b9a:	430a      	orrs	r2, r1
 8001b9c:	601a      	str	r2, [r3, #0]

    /* Wait for Backup domain Write protection disable */
    tickstart = HAL_GetTick();
 8001b9e:	f7ff f83b 	bl	8000c18 <HAL_GetTick>
 8001ba2:	0003      	movs	r3, r0
 8001ba4:	60fb      	str	r3, [r7, #12]

    while ((PWR->CR1 & PWR_CR1_DBP) == 0U)
 8001ba6:	e00b      	b.n	8001bc0 <HAL_RCCEx_PeriphCLKConfig+0x8c>
    {
      if ((HAL_GetTick() - tickstart) > RCC_DBP_TIMEOUT_VALUE)
 8001ba8:	f7ff f836 	bl	8000c18 <HAL_GetTick>
 8001bac:	0002      	movs	r2, r0
 8001bae:	68fb      	ldr	r3, [r7, #12]
 8001bb0:	1ad3      	subs	r3, r2, r3
 8001bb2:	2b02      	cmp	r3, #2
 8001bb4:	d904      	bls.n	8001bc0 <HAL_RCCEx_PeriphCLKConfig+0x8c>
      {
        ret = HAL_TIMEOUT;
 8001bb6:	2313      	movs	r3, #19
 8001bb8:	18fb      	adds	r3, r7, r3
 8001bba:	2203      	movs	r2, #3
 8001bbc:	701a      	strb	r2, [r3, #0]
        break;
 8001bbe:	e005      	b.n	8001bcc <HAL_RCCEx_PeriphCLKConfig+0x98>
    while ((PWR->CR1 & PWR_CR1_DBP) == 0U)
 8001bc0:	4bac      	ldr	r3, [pc, #688]	@ (8001e74 <HAL_RCCEx_PeriphCLKConfig+0x340>)
 8001bc2:	681a      	ldr	r2, [r3, #0]
 8001bc4:	2380      	movs	r3, #128	@ 0x80
 8001bc6:	005b      	lsls	r3, r3, #1
 8001bc8:	4013      	ands	r3, r2
 8001bca:	d0ed      	beq.n	8001ba8 <HAL_RCCEx_PeriphCLKConfig+0x74>
      }
    }

    if (ret == HAL_OK)
 8001bcc:	2313      	movs	r3, #19
 8001bce:	18fb      	adds	r3, r7, r3
 8001bd0:	781b      	ldrb	r3, [r3, #0]
 8001bd2:	2b00      	cmp	r3, #0
 8001bd4:	d154      	bne.n	8001c80 <HAL_RCCEx_PeriphCLKConfig+0x14c>
    {
      /* Reset the Backup domain only if the RTC Clock source selection is modified from default */
      tmpregister = READ_BIT(RCC->BDCR, RCC_BDCR_RTCSEL);
 8001bd6:	4ba6      	ldr	r3, [pc, #664]	@ (8001e70 <HAL_RCCEx_PeriphCLKConfig+0x33c>)
 8001bd8:	6dda      	ldr	r2, [r3, #92]	@ 0x5c
 8001bda:	23c0      	movs	r3, #192	@ 0xc0
 8001bdc:	009b      	lsls	r3, r3, #2
 8001bde:	4013      	ands	r3, r2
 8001be0:	617b      	str	r3, [r7, #20]

      /* Reset the Backup domain only if the RTC Clock source selection is modified */
      if ((tmpregister != RCC_RTCCLKSOURCE_NONE) && (tmpregister != PeriphClkInit->RTCClockSelection))
 8001be2:	697b      	ldr	r3, [r7, #20]
 8001be4:	2b00      	cmp	r3, #0
 8001be6:	d019      	beq.n	8001c1c <HAL_RCCEx_PeriphCLKConfig+0xe8>
 8001be8:	687b      	ldr	r3, [r7, #4]
 8001bea:	6b1b      	ldr	r3, [r3, #48]	@ 0x30
 8001bec:	697a      	ldr	r2, [r7, #20]
 8001bee:	429a      	cmp	r2, r3
 8001bf0:	d014      	beq.n	8001c1c <HAL_RCCEx_PeriphCLKConfig+0xe8>
      {
        /* Store the content of BDCR register before the reset of Backup Domain */
        tmpregister = READ_BIT(RCC->BDCR, ~(RCC_BDCR_RTCSEL));
 8001bf2:	4b9f      	ldr	r3, [pc, #636]	@ (8001e70 <HAL_RCCEx_PeriphCLKConfig+0x33c>)
 8001bf4:	6ddb      	ldr	r3, [r3, #92]	@ 0x5c
 8001bf6:	4aa0      	ldr	r2, [pc, #640]	@ (8001e78 <HAL_RCCEx_PeriphCLKConfig+0x344>)
 8001bf8:	4013      	ands	r3, r2
 8001bfa:	617b      	str	r3, [r7, #20]
        /* RTC Clock selection can be changed only if the Backup Domain is reset */
        __HAL_RCC_BACKUPRESET_FORCE();
 8001bfc:	4b9c      	ldr	r3, [pc, #624]	@ (8001e70 <HAL_RCCEx_PeriphCLKConfig+0x33c>)
 8001bfe:	6dda      	ldr	r2, [r3, #92]	@ 0x5c
 8001c00:	4b9b      	ldr	r3, [pc, #620]	@ (8001e70 <HAL_RCCEx_PeriphCLKConfig+0x33c>)
 8001c02:	2180      	movs	r1, #128	@ 0x80
 8001c04:	0249      	lsls	r1, r1, #9
 8001c06:	430a      	orrs	r2, r1
 8001c08:	65da      	str	r2, [r3, #92]	@ 0x5c
        __HAL_RCC_BACKUPRESET_RELEASE();
 8001c0a:	4b99      	ldr	r3, [pc, #612]	@ (8001e70 <HAL_RCCEx_PeriphCLKConfig+0x33c>)
 8001c0c:	6dda      	ldr	r2, [r3, #92]	@ 0x5c
 8001c0e:	4b98      	ldr	r3, [pc, #608]	@ (8001e70 <HAL_RCCEx_PeriphCLKConfig+0x33c>)
 8001c10:	499a      	ldr	r1, [pc, #616]	@ (8001e7c <HAL_RCCEx_PeriphCLKConfig+0x348>)
 8001c12:	400a      	ands	r2, r1
 8001c14:	65da      	str	r2, [r3, #92]	@ 0x5c
        /* Restore the Content of BDCR register */
        RCC->BDCR = tmpregister;
 8001c16:	4b96      	ldr	r3, [pc, #600]	@ (8001e70 <HAL_RCCEx_PeriphCLKConfig+0x33c>)
 8001c18:	697a      	ldr	r2, [r7, #20]
 8001c1a:	65da      	str	r2, [r3, #92]	@ 0x5c
      }

      /* Wait for LSE reactivation if LSE was enable prior to Backup Domain reset */
      if (HAL_IS_BIT_SET(tmpregister, RCC_BDCR_LSEON))
 8001c1c:	697b      	ldr	r3, [r7, #20]
 8001c1e:	2201      	movs	r2, #1
 8001c20:	4013      	ands	r3, r2
 8001c22:	d016      	beq.n	8001c52 <HAL_RCCEx_PeriphCLKConfig+0x11e>
      {
        /* Get Start Tick*/
        tickstart = HAL_GetTick();
 8001c24:	f7fe fff8 	bl	8000c18 <HAL_GetTick>
 8001c28:	0003      	movs	r3, r0
 8001c2a:	60fb      	str	r3, [r7, #12]

        /* Wait till LSE is ready */
        while (READ_BIT(RCC->BDCR, RCC_BDCR_LSERDY) == 0U)
 8001c2c:	e00c      	b.n	8001c48 <HAL_RCCEx_PeriphCLKConfig+0x114>
        {
          if ((HAL_GetTick() - tickstart) > RCC_LSE_TIMEOUT_VALUE)
 8001c2e:	f7fe fff3 	bl	8000c18 <HAL_GetTick>
 8001c32:	0002      	movs	r2, r0
 8001c34:	68fb      	ldr	r3, [r7, #12]
 8001c36:	1ad3      	subs	r3, r2, r3
 8001c38:	4a91      	ldr	r2, [pc, #580]	@ (8001e80 <HAL_RCCEx_PeriphCLKConfig+0x34c>)
 8001c3a:	4293      	cmp	r3, r2
 8001c3c:	d904      	bls.n	8001c48 <HAL_RCCEx_PeriphCLKConfig+0x114>
          {
            ret = HAL_TIMEOUT;
 8001c3e:	2313      	movs	r3, #19
 8001c40:	18fb      	adds	r3, r7, r3
 8001c42:	2203      	movs	r2, #3
 8001c44:	701a      	strb	r2, [r3, #0]
            break;
 8001c46:	e004      	b.n	8001c52 <HAL_RCCEx_PeriphCLKConfig+0x11e>
        while (READ_BIT(RCC->BDCR, RCC_BDCR_LSERDY) == 0U)
 8001c48:	4b89      	ldr	r3, [pc, #548]	@ (8001e70 <HAL_RCCEx_PeriphCLKConfig+0x33c>)
 8001c4a:	6ddb      	ldr	r3, [r3, #92]	@ 0x5c
 8001c4c:	2202      	movs	r2, #2
 8001c4e:	4013      	ands	r3, r2
 8001c50:	d0ed      	beq.n	8001c2e <HAL_RCCEx_PeriphCLKConfig+0xfa>
          }
        }
      }

      if (ret == HAL_OK)
 8001c52:	2313      	movs	r3, #19
 8001c54:	18fb      	adds	r3, r7, r3
 8001c56:	781b      	ldrb	r3, [r3, #0]
 8001c58:	2b00      	cmp	r3, #0
 8001c5a:	d10a      	bne.n	8001c72 <HAL_RCCEx_PeriphCLKConfig+0x13e>
      {
        /* Apply new RTC clock source selection */
        __HAL_RCC_RTC_CONFIG(PeriphClkInit->RTCClockSelection);
 8001c5c:	4b84      	ldr	r3, [pc, #528]	@ (8001e70 <HAL_RCCEx_PeriphCLKConfig+0x33c>)
 8001c5e:	6ddb      	ldr	r3, [r3, #92]	@ 0x5c
 8001c60:	4a85      	ldr	r2, [pc, #532]	@ (8001e78 <HAL_RCCEx_PeriphCLKConfig+0x344>)
 8001c62:	4013      	ands	r3, r2
 8001c64:	0019      	movs	r1, r3
 8001c66:	687b      	ldr	r3, [r7, #4]
 8001c68:	6b1a      	ldr	r2, [r3, #48]	@ 0x30
 8001c6a:	4b81      	ldr	r3, [pc, #516]	@ (8001e70 <HAL_RCCEx_PeriphCLKConfig+0x33c>)
 8001c6c:	430a      	orrs	r2, r1
 8001c6e:	65da      	str	r2, [r3, #92]	@ 0x5c
 8001c70:	e00c      	b.n	8001c8c <HAL_RCCEx_PeriphCLKConfig+0x158>
      }
      else
      {
        /* set overall return value */
        status = ret;
 8001c72:	2312      	movs	r3, #18
 8001c74:	18fb      	adds	r3, r7, r3
 8001c76:	2213      	movs	r2, #19
 8001c78:	18ba      	adds	r2, r7, r2
 8001c7a:	7812      	ldrb	r2, [r2, #0]
 8001c7c:	701a      	strb	r2, [r3, #0]
 8001c7e:	e005      	b.n	8001c8c <HAL_RCCEx_PeriphCLKConfig+0x158>
      }
    }
    else
    {
      /* set overall return value */
      status = ret;
 8001c80:	2312      	movs	r3, #18
 8001c82:	18fb      	adds	r3, r7, r3
 8001c84:	2213      	movs	r2, #19
 8001c86:	18ba      	adds	r2, r7, r2
 8001c88:	7812      	ldrb	r2, [r2, #0]
 8001c8a:	701a      	strb	r2, [r3, #0]
    }

    /* Restore clock configuration if changed */
    if (pwrclkchanged == SET)
 8001c8c:	2311      	movs	r3, #17
 8001c8e:	18fb      	adds	r3, r7, r3
 8001c90:	781b      	ldrb	r3, [r3, #0]
 8001c92:	2b01      	cmp	r3, #1
 8001c94:	d105      	bne.n	8001ca2 <HAL_RCCEx_PeriphCLKConfig+0x16e>
    {
      __HAL_RCC_PWR_CLK_DISABLE();
 8001c96:	4b76      	ldr	r3, [pc, #472]	@ (8001e70 <HAL_RCCEx_PeriphCLKConfig+0x33c>)
 8001c98:	6bda      	ldr	r2, [r3, #60]	@ 0x3c
 8001c9a:	4b75      	ldr	r3, [pc, #468]	@ (8001e70 <HAL_RCCEx_PeriphCLKConfig+0x33c>)
 8001c9c:	4979      	ldr	r1, [pc, #484]	@ (8001e84 <HAL_RCCEx_PeriphCLKConfig+0x350>)
 8001c9e:	400a      	ands	r2, r1
 8001ca0:	63da      	str	r2, [r3, #60]	@ 0x3c
    }
  }

  /*-------------------------- USART1 clock source configuration -------------------*/
  if (((PeriphClkInit->PeriphClockSelection) & RCC_PERIPHCLK_USART1) == RCC_PERIPHCLK_USART1)
 8001ca2:	687b      	ldr	r3, [r7, #4]
 8001ca4:	681b      	ldr	r3, [r3, #0]
 8001ca6:	2201      	movs	r2, #1
 8001ca8:	4013      	ands	r3, r2
 8001caa:	d009      	beq.n	8001cc0 <HAL_RCCEx_PeriphCLKConfig+0x18c>
  {
    /* Check the parameters */
    assert_param(IS_RCC_USART1CLKSOURCE(PeriphClkInit->Usart1ClockSelection));

    /* Configure the USART1 clock source */
    __HAL_RCC_USART1_CONFIG(PeriphClkInit->Usart1ClockSelection);
 8001cac:	4b70      	ldr	r3, [pc, #448]	@ (8001e70 <HAL_RCCEx_PeriphCLKConfig+0x33c>)
 8001cae:	6d5b      	ldr	r3, [r3, #84]	@ 0x54
 8001cb0:	2203      	movs	r2, #3
 8001cb2:	4393      	bics	r3, r2
 8001cb4:	0019      	movs	r1, r3
 8001cb6:	687b      	ldr	r3, [r7, #4]
 8001cb8:	685a      	ldr	r2, [r3, #4]
 8001cba:	4b6d      	ldr	r3, [pc, #436]	@ (8001e70 <HAL_RCCEx_PeriphCLKConfig+0x33c>)
 8001cbc:	430a      	orrs	r2, r1
 8001cbe:	655a      	str	r2, [r3, #84]	@ 0x54
  }

#if defined(RCC_CCIPR_USART2SEL)
  /*-------------------------- USART2 clock source configuration -------------------*/
  if (((PeriphClkInit->PeriphClockSelection) & RCC_PERIPHCLK_USART2) == RCC_PERIPHCLK_USART2)
 8001cc0:	687b      	ldr	r3, [r7, #4]
 8001cc2:	681b      	ldr	r3, [r3, #0]
 8001cc4:	2202      	movs	r2, #2
 8001cc6:	4013      	ands	r3, r2
 8001cc8:	d009      	beq.n	8001cde <HAL_RCCEx_PeriphCLKConfig+0x1aa>
  {
    /* Check the parameters */
    assert_param(IS_RCC_USART2CLKSOURCE(PeriphClkInit->Usart2ClockSelection));

    /* Configure the USART2 clock source */
    __HAL_RCC_USART2_CONFIG(PeriphClkInit->Usart2ClockSelection);
 8001cca:	4b69      	ldr	r3, [pc, #420]	@ (8001e70 <HAL_RCCEx_PeriphCLKConfig+0x33c>)
 8001ccc:	6d5b      	ldr	r3, [r3, #84]	@ 0x54
 8001cce:	220c      	movs	r2, #12
 8001cd0:	4393      	bics	r3, r2
 8001cd2:	0019      	movs	r1, r3
 8001cd4:	687b      	ldr	r3, [r7, #4]
 8001cd6:	689a      	ldr	r2, [r3, #8]
 8001cd8:	4b65      	ldr	r3, [pc, #404]	@ (8001e70 <HAL_RCCEx_PeriphCLKConfig+0x33c>)
 8001cda:	430a      	orrs	r2, r1
 8001cdc:	655a      	str	r2, [r3, #84]	@ 0x54
  }
#endif /* RCC_CCIPR_USART3SEL */

#if defined(LPUART1)
  /*-------------------------- LPUART1 clock source configuration ------------------*/
  if (((PeriphClkInit->PeriphClockSelection) & RCC_PERIPHCLK_LPUART1) == RCC_PERIPHCLK_LPUART1)
 8001cde:	687b      	ldr	r3, [r7, #4]
 8001ce0:	681b      	ldr	r3, [r3, #0]
 8001ce2:	2210      	movs	r2, #16
 8001ce4:	4013      	ands	r3, r2
 8001ce6:	d009      	beq.n	8001cfc <HAL_RCCEx_PeriphCLKConfig+0x1c8>
  {
    /* Check the parameters */
    assert_param(IS_RCC_LPUART1CLKSOURCE(PeriphClkInit->Lpuart1ClockSelection));

    /* Configure the LPUART1 clock source */
    __HAL_RCC_LPUART1_CONFIG(PeriphClkInit->Lpuart1ClockSelection);
 8001ce8:	4b61      	ldr	r3, [pc, #388]	@ (8001e70 <HAL_RCCEx_PeriphCLKConfig+0x33c>)
 8001cea:	6d5b      	ldr	r3, [r3, #84]	@ 0x54
 8001cec:	4a66      	ldr	r2, [pc, #408]	@ (8001e88 <HAL_RCCEx_PeriphCLKConfig+0x354>)
 8001cee:	4013      	ands	r3, r2
 8001cf0:	0019      	movs	r1, r3
 8001cf2:	687b      	ldr	r3, [r7, #4]
 8001cf4:	68da      	ldr	r2, [r3, #12]
 8001cf6:	4b5e      	ldr	r3, [pc, #376]	@ (8001e70 <HAL_RCCEx_PeriphCLKConfig+0x33c>)
 8001cf8:	430a      	orrs	r2, r1
 8001cfa:	655a      	str	r2, [r3, #84]	@ 0x54
  }
#endif /* LPUART2 */

#if defined(RCC_CCIPR_LPTIM1SEL)
  /*-------------------------- LPTIM1 clock source configuration -------------------*/
  if (((PeriphClkInit->PeriphClockSelection) & RCC_PERIPHCLK_LPTIM1) == (RCC_PERIPHCLK_LPTIM1))
 8001cfc:	687b      	ldr	r3, [r7, #4]
 8001cfe:	681a      	ldr	r2, [r3, #0]
 8001d00:	2380      	movs	r3, #128	@ 0x80
 8001d02:	009b      	lsls	r3, r3, #2
 8001d04:	4013      	ands	r3, r2
 8001d06:	d009      	beq.n	8001d1c <HAL_RCCEx_PeriphCLKConfig+0x1e8>
  {
    assert_param(IS_RCC_LPTIM1CLKSOURCE(PeriphClkInit->Lptim1ClockSelection));
    __HAL_RCC_LPTIM1_CONFIG(PeriphClkInit->Lptim1ClockSelection);
 8001d08:	4b59      	ldr	r3, [pc, #356]	@ (8001e70 <HAL_RCCEx_PeriphCLKConfig+0x33c>)
 8001d0a:	6d5b      	ldr	r3, [r3, #84]	@ 0x54
 8001d0c:	4a5f      	ldr	r2, [pc, #380]	@ (8001e8c <HAL_RCCEx_PeriphCLKConfig+0x358>)
 8001d0e:	4013      	ands	r3, r2
 8001d10:	0019      	movs	r1, r3
 8001d12:	687b      	ldr	r3, [r7, #4]
 8001d14:	699a      	ldr	r2, [r3, #24]
 8001d16:	4b56      	ldr	r3, [pc, #344]	@ (8001e70 <HAL_RCCEx_PeriphCLKConfig+0x33c>)
 8001d18:	430a      	orrs	r2, r1
 8001d1a:	655a      	str	r2, [r3, #84]	@ 0x54
  }
#endif /* RCC_CCIPR_LPTIM1SEL */

#if defined(RCC_CCIPR_LPTIM2SEL)
  /*-------------------------- LPTIM2 clock source configuration -------------------*/
  if (((PeriphClkInit->PeriphClockSelection) & RCC_PERIPHCLK_LPTIM2) == (RCC_PERIPHCLK_LPTIM2))
 8001d1c:	687b      	ldr	r3, [r7, #4]
 8001d1e:	681a      	ldr	r2, [r3, #0]
 8001d20:	2380      	movs	r3, #128	@ 0x80
 8001d22:	00db      	lsls	r3, r3, #3
 8001d24:	4013      	ands	r3, r2
 8001d26:	d009      	beq.n	8001d3c <HAL_RCCEx_PeriphCLKConfig+0x208>
  {
    assert_param(IS_RCC_LPTIM2CLKSOURCE(PeriphClkInit->Lptim2ClockSelection));
    __HAL_RCC_LPTIM2_CONFIG(PeriphClkInit->Lptim2ClockSelection);
 8001d28:	4b51      	ldr	r3, [pc, #324]	@ (8001e70 <HAL_RCCEx_PeriphCLKConfig+0x33c>)
 8001d2a:	6d5b      	ldr	r3, [r3, #84]	@ 0x54
 8001d2c:	4a58      	ldr	r2, [pc, #352]	@ (8001e90 <HAL_RCCEx_PeriphCLKConfig+0x35c>)
 8001d2e:	4013      	ands	r3, r2
 8001d30:	0019      	movs	r1, r3
 8001d32:	687b      	ldr	r3, [r7, #4]
 8001d34:	69da      	ldr	r2, [r3, #28]
 8001d36:	4b4e      	ldr	r3, [pc, #312]	@ (8001e70 <HAL_RCCEx_PeriphCLKConfig+0x33c>)
 8001d38:	430a      	orrs	r2, r1
 8001d3a:	655a      	str	r2, [r3, #84]	@ 0x54
  }
#endif /* RCC_CCIPR_LPTIM2SEL */

  /*-------------------------- I2C1 clock source configuration ---------------------*/
  if (((PeriphClkInit->PeriphClockSelection) & RCC_PERIPHCLK_I2C1) == RCC_PERIPHCLK_I2C1)
 8001d3c:	687b      	ldr	r3, [r7, #4]
 8001d3e:	681b      	ldr	r3, [r3, #0]
 8001d40:	2220      	movs	r2, #32
 8001d42:	4013      	ands	r3, r2
 8001d44:	d009      	beq.n	8001d5a <HAL_RCCEx_PeriphCLKConfig+0x226>
  {
    /* Check the parameters */
    assert_param(IS_RCC_I2C1CLKSOURCE(PeriphClkInit->I2c1ClockSelection));

    /* Configure the I2C1 clock source */
    __HAL_RCC_I2C1_CONFIG(PeriphClkInit->I2c1ClockSelection);
 8001d46:	4b4a      	ldr	r3, [pc, #296]	@ (8001e70 <HAL_RCCEx_PeriphCLKConfig+0x33c>)
 8001d48:	6d5b      	ldr	r3, [r3, #84]	@ 0x54
 8001d4a:	4a52      	ldr	r2, [pc, #328]	@ (8001e94 <HAL_RCCEx_PeriphCLKConfig+0x360>)
 8001d4c:	4013      	ands	r3, r2
 8001d4e:	0019      	movs	r1, r3
 8001d50:	687b      	ldr	r3, [r7, #4]
 8001d52:	691a      	ldr	r2, [r3, #16]
 8001d54:	4b46      	ldr	r3, [pc, #280]	@ (8001e70 <HAL_RCCEx_PeriphCLKConfig+0x33c>)
 8001d56:	430a      	orrs	r2, r1
 8001d58:	655a      	str	r2, [r3, #84]	@ 0x54
      __HAL_RCC_PLLCLKOUT_ENABLE(RCC_PLLQCLK);
    }
  }
#endif /* RNG */
  /*-------------------------- ADC clock source configuration ----------------------*/
  if (((PeriphClkInit->PeriphClockSelection) & RCC_PERIPHCLK_ADC) == RCC_PERIPHCLK_ADC)
 8001d5a:	687b      	ldr	r3, [r7, #4]
 8001d5c:	681a      	ldr	r2, [r3, #0]
 8001d5e:	2380      	movs	r3, #128	@ 0x80
 8001d60:	01db      	lsls	r3, r3, #7
 8001d62:	4013      	ands	r3, r2
 8001d64:	d015      	beq.n	8001d92 <HAL_RCCEx_PeriphCLKConfig+0x25e>
  {
    /* Check the parameters */
    assert_param(IS_RCC_ADCCLKSOURCE(PeriphClkInit->AdcClockSelection));

    /* Configure the ADC interface clock source */
    __HAL_RCC_ADC_CONFIG(PeriphClkInit->AdcClockSelection);
 8001d66:	4b42      	ldr	r3, [pc, #264]	@ (8001e70 <HAL_RCCEx_PeriphCLKConfig+0x33c>)
 8001d68:	6d5b      	ldr	r3, [r3, #84]	@ 0x54
 8001d6a:	009b      	lsls	r3, r3, #2
 8001d6c:	0899      	lsrs	r1, r3, #2
 8001d6e:	687b      	ldr	r3, [r7, #4]
 8001d70:	6a1a      	ldr	r2, [r3, #32]
 8001d72:	4b3f      	ldr	r3, [pc, #252]	@ (8001e70 <HAL_RCCEx_PeriphCLKConfig+0x33c>)
 8001d74:	430a      	orrs	r2, r1
 8001d76:	655a      	str	r2, [r3, #84]	@ 0x54

    if (PeriphClkInit->AdcClockSelection == RCC_ADCCLKSOURCE_PLLADC)
 8001d78:	687b      	ldr	r3, [r7, #4]
 8001d7a:	6a1a      	ldr	r2, [r3, #32]
 8001d7c:	2380      	movs	r3, #128	@ 0x80
 8001d7e:	05db      	lsls	r3, r3, #23
 8001d80:	429a      	cmp	r2, r3
 8001d82:	d106      	bne.n	8001d92 <HAL_RCCEx_PeriphCLKConfig+0x25e>
    {
      /* Enable PLLPCLK output */
      __HAL_RCC_PLLCLKOUT_ENABLE(RCC_PLLPCLK);
 8001d84:	4b3a      	ldr	r3, [pc, #232]	@ (8001e70 <HAL_RCCEx_PeriphCLKConfig+0x33c>)
 8001d86:	68da      	ldr	r2, [r3, #12]
 8001d88:	4b39      	ldr	r3, [pc, #228]	@ (8001e70 <HAL_RCCEx_PeriphCLKConfig+0x33c>)
 8001d8a:	2180      	movs	r1, #128	@ 0x80
 8001d8c:	0249      	lsls	r1, r1, #9
 8001d8e:	430a      	orrs	r2, r1
 8001d90:	60da      	str	r2, [r3, #12]
    }
  }

#if defined(CEC)
  /*-------------------------- CEC clock source configuration ---------------------*/
  if (((PeriphClkInit->PeriphClockSelection) & RCC_PERIPHCLK_CEC) == RCC_PERIPHCLK_CEC)
 8001d92:	687b      	ldr	r3, [r7, #4]
 8001d94:	681a      	ldr	r2, [r3, #0]
 8001d96:	2380      	movs	r3, #128	@ 0x80
 8001d98:	031b      	lsls	r3, r3, #12
 8001d9a:	4013      	ands	r3, r2
 8001d9c:	d009      	beq.n	8001db2 <HAL_RCCEx_PeriphCLKConfig+0x27e>
  {
    /* Check the parameters */
    assert_param(IS_RCC_CECCLKSOURCE(PeriphClkInit->CecClockSelection));

    /* Configure the CEC clock source */
    __HAL_RCC_CEC_CONFIG(PeriphClkInit->CecClockSelection);
 8001d9e:	4b34      	ldr	r3, [pc, #208]	@ (8001e70 <HAL_RCCEx_PeriphCLKConfig+0x33c>)
 8001da0:	6d5b      	ldr	r3, [r3, #84]	@ 0x54
 8001da2:	2240      	movs	r2, #64	@ 0x40
 8001da4:	4393      	bics	r3, r2
 8001da6:	0019      	movs	r1, r3
 8001da8:	687b      	ldr	r3, [r7, #4]
 8001daa:	6a5a      	ldr	r2, [r3, #36]	@ 0x24
 8001dac:	4b30      	ldr	r3, [pc, #192]	@ (8001e70 <HAL_RCCEx_PeriphCLKConfig+0x33c>)
 8001dae:	430a      	orrs	r2, r1
 8001db0:	655a      	str	r2, [r3, #84]	@ 0x54
  }
#endif /* CEC */

#if defined(RCC_CCIPR_TIM1SEL)
  /*-------------------------- TIM1 clock source configuration ---------------------*/
  if (((PeriphClkInit->PeriphClockSelection) & RCC_PERIPHCLK_TIM1) == RCC_PERIPHCLK_TIM1)
 8001db2:	687b      	ldr	r3, [r7, #4]
 8001db4:	681a      	ldr	r2, [r3, #0]
 8001db6:	2380      	movs	r3, #128	@ 0x80
 8001db8:	039b      	lsls	r3, r3, #14
 8001dba:	4013      	ands	r3, r2
 8001dbc:	d016      	beq.n	8001dec <HAL_RCCEx_PeriphCLKConfig+0x2b8>
  {
    /* Check the parameters */
    assert_param(IS_RCC_TIM1CLKSOURCE(PeriphClkInit->Tim1ClockSelection));

    /* Configure the TIM1 clock source */
    __HAL_RCC_TIM1_CONFIG(PeriphClkInit->Tim1ClockSelection);
 8001dbe:	4b2c      	ldr	r3, [pc, #176]	@ (8001e70 <HAL_RCCEx_PeriphCLKConfig+0x33c>)
 8001dc0:	6d5b      	ldr	r3, [r3, #84]	@ 0x54
 8001dc2:	4a35      	ldr	r2, [pc, #212]	@ (8001e98 <HAL_RCCEx_PeriphCLKConfig+0x364>)
 8001dc4:	4013      	ands	r3, r2
 8001dc6:	0019      	movs	r1, r3
 8001dc8:	687b      	ldr	r3, [r7, #4]
 8001dca:	6a9a      	ldr	r2, [r3, #40]	@ 0x28
 8001dcc:	4b28      	ldr	r3, [pc, #160]	@ (8001e70 <HAL_RCCEx_PeriphCLKConfig+0x33c>)
 8001dce:	430a      	orrs	r2, r1
 8001dd0:	655a      	str	r2, [r3, #84]	@ 0x54

    if (PeriphClkInit->Tim1ClockSelection == RCC_TIM1CLKSOURCE_PLL)
 8001dd2:	687b      	ldr	r3, [r7, #4]
 8001dd4:	6a9a      	ldr	r2, [r3, #40]	@ 0x28
 8001dd6:	2380      	movs	r3, #128	@ 0x80
 8001dd8:	03db      	lsls	r3, r3, #15
 8001dda:	429a      	cmp	r2, r3
 8001ddc:	d106      	bne.n	8001dec <HAL_RCCEx_PeriphCLKConfig+0x2b8>
    {
      /* Enable PLLQCLK output */
      __HAL_RCC_PLLCLKOUT_ENABLE(RCC_PLLQCLK);
 8001dde:	4b24      	ldr	r3, [pc, #144]	@ (8001e70 <HAL_RCCEx_PeriphCLKConfig+0x33c>)
 8001de0:	68da      	ldr	r2, [r3, #12]
 8001de2:	4b23      	ldr	r3, [pc, #140]	@ (8001e70 <HAL_RCCEx_PeriphCLKConfig+0x33c>)
 8001de4:	2180      	movs	r1, #128	@ 0x80
 8001de6:	0449      	lsls	r1, r1, #17
 8001de8:	430a      	orrs	r2, r1
 8001dea:	60da      	str	r2, [r3, #12]
  }
#endif /* RCC_CCIPR_TIM1SEL */

#if defined(RCC_CCIPR_TIM15SEL)
  /*-------------------------- TIM15 clock source configuration ---------------------*/
  if (((PeriphClkInit->PeriphClockSelection) & RCC_PERIPHCLK_TIM15) == RCC_PERIPHCLK_TIM15)
 8001dec:	687b      	ldr	r3, [r7, #4]
 8001dee:	681a      	ldr	r2, [r3, #0]
 8001df0:	2380      	movs	r3, #128	@ 0x80
 8001df2:	03db      	lsls	r3, r3, #15
 8001df4:	4013      	ands	r3, r2
 8001df6:	d016      	beq.n	8001e26 <HAL_RCCEx_PeriphCLKConfig+0x2f2>
  {
    /* Check the parameters */
    assert_param(IS_RCC_TIM15CLKSOURCE(PeriphClkInit->Tim15ClockSelection));

    /* Configure the TIM15 clock source */
    __HAL_RCC_TIM15_CONFIG(PeriphClkInit->Tim15ClockSelection);
 8001df8:	4b1d      	ldr	r3, [pc, #116]	@ (8001e70 <HAL_RCCEx_PeriphCLKConfig+0x33c>)
 8001dfa:	6d5b      	ldr	r3, [r3, #84]	@ 0x54
 8001dfc:	4a27      	ldr	r2, [pc, #156]	@ (8001e9c <HAL_RCCEx_PeriphCLKConfig+0x368>)
 8001dfe:	4013      	ands	r3, r2
 8001e00:	0019      	movs	r1, r3
 8001e02:	687b      	ldr	r3, [r7, #4]
 8001e04:	6ada      	ldr	r2, [r3, #44]	@ 0x2c
 8001e06:	4b1a      	ldr	r3, [pc, #104]	@ (8001e70 <HAL_RCCEx_PeriphCLKConfig+0x33c>)
 8001e08:	430a      	orrs	r2, r1
 8001e0a:	655a      	str	r2, [r3, #84]	@ 0x54

    if (PeriphClkInit->Tim15ClockSelection == RCC_TIM15CLKSOURCE_PLL)
 8001e0c:	687b      	ldr	r3, [r7, #4]
 8001e0e:	6ada      	ldr	r2, [r3, #44]	@ 0x2c
 8001e10:	2380      	movs	r3, #128	@ 0x80
 8001e12:	045b      	lsls	r3, r3, #17
 8001e14:	429a      	cmp	r2, r3
 8001e16:	d106      	bne.n	8001e26 <HAL_RCCEx_PeriphCLKConfig+0x2f2>
    {
      /* Enable PLLQCLK output */
      __HAL_RCC_PLLCLKOUT_ENABLE(RCC_PLLQCLK);
 8001e18:	4b15      	ldr	r3, [pc, #84]	@ (8001e70 <HAL_RCCEx_PeriphCLKConfig+0x33c>)
 8001e1a:	68da      	ldr	r2, [r3, #12]
 8001e1c:	4b14      	ldr	r3, [pc, #80]	@ (8001e70 <HAL_RCCEx_PeriphCLKConfig+0x33c>)
 8001e1e:	2180      	movs	r1, #128	@ 0x80
 8001e20:	0449      	lsls	r1, r1, #17
 8001e22:	430a      	orrs	r2, r1
 8001e24:	60da      	str	r2, [r3, #12]
    }
  }
#endif /* RCC_CCIPR_TIM15SEL */

  /*-------------------------- I2S1 clock source configuration ---------------------*/
  if (((PeriphClkInit->PeriphClockSelection) & RCC_PERIPHCLK_I2S1) == RCC_PERIPHCLK_I2S1)
 8001e26:	687b      	ldr	r3, [r7, #4]
 8001e28:	681a      	ldr	r2, [r3, #0]
 8001e2a:	2380      	movs	r3, #128	@ 0x80
 8001e2c:	011b      	lsls	r3, r3, #4
 8001e2e:	4013      	ands	r3, r2
 8001e30:	d016      	beq.n	8001e60 <HAL_RCCEx_PeriphCLKConfig+0x32c>
  {
    /* Check the parameters */
    assert_param(IS_RCC_I2S1CLKSOURCE(PeriphClkInit->I2s1ClockSelection));

    /* Configure the I2S1 clock source */
    __HAL_RCC_I2S1_CONFIG(PeriphClkInit->I2s1ClockSelection);
 8001e32:	4b0f      	ldr	r3, [pc, #60]	@ (8001e70 <HAL_RCCEx_PeriphCLKConfig+0x33c>)
 8001e34:	6d5b      	ldr	r3, [r3, #84]	@ 0x54
 8001e36:	4a1a      	ldr	r2, [pc, #104]	@ (8001ea0 <HAL_RCCEx_PeriphCLKConfig+0x36c>)
 8001e38:	4013      	ands	r3, r2
 8001e3a:	0019      	movs	r1, r3
 8001e3c:	687b      	ldr	r3, [r7, #4]
 8001e3e:	695a      	ldr	r2, [r3, #20]
 8001e40:	4b0b      	ldr	r3, [pc, #44]	@ (8001e70 <HAL_RCCEx_PeriphCLKConfig+0x33c>)
 8001e42:	430a      	orrs	r2, r1
 8001e44:	655a      	str	r2, [r3, #84]	@ 0x54

    if (PeriphClkInit->I2s1ClockSelection == RCC_I2S1CLKSOURCE_PLL)
 8001e46:	687b      	ldr	r3, [r7, #4]
 8001e48:	695a      	ldr	r2, [r3, #20]
 8001e4a:	2380      	movs	r3, #128	@ 0x80
 8001e4c:	01db      	lsls	r3, r3, #7
 8001e4e:	429a      	cmp	r2, r3
 8001e50:	d106      	bne.n	8001e60 <HAL_RCCEx_PeriphCLKConfig+0x32c>
    {
      /* Enable PLLPCLK output */
      __HAL_RCC_PLLCLKOUT_ENABLE(RCC_PLLPCLK);
 8001e52:	4b07      	ldr	r3, [pc, #28]	@ (8001e70 <HAL_RCCEx_PeriphCLKConfig+0x33c>)
 8001e54:	68da      	ldr	r2, [r3, #12]
 8001e56:	4b06      	ldr	r3, [pc, #24]	@ (8001e70 <HAL_RCCEx_PeriphCLKConfig+0x33c>)
 8001e58:	2180      	movs	r1, #128	@ 0x80
 8001e5a:	0249      	lsls	r1, r1, #9
 8001e5c:	430a      	orrs	r2, r1
 8001e5e:	60da      	str	r2, [r3, #12]
      __HAL_RCC_PLLCLKOUT_ENABLE(RCC_PLLQCLK);
    }
  }
#endif /* FDCAN1 || FDCAN2 */

  return status;
 8001e60:	2312      	movs	r3, #18
 8001e62:	18fb      	adds	r3, r7, r3
 8001e64:	781b      	ldrb	r3, [r3, #0]
}
 8001e66:	0018      	movs	r0, r3
 8001e68:	46bd      	mov	sp, r7
 8001e6a:	b006      	add	sp, #24
 8001e6c:	bd80      	pop	{r7, pc}
 8001e6e:	46c0      	nop			@ (mov r8, r8)
 8001e70:	40021000 	.word	0x40021000
 8001e74:	40007000 	.word	0x40007000
 8001e78:	fffffcff 	.word	0xfffffcff
 8001e7c:	fffeffff 	.word	0xfffeffff
 8001e80:	00001388 	.word	0x00001388
 8001e84:	efffffff 	.word	0xefffffff
 8001e88:	fffff3ff 	.word	0xfffff3ff
 8001e8c:	fff3ffff 	.word	0xfff3ffff
 8001e90:	ffcfffff 	.word	0xffcfffff
 8001e94:	ffffcfff 	.word	0xffffcfff
 8001e98:	ffbfffff 	.word	0xffbfffff
 8001e9c:	feffffff 	.word	0xfeffffff
 8001ea0:	ffff3fff 	.word	0xffff3fff

08001ea4 <HAL_UART_Init>:
  *        parameters in the UART_InitTypeDef and initialize the associated handle.
  * @param huart UART handle.
  * @retval HAL status
  */
HAL_StatusTypeDef HAL_UART_Init(UART_HandleTypeDef *huart)
{
 8001ea4:	b580      	push	{r7, lr}
 8001ea6:	b082      	sub	sp, #8
 8001ea8:	af00      	add	r7, sp, #0
 8001eaa:	6078      	str	r0, [r7, #4]
  /* Check the UART handle allocation */
  if (huart == NULL)
 8001eac:	687b      	ldr	r3, [r7, #4]
 8001eae:	2b00      	cmp	r3, #0
 8001eb0:	d101      	bne.n	8001eb6 <HAL_UART_Init+0x12>
  {
    return HAL_ERROR;
 8001eb2:	2301      	movs	r3, #1
 8001eb4:	e046      	b.n	8001f44 <HAL_UART_Init+0xa0>
  {
    /* Check the parameters */
    assert_param((IS_UART_INSTANCE(huart->Instance)) || (IS_LPUART_INSTANCE(huart->Instance)));
  }

  if (huart->gState == HAL_UART_STATE_RESET)
 8001eb6:	687b      	ldr	r3, [r7, #4]
 8001eb8:	2288      	movs	r2, #136	@ 0x88
 8001eba:	589b      	ldr	r3, [r3, r2]
 8001ebc:	2b00      	cmp	r3, #0
 8001ebe:	d107      	bne.n	8001ed0 <HAL_UART_Init+0x2c>
  {
    /* Allocate lock resource and initialize it */
    huart->Lock = HAL_UNLOCKED;
 8001ec0:	687b      	ldr	r3, [r7, #4]
 8001ec2:	2284      	movs	r2, #132	@ 0x84
 8001ec4:	2100      	movs	r1, #0
 8001ec6:	5499      	strb	r1, [r3, r2]

    /* Init the low level hardware */
    huart->MspInitCallback(huart);
#else
    /* Init the low level hardware : GPIO, CLOCK */
    HAL_UART_MspInit(huart);
 8001ec8:	687b      	ldr	r3, [r7, #4]
 8001eca:	0018      	movs	r0, r3
 8001ecc:	f7fe fd00 	bl	80008d0 <HAL_UART_MspInit>
#endif /* (USE_HAL_UART_REGISTER_CALLBACKS) */
  }

  huart->gState = HAL_UART_STATE_BUSY;
 8001ed0:	687b      	ldr	r3, [r7, #4]
 8001ed2:	2288      	movs	r2, #136	@ 0x88
 8001ed4:	2124      	movs	r1, #36	@ 0x24
 8001ed6:	5099      	str	r1, [r3, r2]

  __HAL_UART_DISABLE(huart);
 8001ed8:	687b      	ldr	r3, [r7, #4]
 8001eda:	681b      	ldr	r3, [r3, #0]
 8001edc:	681a      	ldr	r2, [r3, #0]
 8001ede:	687b      	ldr	r3, [r7, #4]
 8001ee0:	681b      	ldr	r3, [r3, #0]
 8001ee2:	2101      	movs	r1, #1
 8001ee4:	438a      	bics	r2, r1
 8001ee6:	601a      	str	r2, [r3, #0]

  /* Perform advanced settings configuration */
  /* For some items, configuration requires to be done prior TE and RE bits are set */
  if (huart->AdvancedInit.AdvFeatureInit != UART_ADVFEATURE_NO_INIT)
 8001ee8:	687b      	ldr	r3, [r7, #4]
 8001eea:	6a9b      	ldr	r3, [r3, #40]	@ 0x28
 8001eec:	2b00      	cmp	r3, #0
 8001eee:	d003      	beq.n	8001ef8 <HAL_UART_Init+0x54>
  {
    UART_AdvFeatureConfig(huart);
 8001ef0:	687b      	ldr	r3, [r7, #4]
 8001ef2:	0018      	movs	r0, r3
 8001ef4:	f000 fb8e 	bl	8002614 <UART_AdvFeatureConfig>
  }

  /* Set the UART Communication parameters */
  if (UART_SetConfig(huart) == HAL_ERROR)
 8001ef8:	687b      	ldr	r3, [r7, #4]
 8001efa:	0018      	movs	r0, r3
 8001efc:	f000 f8cc 	bl	8002098 <UART_SetConfig>
 8001f00:	0003      	movs	r3, r0
 8001f02:	2b01      	cmp	r3, #1
 8001f04:	d101      	bne.n	8001f0a <HAL_UART_Init+0x66>
  {
    return HAL_ERROR;
 8001f06:	2301      	movs	r3, #1
 8001f08:	e01c      	b.n	8001f44 <HAL_UART_Init+0xa0>
  }

  /* In asynchronous mode, the following bits must be kept cleared:
  - LINEN and CLKEN bits in the USART_CR2 register,
  - SCEN, HDSEL and IREN  bits in the USART_CR3 register.*/
  CLEAR_BIT(huart->Instance->CR2, (USART_CR2_LINEN | USART_CR2_CLKEN));
 8001f0a:	687b      	ldr	r3, [r7, #4]
 8001f0c:	681b      	ldr	r3, [r3, #0]
 8001f0e:	685a      	ldr	r2, [r3, #4]
 8001f10:	687b      	ldr	r3, [r7, #4]
 8001f12:	681b      	ldr	r3, [r3, #0]
 8001f14:	490d      	ldr	r1, [pc, #52]	@ (8001f4c <HAL_UART_Init+0xa8>)
 8001f16:	400a      	ands	r2, r1
 8001f18:	605a      	str	r2, [r3, #4]
  CLEAR_BIT(huart->Instance->CR3, (USART_CR3_SCEN | USART_CR3_HDSEL | USART_CR3_IREN));
 8001f1a:	687b      	ldr	r3, [r7, #4]
 8001f1c:	681b      	ldr	r3, [r3, #0]
 8001f1e:	689a      	ldr	r2, [r3, #8]
 8001f20:	687b      	ldr	r3, [r7, #4]
 8001f22:	681b      	ldr	r3, [r3, #0]
 8001f24:	212a      	movs	r1, #42	@ 0x2a
 8001f26:	438a      	bics	r2, r1
 8001f28:	609a      	str	r2, [r3, #8]

  __HAL_UART_ENABLE(huart);
 8001f2a:	687b      	ldr	r3, [r7, #4]
 8001f2c:	681b      	ldr	r3, [r3, #0]
 8001f2e:	681a      	ldr	r2, [r3, #0]
 8001f30:	687b      	ldr	r3, [r7, #4]
 8001f32:	681b      	ldr	r3, [r3, #0]
 8001f34:	2101      	movs	r1, #1
 8001f36:	430a      	orrs	r2, r1
 8001f38:	601a      	str	r2, [r3, #0]

  /* TEACK and/or REACK to check before moving huart->gState and huart->RxState to Ready */
  return (UART_CheckIdleState(huart));
 8001f3a:	687b      	ldr	r3, [r7, #4]
 8001f3c:	0018      	movs	r0, r3
 8001f3e:	f000 fc1d 	bl	800277c <UART_CheckIdleState>
 8001f42:	0003      	movs	r3, r0
}
 8001f44:	0018      	movs	r0, r3
 8001f46:	46bd      	mov	sp, r7
 8001f48:	b002      	add	sp, #8
 8001f4a:	bd80      	pop	{r7, pc}
 8001f4c:	ffffb7ff 	.word	0xffffb7ff

08001f50 <HAL_UART_Transmit>:
  * @param Size    Amount of data elements (u8 or u16) to be sent.
  * @param Timeout Timeout duration.
  * @retval HAL status
  */
HAL_StatusTypeDef HAL_UART_Transmit(UART_HandleTypeDef *huart, const uint8_t *pData, uint16_t Size, uint32_t Timeout)
{
 8001f50:	b580      	push	{r7, lr}
 8001f52:	b08a      	sub	sp, #40	@ 0x28
 8001f54:	af02      	add	r7, sp, #8
 8001f56:	60f8      	str	r0, [r7, #12]
 8001f58:	60b9      	str	r1, [r7, #8]
 8001f5a:	603b      	str	r3, [r7, #0]
 8001f5c:	1dbb      	adds	r3, r7, #6
 8001f5e:	801a      	strh	r2, [r3, #0]
  const uint8_t  *pdata8bits;
  const uint16_t *pdata16bits;
  uint32_t tickstart;

  /* Check that a Tx process is not already ongoing */
  if (huart->gState == HAL_UART_STATE_READY)
 8001f60:	68fb      	ldr	r3, [r7, #12]
 8001f62:	2288      	movs	r2, #136	@ 0x88
 8001f64:	589b      	ldr	r3, [r3, r2]
 8001f66:	2b20      	cmp	r3, #32
 8001f68:	d000      	beq.n	8001f6c <HAL_UART_Transmit+0x1c>
 8001f6a:	e090      	b.n	800208e <HAL_UART_Transmit+0x13e>
  {
    if ((pData == NULL) || (Size == 0U))
 8001f6c:	68bb      	ldr	r3, [r7, #8]
 8001f6e:	2b00      	cmp	r3, #0
 8001f70:	d003      	beq.n	8001f7a <HAL_UART_Transmit+0x2a>
 8001f72:	1dbb      	adds	r3, r7, #6
 8001f74:	881b      	ldrh	r3, [r3, #0]
 8001f76:	2b00      	cmp	r3, #0
 8001f78:	d101      	bne.n	8001f7e <HAL_UART_Transmit+0x2e>
    {
      return  HAL_ERROR;
 8001f7a:	2301      	movs	r3, #1
 8001f7c:	e088      	b.n	8002090 <HAL_UART_Transmit+0x140>
    }

    /* In case of 9bits/No Parity transfer, pData buffer provided as input parameter
       should be aligned on a u16 frontier, as data to be filled into TDR will be
       handled through a u16 cast. */
    if ((huart->Init.WordLength == UART_WORDLENGTH_9B) && (huart->Init.Parity == UART_PARITY_NONE))
 8001f7e:	68fb      	ldr	r3, [r7, #12]
 8001f80:	689a      	ldr	r2, [r3, #8]
 8001f82:	2380      	movs	r3, #128	@ 0x80
 8001f84:	015b      	lsls	r3, r3, #5
 8001f86:	429a      	cmp	r2, r3
 8001f88:	d109      	bne.n	8001f9e <HAL_UART_Transmit+0x4e>
 8001f8a:	68fb      	ldr	r3, [r7, #12]
 8001f8c:	691b      	ldr	r3, [r3, #16]
 8001f8e:	2b00      	cmp	r3, #0
 8001f90:	d105      	bne.n	8001f9e <HAL_UART_Transmit+0x4e>
    {
      if ((((uint32_t)pData) & 1U) != 0U)
 8001f92:	68bb      	ldr	r3, [r7, #8]
 8001f94:	2201      	movs	r2, #1
 8001f96:	4013      	ands	r3, r2
 8001f98:	d001      	beq.n	8001f9e <HAL_UART_Transmit+0x4e>
      {
        return  HAL_ERROR;
 8001f9a:	2301      	movs	r3, #1
 8001f9c:	e078      	b.n	8002090 <HAL_UART_Transmit+0x140>
      }
    }

    huart->ErrorCode = HAL_UART_ERROR_NONE;
 8001f9e:	68fb      	ldr	r3, [r7, #12]
 8001fa0:	2290      	movs	r2, #144	@ 0x90
 8001fa2:	2100      	movs	r1, #0
 8001fa4:	5099      	str	r1, [r3, r2]
    huart->gState = HAL_UART_STATE_BUSY_TX;
 8001fa6:	68fb      	ldr	r3, [r7, #12]
 8001fa8:	2288      	movs	r2, #136	@ 0x88
 8001faa:	2121      	movs	r1, #33	@ 0x21
 8001fac:	5099      	str	r1, [r3, r2]

    /* Init tickstart for timeout management */
    tickstart = HAL_GetTick();
 8001fae:	f7fe fe33 	bl	8000c18 <HAL_GetTick>
 8001fb2:	0003      	movs	r3, r0
 8001fb4:	617b      	str	r3, [r7, #20]

    huart->TxXferSize  = Size;
 8001fb6:	68fb      	ldr	r3, [r7, #12]
 8001fb8:	1dba      	adds	r2, r7, #6
 8001fba:	2154      	movs	r1, #84	@ 0x54
 8001fbc:	8812      	ldrh	r2, [r2, #0]
 8001fbe:	525a      	strh	r2, [r3, r1]
    huart->TxXferCount = Size;
 8001fc0:	68fb      	ldr	r3, [r7, #12]
 8001fc2:	1dba      	adds	r2, r7, #6
 8001fc4:	2156      	movs	r1, #86	@ 0x56
 8001fc6:	8812      	ldrh	r2, [r2, #0]
 8001fc8:	525a      	strh	r2, [r3, r1]

    /* In case of 9bits/No Parity transfer, pData needs to be handled as a uint16_t pointer */
    if ((huart->Init.WordLength == UART_WORDLENGTH_9B) && (huart->Init.Parity == UART_PARITY_NONE))
 8001fca:	68fb      	ldr	r3, [r7, #12]
 8001fcc:	689a      	ldr	r2, [r3, #8]
 8001fce:	2380      	movs	r3, #128	@ 0x80
 8001fd0:	015b      	lsls	r3, r3, #5
 8001fd2:	429a      	cmp	r2, r3
 8001fd4:	d108      	bne.n	8001fe8 <HAL_UART_Transmit+0x98>
 8001fd6:	68fb      	ldr	r3, [r7, #12]
 8001fd8:	691b      	ldr	r3, [r3, #16]
 8001fda:	2b00      	cmp	r3, #0
 8001fdc:	d104      	bne.n	8001fe8 <HAL_UART_Transmit+0x98>
    {
      pdata8bits  = NULL;
 8001fde:	2300      	movs	r3, #0
 8001fe0:	61fb      	str	r3, [r7, #28]
      pdata16bits = (const uint16_t *) pData;
 8001fe2:	68bb      	ldr	r3, [r7, #8]
 8001fe4:	61bb      	str	r3, [r7, #24]
 8001fe6:	e003      	b.n	8001ff0 <HAL_UART_Transmit+0xa0>
    }
    else
    {
      pdata8bits  = pData;
 8001fe8:	68bb      	ldr	r3, [r7, #8]
 8001fea:	61fb      	str	r3, [r7, #28]
      pdata16bits = NULL;
 8001fec:	2300      	movs	r3, #0
 8001fee:	61bb      	str	r3, [r7, #24]
    }

    while (huart->TxXferCount > 0U)
 8001ff0:	e030      	b.n	8002054 <HAL_UART_Transmit+0x104>
    {
      if (UART_WaitOnFlagUntilTimeout(huart, UART_FLAG_TXE, RESET, tickstart, Timeout) != HAL_OK)
 8001ff2:	697a      	ldr	r2, [r7, #20]
 8001ff4:	68f8      	ldr	r0, [r7, #12]
 8001ff6:	683b      	ldr	r3, [r7, #0]
 8001ff8:	9300      	str	r3, [sp, #0]
 8001ffa:	0013      	movs	r3, r2
 8001ffc:	2200      	movs	r2, #0
 8001ffe:	2180      	movs	r1, #128	@ 0x80
 8002000:	f000 fc66 	bl	80028d0 <UART_WaitOnFlagUntilTimeout>
 8002004:	1e03      	subs	r3, r0, #0
 8002006:	d005      	beq.n	8002014 <HAL_UART_Transmit+0xc4>
      {

        huart->gState = HAL_UART_STATE_READY;
 8002008:	68fb      	ldr	r3, [r7, #12]
 800200a:	2288      	movs	r2, #136	@ 0x88
 800200c:	2120      	movs	r1, #32
 800200e:	5099      	str	r1, [r3, r2]

        return HAL_TIMEOUT;
 8002010:	2303      	movs	r3, #3
 8002012:	e03d      	b.n	8002090 <HAL_UART_Transmit+0x140>
      }
      if (pdata8bits == NULL)
 8002014:	69fb      	ldr	r3, [r7, #28]
 8002016:	2b00      	cmp	r3, #0
 8002018:	d10b      	bne.n	8002032 <HAL_UART_Transmit+0xe2>
      {
        huart->Instance->TDR = (uint16_t)(*pdata16bits & 0x01FFU);
 800201a:	69bb      	ldr	r3, [r7, #24]
 800201c:	881b      	ldrh	r3, [r3, #0]
 800201e:	001a      	movs	r2, r3
 8002020:	68fb      	ldr	r3, [r7, #12]
 8002022:	681b      	ldr	r3, [r3, #0]
 8002024:	05d2      	lsls	r2, r2, #23
 8002026:	0dd2      	lsrs	r2, r2, #23
 8002028:	629a      	str	r2, [r3, #40]	@ 0x28
        pdata16bits++;
 800202a:	69bb      	ldr	r3, [r7, #24]
 800202c:	3302      	adds	r3, #2
 800202e:	61bb      	str	r3, [r7, #24]
 8002030:	e007      	b.n	8002042 <HAL_UART_Transmit+0xf2>
      }
      else
      {
        huart->Instance->TDR = (uint8_t)(*pdata8bits & 0xFFU);
 8002032:	69fb      	ldr	r3, [r7, #28]
 8002034:	781a      	ldrb	r2, [r3, #0]
 8002036:	68fb      	ldr	r3, [r7, #12]
 8002038:	681b      	ldr	r3, [r3, #0]
 800203a:	629a      	str	r2, [r3, #40]	@ 0x28
        pdata8bits++;
 800203c:	69fb      	ldr	r3, [r7, #28]
 800203e:	3301      	adds	r3, #1
 8002040:	61fb      	str	r3, [r7, #28]
      }
      huart->TxXferCount--;
 8002042:	68fb      	ldr	r3, [r7, #12]
 8002044:	2256      	movs	r2, #86	@ 0x56
 8002046:	5a9b      	ldrh	r3, [r3, r2]
 8002048:	b29b      	uxth	r3, r3
 800204a:	3b01      	subs	r3, #1
 800204c:	b299      	uxth	r1, r3
 800204e:	68fb      	ldr	r3, [r7, #12]
 8002050:	2256      	movs	r2, #86	@ 0x56
 8002052:	5299      	strh	r1, [r3, r2]
    while (huart->TxXferCount > 0U)
 8002054:	68fb      	ldr	r3, [r7, #12]
 8002056:	2256      	movs	r2, #86	@ 0x56
 8002058:	5a9b      	ldrh	r3, [r3, r2]
 800205a:	b29b      	uxth	r3, r3
 800205c:	2b00      	cmp	r3, #0
 800205e:	d1c8      	bne.n	8001ff2 <HAL_UART_Transmit+0xa2>
    }

    if (UART_WaitOnFlagUntilTimeout(huart, UART_FLAG_TC, RESET, tickstart, Timeout) != HAL_OK)
 8002060:	697a      	ldr	r2, [r7, #20]
 8002062:	68f8      	ldr	r0, [r7, #12]
 8002064:	683b      	ldr	r3, [r7, #0]
 8002066:	9300      	str	r3, [sp, #0]
 8002068:	0013      	movs	r3, r2
 800206a:	2200      	movs	r2, #0
 800206c:	2140      	movs	r1, #64	@ 0x40
 800206e:	f000 fc2f 	bl	80028d0 <UART_WaitOnFlagUntilTimeout>
 8002072:	1e03      	subs	r3, r0, #0
 8002074:	d005      	beq.n	8002082 <HAL_UART_Transmit+0x132>
    {
      huart->gState = HAL_UART_STATE_READY;
 8002076:	68fb      	ldr	r3, [r7, #12]
 8002078:	2288      	movs	r2, #136	@ 0x88
 800207a:	2120      	movs	r1, #32
 800207c:	5099      	str	r1, [r3, r2]

      return HAL_TIMEOUT;
 800207e:	2303      	movs	r3, #3
 8002080:	e006      	b.n	8002090 <HAL_UART_Transmit+0x140>
    }

    /* At end of Tx process, restore huart->gState to Ready */
    huart->gState = HAL_UART_STATE_READY;
 8002082:	68fb      	ldr	r3, [r7, #12]
 8002084:	2288      	movs	r2, #136	@ 0x88
 8002086:	2120      	movs	r1, #32
 8002088:	5099      	str	r1, [r3, r2]

    return HAL_OK;
 800208a:	2300      	movs	r3, #0
 800208c:	e000      	b.n	8002090 <HAL_UART_Transmit+0x140>
  }
  else
  {
    return HAL_BUSY;
 800208e:	2302      	movs	r3, #2
  }
}
 8002090:	0018      	movs	r0, r3
 8002092:	46bd      	mov	sp, r7
 8002094:	b008      	add	sp, #32
 8002096:	bd80      	pop	{r7, pc}

08002098 <UART_SetConfig>:
  * @brief Configure the UART peripheral.
  * @param huart UART handle.
  * @retval HAL status
  */
HAL_StatusTypeDef UART_SetConfig(UART_HandleTypeDef *huart)
{
 8002098:	b5b0      	push	{r4, r5, r7, lr}
 800209a:	b090      	sub	sp, #64	@ 0x40
 800209c:	af00      	add	r7, sp, #0
 800209e:	6278      	str	r0, [r7, #36]	@ 0x24
  uint32_t tmpreg;
  uint16_t brrtemp;
  UART_ClockSourceTypeDef clocksource;
  uint32_t usartdiv;
  HAL_StatusTypeDef ret               = HAL_OK;
 80020a0:	231a      	movs	r3, #26
 80020a2:	2220      	movs	r2, #32
 80020a4:	189b      	adds	r3, r3, r2
 80020a6:	19db      	adds	r3, r3, r7
 80020a8:	2200      	movs	r2, #0
 80020aa:	701a      	strb	r2, [r3, #0]
  *  the UART Word Length, Parity, Mode and oversampling:
  *  set the M bits according to huart->Init.WordLength value
  *  set PCE and PS bits according to huart->Init.Parity value
  *  set TE and RE bits according to huart->Init.Mode value
  *  set OVER8 bit according to huart->Init.OverSampling value */
  tmpreg = (uint32_t)huart->Init.WordLength | huart->Init.Parity | huart->Init.Mode | huart->Init.OverSampling ;
 80020ac:	6a7b      	ldr	r3, [r7, #36]	@ 0x24
 80020ae:	689a      	ldr	r2, [r3, #8]
 80020b0:	6a7b      	ldr	r3, [r7, #36]	@ 0x24
 80020b2:	691b      	ldr	r3, [r3, #16]
 80020b4:	431a      	orrs	r2, r3
 80020b6:	6a7b      	ldr	r3, [r7, #36]	@ 0x24
 80020b8:	695b      	ldr	r3, [r3, #20]
 80020ba:	431a      	orrs	r2, r3
 80020bc:	6a7b      	ldr	r3, [r7, #36]	@ 0x24
 80020be:	69db      	ldr	r3, [r3, #28]
 80020c0:	4313      	orrs	r3, r2
 80020c2:	63fb      	str	r3, [r7, #60]	@ 0x3c
  MODIFY_REG(huart->Instance->CR1, USART_CR1_FIELDS, tmpreg);
 80020c4:	6a7b      	ldr	r3, [r7, #36]	@ 0x24
 80020c6:	681b      	ldr	r3, [r3, #0]
 80020c8:	681b      	ldr	r3, [r3, #0]
 80020ca:	4aaf      	ldr	r2, [pc, #700]	@ (8002388 <UART_SetConfig+0x2f0>)
 80020cc:	4013      	ands	r3, r2
 80020ce:	0019      	movs	r1, r3
 80020d0:	6a7b      	ldr	r3, [r7, #36]	@ 0x24
 80020d2:	681a      	ldr	r2, [r3, #0]
 80020d4:	6bfb      	ldr	r3, [r7, #60]	@ 0x3c
 80020d6:	430b      	orrs	r3, r1
 80020d8:	6013      	str	r3, [r2, #0]

  /*-------------------------- USART CR2 Configuration -----------------------*/
  /* Configure the UART Stop Bits: Set STOP[13:12] bits according
  * to huart->Init.StopBits value */
  MODIFY_REG(huart->Instance->CR2, USART_CR2_STOP, huart->Init.StopBits);
 80020da:	6a7b      	ldr	r3, [r7, #36]	@ 0x24
 80020dc:	681b      	ldr	r3, [r3, #0]
 80020de:	685b      	ldr	r3, [r3, #4]
 80020e0:	4aaa      	ldr	r2, [pc, #680]	@ (800238c <UART_SetConfig+0x2f4>)
 80020e2:	4013      	ands	r3, r2
 80020e4:	0018      	movs	r0, r3
 80020e6:	6a7b      	ldr	r3, [r7, #36]	@ 0x24
 80020e8:	68d9      	ldr	r1, [r3, #12]
 80020ea:	6a7b      	ldr	r3, [r7, #36]	@ 0x24
 80020ec:	681a      	ldr	r2, [r3, #0]
 80020ee:	0003      	movs	r3, r0
 80020f0:	430b      	orrs	r3, r1
 80020f2:	6053      	str	r3, [r2, #4]
  /* Configure
  * - UART HardWare Flow Control: set CTSE and RTSE bits according
  *   to huart->Init.HwFlowCtl value
  * - one-bit sampling method versus three samples' majority rule according
  *   to huart->Init.OneBitSampling (not applicable to LPUART) */
  tmpreg = (uint32_t)huart->Init.HwFlowCtl;
 80020f4:	6a7b      	ldr	r3, [r7, #36]	@ 0x24
 80020f6:	699b      	ldr	r3, [r3, #24]
 80020f8:	63fb      	str	r3, [r7, #60]	@ 0x3c

  if (!(UART_INSTANCE_LOWPOWER(huart)))
 80020fa:	6a7b      	ldr	r3, [r7, #36]	@ 0x24
 80020fc:	681b      	ldr	r3, [r3, #0]
 80020fe:	4aa4      	ldr	r2, [pc, #656]	@ (8002390 <UART_SetConfig+0x2f8>)
 8002100:	4293      	cmp	r3, r2
 8002102:	d004      	beq.n	800210e <UART_SetConfig+0x76>
  {
    tmpreg |= huart->Init.OneBitSampling;
 8002104:	6a7b      	ldr	r3, [r7, #36]	@ 0x24
 8002106:	6a1b      	ldr	r3, [r3, #32]
 8002108:	6bfa      	ldr	r2, [r7, #60]	@ 0x3c
 800210a:	4313      	orrs	r3, r2
 800210c:	63fb      	str	r3, [r7, #60]	@ 0x3c
  }
  MODIFY_REG(huart->Instance->CR3, USART_CR3_FIELDS, tmpreg);
 800210e:	6a7b      	ldr	r3, [r7, #36]	@ 0x24
 8002110:	681b      	ldr	r3, [r3, #0]
 8002112:	689b      	ldr	r3, [r3, #8]
 8002114:	4a9f      	ldr	r2, [pc, #636]	@ (8002394 <UART_SetConfig+0x2fc>)
 8002116:	4013      	ands	r3, r2
 8002118:	0019      	movs	r1, r3
 800211a:	6a7b      	ldr	r3, [r7, #36]	@ 0x24
 800211c:	681a      	ldr	r2, [r3, #0]
 800211e:	6bfb      	ldr	r3, [r7, #60]	@ 0x3c
 8002120:	430b      	orrs	r3, r1
 8002122:	6093      	str	r3, [r2, #8]

  /*-------------------------- USART PRESC Configuration -----------------------*/
  /* Configure
  * - UART Clock Prescaler : set PRESCALER according to huart->Init.ClockPrescaler value */
  MODIFY_REG(huart->Instance->PRESC, USART_PRESC_PRESCALER, huart->Init.ClockPrescaler);
 8002124:	6a7b      	ldr	r3, [r7, #36]	@ 0x24
 8002126:	681b      	ldr	r3, [r3, #0]
 8002128:	6adb      	ldr	r3, [r3, #44]	@ 0x2c
 800212a:	220f      	movs	r2, #15
 800212c:	4393      	bics	r3, r2
 800212e:	0018      	movs	r0, r3
 8002130:	6a7b      	ldr	r3, [r7, #36]	@ 0x24
 8002132:	6a59      	ldr	r1, [r3, #36]	@ 0x24
 8002134:	6a7b      	ldr	r3, [r7, #36]	@ 0x24
 8002136:	681a      	ldr	r2, [r3, #0]
 8002138:	0003      	movs	r3, r0
 800213a:	430b      	orrs	r3, r1
 800213c:	62d3      	str	r3, [r2, #44]	@ 0x2c

  /*-------------------------- USART BRR Configuration -----------------------*/
  UART_GETCLOCKSOURCE(huart, clocksource);
 800213e:	6a7b      	ldr	r3, [r7, #36]	@ 0x24
 8002140:	681b      	ldr	r3, [r3, #0]
 8002142:	4a95      	ldr	r2, [pc, #596]	@ (8002398 <UART_SetConfig+0x300>)
 8002144:	4293      	cmp	r3, r2
 8002146:	d131      	bne.n	80021ac <UART_SetConfig+0x114>
 8002148:	4b94      	ldr	r3, [pc, #592]	@ (800239c <UART_SetConfig+0x304>)
 800214a:	6d5b      	ldr	r3, [r3, #84]	@ 0x54
 800214c:	2203      	movs	r2, #3
 800214e:	4013      	ands	r3, r2
 8002150:	2b03      	cmp	r3, #3
 8002152:	d01d      	beq.n	8002190 <UART_SetConfig+0xf8>
 8002154:	d823      	bhi.n	800219e <UART_SetConfig+0x106>
 8002156:	2b02      	cmp	r3, #2
 8002158:	d00c      	beq.n	8002174 <UART_SetConfig+0xdc>
 800215a:	d820      	bhi.n	800219e <UART_SetConfig+0x106>
 800215c:	2b00      	cmp	r3, #0
 800215e:	d002      	beq.n	8002166 <UART_SetConfig+0xce>
 8002160:	2b01      	cmp	r3, #1
 8002162:	d00e      	beq.n	8002182 <UART_SetConfig+0xea>
 8002164:	e01b      	b.n	800219e <UART_SetConfig+0x106>
 8002166:	231b      	movs	r3, #27
 8002168:	2220      	movs	r2, #32
 800216a:	189b      	adds	r3, r3, r2
 800216c:	19db      	adds	r3, r3, r7
 800216e:	2200      	movs	r2, #0
 8002170:	701a      	strb	r2, [r3, #0]
 8002172:	e0b4      	b.n	80022de <UART_SetConfig+0x246>
 8002174:	231b      	movs	r3, #27
 8002176:	2220      	movs	r2, #32
 8002178:	189b      	adds	r3, r3, r2
 800217a:	19db      	adds	r3, r3, r7
 800217c:	2202      	movs	r2, #2
 800217e:	701a      	strb	r2, [r3, #0]
 8002180:	e0ad      	b.n	80022de <UART_SetConfig+0x246>
 8002182:	231b      	movs	r3, #27
 8002184:	2220      	movs	r2, #32
 8002186:	189b      	adds	r3, r3, r2
 8002188:	19db      	adds	r3, r3, r7
 800218a:	2204      	movs	r2, #4
 800218c:	701a      	strb	r2, [r3, #0]
 800218e:	e0a6      	b.n	80022de <UART_SetConfig+0x246>
 8002190:	231b      	movs	r3, #27
 8002192:	2220      	movs	r2, #32
 8002194:	189b      	adds	r3, r3, r2
 8002196:	19db      	adds	r3, r3, r7
 8002198:	2208      	movs	r2, #8
 800219a:	701a      	strb	r2, [r3, #0]
 800219c:	e09f      	b.n	80022de <UART_SetConfig+0x246>
 800219e:	231b      	movs	r3, #27
 80021a0:	2220      	movs	r2, #32
 80021a2:	189b      	adds	r3, r3, r2
 80021a4:	19db      	adds	r3, r3, r7
 80021a6:	2210      	movs	r2, #16
 80021a8:	701a      	strb	r2, [r3, #0]
 80021aa:	e098      	b.n	80022de <UART_SetConfig+0x246>
 80021ac:	6a7b      	ldr	r3, [r7, #36]	@ 0x24
 80021ae:	681b      	ldr	r3, [r3, #0]
 80021b0:	4a7b      	ldr	r2, [pc, #492]	@ (80023a0 <UART_SetConfig+0x308>)
 80021b2:	4293      	cmp	r3, r2
 80021b4:	d131      	bne.n	800221a <UART_SetConfig+0x182>
 80021b6:	4b79      	ldr	r3, [pc, #484]	@ (800239c <UART_SetConfig+0x304>)
 80021b8:	6d5b      	ldr	r3, [r3, #84]	@ 0x54
 80021ba:	220c      	movs	r2, #12
 80021bc:	4013      	ands	r3, r2
 80021be:	2b0c      	cmp	r3, #12
 80021c0:	d01d      	beq.n	80021fe <UART_SetConfig+0x166>
 80021c2:	d823      	bhi.n	800220c <UART_SetConfig+0x174>
 80021c4:	2b08      	cmp	r3, #8
 80021c6:	d00c      	beq.n	80021e2 <UART_SetConfig+0x14a>
 80021c8:	d820      	bhi.n	800220c <UART_SetConfig+0x174>
 80021ca:	2b00      	cmp	r3, #0
 80021cc:	d002      	beq.n	80021d4 <UART_SetConfig+0x13c>
 80021ce:	2b04      	cmp	r3, #4
 80021d0:	d00e      	beq.n	80021f0 <UART_SetConfig+0x158>
 80021d2:	e01b      	b.n	800220c <UART_SetConfig+0x174>
 80021d4:	231b      	movs	r3, #27
 80021d6:	2220      	movs	r2, #32
 80021d8:	189b      	adds	r3, r3, r2
 80021da:	19db      	adds	r3, r3, r7
 80021dc:	2200      	movs	r2, #0
 80021de:	701a      	strb	r2, [r3, #0]
 80021e0:	e07d      	b.n	80022de <UART_SetConfig+0x246>
 80021e2:	231b      	movs	r3, #27
 80021e4:	2220      	movs	r2, #32
 80021e6:	189b      	adds	r3, r3, r2
 80021e8:	19db      	adds	r3, r3, r7
 80021ea:	2202      	movs	r2, #2
 80021ec:	701a      	strb	r2, [r3, #0]
 80021ee:	e076      	b.n	80022de <UART_SetConfig+0x246>
 80021f0:	231b      	movs	r3, #27
 80021f2:	2220      	movs	r2, #32
 80021f4:	189b      	adds	r3, r3, r2
 80021f6:	19db      	adds	r3, r3, r7
 80021f8:	2204      	movs	r2, #4
 80021fa:	701a      	strb	r2, [r3, #0]
 80021fc:	e06f      	b.n	80022de <UART_SetConfig+0x246>
 80021fe:	231b      	movs	r3, #27
 8002200:	2220      	movs	r2, #32
 8002202:	189b      	adds	r3, r3, r2
 8002204:	19db      	adds	r3, r3, r7
 8002206:	2208      	movs	r2, #8
 8002208:	701a      	strb	r2, [r3, #0]
 800220a:	e068      	b.n	80022de <UART_SetConfig+0x246>
 800220c:	231b      	movs	r3, #27
 800220e:	2220      	movs	r2, #32
 8002210:	189b      	adds	r3, r3, r2
 8002212:	19db      	adds	r3, r3, r7
 8002214:	2210      	movs	r2, #16
 8002216:	701a      	strb	r2, [r3, #0]
 8002218:	e061      	b.n	80022de <UART_SetConfig+0x246>
 800221a:	6a7b      	ldr	r3, [r7, #36]	@ 0x24
 800221c:	681b      	ldr	r3, [r3, #0]
 800221e:	4a61      	ldr	r2, [pc, #388]	@ (80023a4 <UART_SetConfig+0x30c>)
 8002220:	4293      	cmp	r3, r2
 8002222:	d106      	bne.n	8002232 <UART_SetConfig+0x19a>
 8002224:	231b      	movs	r3, #27
 8002226:	2220      	movs	r2, #32
 8002228:	189b      	adds	r3, r3, r2
 800222a:	19db      	adds	r3, r3, r7
 800222c:	2200      	movs	r2, #0
 800222e:	701a      	strb	r2, [r3, #0]
 8002230:	e055      	b.n	80022de <UART_SetConfig+0x246>
 8002232:	6a7b      	ldr	r3, [r7, #36]	@ 0x24
 8002234:	681b      	ldr	r3, [r3, #0]
 8002236:	4a5c      	ldr	r2, [pc, #368]	@ (80023a8 <UART_SetConfig+0x310>)
 8002238:	4293      	cmp	r3, r2
 800223a:	d106      	bne.n	800224a <UART_SetConfig+0x1b2>
 800223c:	231b      	movs	r3, #27
 800223e:	2220      	movs	r2, #32
 8002240:	189b      	adds	r3, r3, r2
 8002242:	19db      	adds	r3, r3, r7
 8002244:	2200      	movs	r2, #0
 8002246:	701a      	strb	r2, [r3, #0]
 8002248:	e049      	b.n	80022de <UART_SetConfig+0x246>
 800224a:	6a7b      	ldr	r3, [r7, #36]	@ 0x24
 800224c:	681b      	ldr	r3, [r3, #0]
 800224e:	4a50      	ldr	r2, [pc, #320]	@ (8002390 <UART_SetConfig+0x2f8>)
 8002250:	4293      	cmp	r3, r2
 8002252:	d13e      	bne.n	80022d2 <UART_SetConfig+0x23a>
 8002254:	4b51      	ldr	r3, [pc, #324]	@ (800239c <UART_SetConfig+0x304>)
 8002256:	6d5a      	ldr	r2, [r3, #84]	@ 0x54
 8002258:	23c0      	movs	r3, #192	@ 0xc0
 800225a:	011b      	lsls	r3, r3, #4
 800225c:	4013      	ands	r3, r2
 800225e:	22c0      	movs	r2, #192	@ 0xc0
 8002260:	0112      	lsls	r2, r2, #4
 8002262:	4293      	cmp	r3, r2
 8002264:	d027      	beq.n	80022b6 <UART_SetConfig+0x21e>
 8002266:	22c0      	movs	r2, #192	@ 0xc0
 8002268:	0112      	lsls	r2, r2, #4
 800226a:	4293      	cmp	r3, r2
 800226c:	d82a      	bhi.n	80022c4 <UART_SetConfig+0x22c>
 800226e:	2280      	movs	r2, #128	@ 0x80
 8002270:	0112      	lsls	r2, r2, #4
 8002272:	4293      	cmp	r3, r2
 8002274:	d011      	beq.n	800229a <UART_SetConfig+0x202>
 8002276:	2280      	movs	r2, #128	@ 0x80
 8002278:	0112      	lsls	r2, r2, #4
 800227a:	4293      	cmp	r3, r2
 800227c:	d822      	bhi.n	80022c4 <UART_SetConfig+0x22c>
 800227e:	2b00      	cmp	r3, #0
 8002280:	d004      	beq.n	800228c <UART_SetConfig+0x1f4>
 8002282:	2280      	movs	r2, #128	@ 0x80
 8002284:	00d2      	lsls	r2, r2, #3
 8002286:	4293      	cmp	r3, r2
 8002288:	d00e      	beq.n	80022a8 <UART_SetConfig+0x210>
 800228a:	e01b      	b.n	80022c4 <UART_SetConfig+0x22c>
 800228c:	231b      	movs	r3, #27
 800228e:	2220      	movs	r2, #32
 8002290:	189b      	adds	r3, r3, r2
 8002292:	19db      	adds	r3, r3, r7
 8002294:	2200      	movs	r2, #0
 8002296:	701a      	strb	r2, [r3, #0]
 8002298:	e021      	b.n	80022de <UART_SetConfig+0x246>
 800229a:	231b      	movs	r3, #27
 800229c:	2220      	movs	r2, #32
 800229e:	189b      	adds	r3, r3, r2
 80022a0:	19db      	adds	r3, r3, r7
 80022a2:	2202      	movs	r2, #2
 80022a4:	701a      	strb	r2, [r3, #0]
 80022a6:	e01a      	b.n	80022de <UART_SetConfig+0x246>
 80022a8:	231b      	movs	r3, #27
 80022aa:	2220      	movs	r2, #32
 80022ac:	189b      	adds	r3, r3, r2
 80022ae:	19db      	adds	r3, r3, r7
 80022b0:	2204      	movs	r2, #4
 80022b2:	701a      	strb	r2, [r3, #0]
 80022b4:	e013      	b.n	80022de <UART_SetConfig+0x246>
 80022b6:	231b      	movs	r3, #27
 80022b8:	2220      	movs	r2, #32
 80022ba:	189b      	adds	r3, r3, r2
 80022bc:	19db      	adds	r3, r3, r7
 80022be:	2208      	movs	r2, #8
 80022c0:	701a      	strb	r2, [r3, #0]
 80022c2:	e00c      	b.n	80022de <UART_SetConfig+0x246>
 80022c4:	231b      	movs	r3, #27
 80022c6:	2220      	movs	r2, #32
 80022c8:	189b      	adds	r3, r3, r2
 80022ca:	19db      	adds	r3, r3, r7
 80022cc:	2210      	movs	r2, #16
 80022ce:	701a      	strb	r2, [r3, #0]
 80022d0:	e005      	b.n	80022de <UART_SetConfig+0x246>
 80022d2:	231b      	movs	r3, #27
 80022d4:	2220      	movs	r2, #32
 80022d6:	189b      	adds	r3, r3, r2
 80022d8:	19db      	adds	r3, r3, r7
 80022da:	2210      	movs	r2, #16
 80022dc:	701a      	strb	r2, [r3, #0]

  /* Check LPUART instance */
  if (UART_INSTANCE_LOWPOWER(huart))
 80022de:	6a7b      	ldr	r3, [r7, #36]	@ 0x24
 80022e0:	681b      	ldr	r3, [r3, #0]
 80022e2:	4a2b      	ldr	r2, [pc, #172]	@ (8002390 <UART_SetConfig+0x2f8>)
 80022e4:	4293      	cmp	r3, r2
 80022e6:	d000      	beq.n	80022ea <UART_SetConfig+0x252>
 80022e8:	e0a9      	b.n	800243e <UART_SetConfig+0x3a6>
  {
    /* Retrieve frequency clock */
    switch (clocksource)
 80022ea:	231b      	movs	r3, #27
 80022ec:	2220      	movs	r2, #32
 80022ee:	189b      	adds	r3, r3, r2
 80022f0:	19db      	adds	r3, r3, r7
 80022f2:	781b      	ldrb	r3, [r3, #0]
 80022f4:	2b08      	cmp	r3, #8
 80022f6:	d015      	beq.n	8002324 <UART_SetConfig+0x28c>
 80022f8:	dc18      	bgt.n	800232c <UART_SetConfig+0x294>
 80022fa:	2b04      	cmp	r3, #4
 80022fc:	d00d      	beq.n	800231a <UART_SetConfig+0x282>
 80022fe:	dc15      	bgt.n	800232c <UART_SetConfig+0x294>
 8002300:	2b00      	cmp	r3, #0
 8002302:	d002      	beq.n	800230a <UART_SetConfig+0x272>
 8002304:	2b02      	cmp	r3, #2
 8002306:	d005      	beq.n	8002314 <UART_SetConfig+0x27c>
 8002308:	e010      	b.n	800232c <UART_SetConfig+0x294>
    {
      case UART_CLOCKSOURCE_PCLK1:
        pclk = HAL_RCC_GetPCLK1Freq();
 800230a:	f7ff fbfd 	bl	8001b08 <HAL_RCC_GetPCLK1Freq>
 800230e:	0003      	movs	r3, r0
 8002310:	637b      	str	r3, [r7, #52]	@ 0x34
        break;
 8002312:	e014      	b.n	800233e <UART_SetConfig+0x2a6>
      case UART_CLOCKSOURCE_HSI:
        pclk = (uint32_t) HSI_VALUE;
 8002314:	4b25      	ldr	r3, [pc, #148]	@ (80023ac <UART_SetConfig+0x314>)
 8002316:	637b      	str	r3, [r7, #52]	@ 0x34
        break;
 8002318:	e011      	b.n	800233e <UART_SetConfig+0x2a6>
      case UART_CLOCKSOURCE_SYSCLK:
        pclk = HAL_RCC_GetSysClockFreq();
 800231a:	f7ff fb69 	bl	80019f0 <HAL_RCC_GetSysClockFreq>
 800231e:	0003      	movs	r3, r0
 8002320:	637b      	str	r3, [r7, #52]	@ 0x34
        break;
 8002322:	e00c      	b.n	800233e <UART_SetConfig+0x2a6>
      case UART_CLOCKSOURCE_LSE:
        pclk = (uint32_t) LSE_VALUE;
 8002324:	2380      	movs	r3, #128	@ 0x80
 8002326:	021b      	lsls	r3, r3, #8
 8002328:	637b      	str	r3, [r7, #52]	@ 0x34
        break;
 800232a:	e008      	b.n	800233e <UART_SetConfig+0x2a6>
      default:
        pclk = 0U;
 800232c:	2300      	movs	r3, #0
 800232e:	637b      	str	r3, [r7, #52]	@ 0x34
        ret = HAL_ERROR;
 8002330:	231a      	movs	r3, #26
 8002332:	2220      	movs	r2, #32
 8002334:	189b      	adds	r3, r3, r2
 8002336:	19db      	adds	r3, r3, r7
 8002338:	2201      	movs	r2, #1
 800233a:	701a      	strb	r2, [r3, #0]
        break;
 800233c:	46c0      	nop			@ (mov r8, r8)
    }

    /* If proper clock source reported */
    if (pclk != 0U)
 800233e:	6b7b      	ldr	r3, [r7, #52]	@ 0x34
 8002340:	2b00      	cmp	r3, #0
 8002342:	d100      	bne.n	8002346 <UART_SetConfig+0x2ae>
 8002344:	e14b      	b.n	80025de <UART_SetConfig+0x546>
    {
      /* Compute clock after Prescaler */
      lpuart_ker_ck_pres = (pclk / UARTPrescTable[huart->Init.ClockPrescaler]);
 8002346:	6a7b      	ldr	r3, [r7, #36]	@ 0x24
 8002348:	6a5a      	ldr	r2, [r3, #36]	@ 0x24
 800234a:	4b19      	ldr	r3, [pc, #100]	@ (80023b0 <UART_SetConfig+0x318>)
 800234c:	0052      	lsls	r2, r2, #1
 800234e:	5ad3      	ldrh	r3, [r2, r3]
 8002350:	0019      	movs	r1, r3
 8002352:	6b78      	ldr	r0, [r7, #52]	@ 0x34
 8002354:	f7fd fed6 	bl	8000104 <__udivsi3>
 8002358:	0003      	movs	r3, r0
 800235a:	62bb      	str	r3, [r7, #40]	@ 0x28

      /* Ensure that Frequency clock is in the range [3 * baudrate, 4096 * baudrate] */
      if ((lpuart_ker_ck_pres < (3U * huart->Init.BaudRate)) ||
 800235c:	6a7b      	ldr	r3, [r7, #36]	@ 0x24
 800235e:	685a      	ldr	r2, [r3, #4]
 8002360:	0013      	movs	r3, r2
 8002362:	005b      	lsls	r3, r3, #1
 8002364:	189b      	adds	r3, r3, r2
 8002366:	6aba      	ldr	r2, [r7, #40]	@ 0x28
 8002368:	429a      	cmp	r2, r3
 800236a:	d305      	bcc.n	8002378 <UART_SetConfig+0x2e0>
          (lpuart_ker_ck_pres > (4096U * huart->Init.BaudRate)))
 800236c:	6a7b      	ldr	r3, [r7, #36]	@ 0x24
 800236e:	685b      	ldr	r3, [r3, #4]
 8002370:	031b      	lsls	r3, r3, #12
      if ((lpuart_ker_ck_pres < (3U * huart->Init.BaudRate)) ||
 8002372:	6aba      	ldr	r2, [r7, #40]	@ 0x28
 8002374:	429a      	cmp	r2, r3
 8002376:	d91d      	bls.n	80023b4 <UART_SetConfig+0x31c>
      {
        ret = HAL_ERROR;
 8002378:	231a      	movs	r3, #26
 800237a:	2220      	movs	r2, #32
 800237c:	189b      	adds	r3, r3, r2
 800237e:	19db      	adds	r3, r3, r7
 8002380:	2201      	movs	r2, #1
 8002382:	701a      	strb	r2, [r3, #0]
 8002384:	e12b      	b.n	80025de <UART_SetConfig+0x546>
 8002386:	46c0      	nop			@ (mov r8, r8)
 8002388:	cfff69f3 	.word	0xcfff69f3
 800238c:	ffffcfff 	.word	0xffffcfff
 8002390:	40008000 	.word	0x40008000
 8002394:	11fff4ff 	.word	0x11fff4ff
 8002398:	40013800 	.word	0x40013800
 800239c:	40021000 	.word	0x40021000
 80023a0:	40004400 	.word	0x40004400
 80023a4:	40004800 	.word	0x40004800
 80023a8:	40004c00 	.word	0x40004c00
 80023ac:	00f42400 	.word	0x00f42400
 80023b0:	08003740 	.word	0x08003740
      }
      else
      {
        /* Check computed UsartDiv value is in allocated range
           (it is forbidden to write values lower than 0x300 in the LPUART_BRR register) */
        usartdiv = (uint32_t)(UART_DIV_LPUART(pclk, huart->Init.BaudRate, huart->Init.ClockPrescaler));
 80023b4:	6b7b      	ldr	r3, [r7, #52]	@ 0x34
 80023b6:	61bb      	str	r3, [r7, #24]
 80023b8:	2300      	movs	r3, #0
 80023ba:	61fb      	str	r3, [r7, #28]
 80023bc:	6a7b      	ldr	r3, [r7, #36]	@ 0x24
 80023be:	6a5a      	ldr	r2, [r3, #36]	@ 0x24
 80023c0:	4b92      	ldr	r3, [pc, #584]	@ (800260c <UART_SetConfig+0x574>)
 80023c2:	0052      	lsls	r2, r2, #1
 80023c4:	5ad3      	ldrh	r3, [r2, r3]
 80023c6:	613b      	str	r3, [r7, #16]
 80023c8:	2300      	movs	r3, #0
 80023ca:	617b      	str	r3, [r7, #20]
 80023cc:	693a      	ldr	r2, [r7, #16]
 80023ce:	697b      	ldr	r3, [r7, #20]
 80023d0:	69b8      	ldr	r0, [r7, #24]
 80023d2:	69f9      	ldr	r1, [r7, #28]
 80023d4:	f7fe f80c 	bl	80003f0 <__aeabi_uldivmod>
 80023d8:	0002      	movs	r2, r0
 80023da:	000b      	movs	r3, r1
 80023dc:	0e11      	lsrs	r1, r2, #24
 80023de:	021d      	lsls	r5, r3, #8
 80023e0:	430d      	orrs	r5, r1
 80023e2:	0214      	lsls	r4, r2, #8
 80023e4:	6a7b      	ldr	r3, [r7, #36]	@ 0x24
 80023e6:	685b      	ldr	r3, [r3, #4]
 80023e8:	085b      	lsrs	r3, r3, #1
 80023ea:	60bb      	str	r3, [r7, #8]
 80023ec:	2300      	movs	r3, #0
 80023ee:	60fb      	str	r3, [r7, #12]
 80023f0:	68b8      	ldr	r0, [r7, #8]
 80023f2:	68f9      	ldr	r1, [r7, #12]
 80023f4:	1900      	adds	r0, r0, r4
 80023f6:	4169      	adcs	r1, r5
 80023f8:	6a7b      	ldr	r3, [r7, #36]	@ 0x24
 80023fa:	685b      	ldr	r3, [r3, #4]
 80023fc:	603b      	str	r3, [r7, #0]
 80023fe:	2300      	movs	r3, #0
 8002400:	607b      	str	r3, [r7, #4]
 8002402:	683a      	ldr	r2, [r7, #0]
 8002404:	687b      	ldr	r3, [r7, #4]
 8002406:	f7fd fff3 	bl	80003f0 <__aeabi_uldivmod>
 800240a:	0002      	movs	r2, r0
 800240c:	000b      	movs	r3, r1
 800240e:	0013      	movs	r3, r2
 8002410:	633b      	str	r3, [r7, #48]	@ 0x30
        if ((usartdiv >= LPUART_BRR_MIN) && (usartdiv <= LPUART_BRR_MAX))
 8002412:	6b3a      	ldr	r2, [r7, #48]	@ 0x30
 8002414:	23c0      	movs	r3, #192	@ 0xc0
 8002416:	009b      	lsls	r3, r3, #2
 8002418:	429a      	cmp	r2, r3
 800241a:	d309      	bcc.n	8002430 <UART_SetConfig+0x398>
 800241c:	6b3a      	ldr	r2, [r7, #48]	@ 0x30
 800241e:	2380      	movs	r3, #128	@ 0x80
 8002420:	035b      	lsls	r3, r3, #13
 8002422:	429a      	cmp	r2, r3
 8002424:	d204      	bcs.n	8002430 <UART_SetConfig+0x398>
        {
          huart->Instance->BRR = usartdiv;
 8002426:	6a7b      	ldr	r3, [r7, #36]	@ 0x24
 8002428:	681b      	ldr	r3, [r3, #0]
 800242a:	6b3a      	ldr	r2, [r7, #48]	@ 0x30
 800242c:	60da      	str	r2, [r3, #12]
 800242e:	e0d6      	b.n	80025de <UART_SetConfig+0x546>
        }
        else
        {
          ret = HAL_ERROR;
 8002430:	231a      	movs	r3, #26
 8002432:	2220      	movs	r2, #32
 8002434:	189b      	adds	r3, r3, r2
 8002436:	19db      	adds	r3, r3, r7
 8002438:	2201      	movs	r2, #1
 800243a:	701a      	strb	r2, [r3, #0]
 800243c:	e0cf      	b.n	80025de <UART_SetConfig+0x546>
      } /* if ( (lpuart_ker_ck_pres < (3 * huart->Init.BaudRate) ) ||
                (lpuart_ker_ck_pres > (4096 * huart->Init.BaudRate) )) */
    } /* if (pclk != 0) */
  }
  /* Check UART Over Sampling to set Baud Rate Register */
  else if (huart->Init.OverSampling == UART_OVERSAMPLING_8)
 800243e:	6a7b      	ldr	r3, [r7, #36]	@ 0x24
 8002440:	69da      	ldr	r2, [r3, #28]
 8002442:	2380      	movs	r3, #128	@ 0x80
 8002444:	021b      	lsls	r3, r3, #8
 8002446:	429a      	cmp	r2, r3
 8002448:	d000      	beq.n	800244c <UART_SetConfig+0x3b4>
 800244a:	e070      	b.n	800252e <UART_SetConfig+0x496>
  {
    switch (clocksource)
 800244c:	231b      	movs	r3, #27
 800244e:	2220      	movs	r2, #32
 8002450:	189b      	adds	r3, r3, r2
 8002452:	19db      	adds	r3, r3, r7
 8002454:	781b      	ldrb	r3, [r3, #0]
 8002456:	2b08      	cmp	r3, #8
 8002458:	d015      	beq.n	8002486 <UART_SetConfig+0x3ee>
 800245a:	dc18      	bgt.n	800248e <UART_SetConfig+0x3f6>
 800245c:	2b04      	cmp	r3, #4
 800245e:	d00d      	beq.n	800247c <UART_SetConfig+0x3e4>
 8002460:	dc15      	bgt.n	800248e <UART_SetConfig+0x3f6>
 8002462:	2b00      	cmp	r3, #0
 8002464:	d002      	beq.n	800246c <UART_SetConfig+0x3d4>
 8002466:	2b02      	cmp	r3, #2
 8002468:	d005      	beq.n	8002476 <UART_SetConfig+0x3de>
 800246a:	e010      	b.n	800248e <UART_SetConfig+0x3f6>
    {
      case UART_CLOCKSOURCE_PCLK1:
        pclk = HAL_RCC_GetPCLK1Freq();
 800246c:	f7ff fb4c 	bl	8001b08 <HAL_RCC_GetPCLK1Freq>
 8002470:	0003      	movs	r3, r0
 8002472:	637b      	str	r3, [r7, #52]	@ 0x34
        break;
 8002474:	e014      	b.n	80024a0 <UART_SetConfig+0x408>
      case UART_CLOCKSOURCE_HSI:
        pclk = (uint32_t) HSI_VALUE;
 8002476:	4b66      	ldr	r3, [pc, #408]	@ (8002610 <UART_SetConfig+0x578>)
 8002478:	637b      	str	r3, [r7, #52]	@ 0x34
        break;
 800247a:	e011      	b.n	80024a0 <UART_SetConfig+0x408>
      case UART_CLOCKSOURCE_SYSCLK:
        pclk = HAL_RCC_GetSysClockFreq();
 800247c:	f7ff fab8 	bl	80019f0 <HAL_RCC_GetSysClockFreq>
 8002480:	0003      	movs	r3, r0
 8002482:	637b      	str	r3, [r7, #52]	@ 0x34
        break;
 8002484:	e00c      	b.n	80024a0 <UART_SetConfig+0x408>
      case UART_CLOCKSOURCE_LSE:
        pclk = (uint32_t) LSE_VALUE;
 8002486:	2380      	movs	r3, #128	@ 0x80
 8002488:	021b      	lsls	r3, r3, #8
 800248a:	637b      	str	r3, [r7, #52]	@ 0x34
        break;
 800248c:	e008      	b.n	80024a0 <UART_SetConfig+0x408>
      default:
        pclk = 0U;
 800248e:	2300      	movs	r3, #0
 8002490:	637b      	str	r3, [r7, #52]	@ 0x34
        ret = HAL_ERROR;
 8002492:	231a      	movs	r3, #26
 8002494:	2220      	movs	r2, #32
 8002496:	189b      	adds	r3, r3, r2
 8002498:	19db      	adds	r3, r3, r7
 800249a:	2201      	movs	r2, #1
 800249c:	701a      	strb	r2, [r3, #0]
        break;
 800249e:	46c0      	nop			@ (mov r8, r8)
    }

    /* USARTDIV must be greater than or equal to 0d16 */
    if (pclk != 0U)
 80024a0:	6b7b      	ldr	r3, [r7, #52]	@ 0x34
 80024a2:	2b00      	cmp	r3, #0
 80024a4:	d100      	bne.n	80024a8 <UART_SetConfig+0x410>
 80024a6:	e09a      	b.n	80025de <UART_SetConfig+0x546>
    {
      usartdiv = (uint32_t)(UART_DIV_SAMPLING8(pclk, huart->Init.BaudRate, huart->Init.ClockPrescaler));
 80024a8:	6a7b      	ldr	r3, [r7, #36]	@ 0x24
 80024aa:	6a5a      	ldr	r2, [r3, #36]	@ 0x24
 80024ac:	4b57      	ldr	r3, [pc, #348]	@ (800260c <UART_SetConfig+0x574>)
 80024ae:	0052      	lsls	r2, r2, #1
 80024b0:	5ad3      	ldrh	r3, [r2, r3]
 80024b2:	0019      	movs	r1, r3
 80024b4:	6b78      	ldr	r0, [r7, #52]	@ 0x34
 80024b6:	f7fd fe25 	bl	8000104 <__udivsi3>
 80024ba:	0003      	movs	r3, r0
 80024bc:	005a      	lsls	r2, r3, #1
 80024be:	6a7b      	ldr	r3, [r7, #36]	@ 0x24
 80024c0:	685b      	ldr	r3, [r3, #4]
 80024c2:	085b      	lsrs	r3, r3, #1
 80024c4:	18d2      	adds	r2, r2, r3
 80024c6:	6a7b      	ldr	r3, [r7, #36]	@ 0x24
 80024c8:	685b      	ldr	r3, [r3, #4]
 80024ca:	0019      	movs	r1, r3
 80024cc:	0010      	movs	r0, r2
 80024ce:	f7fd fe19 	bl	8000104 <__udivsi3>
 80024d2:	0003      	movs	r3, r0
 80024d4:	633b      	str	r3, [r7, #48]	@ 0x30
      if ((usartdiv >= UART_BRR_MIN) && (usartdiv <= UART_BRR_MAX))
 80024d6:	6b3b      	ldr	r3, [r7, #48]	@ 0x30
 80024d8:	2b0f      	cmp	r3, #15
 80024da:	d921      	bls.n	8002520 <UART_SetConfig+0x488>
 80024dc:	6b3a      	ldr	r2, [r7, #48]	@ 0x30
 80024de:	2380      	movs	r3, #128	@ 0x80
 80024e0:	025b      	lsls	r3, r3, #9
 80024e2:	429a      	cmp	r2, r3
 80024e4:	d21c      	bcs.n	8002520 <UART_SetConfig+0x488>
      {
        brrtemp = (uint16_t)(usartdiv & 0xFFF0U);
 80024e6:	6b3b      	ldr	r3, [r7, #48]	@ 0x30
 80024e8:	b29a      	uxth	r2, r3
 80024ea:	200e      	movs	r0, #14
 80024ec:	2420      	movs	r4, #32
 80024ee:	1903      	adds	r3, r0, r4
 80024f0:	19db      	adds	r3, r3, r7
 80024f2:	210f      	movs	r1, #15
 80024f4:	438a      	bics	r2, r1
 80024f6:	801a      	strh	r2, [r3, #0]
        brrtemp |= (uint16_t)((usartdiv & (uint16_t)0x000FU) >> 1U);
 80024f8:	6b3b      	ldr	r3, [r7, #48]	@ 0x30
 80024fa:	085b      	lsrs	r3, r3, #1
 80024fc:	b29b      	uxth	r3, r3
 80024fe:	2207      	movs	r2, #7
 8002500:	4013      	ands	r3, r2
 8002502:	b299      	uxth	r1, r3
 8002504:	1903      	adds	r3, r0, r4
 8002506:	19db      	adds	r3, r3, r7
 8002508:	1902      	adds	r2, r0, r4
 800250a:	19d2      	adds	r2, r2, r7
 800250c:	8812      	ldrh	r2, [r2, #0]
 800250e:	430a      	orrs	r2, r1
 8002510:	801a      	strh	r2, [r3, #0]
        huart->Instance->BRR = brrtemp;
 8002512:	6a7b      	ldr	r3, [r7, #36]	@ 0x24
 8002514:	681b      	ldr	r3, [r3, #0]
 8002516:	1902      	adds	r2, r0, r4
 8002518:	19d2      	adds	r2, r2, r7
 800251a:	8812      	ldrh	r2, [r2, #0]
 800251c:	60da      	str	r2, [r3, #12]
 800251e:	e05e      	b.n	80025de <UART_SetConfig+0x546>
      }
      else
      {
        ret = HAL_ERROR;
 8002520:	231a      	movs	r3, #26
 8002522:	2220      	movs	r2, #32
 8002524:	189b      	adds	r3, r3, r2
 8002526:	19db      	adds	r3, r3, r7
 8002528:	2201      	movs	r2, #1
 800252a:	701a      	strb	r2, [r3, #0]
 800252c:	e057      	b.n	80025de <UART_SetConfig+0x546>
      }
    }
  }
  else
  {
    switch (clocksource)
 800252e:	231b      	movs	r3, #27
 8002530:	2220      	movs	r2, #32
 8002532:	189b      	adds	r3, r3, r2
 8002534:	19db      	adds	r3, r3, r7
 8002536:	781b      	ldrb	r3, [r3, #0]
 8002538:	2b08      	cmp	r3, #8
 800253a:	d015      	beq.n	8002568 <UART_SetConfig+0x4d0>
 800253c:	dc18      	bgt.n	8002570 <UART_SetConfig+0x4d8>
 800253e:	2b04      	cmp	r3, #4
 8002540:	d00d      	beq.n	800255e <UART_SetConfig+0x4c6>
 8002542:	dc15      	bgt.n	8002570 <UART_SetConfig+0x4d8>
 8002544:	2b00      	cmp	r3, #0
 8002546:	d002      	beq.n	800254e <UART_SetConfig+0x4b6>
 8002548:	2b02      	cmp	r3, #2
 800254a:	d005      	beq.n	8002558 <UART_SetConfig+0x4c0>
 800254c:	e010      	b.n	8002570 <UART_SetConfig+0x4d8>
    {
      case UART_CLOCKSOURCE_PCLK1:
        pclk = HAL_RCC_GetPCLK1Freq();
 800254e:	f7ff fadb 	bl	8001b08 <HAL_RCC_GetPCLK1Freq>
 8002552:	0003      	movs	r3, r0
 8002554:	637b      	str	r3, [r7, #52]	@ 0x34
        break;
 8002556:	e014      	b.n	8002582 <UART_SetConfig+0x4ea>
      case UART_CLOCKSOURCE_HSI:
        pclk = (uint32_t) HSI_VALUE;
 8002558:	4b2d      	ldr	r3, [pc, #180]	@ (8002610 <UART_SetConfig+0x578>)
 800255a:	637b      	str	r3, [r7, #52]	@ 0x34
        break;
 800255c:	e011      	b.n	8002582 <UART_SetConfig+0x4ea>
      case UART_CLOCKSOURCE_SYSCLK:
        pclk = HAL_RCC_GetSysClockFreq();
 800255e:	f7ff fa47 	bl	80019f0 <HAL_RCC_GetSysClockFreq>
 8002562:	0003      	movs	r3, r0
 8002564:	637b      	str	r3, [r7, #52]	@ 0x34
        break;
 8002566:	e00c      	b.n	8002582 <UART_SetConfig+0x4ea>
      case UART_CLOCKSOURCE_LSE:
        pclk = (uint32_t) LSE_VALUE;
 8002568:	2380      	movs	r3, #128	@ 0x80
 800256a:	021b      	lsls	r3, r3, #8
 800256c:	637b      	str	r3, [r7, #52]	@ 0x34
        break;
 800256e:	e008      	b.n	8002582 <UART_SetConfig+0x4ea>
      default:
        pclk = 0U;
 8002570:	2300      	movs	r3, #0
 8002572:	637b      	str	r3, [r7, #52]	@ 0x34
        ret = HAL_ERROR;
 8002574:	231a      	movs	r3, #26
 8002576:	2220      	movs	r2, #32
 8002578:	189b      	adds	r3, r3, r2
 800257a:	19db      	adds	r3, r3, r7
 800257c:	2201      	movs	r2, #1
 800257e:	701a      	strb	r2, [r3, #0]
        break;
 8002580:	46c0      	nop			@ (mov r8, r8)
    }

    if (pclk != 0U)
 8002582:	6b7b      	ldr	r3, [r7, #52]	@ 0x34
 8002584:	2b00      	cmp	r3, #0
 8002586:	d02a      	beq.n	80025de <UART_SetConfig+0x546>
    {
      /* USARTDIV must be greater than or equal to 0d16 */
      usartdiv = (uint32_t)(UART_DIV_SAMPLING16(pclk, huart->Init.BaudRate, huart->Init.ClockPrescaler));
 8002588:	6a7b      	ldr	r3, [r7, #36]	@ 0x24
 800258a:	6a5a      	ldr	r2, [r3, #36]	@ 0x24
 800258c:	4b1f      	ldr	r3, [pc, #124]	@ (800260c <UART_SetConfig+0x574>)
 800258e:	0052      	lsls	r2, r2, #1
 8002590:	5ad3      	ldrh	r3, [r2, r3]
 8002592:	0019      	movs	r1, r3
 8002594:	6b78      	ldr	r0, [r7, #52]	@ 0x34
 8002596:	f7fd fdb5 	bl	8000104 <__udivsi3>
 800259a:	0003      	movs	r3, r0
 800259c:	001a      	movs	r2, r3
 800259e:	6a7b      	ldr	r3, [r7, #36]	@ 0x24
 80025a0:	685b      	ldr	r3, [r3, #4]
 80025a2:	085b      	lsrs	r3, r3, #1
 80025a4:	18d2      	adds	r2, r2, r3
 80025a6:	6a7b      	ldr	r3, [r7, #36]	@ 0x24
 80025a8:	685b      	ldr	r3, [r3, #4]
 80025aa:	0019      	movs	r1, r3
 80025ac:	0010      	movs	r0, r2
 80025ae:	f7fd fda9 	bl	8000104 <__udivsi3>
 80025b2:	0003      	movs	r3, r0
 80025b4:	633b      	str	r3, [r7, #48]	@ 0x30
      if ((usartdiv >= UART_BRR_MIN) && (usartdiv <= UART_BRR_MAX))
 80025b6:	6b3b      	ldr	r3, [r7, #48]	@ 0x30
 80025b8:	2b0f      	cmp	r3, #15
 80025ba:	d90a      	bls.n	80025d2 <UART_SetConfig+0x53a>
 80025bc:	6b3a      	ldr	r2, [r7, #48]	@ 0x30
 80025be:	2380      	movs	r3, #128	@ 0x80
 80025c0:	025b      	lsls	r3, r3, #9
 80025c2:	429a      	cmp	r2, r3
 80025c4:	d205      	bcs.n	80025d2 <UART_SetConfig+0x53a>
      {
        huart->Instance->BRR = (uint16_t)usartdiv;
 80025c6:	6b3b      	ldr	r3, [r7, #48]	@ 0x30
 80025c8:	b29a      	uxth	r2, r3
 80025ca:	6a7b      	ldr	r3, [r7, #36]	@ 0x24
 80025cc:	681b      	ldr	r3, [r3, #0]
 80025ce:	60da      	str	r2, [r3, #12]
 80025d0:	e005      	b.n	80025de <UART_SetConfig+0x546>
      }
      else
      {
        ret = HAL_ERROR;
 80025d2:	231a      	movs	r3, #26
 80025d4:	2220      	movs	r2, #32
 80025d6:	189b      	adds	r3, r3, r2
 80025d8:	19db      	adds	r3, r3, r7
 80025da:	2201      	movs	r2, #1
 80025dc:	701a      	strb	r2, [r3, #0]
      }
    }
  }

  /* Initialize the number of data to process during RX/TX ISR execution */
  huart->NbTxDataToProcess = 1;
 80025de:	6a7b      	ldr	r3, [r7, #36]	@ 0x24
 80025e0:	226a      	movs	r2, #106	@ 0x6a
 80025e2:	2101      	movs	r1, #1
 80025e4:	5299      	strh	r1, [r3, r2]
  huart->NbRxDataToProcess = 1;
 80025e6:	6a7b      	ldr	r3, [r7, #36]	@ 0x24
 80025e8:	2268      	movs	r2, #104	@ 0x68
 80025ea:	2101      	movs	r1, #1
 80025ec:	5299      	strh	r1, [r3, r2]

  /* Clear ISR function pointers */
  huart->RxISR = NULL;
 80025ee:	6a7b      	ldr	r3, [r7, #36]	@ 0x24
 80025f0:	2200      	movs	r2, #0
 80025f2:	675a      	str	r2, [r3, #116]	@ 0x74
  huart->TxISR = NULL;
 80025f4:	6a7b      	ldr	r3, [r7, #36]	@ 0x24
 80025f6:	2200      	movs	r2, #0
 80025f8:	679a      	str	r2, [r3, #120]	@ 0x78

  return ret;
 80025fa:	231a      	movs	r3, #26
 80025fc:	2220      	movs	r2, #32
 80025fe:	189b      	adds	r3, r3, r2
 8002600:	19db      	adds	r3, r3, r7
 8002602:	781b      	ldrb	r3, [r3, #0]
}
 8002604:	0018      	movs	r0, r3
 8002606:	46bd      	mov	sp, r7
 8002608:	b010      	add	sp, #64	@ 0x40
 800260a:	bdb0      	pop	{r4, r5, r7, pc}
 800260c:	08003740 	.word	0x08003740
 8002610:	00f42400 	.word	0x00f42400

08002614 <UART_AdvFeatureConfig>:
  * @brief Configure the UART peripheral advanced features.
  * @param huart UART handle.
  * @retval None
  */
void UART_AdvFeatureConfig(UART_HandleTypeDef *huart)
{
 8002614:	b580      	push	{r7, lr}
 8002616:	b082      	sub	sp, #8
 8002618:	af00      	add	r7, sp, #0
 800261a:	6078      	str	r0, [r7, #4]
  /* Check whether the set of advanced features to configure is properly set */
  assert_param(IS_UART_ADVFEATURE_INIT(huart->AdvancedInit.AdvFeatureInit));

  /* if required, configure RX/TX pins swap */
  if (HAL_IS_BIT_SET(huart->AdvancedInit.AdvFeatureInit, UART_ADVFEATURE_SWAP_INIT))
 800261c:	687b      	ldr	r3, [r7, #4]
 800261e:	6a9b      	ldr	r3, [r3, #40]	@ 0x28
 8002620:	2208      	movs	r2, #8
 8002622:	4013      	ands	r3, r2
 8002624:	d00b      	beq.n	800263e <UART_AdvFeatureConfig+0x2a>
  {
    assert_param(IS_UART_ADVFEATURE_SWAP(huart->AdvancedInit.Swap));
    MODIFY_REG(huart->Instance->CR2, USART_CR2_SWAP, huart->AdvancedInit.Swap);
 8002626:	687b      	ldr	r3, [r7, #4]
 8002628:	681b      	ldr	r3, [r3, #0]
 800262a:	685b      	ldr	r3, [r3, #4]
 800262c:	4a4a      	ldr	r2, [pc, #296]	@ (8002758 <UART_AdvFeatureConfig+0x144>)
 800262e:	4013      	ands	r3, r2
 8002630:	0019      	movs	r1, r3
 8002632:	687b      	ldr	r3, [r7, #4]
 8002634:	6b9a      	ldr	r2, [r3, #56]	@ 0x38
 8002636:	687b      	ldr	r3, [r7, #4]
 8002638:	681b      	ldr	r3, [r3, #0]
 800263a:	430a      	orrs	r2, r1
 800263c:	605a      	str	r2, [r3, #4]
  }

  /* if required, configure TX pin active level inversion */
  if (HAL_IS_BIT_SET(huart->AdvancedInit.AdvFeatureInit, UART_ADVFEATURE_TXINVERT_INIT))
 800263e:	687b      	ldr	r3, [r7, #4]
 8002640:	6a9b      	ldr	r3, [r3, #40]	@ 0x28
 8002642:	2201      	movs	r2, #1
 8002644:	4013      	ands	r3, r2
 8002646:	d00b      	beq.n	8002660 <UART_AdvFeatureConfig+0x4c>
  {
    assert_param(IS_UART_ADVFEATURE_TXINV(huart->AdvancedInit.TxPinLevelInvert));
    MODIFY_REG(huart->Instance->CR2, USART_CR2_TXINV, huart->AdvancedInit.TxPinLevelInvert);
 8002648:	687b      	ldr	r3, [r7, #4]
 800264a:	681b      	ldr	r3, [r3, #0]
 800264c:	685b      	ldr	r3, [r3, #4]
 800264e:	4a43      	ldr	r2, [pc, #268]	@ (800275c <UART_AdvFeatureConfig+0x148>)
 8002650:	4013      	ands	r3, r2
 8002652:	0019      	movs	r1, r3
 8002654:	687b      	ldr	r3, [r7, #4]
 8002656:	6ada      	ldr	r2, [r3, #44]	@ 0x2c
 8002658:	687b      	ldr	r3, [r7, #4]
 800265a:	681b      	ldr	r3, [r3, #0]
 800265c:	430a      	orrs	r2, r1
 800265e:	605a      	str	r2, [r3, #4]
  }

  /* if required, configure RX pin active level inversion */
  if (HAL_IS_BIT_SET(huart->AdvancedInit.AdvFeatureInit, UART_ADVFEATURE_RXINVERT_INIT))
 8002660:	687b      	ldr	r3, [r7, #4]
 8002662:	6a9b      	ldr	r3, [r3, #40]	@ 0x28
 8002664:	2202      	movs	r2, #2
 8002666:	4013      	ands	r3, r2
 8002668:	d00b      	beq.n	8002682 <UART_AdvFeatureConfig+0x6e>
  {
    assert_param(IS_UART_ADVFEATURE_RXINV(huart->AdvancedInit.RxPinLevelInvert));
    MODIFY_REG(huart->Instance->CR2, USART_CR2_RXINV, huart->AdvancedInit.RxPinLevelInvert);
 800266a:	687b      	ldr	r3, [r7, #4]
 800266c:	681b      	ldr	r3, [r3, #0]
 800266e:	685b      	ldr	r3, [r3, #4]
 8002670:	4a3b      	ldr	r2, [pc, #236]	@ (8002760 <UART_AdvFeatureConfig+0x14c>)
 8002672:	4013      	ands	r3, r2
 8002674:	0019      	movs	r1, r3
 8002676:	687b      	ldr	r3, [r7, #4]
 8002678:	6b1a      	ldr	r2, [r3, #48]	@ 0x30
 800267a:	687b      	ldr	r3, [r7, #4]
 800267c:	681b      	ldr	r3, [r3, #0]
 800267e:	430a      	orrs	r2, r1
 8002680:	605a      	str	r2, [r3, #4]
  }

  /* if required, configure data inversion */
  if (HAL_IS_BIT_SET(huart->AdvancedInit.AdvFeatureInit, UART_ADVFEATURE_DATAINVERT_INIT))
 8002682:	687b      	ldr	r3, [r7, #4]
 8002684:	6a9b      	ldr	r3, [r3, #40]	@ 0x28
 8002686:	2204      	movs	r2, #4
 8002688:	4013      	ands	r3, r2
 800268a:	d00b      	beq.n	80026a4 <UART_AdvFeatureConfig+0x90>
  {
    assert_param(IS_UART_ADVFEATURE_DATAINV(huart->AdvancedInit.DataInvert));
    MODIFY_REG(huart->Instance->CR2, USART_CR2_DATAINV, huart->AdvancedInit.DataInvert);
 800268c:	687b      	ldr	r3, [r7, #4]
 800268e:	681b      	ldr	r3, [r3, #0]
 8002690:	685b      	ldr	r3, [r3, #4]
 8002692:	4a34      	ldr	r2, [pc, #208]	@ (8002764 <UART_AdvFeatureConfig+0x150>)
 8002694:	4013      	ands	r3, r2
 8002696:	0019      	movs	r1, r3
 8002698:	687b      	ldr	r3, [r7, #4]
 800269a:	6b5a      	ldr	r2, [r3, #52]	@ 0x34
 800269c:	687b      	ldr	r3, [r7, #4]
 800269e:	681b      	ldr	r3, [r3, #0]
 80026a0:	430a      	orrs	r2, r1
 80026a2:	605a      	str	r2, [r3, #4]
  }

  /* if required, configure RX overrun detection disabling */
  if (HAL_IS_BIT_SET(huart->AdvancedInit.AdvFeatureInit, UART_ADVFEATURE_RXOVERRUNDISABLE_INIT))
 80026a4:	687b      	ldr	r3, [r7, #4]
 80026a6:	6a9b      	ldr	r3, [r3, #40]	@ 0x28
 80026a8:	2210      	movs	r2, #16
 80026aa:	4013      	ands	r3, r2
 80026ac:	d00b      	beq.n	80026c6 <UART_AdvFeatureConfig+0xb2>
  {
    assert_param(IS_UART_OVERRUN(huart->AdvancedInit.OverrunDisable));
    MODIFY_REG(huart->Instance->CR3, USART_CR3_OVRDIS, huart->AdvancedInit.OverrunDisable);
 80026ae:	687b      	ldr	r3, [r7, #4]
 80026b0:	681b      	ldr	r3, [r3, #0]
 80026b2:	689b      	ldr	r3, [r3, #8]
 80026b4:	4a2c      	ldr	r2, [pc, #176]	@ (8002768 <UART_AdvFeatureConfig+0x154>)
 80026b6:	4013      	ands	r3, r2
 80026b8:	0019      	movs	r1, r3
 80026ba:	687b      	ldr	r3, [r7, #4]
 80026bc:	6bda      	ldr	r2, [r3, #60]	@ 0x3c
 80026be:	687b      	ldr	r3, [r7, #4]
 80026c0:	681b      	ldr	r3, [r3, #0]
 80026c2:	430a      	orrs	r2, r1
 80026c4:	609a      	str	r2, [r3, #8]
  }

  /* if required, configure DMA disabling on reception error */
  if (HAL_IS_BIT_SET(huart->AdvancedInit.AdvFeatureInit, UART_ADVFEATURE_DMADISABLEONERROR_INIT))
 80026c6:	687b      	ldr	r3, [r7, #4]
 80026c8:	6a9b      	ldr	r3, [r3, #40]	@ 0x28
 80026ca:	2220      	movs	r2, #32
 80026cc:	4013      	ands	r3, r2
 80026ce:	d00b      	beq.n	80026e8 <UART_AdvFeatureConfig+0xd4>
  {
    assert_param(IS_UART_ADVFEATURE_DMAONRXERROR(huart->AdvancedInit.DMADisableonRxError));
    MODIFY_REG(huart->Instance->CR3, USART_CR3_DDRE, huart->AdvancedInit.DMADisableonRxError);
 80026d0:	687b      	ldr	r3, [r7, #4]
 80026d2:	681b      	ldr	r3, [r3, #0]
 80026d4:	689b      	ldr	r3, [r3, #8]
 80026d6:	4a25      	ldr	r2, [pc, #148]	@ (800276c <UART_AdvFeatureConfig+0x158>)
 80026d8:	4013      	ands	r3, r2
 80026da:	0019      	movs	r1, r3
 80026dc:	687b      	ldr	r3, [r7, #4]
 80026de:	6c1a      	ldr	r2, [r3, #64]	@ 0x40
 80026e0:	687b      	ldr	r3, [r7, #4]
 80026e2:	681b      	ldr	r3, [r3, #0]
 80026e4:	430a      	orrs	r2, r1
 80026e6:	609a      	str	r2, [r3, #8]
  }

  /* if required, configure auto Baud rate detection scheme */
  if (HAL_IS_BIT_SET(huart->AdvancedInit.AdvFeatureInit, UART_ADVFEATURE_AUTOBAUDRATE_INIT))
 80026e8:	687b      	ldr	r3, [r7, #4]
 80026ea:	6a9b      	ldr	r3, [r3, #40]	@ 0x28
 80026ec:	2240      	movs	r2, #64	@ 0x40
 80026ee:	4013      	ands	r3, r2
 80026f0:	d01d      	beq.n	800272e <UART_AdvFeatureConfig+0x11a>
  {
    assert_param(IS_USART_AUTOBAUDRATE_DETECTION_INSTANCE(huart->Instance));
    assert_param(IS_UART_ADVFEATURE_AUTOBAUDRATE(huart->AdvancedInit.AutoBaudRateEnable));
    MODIFY_REG(huart->Instance->CR2, USART_CR2_ABREN, huart->AdvancedInit.AutoBaudRateEnable);
 80026f2:	687b      	ldr	r3, [r7, #4]
 80026f4:	681b      	ldr	r3, [r3, #0]
 80026f6:	685b      	ldr	r3, [r3, #4]
 80026f8:	4a1d      	ldr	r2, [pc, #116]	@ (8002770 <UART_AdvFeatureConfig+0x15c>)
 80026fa:	4013      	ands	r3, r2
 80026fc:	0019      	movs	r1, r3
 80026fe:	687b      	ldr	r3, [r7, #4]
 8002700:	6c5a      	ldr	r2, [r3, #68]	@ 0x44
 8002702:	687b      	ldr	r3, [r7, #4]
 8002704:	681b      	ldr	r3, [r3, #0]
 8002706:	430a      	orrs	r2, r1
 8002708:	605a      	str	r2, [r3, #4]
    /* set auto Baudrate detection parameters if detection is enabled */
    if (huart->AdvancedInit.AutoBaudRateEnable == UART_ADVFEATURE_AUTOBAUDRATE_ENABLE)
 800270a:	687b      	ldr	r3, [r7, #4]
 800270c:	6c5a      	ldr	r2, [r3, #68]	@ 0x44
 800270e:	2380      	movs	r3, #128	@ 0x80
 8002710:	035b      	lsls	r3, r3, #13
 8002712:	429a      	cmp	r2, r3
 8002714:	d10b      	bne.n	800272e <UART_AdvFeatureConfig+0x11a>
    {
      assert_param(IS_UART_ADVFEATURE_AUTOBAUDRATEMODE(huart->AdvancedInit.AutoBaudRateMode));
      MODIFY_REG(huart->Instance->CR2, USART_CR2_ABRMODE, huart->AdvancedInit.AutoBaudRateMode);
 8002716:	687b      	ldr	r3, [r7, #4]
 8002718:	681b      	ldr	r3, [r3, #0]
 800271a:	685b      	ldr	r3, [r3, #4]
 800271c:	4a15      	ldr	r2, [pc, #84]	@ (8002774 <UART_AdvFeatureConfig+0x160>)
 800271e:	4013      	ands	r3, r2
 8002720:	0019      	movs	r1, r3
 8002722:	687b      	ldr	r3, [r7, #4]
 8002724:	6c9a      	ldr	r2, [r3, #72]	@ 0x48
 8002726:	687b      	ldr	r3, [r7, #4]
 8002728:	681b      	ldr	r3, [r3, #0]
 800272a:	430a      	orrs	r2, r1
 800272c:	605a      	str	r2, [r3, #4]
    }
  }

  /* if required, configure MSB first on communication line */
  if (HAL_IS_BIT_SET(huart->AdvancedInit.AdvFeatureInit, UART_ADVFEATURE_MSBFIRST_INIT))
 800272e:	687b      	ldr	r3, [r7, #4]
 8002730:	6a9b      	ldr	r3, [r3, #40]	@ 0x28
 8002732:	2280      	movs	r2, #128	@ 0x80
 8002734:	4013      	ands	r3, r2
 8002736:	d00b      	beq.n	8002750 <UART_AdvFeatureConfig+0x13c>
  {
    assert_param(IS_UART_ADVFEATURE_MSBFIRST(huart->AdvancedInit.MSBFirst));
    MODIFY_REG(huart->Instance->CR2, USART_CR2_MSBFIRST, huart->AdvancedInit.MSBFirst);
 8002738:	687b      	ldr	r3, [r7, #4]
 800273a:	681b      	ldr	r3, [r3, #0]
 800273c:	685b      	ldr	r3, [r3, #4]
 800273e:	4a0e      	ldr	r2, [pc, #56]	@ (8002778 <UART_AdvFeatureConfig+0x164>)
 8002740:	4013      	ands	r3, r2
 8002742:	0019      	movs	r1, r3
 8002744:	687b      	ldr	r3, [r7, #4]
 8002746:	6cda      	ldr	r2, [r3, #76]	@ 0x4c
 8002748:	687b      	ldr	r3, [r7, #4]
 800274a:	681b      	ldr	r3, [r3, #0]
 800274c:	430a      	orrs	r2, r1
 800274e:	605a      	str	r2, [r3, #4]
  }
}
 8002750:	46c0      	nop			@ (mov r8, r8)
 8002752:	46bd      	mov	sp, r7
 8002754:	b002      	add	sp, #8
 8002756:	bd80      	pop	{r7, pc}
 8002758:	ffff7fff 	.word	0xffff7fff
 800275c:	fffdffff 	.word	0xfffdffff
 8002760:	fffeffff 	.word	0xfffeffff
 8002764:	fffbffff 	.word	0xfffbffff
 8002768:	ffffefff 	.word	0xffffefff
 800276c:	ffffdfff 	.word	0xffffdfff
 8002770:	ffefffff 	.word	0xffefffff
 8002774:	ff9fffff 	.word	0xff9fffff
 8002778:	fff7ffff 	.word	0xfff7ffff

0800277c <UART_CheckIdleState>:
  * @brief Check the UART Idle State.
  * @param huart UART handle.
  * @retval HAL status
  */
HAL_StatusTypeDef UART_CheckIdleState(UART_HandleTypeDef *huart)
{
 800277c:	b580      	push	{r7, lr}
 800277e:	b092      	sub	sp, #72	@ 0x48
 8002780:	af02      	add	r7, sp, #8
 8002782:	6078      	str	r0, [r7, #4]
  uint32_t tickstart;

  /* Initialize the UART ErrorCode */
  huart->ErrorCode = HAL_UART_ERROR_NONE;
 8002784:	687b      	ldr	r3, [r7, #4]
 8002786:	2290      	movs	r2, #144	@ 0x90
 8002788:	2100      	movs	r1, #0
 800278a:	5099      	str	r1, [r3, r2]

  /* Init tickstart for timeout management */
  tickstart = HAL_GetTick();
 800278c:	f7fe fa44 	bl	8000c18 <HAL_GetTick>
 8002790:	0003      	movs	r3, r0
 8002792:	63fb      	str	r3, [r7, #60]	@ 0x3c

  /* Check if the Transmitter is enabled */
  if ((huart->Instance->CR1 & USART_CR1_TE) == USART_CR1_TE)
 8002794:	687b      	ldr	r3, [r7, #4]
 8002796:	681b      	ldr	r3, [r3, #0]
 8002798:	681b      	ldr	r3, [r3, #0]
 800279a:	2208      	movs	r2, #8
 800279c:	4013      	ands	r3, r2
 800279e:	2b08      	cmp	r3, #8
 80027a0:	d12d      	bne.n	80027fe <UART_CheckIdleState+0x82>
  {
    /* Wait until TEACK flag is set */
    if (UART_WaitOnFlagUntilTimeout(huart, USART_ISR_TEACK, RESET, tickstart, HAL_UART_TIMEOUT_VALUE) != HAL_OK)
 80027a2:	6bfb      	ldr	r3, [r7, #60]	@ 0x3c
 80027a4:	2280      	movs	r2, #128	@ 0x80
 80027a6:	0391      	lsls	r1, r2, #14
 80027a8:	6878      	ldr	r0, [r7, #4]
 80027aa:	4a47      	ldr	r2, [pc, #284]	@ (80028c8 <UART_CheckIdleState+0x14c>)
 80027ac:	9200      	str	r2, [sp, #0]
 80027ae:	2200      	movs	r2, #0
 80027b0:	f000 f88e 	bl	80028d0 <UART_WaitOnFlagUntilTimeout>
 80027b4:	1e03      	subs	r3, r0, #0
 80027b6:	d022      	beq.n	80027fe <UART_CheckIdleState+0x82>
 */
__STATIC_FORCEINLINE uint32_t __get_PRIMASK(void)
{
  uint32_t result;

  __ASM volatile ("MRS %0, primask" : "=r" (result) :: "memory");
 80027b8:	f3ef 8310 	mrs	r3, PRIMASK
 80027bc:	627b      	str	r3, [r7, #36]	@ 0x24
  return(result);
 80027be:	6a7b      	ldr	r3, [r7, #36]	@ 0x24
    {
      /* Disable TXE interrupt for the interrupt process */
      ATOMIC_CLEAR_BIT(huart->Instance->CR1, (USART_CR1_TXEIE_TXFNFIE));
 80027c0:	63bb      	str	r3, [r7, #56]	@ 0x38
 80027c2:	2301      	movs	r3, #1
 80027c4:	62bb      	str	r3, [r7, #40]	@ 0x28
  \details Assigns the given value to the Priority Mask Register.
  \param [in]    priMask  Priority Mask
 */
__STATIC_FORCEINLINE void __set_PRIMASK(uint32_t priMask)
{
  __ASM volatile ("MSR primask, %0" : : "r" (priMask) : "memory");
 80027c6:	6abb      	ldr	r3, [r7, #40]	@ 0x28
 80027c8:	f383 8810 	msr	PRIMASK, r3
}
 80027cc:	46c0      	nop			@ (mov r8, r8)
 80027ce:	687b      	ldr	r3, [r7, #4]
 80027d0:	681b      	ldr	r3, [r3, #0]
 80027d2:	681a      	ldr	r2, [r3, #0]
 80027d4:	687b      	ldr	r3, [r7, #4]
 80027d6:	681b      	ldr	r3, [r3, #0]
 80027d8:	2180      	movs	r1, #128	@ 0x80
 80027da:	438a      	bics	r2, r1
 80027dc:	601a      	str	r2, [r3, #0]
 80027de:	6bbb      	ldr	r3, [r7, #56]	@ 0x38
 80027e0:	62fb      	str	r3, [r7, #44]	@ 0x2c
  __ASM volatile ("MSR primask, %0" : : "r" (priMask) : "memory");
 80027e2:	6afb      	ldr	r3, [r7, #44]	@ 0x2c
 80027e4:	f383 8810 	msr	PRIMASK, r3
}
 80027e8:	46c0      	nop			@ (mov r8, r8)

      huart->gState = HAL_UART_STATE_READY;
 80027ea:	687b      	ldr	r3, [r7, #4]
 80027ec:	2288      	movs	r2, #136	@ 0x88
 80027ee:	2120      	movs	r1, #32
 80027f0:	5099      	str	r1, [r3, r2]

      __HAL_UNLOCK(huart);
 80027f2:	687b      	ldr	r3, [r7, #4]
 80027f4:	2284      	movs	r2, #132	@ 0x84
 80027f6:	2100      	movs	r1, #0
 80027f8:	5499      	strb	r1, [r3, r2]

      /* Timeout occurred */
      return HAL_TIMEOUT;
 80027fa:	2303      	movs	r3, #3
 80027fc:	e060      	b.n	80028c0 <UART_CheckIdleState+0x144>
    }
  }

  /* Check if the Receiver is enabled */
  if ((huart->Instance->CR1 & USART_CR1_RE) == USART_CR1_RE)
 80027fe:	687b      	ldr	r3, [r7, #4]
 8002800:	681b      	ldr	r3, [r3, #0]
 8002802:	681b      	ldr	r3, [r3, #0]
 8002804:	2204      	movs	r2, #4
 8002806:	4013      	ands	r3, r2
 8002808:	2b04      	cmp	r3, #4
 800280a:	d146      	bne.n	800289a <UART_CheckIdleState+0x11e>
  {
    /* Wait until REACK flag is set */
    if (UART_WaitOnFlagUntilTimeout(huart, USART_ISR_REACK, RESET, tickstart, HAL_UART_TIMEOUT_VALUE) != HAL_OK)
 800280c:	6bfb      	ldr	r3, [r7, #60]	@ 0x3c
 800280e:	2280      	movs	r2, #128	@ 0x80
 8002810:	03d1      	lsls	r1, r2, #15
 8002812:	6878      	ldr	r0, [r7, #4]
 8002814:	4a2c      	ldr	r2, [pc, #176]	@ (80028c8 <UART_CheckIdleState+0x14c>)
 8002816:	9200      	str	r2, [sp, #0]
 8002818:	2200      	movs	r2, #0
 800281a:	f000 f859 	bl	80028d0 <UART_WaitOnFlagUntilTimeout>
 800281e:	1e03      	subs	r3, r0, #0
 8002820:	d03b      	beq.n	800289a <UART_CheckIdleState+0x11e>
  __ASM volatile ("MRS %0, primask" : "=r" (result) :: "memory");
 8002822:	f3ef 8310 	mrs	r3, PRIMASK
 8002826:	60fb      	str	r3, [r7, #12]
  return(result);
 8002828:	68fb      	ldr	r3, [r7, #12]
    {
      /* Disable RXNE, PE and ERR (Frame error, noise error, overrun error)
      interrupts for the interrupt process */
      ATOMIC_CLEAR_BIT(huart->Instance->CR1, (USART_CR1_RXNEIE_RXFNEIE | USART_CR1_PEIE));
 800282a:	637b      	str	r3, [r7, #52]	@ 0x34
 800282c:	2301      	movs	r3, #1
 800282e:	613b      	str	r3, [r7, #16]
  __ASM volatile ("MSR primask, %0" : : "r" (priMask) : "memory");
 8002830:	693b      	ldr	r3, [r7, #16]
 8002832:	f383 8810 	msr	PRIMASK, r3
}
 8002836:	46c0      	nop			@ (mov r8, r8)
 8002838:	687b      	ldr	r3, [r7, #4]
 800283a:	681b      	ldr	r3, [r3, #0]
 800283c:	681a      	ldr	r2, [r3, #0]
 800283e:	687b      	ldr	r3, [r7, #4]
 8002840:	681b      	ldr	r3, [r3, #0]
 8002842:	4922      	ldr	r1, [pc, #136]	@ (80028cc <UART_CheckIdleState+0x150>)
 8002844:	400a      	ands	r2, r1
 8002846:	601a      	str	r2, [r3, #0]
 8002848:	6b7b      	ldr	r3, [r7, #52]	@ 0x34
 800284a:	617b      	str	r3, [r7, #20]
  __ASM volatile ("MSR primask, %0" : : "r" (priMask) : "memory");
 800284c:	697b      	ldr	r3, [r7, #20]
 800284e:	f383 8810 	msr	PRIMASK, r3
}
 8002852:	46c0      	nop			@ (mov r8, r8)
  __ASM volatile ("MRS %0, primask" : "=r" (result) :: "memory");
 8002854:	f3ef 8310 	mrs	r3, PRIMASK
 8002858:	61bb      	str	r3, [r7, #24]
  return(result);
 800285a:	69bb      	ldr	r3, [r7, #24]
      ATOMIC_CLEAR_BIT(huart->Instance->CR3, USART_CR3_EIE);
 800285c:	633b      	str	r3, [r7, #48]	@ 0x30
 800285e:	2301      	movs	r3, #1
 8002860:	61fb      	str	r3, [r7, #28]
  __ASM volatile ("MSR primask, %0" : : "r" (priMask) : "memory");
 8002862:	69fb      	ldr	r3, [r7, #28]
 8002864:	f383 8810 	msr	PRIMASK, r3
}
 8002868:	46c0      	nop			@ (mov r8, r8)
 800286a:	687b      	ldr	r3, [r7, #4]
 800286c:	681b      	ldr	r3, [r3, #0]
 800286e:	689a      	ldr	r2, [r3, #8]
 8002870:	687b      	ldr	r3, [r7, #4]
 8002872:	681b      	ldr	r3, [r3, #0]
 8002874:	2101      	movs	r1, #1
 8002876:	438a      	bics	r2, r1
 8002878:	609a      	str	r2, [r3, #8]
 800287a:	6b3b      	ldr	r3, [r7, #48]	@ 0x30
 800287c:	623b      	str	r3, [r7, #32]
  __ASM volatile ("MSR primask, %0" : : "r" (priMask) : "memory");
 800287e:	6a3b      	ldr	r3, [r7, #32]
 8002880:	f383 8810 	msr	PRIMASK, r3
}
 8002884:	46c0      	nop			@ (mov r8, r8)

      huart->RxState = HAL_UART_STATE_READY;
 8002886:	687b      	ldr	r3, [r7, #4]
 8002888:	228c      	movs	r2, #140	@ 0x8c
 800288a:	2120      	movs	r1, #32
 800288c:	5099      	str	r1, [r3, r2]

      __HAL_UNLOCK(huart);
 800288e:	687b      	ldr	r3, [r7, #4]
 8002890:	2284      	movs	r2, #132	@ 0x84
 8002892:	2100      	movs	r1, #0
 8002894:	5499      	strb	r1, [r3, r2]

      /* Timeout occurred */
      return HAL_TIMEOUT;
 8002896:	2303      	movs	r3, #3
 8002898:	e012      	b.n	80028c0 <UART_CheckIdleState+0x144>
    }
  }

  /* Initialize the UART State */
  huart->gState = HAL_UART_STATE_READY;
 800289a:	687b      	ldr	r3, [r7, #4]
 800289c:	2288      	movs	r2, #136	@ 0x88
 800289e:	2120      	movs	r1, #32
 80028a0:	5099      	str	r1, [r3, r2]
  huart->RxState = HAL_UART_STATE_READY;
 80028a2:	687b      	ldr	r3, [r7, #4]
 80028a4:	228c      	movs	r2, #140	@ 0x8c
 80028a6:	2120      	movs	r1, #32
 80028a8:	5099      	str	r1, [r3, r2]
  huart->ReceptionType = HAL_UART_RECEPTION_STANDARD;
 80028aa:	687b      	ldr	r3, [r7, #4]
 80028ac:	2200      	movs	r2, #0
 80028ae:	66da      	str	r2, [r3, #108]	@ 0x6c
  huart->RxEventType = HAL_UART_RXEVENT_TC;
 80028b0:	687b      	ldr	r3, [r7, #4]
 80028b2:	2200      	movs	r2, #0
 80028b4:	671a      	str	r2, [r3, #112]	@ 0x70

  __HAL_UNLOCK(huart);
 80028b6:	687b      	ldr	r3, [r7, #4]
 80028b8:	2284      	movs	r2, #132	@ 0x84
 80028ba:	2100      	movs	r1, #0
 80028bc:	5499      	strb	r1, [r3, r2]

  return HAL_OK;
 80028be:	2300      	movs	r3, #0
}
 80028c0:	0018      	movs	r0, r3
 80028c2:	46bd      	mov	sp, r7
 80028c4:	b010      	add	sp, #64	@ 0x40
 80028c6:	bd80      	pop	{r7, pc}
 80028c8:	01ffffff 	.word	0x01ffffff
 80028cc:	fffffedf 	.word	0xfffffedf

080028d0 <UART_WaitOnFlagUntilTimeout>:
  * @param Timeout   Timeout duration
  * @retval HAL status
  */
HAL_StatusTypeDef UART_WaitOnFlagUntilTimeout(UART_HandleTypeDef *huart, uint32_t Flag, FlagStatus Status,
                                              uint32_t Tickstart, uint32_t Timeout)
{
 80028d0:	b580      	push	{r7, lr}
 80028d2:	b084      	sub	sp, #16
 80028d4:	af00      	add	r7, sp, #0
 80028d6:	60f8      	str	r0, [r7, #12]
 80028d8:	60b9      	str	r1, [r7, #8]
 80028da:	603b      	str	r3, [r7, #0]
 80028dc:	1dfb      	adds	r3, r7, #7
 80028de:	701a      	strb	r2, [r3, #0]
  /* Wait until flag is set */
  while ((__HAL_UART_GET_FLAG(huart, Flag) ? SET : RESET) == Status)
 80028e0:	e051      	b.n	8002986 <UART_WaitOnFlagUntilTimeout+0xb6>
  {
    /* Check for the Timeout */
    if (Timeout != HAL_MAX_DELAY)
 80028e2:	69bb      	ldr	r3, [r7, #24]
 80028e4:	3301      	adds	r3, #1
 80028e6:	d04e      	beq.n	8002986 <UART_WaitOnFlagUntilTimeout+0xb6>
    {
      if (((HAL_GetTick() - Tickstart) > Timeout) || (Timeout == 0U))
 80028e8:	f7fe f996 	bl	8000c18 <HAL_GetTick>
 80028ec:	0002      	movs	r2, r0
 80028ee:	683b      	ldr	r3, [r7, #0]
 80028f0:	1ad3      	subs	r3, r2, r3
 80028f2:	69ba      	ldr	r2, [r7, #24]
 80028f4:	429a      	cmp	r2, r3
 80028f6:	d302      	bcc.n	80028fe <UART_WaitOnFlagUntilTimeout+0x2e>
 80028f8:	69bb      	ldr	r3, [r7, #24]
 80028fa:	2b00      	cmp	r3, #0
 80028fc:	d101      	bne.n	8002902 <UART_WaitOnFlagUntilTimeout+0x32>
      {

        return HAL_TIMEOUT;
 80028fe:	2303      	movs	r3, #3
 8002900:	e051      	b.n	80029a6 <UART_WaitOnFlagUntilTimeout+0xd6>
      }

      if ((READ_BIT(huart->Instance->CR1, USART_CR1_RE) != 0U) && (Flag != UART_FLAG_TXE) && (Flag != UART_FLAG_TC))
 8002902:	68fb      	ldr	r3, [r7, #12]
 8002904:	681b      	ldr	r3, [r3, #0]
 8002906:	681b      	ldr	r3, [r3, #0]
 8002908:	2204      	movs	r2, #4
 800290a:	4013      	ands	r3, r2
 800290c:	d03b      	beq.n	8002986 <UART_WaitOnFlagUntilTimeout+0xb6>
 800290e:	68bb      	ldr	r3, [r7, #8]
 8002910:	2b80      	cmp	r3, #128	@ 0x80
 8002912:	d038      	beq.n	8002986 <UART_WaitOnFlagUntilTimeout+0xb6>
 8002914:	68bb      	ldr	r3, [r7, #8]
 8002916:	2b40      	cmp	r3, #64	@ 0x40
 8002918:	d035      	beq.n	8002986 <UART_WaitOnFlagUntilTimeout+0xb6>
      {
        if (__HAL_UART_GET_FLAG(huart, UART_FLAG_ORE) == SET)
 800291a:	68fb      	ldr	r3, [r7, #12]
 800291c:	681b      	ldr	r3, [r3, #0]
 800291e:	69db      	ldr	r3, [r3, #28]
 8002920:	2208      	movs	r2, #8
 8002922:	4013      	ands	r3, r2
 8002924:	2b08      	cmp	r3, #8
 8002926:	d111      	bne.n	800294c <UART_WaitOnFlagUntilTimeout+0x7c>
        {
          /* Clear Overrun Error flag*/
          __HAL_UART_CLEAR_FLAG(huart, UART_CLEAR_OREF);
 8002928:	68fb      	ldr	r3, [r7, #12]
 800292a:	681b      	ldr	r3, [r3, #0]
 800292c:	2208      	movs	r2, #8
 800292e:	621a      	str	r2, [r3, #32]

          /* Blocking error : transfer is aborted
          Set the UART state ready to be able to start again the process,
          Disable Rx Interrupts if ongoing */
          UART_EndRxTransfer(huart);
 8002930:	68fb      	ldr	r3, [r7, #12]
 8002932:	0018      	movs	r0, r3
 8002934:	f000 f83c 	bl	80029b0 <UART_EndRxTransfer>

          huart->ErrorCode = HAL_UART_ERROR_ORE;
 8002938:	68fb      	ldr	r3, [r7, #12]
 800293a:	2290      	movs	r2, #144	@ 0x90
 800293c:	2108      	movs	r1, #8
 800293e:	5099      	str	r1, [r3, r2]

          /* Process Unlocked */
          __HAL_UNLOCK(huart);
 8002940:	68fb      	ldr	r3, [r7, #12]
 8002942:	2284      	movs	r2, #132	@ 0x84
 8002944:	2100      	movs	r1, #0
 8002946:	5499      	strb	r1, [r3, r2]

          return HAL_ERROR;
 8002948:	2301      	movs	r3, #1
 800294a:	e02c      	b.n	80029a6 <UART_WaitOnFlagUntilTimeout+0xd6>
        }
        if (__HAL_UART_GET_FLAG(huart, UART_FLAG_RTOF) == SET)
 800294c:	68fb      	ldr	r3, [r7, #12]
 800294e:	681b      	ldr	r3, [r3, #0]
 8002950:	69da      	ldr	r2, [r3, #28]
 8002952:	2380      	movs	r3, #128	@ 0x80
 8002954:	011b      	lsls	r3, r3, #4
 8002956:	401a      	ands	r2, r3
 8002958:	2380      	movs	r3, #128	@ 0x80
 800295a:	011b      	lsls	r3, r3, #4
 800295c:	429a      	cmp	r2, r3
 800295e:	d112      	bne.n	8002986 <UART_WaitOnFlagUntilTimeout+0xb6>
        {
          /* Clear Receiver Timeout flag*/
          __HAL_UART_CLEAR_FLAG(huart, UART_CLEAR_RTOF);
 8002960:	68fb      	ldr	r3, [r7, #12]
 8002962:	681b      	ldr	r3, [r3, #0]
 8002964:	2280      	movs	r2, #128	@ 0x80
 8002966:	0112      	lsls	r2, r2, #4
 8002968:	621a      	str	r2, [r3, #32]

          /* Blocking error : transfer is aborted
          Set the UART state ready to be able to start again the process,
          Disable Rx Interrupts if ongoing */
          UART_EndRxTransfer(huart);
 800296a:	68fb      	ldr	r3, [r7, #12]
 800296c:	0018      	movs	r0, r3
 800296e:	f000 f81f 	bl	80029b0 <UART_EndRxTransfer>

          huart->ErrorCode = HAL_UART_ERROR_RTO;
 8002972:	68fb      	ldr	r3, [r7, #12]
 8002974:	2290      	movs	r2, #144	@ 0x90
 8002976:	2120      	movs	r1, #32
 8002978:	5099      	str	r1, [r3, r2]

          /* Process Unlocked */
          __HAL_UNLOCK(huart);
 800297a:	68fb      	ldr	r3, [r7, #12]
 800297c:	2284      	movs	r2, #132	@ 0x84
 800297e:	2100      	movs	r1, #0
 8002980:	5499      	strb	r1, [r3, r2]

          return HAL_TIMEOUT;
 8002982:	2303      	movs	r3, #3
 8002984:	e00f      	b.n	80029a6 <UART_WaitOnFlagUntilTimeout+0xd6>
  while ((__HAL_UART_GET_FLAG(huart, Flag) ? SET : RESET) == Status)
 8002986:	68fb      	ldr	r3, [r7, #12]
 8002988:	681b      	ldr	r3, [r3, #0]
 800298a:	69db      	ldr	r3, [r3, #28]
 800298c:	68ba      	ldr	r2, [r7, #8]
 800298e:	4013      	ands	r3, r2
 8002990:	68ba      	ldr	r2, [r7, #8]
 8002992:	1ad3      	subs	r3, r2, r3
 8002994:	425a      	negs	r2, r3
 8002996:	4153      	adcs	r3, r2
 8002998:	b2db      	uxtb	r3, r3
 800299a:	001a      	movs	r2, r3
 800299c:	1dfb      	adds	r3, r7, #7
 800299e:	781b      	ldrb	r3, [r3, #0]
 80029a0:	429a      	cmp	r2, r3
 80029a2:	d09e      	beq.n	80028e2 <UART_WaitOnFlagUntilTimeout+0x12>
        }
      }
    }
  }
  return HAL_OK;
 80029a4:	2300      	movs	r3, #0
}
 80029a6:	0018      	movs	r0, r3
 80029a8:	46bd      	mov	sp, r7
 80029aa:	b004      	add	sp, #16
 80029ac:	bd80      	pop	{r7, pc}
	...

080029b0 <UART_EndRxTransfer>:
  * @brief  End ongoing Rx transfer on UART peripheral (following error detection or Reception completion).
  * @param  huart UART handle.
  * @retval None
  */
static void UART_EndRxTransfer(UART_HandleTypeDef *huart)
{
 80029b0:	b580      	push	{r7, lr}
 80029b2:	b08e      	sub	sp, #56	@ 0x38
 80029b4:	af00      	add	r7, sp, #0
 80029b6:	6078      	str	r0, [r7, #4]
  __ASM volatile ("MRS %0, primask" : "=r" (result) :: "memory");
 80029b8:	f3ef 8310 	mrs	r3, PRIMASK
 80029bc:	617b      	str	r3, [r7, #20]
  return(result);
 80029be:	697b      	ldr	r3, [r7, #20]
  /* Disable RXNE, PE and ERR (Frame error, noise error, overrun error) interrupts */
  ATOMIC_CLEAR_BIT(huart->Instance->CR1, (USART_CR1_RXNEIE_RXFNEIE | USART_CR1_PEIE));
 80029c0:	637b      	str	r3, [r7, #52]	@ 0x34
 80029c2:	2301      	movs	r3, #1
 80029c4:	61bb      	str	r3, [r7, #24]
  __ASM volatile ("MSR primask, %0" : : "r" (priMask) : "memory");
 80029c6:	69bb      	ldr	r3, [r7, #24]
 80029c8:	f383 8810 	msr	PRIMASK, r3
}
 80029cc:	46c0      	nop			@ (mov r8, r8)
 80029ce:	687b      	ldr	r3, [r7, #4]
 80029d0:	681b      	ldr	r3, [r3, #0]
 80029d2:	681a      	ldr	r2, [r3, #0]
 80029d4:	687b      	ldr	r3, [r7, #4]
 80029d6:	681b      	ldr	r3, [r3, #0]
 80029d8:	4926      	ldr	r1, [pc, #152]	@ (8002a74 <UART_EndRxTransfer+0xc4>)
 80029da:	400a      	ands	r2, r1
 80029dc:	601a      	str	r2, [r3, #0]
 80029de:	6b7b      	ldr	r3, [r7, #52]	@ 0x34
 80029e0:	61fb      	str	r3, [r7, #28]
  __ASM volatile ("MSR primask, %0" : : "r" (priMask) : "memory");
 80029e2:	69fb      	ldr	r3, [r7, #28]
 80029e4:	f383 8810 	msr	PRIMASK, r3
}
 80029e8:	46c0      	nop			@ (mov r8, r8)
  __ASM volatile ("MRS %0, primask" : "=r" (result) :: "memory");
 80029ea:	f3ef 8310 	mrs	r3, PRIMASK
 80029ee:	623b      	str	r3, [r7, #32]
  return(result);
 80029f0:	6a3b      	ldr	r3, [r7, #32]
  ATOMIC_CLEAR_BIT(huart->Instance->CR3, (USART_CR3_EIE | USART_CR3_RXFTIE));
 80029f2:	633b      	str	r3, [r7, #48]	@ 0x30
 80029f4:	2301      	movs	r3, #1
 80029f6:	627b      	str	r3, [r7, #36]	@ 0x24
  __ASM volatile ("MSR primask, %0" : : "r" (priMask) : "memory");
 80029f8:	6a7b      	ldr	r3, [r7, #36]	@ 0x24
 80029fa:	f383 8810 	msr	PRIMASK, r3
}
 80029fe:	46c0      	nop			@ (mov r8, r8)
 8002a00:	687b      	ldr	r3, [r7, #4]
 8002a02:	681b      	ldr	r3, [r3, #0]
 8002a04:	689a      	ldr	r2, [r3, #8]
 8002a06:	687b      	ldr	r3, [r7, #4]
 8002a08:	681b      	ldr	r3, [r3, #0]
 8002a0a:	491b      	ldr	r1, [pc, #108]	@ (8002a78 <UART_EndRxTransfer+0xc8>)
 8002a0c:	400a      	ands	r2, r1
 8002a0e:	609a      	str	r2, [r3, #8]
 8002a10:	6b3b      	ldr	r3, [r7, #48]	@ 0x30
 8002a12:	62bb      	str	r3, [r7, #40]	@ 0x28
  __ASM volatile ("MSR primask, %0" : : "r" (priMask) : "memory");
 8002a14:	6abb      	ldr	r3, [r7, #40]	@ 0x28
 8002a16:	f383 8810 	msr	PRIMASK, r3
}
 8002a1a:	46c0      	nop			@ (mov r8, r8)

  /* In case of reception waiting for IDLE event, disable also the IDLE IE interrupt source */
  if (huart->ReceptionType == HAL_UART_RECEPTION_TOIDLE)
 8002a1c:	687b      	ldr	r3, [r7, #4]
 8002a1e:	6edb      	ldr	r3, [r3, #108]	@ 0x6c
 8002a20:	2b01      	cmp	r3, #1
 8002a22:	d118      	bne.n	8002a56 <UART_EndRxTransfer+0xa6>
  __ASM volatile ("MRS %0, primask" : "=r" (result) :: "memory");
 8002a24:	f3ef 8310 	mrs	r3, PRIMASK
 8002a28:	60bb      	str	r3, [r7, #8]
  return(result);
 8002a2a:	68bb      	ldr	r3, [r7, #8]
  {
    ATOMIC_CLEAR_BIT(huart->Instance->CR1, USART_CR1_IDLEIE);
 8002a2c:	62fb      	str	r3, [r7, #44]	@ 0x2c
 8002a2e:	2301      	movs	r3, #1
 8002a30:	60fb      	str	r3, [r7, #12]
  __ASM volatile ("MSR primask, %0" : : "r" (priMask) : "memory");
 8002a32:	68fb      	ldr	r3, [r7, #12]
 8002a34:	f383 8810 	msr	PRIMASK, r3
}
 8002a38:	46c0      	nop			@ (mov r8, r8)
 8002a3a:	687b      	ldr	r3, [r7, #4]
 8002a3c:	681b      	ldr	r3, [r3, #0]
 8002a3e:	681a      	ldr	r2, [r3, #0]
 8002a40:	687b      	ldr	r3, [r7, #4]
 8002a42:	681b      	ldr	r3, [r3, #0]
 8002a44:	2110      	movs	r1, #16
 8002a46:	438a      	bics	r2, r1
 8002a48:	601a      	str	r2, [r3, #0]
 8002a4a:	6afb      	ldr	r3, [r7, #44]	@ 0x2c
 8002a4c:	613b      	str	r3, [r7, #16]
  __ASM volatile ("MSR primask, %0" : : "r" (priMask) : "memory");
 8002a4e:	693b      	ldr	r3, [r7, #16]
 8002a50:	f383 8810 	msr	PRIMASK, r3
}
 8002a54:	46c0      	nop			@ (mov r8, r8)
  }

  /* At end of Rx process, restore huart->RxState to Ready */
  huart->RxState = HAL_UART_STATE_READY;
 8002a56:	687b      	ldr	r3, [r7, #4]
 8002a58:	228c      	movs	r2, #140	@ 0x8c
 8002a5a:	2120      	movs	r1, #32
 8002a5c:	5099      	str	r1, [r3, r2]
  huart->ReceptionType = HAL_UART_RECEPTION_STANDARD;
 8002a5e:	687b      	ldr	r3, [r7, #4]
 8002a60:	2200      	movs	r2, #0
 8002a62:	66da      	str	r2, [r3, #108]	@ 0x6c

  /* Reset RxIsr function pointer */
  huart->RxISR = NULL;
 8002a64:	687b      	ldr	r3, [r7, #4]
 8002a66:	2200      	movs	r2, #0
 8002a68:	675a      	str	r2, [r3, #116]	@ 0x74
}
 8002a6a:	46c0      	nop			@ (mov r8, r8)
 8002a6c:	46bd      	mov	sp, r7
 8002a6e:	b00e      	add	sp, #56	@ 0x38
 8002a70:	bd80      	pop	{r7, pc}
 8002a72:	46c0      	nop			@ (mov r8, r8)
 8002a74:	fffffedf 	.word	0xfffffedf
 8002a78:	effffffe 	.word	0xeffffffe

08002a7c <HAL_UARTEx_DisableFifoMode>:
  * @brief  Disable the FIFO mode.
  * @param huart      UART handle.
  * @retval HAL status
  */
HAL_StatusTypeDef HAL_UARTEx_DisableFifoMode(UART_HandleTypeDef *huart)
{
 8002a7c:	b580      	push	{r7, lr}
 8002a7e:	b084      	sub	sp, #16
 8002a80:	af00      	add	r7, sp, #0
 8002a82:	6078      	str	r0, [r7, #4]

  /* Check parameters */
  assert_param(IS_UART_FIFO_INSTANCE(huart->Instance));

  /* Process Locked */
  __HAL_LOCK(huart);
 8002a84:	687b      	ldr	r3, [r7, #4]
 8002a86:	2284      	movs	r2, #132	@ 0x84
 8002a88:	5c9b      	ldrb	r3, [r3, r2]
 8002a8a:	2b01      	cmp	r3, #1
 8002a8c:	d101      	bne.n	8002a92 <HAL_UARTEx_DisableFifoMode+0x16>
 8002a8e:	2302      	movs	r3, #2
 8002a90:	e027      	b.n	8002ae2 <HAL_UARTEx_DisableFifoMode+0x66>
 8002a92:	687b      	ldr	r3, [r7, #4]
 8002a94:	2284      	movs	r2, #132	@ 0x84
 8002a96:	2101      	movs	r1, #1
 8002a98:	5499      	strb	r1, [r3, r2]

  huart->gState = HAL_UART_STATE_BUSY;
 8002a9a:	687b      	ldr	r3, [r7, #4]
 8002a9c:	2288      	movs	r2, #136	@ 0x88
 8002a9e:	2124      	movs	r1, #36	@ 0x24
 8002aa0:	5099      	str	r1, [r3, r2]

  /* Save actual UART configuration */
  tmpcr1 = READ_REG(huart->Instance->CR1);
 8002aa2:	687b      	ldr	r3, [r7, #4]
 8002aa4:	681b      	ldr	r3, [r3, #0]
 8002aa6:	681b      	ldr	r3, [r3, #0]
 8002aa8:	60fb      	str	r3, [r7, #12]

  /* Disable UART */
  __HAL_UART_DISABLE(huart);
 8002aaa:	687b      	ldr	r3, [r7, #4]
 8002aac:	681b      	ldr	r3, [r3, #0]
 8002aae:	681a      	ldr	r2, [r3, #0]
 8002ab0:	687b      	ldr	r3, [r7, #4]
 8002ab2:	681b      	ldr	r3, [r3, #0]
 8002ab4:	2101      	movs	r1, #1
 8002ab6:	438a      	bics	r2, r1
 8002ab8:	601a      	str	r2, [r3, #0]

  /* Enable FIFO mode */
  CLEAR_BIT(tmpcr1, USART_CR1_FIFOEN);
 8002aba:	68fb      	ldr	r3, [r7, #12]
 8002abc:	4a0b      	ldr	r2, [pc, #44]	@ (8002aec <HAL_UARTEx_DisableFifoMode+0x70>)
 8002abe:	4013      	ands	r3, r2
 8002ac0:	60fb      	str	r3, [r7, #12]
  huart->FifoMode = UART_FIFOMODE_DISABLE;
 8002ac2:	687b      	ldr	r3, [r7, #4]
 8002ac4:	2200      	movs	r2, #0
 8002ac6:	665a      	str	r2, [r3, #100]	@ 0x64

  /* Restore UART configuration */
  WRITE_REG(huart->Instance->CR1, tmpcr1);
 8002ac8:	687b      	ldr	r3, [r7, #4]
 8002aca:	681b      	ldr	r3, [r3, #0]
 8002acc:	68fa      	ldr	r2, [r7, #12]
 8002ace:	601a      	str	r2, [r3, #0]

  huart->gState = HAL_UART_STATE_READY;
 8002ad0:	687b      	ldr	r3, [r7, #4]
 8002ad2:	2288      	movs	r2, #136	@ 0x88
 8002ad4:	2120      	movs	r1, #32
 8002ad6:	5099      	str	r1, [r3, r2]

  /* Process Unlocked */
  __HAL_UNLOCK(huart);
 8002ad8:	687b      	ldr	r3, [r7, #4]
 8002ada:	2284      	movs	r2, #132	@ 0x84
 8002adc:	2100      	movs	r1, #0
 8002ade:	5499      	strb	r1, [r3, r2]

  return HAL_OK;
 8002ae0:	2300      	movs	r3, #0
}
 8002ae2:	0018      	movs	r0, r3
 8002ae4:	46bd      	mov	sp, r7
 8002ae6:	b004      	add	sp, #16
 8002ae8:	bd80      	pop	{r7, pc}
 8002aea:	46c0      	nop			@ (mov r8, r8)
 8002aec:	dfffffff 	.word	0xdfffffff

08002af0 <HAL_UARTEx_SetTxFifoThreshold>:
  *            @arg @ref UART_TXFIFO_THRESHOLD_7_8
  *            @arg @ref UART_TXFIFO_THRESHOLD_8_8
  * @retval HAL status
  */
HAL_StatusTypeDef HAL_UARTEx_SetTxFifoThreshold(UART_HandleTypeDef *huart, uint32_t Threshold)
{
 8002af0:	b580      	push	{r7, lr}
 8002af2:	b084      	sub	sp, #16
 8002af4:	af00      	add	r7, sp, #0
 8002af6:	6078      	str	r0, [r7, #4]
 8002af8:	6039      	str	r1, [r7, #0]
  /* Check parameters */
  assert_param(IS_UART_FIFO_INSTANCE(huart->Instance));
  assert_param(IS_UART_TXFIFO_THRESHOLD(Threshold));

  /* Process Locked */
  __HAL_LOCK(huart);
 8002afa:	687b      	ldr	r3, [r7, #4]
 8002afc:	2284      	movs	r2, #132	@ 0x84
 8002afe:	5c9b      	ldrb	r3, [r3, r2]
 8002b00:	2b01      	cmp	r3, #1
 8002b02:	d101      	bne.n	8002b08 <HAL_UARTEx_SetTxFifoThreshold+0x18>
 8002b04:	2302      	movs	r3, #2
 8002b06:	e02e      	b.n	8002b66 <HAL_UARTEx_SetTxFifoThreshold+0x76>
 8002b08:	687b      	ldr	r3, [r7, #4]
 8002b0a:	2284      	movs	r2, #132	@ 0x84
 8002b0c:	2101      	movs	r1, #1
 8002b0e:	5499      	strb	r1, [r3, r2]

  huart->gState = HAL_UART_STATE_BUSY;
 8002b10:	687b      	ldr	r3, [r7, #4]
 8002b12:	2288      	movs	r2, #136	@ 0x88
 8002b14:	2124      	movs	r1, #36	@ 0x24
 8002b16:	5099      	str	r1, [r3, r2]

  /* Save actual UART configuration */
  tmpcr1 = READ_REG(huart->Instance->CR1);
 8002b18:	687b      	ldr	r3, [r7, #4]
 8002b1a:	681b      	ldr	r3, [r3, #0]
 8002b1c:	681b      	ldr	r3, [r3, #0]
 8002b1e:	60fb      	str	r3, [r7, #12]

  /* Disable UART */
  __HAL_UART_DISABLE(huart);
 8002b20:	687b      	ldr	r3, [r7, #4]
 8002b22:	681b      	ldr	r3, [r3, #0]
 8002b24:	681a      	ldr	r2, [r3, #0]
 8002b26:	687b      	ldr	r3, [r7, #4]
 8002b28:	681b      	ldr	r3, [r3, #0]
 8002b2a:	2101      	movs	r1, #1
 8002b2c:	438a      	bics	r2, r1
 8002b2e:	601a      	str	r2, [r3, #0]

  /* Update TX threshold configuration */
  MODIFY_REG(huart->Instance->CR3, USART_CR3_TXFTCFG, Threshold);
 8002b30:	687b      	ldr	r3, [r7, #4]
 8002b32:	681b      	ldr	r3, [r3, #0]
 8002b34:	689b      	ldr	r3, [r3, #8]
 8002b36:	00db      	lsls	r3, r3, #3
 8002b38:	08d9      	lsrs	r1, r3, #3
 8002b3a:	687b      	ldr	r3, [r7, #4]
 8002b3c:	681b      	ldr	r3, [r3, #0]
 8002b3e:	683a      	ldr	r2, [r7, #0]
 8002b40:	430a      	orrs	r2, r1
 8002b42:	609a      	str	r2, [r3, #8]

  /* Determine the number of data to process during RX/TX ISR execution */
  UARTEx_SetNbDataToProcess(huart);
 8002b44:	687b      	ldr	r3, [r7, #4]
 8002b46:	0018      	movs	r0, r3
 8002b48:	f000 f854 	bl	8002bf4 <UARTEx_SetNbDataToProcess>

  /* Restore UART configuration */
  WRITE_REG(huart->Instance->CR1, tmpcr1);
 8002b4c:	687b      	ldr	r3, [r7, #4]
 8002b4e:	681b      	ldr	r3, [r3, #0]
 8002b50:	68fa      	ldr	r2, [r7, #12]
 8002b52:	601a      	str	r2, [r3, #0]

  huart->gState = HAL_UART_STATE_READY;
 8002b54:	687b      	ldr	r3, [r7, #4]
 8002b56:	2288      	movs	r2, #136	@ 0x88
 8002b58:	2120      	movs	r1, #32
 8002b5a:	5099      	str	r1, [r3, r2]

  /* Process Unlocked */
  __HAL_UNLOCK(huart);
 8002b5c:	687b      	ldr	r3, [r7, #4]
 8002b5e:	2284      	movs	r2, #132	@ 0x84
 8002b60:	2100      	movs	r1, #0
 8002b62:	5499      	strb	r1, [r3, r2]

  return HAL_OK;
 8002b64:	2300      	movs	r3, #0
}
 8002b66:	0018      	movs	r0, r3
 8002b68:	46bd      	mov	sp, r7
 8002b6a:	b004      	add	sp, #16
 8002b6c:	bd80      	pop	{r7, pc}
	...

08002b70 <HAL_UARTEx_SetRxFifoThreshold>:
  *            @arg @ref UART_RXFIFO_THRESHOLD_7_8
  *            @arg @ref UART_RXFIFO_THRESHOLD_8_8
  * @retval HAL status
  */
HAL_StatusTypeDef HAL_UARTEx_SetRxFifoThreshold(UART_HandleTypeDef *huart, uint32_t Threshold)
{
 8002b70:	b580      	push	{r7, lr}
 8002b72:	b084      	sub	sp, #16
 8002b74:	af00      	add	r7, sp, #0
 8002b76:	6078      	str	r0, [r7, #4]
 8002b78:	6039      	str	r1, [r7, #0]
  /* Check the parameters */
  assert_param(IS_UART_FIFO_INSTANCE(huart->Instance));
  assert_param(IS_UART_RXFIFO_THRESHOLD(Threshold));

  /* Process Locked */
  __HAL_LOCK(huart);
 8002b7a:	687b      	ldr	r3, [r7, #4]
 8002b7c:	2284      	movs	r2, #132	@ 0x84
 8002b7e:	5c9b      	ldrb	r3, [r3, r2]
 8002b80:	2b01      	cmp	r3, #1
 8002b82:	d101      	bne.n	8002b88 <HAL_UARTEx_SetRxFifoThreshold+0x18>
 8002b84:	2302      	movs	r3, #2
 8002b86:	e02f      	b.n	8002be8 <HAL_UARTEx_SetRxFifoThreshold+0x78>
 8002b88:	687b      	ldr	r3, [r7, #4]
 8002b8a:	2284      	movs	r2, #132	@ 0x84
 8002b8c:	2101      	movs	r1, #1
 8002b8e:	5499      	strb	r1, [r3, r2]

  huart->gState = HAL_UART_STATE_BUSY;
 8002b90:	687b      	ldr	r3, [r7, #4]
 8002b92:	2288      	movs	r2, #136	@ 0x88
 8002b94:	2124      	movs	r1, #36	@ 0x24
 8002b96:	5099      	str	r1, [r3, r2]

  /* Save actual UART configuration */
  tmpcr1 = READ_REG(huart->Instance->CR1);
 8002b98:	687b      	ldr	r3, [r7, #4]
 8002b9a:	681b      	ldr	r3, [r3, #0]
 8002b9c:	681b      	ldr	r3, [r3, #0]
 8002b9e:	60fb      	str	r3, [r7, #12]

  /* Disable UART */
  __HAL_UART_DISABLE(huart);
 8002ba0:	687b      	ldr	r3, [r7, #4]
 8002ba2:	681b      	ldr	r3, [r3, #0]
 8002ba4:	681a      	ldr	r2, [r3, #0]
 8002ba6:	687b      	ldr	r3, [r7, #4]
 8002ba8:	681b      	ldr	r3, [r3, #0]
 8002baa:	2101      	movs	r1, #1
 8002bac:	438a      	bics	r2, r1
 8002bae:	601a      	str	r2, [r3, #0]

  /* Update RX threshold configuration */
  MODIFY_REG(huart->Instance->CR3, USART_CR3_RXFTCFG, Threshold);
 8002bb0:	687b      	ldr	r3, [r7, #4]
 8002bb2:	681b      	ldr	r3, [r3, #0]
 8002bb4:	689b      	ldr	r3, [r3, #8]
 8002bb6:	4a0e      	ldr	r2, [pc, #56]	@ (8002bf0 <HAL_UARTEx_SetRxFifoThreshold+0x80>)
 8002bb8:	4013      	ands	r3, r2
 8002bba:	0019      	movs	r1, r3
 8002bbc:	687b      	ldr	r3, [r7, #4]
 8002bbe:	681b      	ldr	r3, [r3, #0]
 8002bc0:	683a      	ldr	r2, [r7, #0]
 8002bc2:	430a      	orrs	r2, r1
 8002bc4:	609a      	str	r2, [r3, #8]

  /* Determine the number of data to process during RX/TX ISR execution */
  UARTEx_SetNbDataToProcess(huart);
 8002bc6:	687b      	ldr	r3, [r7, #4]
 8002bc8:	0018      	movs	r0, r3
 8002bca:	f000 f813 	bl	8002bf4 <UARTEx_SetNbDataToProcess>

  /* Restore UART configuration */
  WRITE_REG(huart->Instance->CR1, tmpcr1);
 8002bce:	687b      	ldr	r3, [r7, #4]
 8002bd0:	681b      	ldr	r3, [r3, #0]
 8002bd2:	68fa      	ldr	r2, [r7, #12]
 8002bd4:	601a      	str	r2, [r3, #0]

  huart->gState = HAL_UART_STATE_READY;
 8002bd6:	687b      	ldr	r3, [r7, #4]
 8002bd8:	2288      	movs	r2, #136	@ 0x88
 8002bda:	2120      	movs	r1, #32
 8002bdc:	5099      	str	r1, [r3, r2]

  /* Process Unlocked */
  __HAL_UNLOCK(huart);
 8002bde:	687b      	ldr	r3, [r7, #4]
 8002be0:	2284      	movs	r2, #132	@ 0x84
 8002be2:	2100      	movs	r1, #0
 8002be4:	5499      	strb	r1, [r3, r2]

  return HAL_OK;
 8002be6:	2300      	movs	r3, #0
}
 8002be8:	0018      	movs	r0, r3
 8002bea:	46bd      	mov	sp, r7
 8002bec:	b004      	add	sp, #16
 8002bee:	bd80      	pop	{r7, pc}
 8002bf0:	f1ffffff 	.word	0xf1ffffff

08002bf4 <UARTEx_SetNbDataToProcess>:
  *       the UART configuration registers.
  * @param huart UART handle.
  * @retval None
  */
static void UARTEx_SetNbDataToProcess(UART_HandleTypeDef *huart)
{
 8002bf4:	b5f0      	push	{r4, r5, r6, r7, lr}
 8002bf6:	b085      	sub	sp, #20
 8002bf8:	af00      	add	r7, sp, #0
 8002bfa:	6078      	str	r0, [r7, #4]
  uint8_t rx_fifo_threshold;
  uint8_t tx_fifo_threshold;
  static const uint8_t numerator[] = {1U, 1U, 1U, 3U, 7U, 1U, 0U, 0U};
  static const uint8_t denominator[] = {8U, 4U, 2U, 4U, 8U, 1U, 1U, 1U};

  if (huart->FifoMode == UART_FIFOMODE_DISABLE)
 8002bfc:	687b      	ldr	r3, [r7, #4]
 8002bfe:	6e5b      	ldr	r3, [r3, #100]	@ 0x64
 8002c00:	2b00      	cmp	r3, #0
 8002c02:	d108      	bne.n	8002c16 <UARTEx_SetNbDataToProcess+0x22>
  {
    huart->NbTxDataToProcess = 1U;
 8002c04:	687b      	ldr	r3, [r7, #4]
 8002c06:	226a      	movs	r2, #106	@ 0x6a
 8002c08:	2101      	movs	r1, #1
 8002c0a:	5299      	strh	r1, [r3, r2]
    huart->NbRxDataToProcess = 1U;
 8002c0c:	687b      	ldr	r3, [r7, #4]
 8002c0e:	2268      	movs	r2, #104	@ 0x68
 8002c10:	2101      	movs	r1, #1
 8002c12:	5299      	strh	r1, [r3, r2]
    huart->NbTxDataToProcess = ((uint16_t)tx_fifo_depth * numerator[tx_fifo_threshold]) /
                               (uint16_t)denominator[tx_fifo_threshold];
    huart->NbRxDataToProcess = ((uint16_t)rx_fifo_depth * numerator[rx_fifo_threshold]) /
                               (uint16_t)denominator[rx_fifo_threshold];
  }
}
 8002c14:	e043      	b.n	8002c9e <UARTEx_SetNbDataToProcess+0xaa>
    rx_fifo_depth = RX_FIFO_DEPTH;
 8002c16:	260f      	movs	r6, #15
 8002c18:	19bb      	adds	r3, r7, r6
 8002c1a:	2208      	movs	r2, #8
 8002c1c:	701a      	strb	r2, [r3, #0]
    tx_fifo_depth = TX_FIFO_DEPTH;
 8002c1e:	200e      	movs	r0, #14
 8002c20:	183b      	adds	r3, r7, r0
 8002c22:	2208      	movs	r2, #8
 8002c24:	701a      	strb	r2, [r3, #0]
    rx_fifo_threshold = (uint8_t)(READ_BIT(huart->Instance->CR3, USART_CR3_RXFTCFG) >> USART_CR3_RXFTCFG_Pos);
 8002c26:	687b      	ldr	r3, [r7, #4]
 8002c28:	681b      	ldr	r3, [r3, #0]
 8002c2a:	689b      	ldr	r3, [r3, #8]
 8002c2c:	0e5b      	lsrs	r3, r3, #25
 8002c2e:	b2da      	uxtb	r2, r3
 8002c30:	240d      	movs	r4, #13
 8002c32:	193b      	adds	r3, r7, r4
 8002c34:	2107      	movs	r1, #7
 8002c36:	400a      	ands	r2, r1
 8002c38:	701a      	strb	r2, [r3, #0]
    tx_fifo_threshold = (uint8_t)(READ_BIT(huart->Instance->CR3, USART_CR3_TXFTCFG) >> USART_CR3_TXFTCFG_Pos);
 8002c3a:	687b      	ldr	r3, [r7, #4]
 8002c3c:	681b      	ldr	r3, [r3, #0]
 8002c3e:	689b      	ldr	r3, [r3, #8]
 8002c40:	0f5b      	lsrs	r3, r3, #29
 8002c42:	b2da      	uxtb	r2, r3
 8002c44:	250c      	movs	r5, #12
 8002c46:	197b      	adds	r3, r7, r5
 8002c48:	2107      	movs	r1, #7
 8002c4a:	400a      	ands	r2, r1
 8002c4c:	701a      	strb	r2, [r3, #0]
    huart->NbTxDataToProcess = ((uint16_t)tx_fifo_depth * numerator[tx_fifo_threshold]) /
 8002c4e:	183b      	adds	r3, r7, r0
 8002c50:	781b      	ldrb	r3, [r3, #0]
 8002c52:	197a      	adds	r2, r7, r5
 8002c54:	7812      	ldrb	r2, [r2, #0]
 8002c56:	4914      	ldr	r1, [pc, #80]	@ (8002ca8 <UARTEx_SetNbDataToProcess+0xb4>)
 8002c58:	5c8a      	ldrb	r2, [r1, r2]
 8002c5a:	435a      	muls	r2, r3
 8002c5c:	0010      	movs	r0, r2
                               (uint16_t)denominator[tx_fifo_threshold];
 8002c5e:	197b      	adds	r3, r7, r5
 8002c60:	781b      	ldrb	r3, [r3, #0]
 8002c62:	4a12      	ldr	r2, [pc, #72]	@ (8002cac <UARTEx_SetNbDataToProcess+0xb8>)
 8002c64:	5cd3      	ldrb	r3, [r2, r3]
    huart->NbTxDataToProcess = ((uint16_t)tx_fifo_depth * numerator[tx_fifo_threshold]) /
 8002c66:	0019      	movs	r1, r3
 8002c68:	f7fd fad6 	bl	8000218 <__divsi3>
 8002c6c:	0003      	movs	r3, r0
 8002c6e:	b299      	uxth	r1, r3
 8002c70:	687b      	ldr	r3, [r7, #4]
 8002c72:	226a      	movs	r2, #106	@ 0x6a
 8002c74:	5299      	strh	r1, [r3, r2]
    huart->NbRxDataToProcess = ((uint16_t)rx_fifo_depth * numerator[rx_fifo_threshold]) /
 8002c76:	19bb      	adds	r3, r7, r6
 8002c78:	781b      	ldrb	r3, [r3, #0]
 8002c7a:	193a      	adds	r2, r7, r4
 8002c7c:	7812      	ldrb	r2, [r2, #0]
 8002c7e:	490a      	ldr	r1, [pc, #40]	@ (8002ca8 <UARTEx_SetNbDataToProcess+0xb4>)
 8002c80:	5c8a      	ldrb	r2, [r1, r2]
 8002c82:	435a      	muls	r2, r3
 8002c84:	0010      	movs	r0, r2
                               (uint16_t)denominator[rx_fifo_threshold];
 8002c86:	193b      	adds	r3, r7, r4
 8002c88:	781b      	ldrb	r3, [r3, #0]
 8002c8a:	4a08      	ldr	r2, [pc, #32]	@ (8002cac <UARTEx_SetNbDataToProcess+0xb8>)
 8002c8c:	5cd3      	ldrb	r3, [r2, r3]
    huart->NbRxDataToProcess = ((uint16_t)rx_fifo_depth * numerator[rx_fifo_threshold]) /
 8002c8e:	0019      	movs	r1, r3
 8002c90:	f7fd fac2 	bl	8000218 <__divsi3>
 8002c94:	0003      	movs	r3, r0
 8002c96:	b299      	uxth	r1, r3
 8002c98:	687b      	ldr	r3, [r7, #4]
 8002c9a:	2268      	movs	r2, #104	@ 0x68
 8002c9c:	5299      	strh	r1, [r3, r2]
}
 8002c9e:	46c0      	nop			@ (mov r8, r8)
 8002ca0:	46bd      	mov	sp, r7
 8002ca2:	b005      	add	sp, #20
 8002ca4:	bdf0      	pop	{r4, r5, r6, r7, pc}
 8002ca6:	46c0      	nop			@ (mov r8, r8)
 8002ca8:	08003758 	.word	0x08003758
 8002cac:	08003760 	.word	0x08003760

08002cb0 <std>:
 8002cb0:	2300      	movs	r3, #0
 8002cb2:	b510      	push	{r4, lr}
 8002cb4:	0004      	movs	r4, r0
 8002cb6:	6003      	str	r3, [r0, #0]
 8002cb8:	6043      	str	r3, [r0, #4]
 8002cba:	6083      	str	r3, [r0, #8]
 8002cbc:	8181      	strh	r1, [r0, #12]
 8002cbe:	6643      	str	r3, [r0, #100]	@ 0x64
 8002cc0:	81c2      	strh	r2, [r0, #14]
 8002cc2:	6103      	str	r3, [r0, #16]
 8002cc4:	6143      	str	r3, [r0, #20]
 8002cc6:	6183      	str	r3, [r0, #24]
 8002cc8:	0019      	movs	r1, r3
 8002cca:	2208      	movs	r2, #8
 8002ccc:	305c      	adds	r0, #92	@ 0x5c
 8002cce:	f000 f9ff 	bl	80030d0 <memset>
 8002cd2:	4b0b      	ldr	r3, [pc, #44]	@ (8002d00 <std+0x50>)
 8002cd4:	6224      	str	r4, [r4, #32]
 8002cd6:	6263      	str	r3, [r4, #36]	@ 0x24
 8002cd8:	4b0a      	ldr	r3, [pc, #40]	@ (8002d04 <std+0x54>)
 8002cda:	62a3      	str	r3, [r4, #40]	@ 0x28
 8002cdc:	4b0a      	ldr	r3, [pc, #40]	@ (8002d08 <std+0x58>)
 8002cde:	62e3      	str	r3, [r4, #44]	@ 0x2c
 8002ce0:	4b0a      	ldr	r3, [pc, #40]	@ (8002d0c <std+0x5c>)
 8002ce2:	6323      	str	r3, [r4, #48]	@ 0x30
 8002ce4:	4b0a      	ldr	r3, [pc, #40]	@ (8002d10 <std+0x60>)
 8002ce6:	429c      	cmp	r4, r3
 8002ce8:	d005      	beq.n	8002cf6 <std+0x46>
 8002cea:	4b0a      	ldr	r3, [pc, #40]	@ (8002d14 <std+0x64>)
 8002cec:	429c      	cmp	r4, r3
 8002cee:	d002      	beq.n	8002cf6 <std+0x46>
 8002cf0:	4b09      	ldr	r3, [pc, #36]	@ (8002d18 <std+0x68>)
 8002cf2:	429c      	cmp	r4, r3
 8002cf4:	d103      	bne.n	8002cfe <std+0x4e>
 8002cf6:	0020      	movs	r0, r4
 8002cf8:	3058      	adds	r0, #88	@ 0x58
 8002cfa:	f000 fa69 	bl	80031d0 <__retarget_lock_init_recursive>
 8002cfe:	bd10      	pop	{r4, pc}
 8002d00:	08002ef9 	.word	0x08002ef9
 8002d04:	08002f21 	.word	0x08002f21
 8002d08:	08002f59 	.word	0x08002f59
 8002d0c:	08002f85 	.word	0x08002f85
 8002d10:	20000120 	.word	0x20000120
 8002d14:	20000188 	.word	0x20000188
 8002d18:	200001f0 	.word	0x200001f0

08002d1c <stdio_exit_handler>:
 8002d1c:	b510      	push	{r4, lr}
 8002d1e:	4a03      	ldr	r2, [pc, #12]	@ (8002d2c <stdio_exit_handler+0x10>)
 8002d20:	4903      	ldr	r1, [pc, #12]	@ (8002d30 <stdio_exit_handler+0x14>)
 8002d22:	4804      	ldr	r0, [pc, #16]	@ (8002d34 <stdio_exit_handler+0x18>)
 8002d24:	f000 f86c 	bl	8002e00 <_fwalk_sglue>
 8002d28:	bd10      	pop	{r4, pc}
 8002d2a:	46c0      	nop			@ (mov r8, r8)
 8002d2c:	2000000c 	.word	0x2000000c
 8002d30:	080034dd 	.word	0x080034dd
 8002d34:	2000001c 	.word	0x2000001c

08002d38 <cleanup_stdio>:
 8002d38:	6841      	ldr	r1, [r0, #4]
 8002d3a:	4b0b      	ldr	r3, [pc, #44]	@ (8002d68 <cleanup_stdio+0x30>)
 8002d3c:	b510      	push	{r4, lr}
 8002d3e:	0004      	movs	r4, r0
 8002d40:	4299      	cmp	r1, r3
 8002d42:	d001      	beq.n	8002d48 <cleanup_stdio+0x10>
 8002d44:	f000 fbca 	bl	80034dc <_fflush_r>
 8002d48:	68a1      	ldr	r1, [r4, #8]
 8002d4a:	4b08      	ldr	r3, [pc, #32]	@ (8002d6c <cleanup_stdio+0x34>)
 8002d4c:	4299      	cmp	r1, r3
 8002d4e:	d002      	beq.n	8002d56 <cleanup_stdio+0x1e>
 8002d50:	0020      	movs	r0, r4
 8002d52:	f000 fbc3 	bl	80034dc <_fflush_r>
 8002d56:	68e1      	ldr	r1, [r4, #12]
 8002d58:	4b05      	ldr	r3, [pc, #20]	@ (8002d70 <cleanup_stdio+0x38>)
 8002d5a:	4299      	cmp	r1, r3
 8002d5c:	d002      	beq.n	8002d64 <cleanup_stdio+0x2c>
 8002d5e:	0020      	movs	r0, r4
 8002d60:	f000 fbbc 	bl	80034dc <_fflush_r>
 8002d64:	bd10      	pop	{r4, pc}
 8002d66:	46c0      	nop			@ (mov r8, r8)
 8002d68:	20000120 	.word	0x20000120
 8002d6c:	20000188 	.word	0x20000188
 8002d70:	200001f0 	.word	0x200001f0

08002d74 <global_stdio_init.part.0>:
 8002d74:	b510      	push	{r4, lr}
 8002d76:	4b09      	ldr	r3, [pc, #36]	@ (8002d9c <global_stdio_init.part.0+0x28>)
 8002d78:	4a09      	ldr	r2, [pc, #36]	@ (8002da0 <global_stdio_init.part.0+0x2c>)
 8002d7a:	2104      	movs	r1, #4
 8002d7c:	601a      	str	r2, [r3, #0]
 8002d7e:	4809      	ldr	r0, [pc, #36]	@ (8002da4 <global_stdio_init.part.0+0x30>)
 8002d80:	2200      	movs	r2, #0
 8002d82:	f7ff ff95 	bl	8002cb0 <std>
 8002d86:	2201      	movs	r2, #1
 8002d88:	2109      	movs	r1, #9
 8002d8a:	4807      	ldr	r0, [pc, #28]	@ (8002da8 <global_stdio_init.part.0+0x34>)
 8002d8c:	f7ff ff90 	bl	8002cb0 <std>
 8002d90:	2202      	movs	r2, #2
 8002d92:	2112      	movs	r1, #18
 8002d94:	4805      	ldr	r0, [pc, #20]	@ (8002dac <global_stdio_init.part.0+0x38>)
 8002d96:	f7ff ff8b 	bl	8002cb0 <std>
 8002d9a:	bd10      	pop	{r4, pc}
 8002d9c:	20000258 	.word	0x20000258
 8002da0:	08002d1d 	.word	0x08002d1d
 8002da4:	20000120 	.word	0x20000120
 8002da8:	20000188 	.word	0x20000188
 8002dac:	200001f0 	.word	0x200001f0

08002db0 <__sfp_lock_acquire>:
 8002db0:	b510      	push	{r4, lr}
 8002db2:	4802      	ldr	r0, [pc, #8]	@ (8002dbc <__sfp_lock_acquire+0xc>)
 8002db4:	f000 fa0d 	bl	80031d2 <__retarget_lock_acquire_recursive>
 8002db8:	bd10      	pop	{r4, pc}
 8002dba:	46c0      	nop			@ (mov r8, r8)
 8002dbc:	20000261 	.word	0x20000261

08002dc0 <__sfp_lock_release>:
 8002dc0:	b510      	push	{r4, lr}
 8002dc2:	4802      	ldr	r0, [pc, #8]	@ (8002dcc <__sfp_lock_release+0xc>)
 8002dc4:	f000 fa06 	bl	80031d4 <__retarget_lock_release_recursive>
 8002dc8:	bd10      	pop	{r4, pc}
 8002dca:	46c0      	nop			@ (mov r8, r8)
 8002dcc:	20000261 	.word	0x20000261

08002dd0 <__sinit>:
 8002dd0:	b510      	push	{r4, lr}
 8002dd2:	0004      	movs	r4, r0
 8002dd4:	f7ff ffec 	bl	8002db0 <__sfp_lock_acquire>
 8002dd8:	6a23      	ldr	r3, [r4, #32]
 8002dda:	2b00      	cmp	r3, #0
 8002ddc:	d002      	beq.n	8002de4 <__sinit+0x14>
 8002dde:	f7ff ffef 	bl	8002dc0 <__sfp_lock_release>
 8002de2:	bd10      	pop	{r4, pc}
 8002de4:	4b04      	ldr	r3, [pc, #16]	@ (8002df8 <__sinit+0x28>)
 8002de6:	6223      	str	r3, [r4, #32]
 8002de8:	4b04      	ldr	r3, [pc, #16]	@ (8002dfc <__sinit+0x2c>)
 8002dea:	681b      	ldr	r3, [r3, #0]
 8002dec:	2b00      	cmp	r3, #0
 8002dee:	d1f6      	bne.n	8002dde <__sinit+0xe>
 8002df0:	f7ff ffc0 	bl	8002d74 <global_stdio_init.part.0>
 8002df4:	e7f3      	b.n	8002dde <__sinit+0xe>
 8002df6:	46c0      	nop			@ (mov r8, r8)
 8002df8:	08002d39 	.word	0x08002d39
 8002dfc:	20000258 	.word	0x20000258

08002e00 <_fwalk_sglue>:
 8002e00:	b5f7      	push	{r0, r1, r2, r4, r5, r6, r7, lr}
 8002e02:	0014      	movs	r4, r2
 8002e04:	2600      	movs	r6, #0
 8002e06:	9000      	str	r0, [sp, #0]
 8002e08:	9101      	str	r1, [sp, #4]
 8002e0a:	68a5      	ldr	r5, [r4, #8]
 8002e0c:	6867      	ldr	r7, [r4, #4]
 8002e0e:	3f01      	subs	r7, #1
 8002e10:	d504      	bpl.n	8002e1c <_fwalk_sglue+0x1c>
 8002e12:	6824      	ldr	r4, [r4, #0]
 8002e14:	2c00      	cmp	r4, #0
 8002e16:	d1f8      	bne.n	8002e0a <_fwalk_sglue+0xa>
 8002e18:	0030      	movs	r0, r6
 8002e1a:	bdfe      	pop	{r1, r2, r3, r4, r5, r6, r7, pc}
 8002e1c:	89ab      	ldrh	r3, [r5, #12]
 8002e1e:	2b01      	cmp	r3, #1
 8002e20:	d908      	bls.n	8002e34 <_fwalk_sglue+0x34>
 8002e22:	220e      	movs	r2, #14
 8002e24:	5eab      	ldrsh	r3, [r5, r2]
 8002e26:	3301      	adds	r3, #1
 8002e28:	d004      	beq.n	8002e34 <_fwalk_sglue+0x34>
 8002e2a:	0029      	movs	r1, r5
 8002e2c:	9800      	ldr	r0, [sp, #0]
 8002e2e:	9b01      	ldr	r3, [sp, #4]
 8002e30:	4798      	blx	r3
 8002e32:	4306      	orrs	r6, r0
 8002e34:	3568      	adds	r5, #104	@ 0x68
 8002e36:	e7ea      	b.n	8002e0e <_fwalk_sglue+0xe>

08002e38 <_puts_r>:
 8002e38:	6a03      	ldr	r3, [r0, #32]
 8002e3a:	b570      	push	{r4, r5, r6, lr}
 8002e3c:	0005      	movs	r5, r0
 8002e3e:	000e      	movs	r6, r1
 8002e40:	6884      	ldr	r4, [r0, #8]
 8002e42:	2b00      	cmp	r3, #0
 8002e44:	d101      	bne.n	8002e4a <_puts_r+0x12>
 8002e46:	f7ff ffc3 	bl	8002dd0 <__sinit>
 8002e4a:	6e63      	ldr	r3, [r4, #100]	@ 0x64
 8002e4c:	07db      	lsls	r3, r3, #31
 8002e4e:	d405      	bmi.n	8002e5c <_puts_r+0x24>
 8002e50:	89a3      	ldrh	r3, [r4, #12]
 8002e52:	059b      	lsls	r3, r3, #22
 8002e54:	d402      	bmi.n	8002e5c <_puts_r+0x24>
 8002e56:	6da0      	ldr	r0, [r4, #88]	@ 0x58
 8002e58:	f000 f9bb 	bl	80031d2 <__retarget_lock_acquire_recursive>
 8002e5c:	89a3      	ldrh	r3, [r4, #12]
 8002e5e:	071b      	lsls	r3, r3, #28
 8002e60:	d502      	bpl.n	8002e68 <_puts_r+0x30>
 8002e62:	6923      	ldr	r3, [r4, #16]
 8002e64:	2b00      	cmp	r3, #0
 8002e66:	d11f      	bne.n	8002ea8 <_puts_r+0x70>
 8002e68:	0021      	movs	r1, r4
 8002e6a:	0028      	movs	r0, r5
 8002e6c:	f000 f8d2 	bl	8003014 <__swsetup_r>
 8002e70:	2800      	cmp	r0, #0
 8002e72:	d019      	beq.n	8002ea8 <_puts_r+0x70>
 8002e74:	2501      	movs	r5, #1
 8002e76:	426d      	negs	r5, r5
 8002e78:	6e63      	ldr	r3, [r4, #100]	@ 0x64
 8002e7a:	07db      	lsls	r3, r3, #31
 8002e7c:	d405      	bmi.n	8002e8a <_puts_r+0x52>
 8002e7e:	89a3      	ldrh	r3, [r4, #12]
 8002e80:	059b      	lsls	r3, r3, #22
 8002e82:	d402      	bmi.n	8002e8a <_puts_r+0x52>
 8002e84:	6da0      	ldr	r0, [r4, #88]	@ 0x58
 8002e86:	f000 f9a5 	bl	80031d4 <__retarget_lock_release_recursive>
 8002e8a:	0028      	movs	r0, r5
 8002e8c:	bd70      	pop	{r4, r5, r6, pc}
 8002e8e:	3601      	adds	r6, #1
 8002e90:	60a3      	str	r3, [r4, #8]
 8002e92:	2b00      	cmp	r3, #0
 8002e94:	da04      	bge.n	8002ea0 <_puts_r+0x68>
 8002e96:	69a2      	ldr	r2, [r4, #24]
 8002e98:	429a      	cmp	r2, r3
 8002e9a:	dc16      	bgt.n	8002eca <_puts_r+0x92>
 8002e9c:	290a      	cmp	r1, #10
 8002e9e:	d014      	beq.n	8002eca <_puts_r+0x92>
 8002ea0:	6823      	ldr	r3, [r4, #0]
 8002ea2:	1c5a      	adds	r2, r3, #1
 8002ea4:	6022      	str	r2, [r4, #0]
 8002ea6:	7019      	strb	r1, [r3, #0]
 8002ea8:	68a3      	ldr	r3, [r4, #8]
 8002eaa:	7831      	ldrb	r1, [r6, #0]
 8002eac:	3b01      	subs	r3, #1
 8002eae:	2900      	cmp	r1, #0
 8002eb0:	d1ed      	bne.n	8002e8e <_puts_r+0x56>
 8002eb2:	60a3      	str	r3, [r4, #8]
 8002eb4:	2b00      	cmp	r3, #0
 8002eb6:	da0f      	bge.n	8002ed8 <_puts_r+0xa0>
 8002eb8:	0022      	movs	r2, r4
 8002eba:	0028      	movs	r0, r5
 8002ebc:	310a      	adds	r1, #10
 8002ebe:	f000 f867 	bl	8002f90 <__swbuf_r>
 8002ec2:	3001      	adds	r0, #1
 8002ec4:	d0d6      	beq.n	8002e74 <_puts_r+0x3c>
 8002ec6:	250a      	movs	r5, #10
 8002ec8:	e7d6      	b.n	8002e78 <_puts_r+0x40>
 8002eca:	0022      	movs	r2, r4
 8002ecc:	0028      	movs	r0, r5
 8002ece:	f000 f85f 	bl	8002f90 <__swbuf_r>
 8002ed2:	3001      	adds	r0, #1
 8002ed4:	d1e8      	bne.n	8002ea8 <_puts_r+0x70>
 8002ed6:	e7cd      	b.n	8002e74 <_puts_r+0x3c>
 8002ed8:	6823      	ldr	r3, [r4, #0]
 8002eda:	1c5a      	adds	r2, r3, #1
 8002edc:	6022      	str	r2, [r4, #0]
 8002ede:	220a      	movs	r2, #10
 8002ee0:	701a      	strb	r2, [r3, #0]
 8002ee2:	e7f0      	b.n	8002ec6 <_puts_r+0x8e>

08002ee4 <puts>:
 8002ee4:	b510      	push	{r4, lr}
 8002ee6:	4b03      	ldr	r3, [pc, #12]	@ (8002ef4 <puts+0x10>)
 8002ee8:	0001      	movs	r1, r0
 8002eea:	6818      	ldr	r0, [r3, #0]
 8002eec:	f7ff ffa4 	bl	8002e38 <_puts_r>
 8002ef0:	bd10      	pop	{r4, pc}
 8002ef2:	46c0      	nop			@ (mov r8, r8)
 8002ef4:	20000018 	.word	0x20000018

08002ef8 <__sread>:
 8002ef8:	b570      	push	{r4, r5, r6, lr}
 8002efa:	000c      	movs	r4, r1
 8002efc:	250e      	movs	r5, #14
 8002efe:	5f49      	ldrsh	r1, [r1, r5]
 8002f00:	f000 f914 	bl	800312c <_read_r>
 8002f04:	2800      	cmp	r0, #0
 8002f06:	db03      	blt.n	8002f10 <__sread+0x18>
 8002f08:	6d63      	ldr	r3, [r4, #84]	@ 0x54
 8002f0a:	181b      	adds	r3, r3, r0
 8002f0c:	6563      	str	r3, [r4, #84]	@ 0x54
 8002f0e:	bd70      	pop	{r4, r5, r6, pc}
 8002f10:	89a3      	ldrh	r3, [r4, #12]
 8002f12:	4a02      	ldr	r2, [pc, #8]	@ (8002f1c <__sread+0x24>)
 8002f14:	4013      	ands	r3, r2
 8002f16:	81a3      	strh	r3, [r4, #12]
 8002f18:	e7f9      	b.n	8002f0e <__sread+0x16>
 8002f1a:	46c0      	nop			@ (mov r8, r8)
 8002f1c:	ffffefff 	.word	0xffffefff

08002f20 <__swrite>:
 8002f20:	b5f8      	push	{r3, r4, r5, r6, r7, lr}
 8002f22:	001f      	movs	r7, r3
 8002f24:	898b      	ldrh	r3, [r1, #12]
 8002f26:	0005      	movs	r5, r0
 8002f28:	000c      	movs	r4, r1
 8002f2a:	0016      	movs	r6, r2
 8002f2c:	05db      	lsls	r3, r3, #23
 8002f2e:	d505      	bpl.n	8002f3c <__swrite+0x1c>
 8002f30:	230e      	movs	r3, #14
 8002f32:	5ec9      	ldrsh	r1, [r1, r3]
 8002f34:	2200      	movs	r2, #0
 8002f36:	2302      	movs	r3, #2
 8002f38:	f000 f8e4 	bl	8003104 <_lseek_r>
 8002f3c:	89a3      	ldrh	r3, [r4, #12]
 8002f3e:	4a05      	ldr	r2, [pc, #20]	@ (8002f54 <__swrite+0x34>)
 8002f40:	0028      	movs	r0, r5
 8002f42:	4013      	ands	r3, r2
 8002f44:	81a3      	strh	r3, [r4, #12]
 8002f46:	0032      	movs	r2, r6
 8002f48:	230e      	movs	r3, #14
 8002f4a:	5ee1      	ldrsh	r1, [r4, r3]
 8002f4c:	003b      	movs	r3, r7
 8002f4e:	f000 f901 	bl	8003154 <_write_r>
 8002f52:	bdf8      	pop	{r3, r4, r5, r6, r7, pc}
 8002f54:	ffffefff 	.word	0xffffefff

08002f58 <__sseek>:
 8002f58:	b570      	push	{r4, r5, r6, lr}
 8002f5a:	000c      	movs	r4, r1
 8002f5c:	250e      	movs	r5, #14
 8002f5e:	5f49      	ldrsh	r1, [r1, r5]
 8002f60:	f000 f8d0 	bl	8003104 <_lseek_r>
 8002f64:	89a3      	ldrh	r3, [r4, #12]
 8002f66:	1c42      	adds	r2, r0, #1
 8002f68:	d103      	bne.n	8002f72 <__sseek+0x1a>
 8002f6a:	4a05      	ldr	r2, [pc, #20]	@ (8002f80 <__sseek+0x28>)
 8002f6c:	4013      	ands	r3, r2
 8002f6e:	81a3      	strh	r3, [r4, #12]
 8002f70:	bd70      	pop	{r4, r5, r6, pc}
 8002f72:	2280      	movs	r2, #128	@ 0x80
 8002f74:	0152      	lsls	r2, r2, #5
 8002f76:	4313      	orrs	r3, r2
 8002f78:	81a3      	strh	r3, [r4, #12]
 8002f7a:	6560      	str	r0, [r4, #84]	@ 0x54
 8002f7c:	e7f8      	b.n	8002f70 <__sseek+0x18>
 8002f7e:	46c0      	nop			@ (mov r8, r8)
 8002f80:	ffffefff 	.word	0xffffefff

08002f84 <__sclose>:
 8002f84:	b510      	push	{r4, lr}
 8002f86:	230e      	movs	r3, #14
 8002f88:	5ec9      	ldrsh	r1, [r1, r3]
 8002f8a:	f000 f8a9 	bl	80030e0 <_close_r>
 8002f8e:	bd10      	pop	{r4, pc}

08002f90 <__swbuf_r>:
 8002f90:	b5f8      	push	{r3, r4, r5, r6, r7, lr}
 8002f92:	0006      	movs	r6, r0
 8002f94:	000d      	movs	r5, r1
 8002f96:	0014      	movs	r4, r2
 8002f98:	2800      	cmp	r0, #0
 8002f9a:	d004      	beq.n	8002fa6 <__swbuf_r+0x16>
 8002f9c:	6a03      	ldr	r3, [r0, #32]
 8002f9e:	2b00      	cmp	r3, #0
 8002fa0:	d101      	bne.n	8002fa6 <__swbuf_r+0x16>
 8002fa2:	f7ff ff15 	bl	8002dd0 <__sinit>
 8002fa6:	69a3      	ldr	r3, [r4, #24]
 8002fa8:	60a3      	str	r3, [r4, #8]
 8002faa:	89a3      	ldrh	r3, [r4, #12]
 8002fac:	071b      	lsls	r3, r3, #28
 8002fae:	d502      	bpl.n	8002fb6 <__swbuf_r+0x26>
 8002fb0:	6923      	ldr	r3, [r4, #16]
 8002fb2:	2b00      	cmp	r3, #0
 8002fb4:	d109      	bne.n	8002fca <__swbuf_r+0x3a>
 8002fb6:	0021      	movs	r1, r4
 8002fb8:	0030      	movs	r0, r6
 8002fba:	f000 f82b 	bl	8003014 <__swsetup_r>
 8002fbe:	2800      	cmp	r0, #0
 8002fc0:	d003      	beq.n	8002fca <__swbuf_r+0x3a>
 8002fc2:	2501      	movs	r5, #1
 8002fc4:	426d      	negs	r5, r5
 8002fc6:	0028      	movs	r0, r5
 8002fc8:	bdf8      	pop	{r3, r4, r5, r6, r7, pc}
 8002fca:	6923      	ldr	r3, [r4, #16]
 8002fcc:	6820      	ldr	r0, [r4, #0]
 8002fce:	b2ef      	uxtb	r7, r5
 8002fd0:	1ac0      	subs	r0, r0, r3
 8002fd2:	6963      	ldr	r3, [r4, #20]
 8002fd4:	b2ed      	uxtb	r5, r5
 8002fd6:	4283      	cmp	r3, r0
 8002fd8:	dc05      	bgt.n	8002fe6 <__swbuf_r+0x56>
 8002fda:	0021      	movs	r1, r4
 8002fdc:	0030      	movs	r0, r6
 8002fde:	f000 fa7d 	bl	80034dc <_fflush_r>
 8002fe2:	2800      	cmp	r0, #0
 8002fe4:	d1ed      	bne.n	8002fc2 <__swbuf_r+0x32>
 8002fe6:	68a3      	ldr	r3, [r4, #8]
 8002fe8:	3001      	adds	r0, #1
 8002fea:	3b01      	subs	r3, #1
 8002fec:	60a3      	str	r3, [r4, #8]
 8002fee:	6823      	ldr	r3, [r4, #0]
 8002ff0:	1c5a      	adds	r2, r3, #1
 8002ff2:	6022      	str	r2, [r4, #0]
 8002ff4:	701f      	strb	r7, [r3, #0]
 8002ff6:	6963      	ldr	r3, [r4, #20]
 8002ff8:	4283      	cmp	r3, r0
 8002ffa:	d004      	beq.n	8003006 <__swbuf_r+0x76>
 8002ffc:	89a3      	ldrh	r3, [r4, #12]
 8002ffe:	07db      	lsls	r3, r3, #31
 8003000:	d5e1      	bpl.n	8002fc6 <__swbuf_r+0x36>
 8003002:	2d0a      	cmp	r5, #10
 8003004:	d1df      	bne.n	8002fc6 <__swbuf_r+0x36>
 8003006:	0021      	movs	r1, r4
 8003008:	0030      	movs	r0, r6
 800300a:	f000 fa67 	bl	80034dc <_fflush_r>
 800300e:	2800      	cmp	r0, #0
 8003010:	d0d9      	beq.n	8002fc6 <__swbuf_r+0x36>
 8003012:	e7d6      	b.n	8002fc2 <__swbuf_r+0x32>

08003014 <__swsetup_r>:
 8003014:	4b2d      	ldr	r3, [pc, #180]	@ (80030cc <__swsetup_r+0xb8>)
 8003016:	b570      	push	{r4, r5, r6, lr}
 8003018:	0005      	movs	r5, r0
 800301a:	6818      	ldr	r0, [r3, #0]
 800301c:	000c      	movs	r4, r1
 800301e:	2800      	cmp	r0, #0
 8003020:	d004      	beq.n	800302c <__swsetup_r+0x18>
 8003022:	6a03      	ldr	r3, [r0, #32]
 8003024:	2b00      	cmp	r3, #0
 8003026:	d101      	bne.n	800302c <__swsetup_r+0x18>
 8003028:	f7ff fed2 	bl	8002dd0 <__sinit>
 800302c:	220c      	movs	r2, #12
 800302e:	5ea3      	ldrsh	r3, [r4, r2]
 8003030:	071a      	lsls	r2, r3, #28
 8003032:	d423      	bmi.n	800307c <__swsetup_r+0x68>
 8003034:	06da      	lsls	r2, r3, #27
 8003036:	d407      	bmi.n	8003048 <__swsetup_r+0x34>
 8003038:	2209      	movs	r2, #9
 800303a:	602a      	str	r2, [r5, #0]
 800303c:	2240      	movs	r2, #64	@ 0x40
 800303e:	2001      	movs	r0, #1
 8003040:	4313      	orrs	r3, r2
 8003042:	81a3      	strh	r3, [r4, #12]
 8003044:	4240      	negs	r0, r0
 8003046:	e03a      	b.n	80030be <__swsetup_r+0xaa>
 8003048:	075b      	lsls	r3, r3, #29
 800304a:	d513      	bpl.n	8003074 <__swsetup_r+0x60>
 800304c:	6b61      	ldr	r1, [r4, #52]	@ 0x34
 800304e:	2900      	cmp	r1, #0
 8003050:	d008      	beq.n	8003064 <__swsetup_r+0x50>
 8003052:	0023      	movs	r3, r4
 8003054:	3344      	adds	r3, #68	@ 0x44
 8003056:	4299      	cmp	r1, r3
 8003058:	d002      	beq.n	8003060 <__swsetup_r+0x4c>
 800305a:	0028      	movs	r0, r5
 800305c:	f000 f8bc 	bl	80031d8 <_free_r>
 8003060:	2300      	movs	r3, #0
 8003062:	6363      	str	r3, [r4, #52]	@ 0x34
 8003064:	2224      	movs	r2, #36	@ 0x24
 8003066:	89a3      	ldrh	r3, [r4, #12]
 8003068:	4393      	bics	r3, r2
 800306a:	81a3      	strh	r3, [r4, #12]
 800306c:	2300      	movs	r3, #0
 800306e:	6063      	str	r3, [r4, #4]
 8003070:	6923      	ldr	r3, [r4, #16]
 8003072:	6023      	str	r3, [r4, #0]
 8003074:	2308      	movs	r3, #8
 8003076:	89a2      	ldrh	r2, [r4, #12]
 8003078:	4313      	orrs	r3, r2
 800307a:	81a3      	strh	r3, [r4, #12]
 800307c:	6923      	ldr	r3, [r4, #16]
 800307e:	2b00      	cmp	r3, #0
 8003080:	d10b      	bne.n	800309a <__swsetup_r+0x86>
 8003082:	21a0      	movs	r1, #160	@ 0xa0
 8003084:	2280      	movs	r2, #128	@ 0x80
 8003086:	89a3      	ldrh	r3, [r4, #12]
 8003088:	0089      	lsls	r1, r1, #2
 800308a:	0092      	lsls	r2, r2, #2
 800308c:	400b      	ands	r3, r1
 800308e:	4293      	cmp	r3, r2
 8003090:	d003      	beq.n	800309a <__swsetup_r+0x86>
 8003092:	0021      	movs	r1, r4
 8003094:	0028      	movs	r0, r5
 8003096:	f000 fa77 	bl	8003588 <__smakebuf_r>
 800309a:	220c      	movs	r2, #12
 800309c:	5ea3      	ldrsh	r3, [r4, r2]
 800309e:	2101      	movs	r1, #1
 80030a0:	001a      	movs	r2, r3
 80030a2:	400a      	ands	r2, r1
 80030a4:	420b      	tst	r3, r1
 80030a6:	d00b      	beq.n	80030c0 <__swsetup_r+0xac>
 80030a8:	2200      	movs	r2, #0
 80030aa:	60a2      	str	r2, [r4, #8]
 80030ac:	6962      	ldr	r2, [r4, #20]
 80030ae:	4252      	negs	r2, r2
 80030b0:	61a2      	str	r2, [r4, #24]
 80030b2:	2000      	movs	r0, #0
 80030b4:	6922      	ldr	r2, [r4, #16]
 80030b6:	4282      	cmp	r2, r0
 80030b8:	d101      	bne.n	80030be <__swsetup_r+0xaa>
 80030ba:	061a      	lsls	r2, r3, #24
 80030bc:	d4be      	bmi.n	800303c <__swsetup_r+0x28>
 80030be:	bd70      	pop	{r4, r5, r6, pc}
 80030c0:	0799      	lsls	r1, r3, #30
 80030c2:	d400      	bmi.n	80030c6 <__swsetup_r+0xb2>
 80030c4:	6962      	ldr	r2, [r4, #20]
 80030c6:	60a2      	str	r2, [r4, #8]
 80030c8:	e7f3      	b.n	80030b2 <__swsetup_r+0x9e>
 80030ca:	46c0      	nop			@ (mov r8, r8)
 80030cc:	20000018 	.word	0x20000018

080030d0 <memset>:
 80030d0:	0003      	movs	r3, r0
 80030d2:	1882      	adds	r2, r0, r2
 80030d4:	4293      	cmp	r3, r2
 80030d6:	d100      	bne.n	80030da <memset+0xa>
 80030d8:	4770      	bx	lr
 80030da:	7019      	strb	r1, [r3, #0]
 80030dc:	3301      	adds	r3, #1
 80030de:	e7f9      	b.n	80030d4 <memset+0x4>

080030e0 <_close_r>:
 80030e0:	2300      	movs	r3, #0
 80030e2:	b570      	push	{r4, r5, r6, lr}
 80030e4:	4d06      	ldr	r5, [pc, #24]	@ (8003100 <_close_r+0x20>)
 80030e6:	0004      	movs	r4, r0
 80030e8:	0008      	movs	r0, r1
 80030ea:	602b      	str	r3, [r5, #0]
 80030ec:	f7fd fc86 	bl	80009fc <_close>
 80030f0:	1c43      	adds	r3, r0, #1
 80030f2:	d103      	bne.n	80030fc <_close_r+0x1c>
 80030f4:	682b      	ldr	r3, [r5, #0]
 80030f6:	2b00      	cmp	r3, #0
 80030f8:	d000      	beq.n	80030fc <_close_r+0x1c>
 80030fa:	6023      	str	r3, [r4, #0]
 80030fc:	bd70      	pop	{r4, r5, r6, pc}
 80030fe:	46c0      	nop			@ (mov r8, r8)
 8003100:	2000025c 	.word	0x2000025c

08003104 <_lseek_r>:
 8003104:	b570      	push	{r4, r5, r6, lr}
 8003106:	0004      	movs	r4, r0
 8003108:	0008      	movs	r0, r1
 800310a:	0011      	movs	r1, r2
 800310c:	001a      	movs	r2, r3
 800310e:	2300      	movs	r3, #0
 8003110:	4d05      	ldr	r5, [pc, #20]	@ (8003128 <_lseek_r+0x24>)
 8003112:	602b      	str	r3, [r5, #0]
 8003114:	f7fd fc93 	bl	8000a3e <_lseek>
 8003118:	1c43      	adds	r3, r0, #1
 800311a:	d103      	bne.n	8003124 <_lseek_r+0x20>
 800311c:	682b      	ldr	r3, [r5, #0]
 800311e:	2b00      	cmp	r3, #0
 8003120:	d000      	beq.n	8003124 <_lseek_r+0x20>
 8003122:	6023      	str	r3, [r4, #0]
 8003124:	bd70      	pop	{r4, r5, r6, pc}
 8003126:	46c0      	nop			@ (mov r8, r8)
 8003128:	2000025c 	.word	0x2000025c

0800312c <_read_r>:
 800312c:	b570      	push	{r4, r5, r6, lr}
 800312e:	0004      	movs	r4, r0
 8003130:	0008      	movs	r0, r1
 8003132:	0011      	movs	r1, r2
 8003134:	001a      	movs	r2, r3
 8003136:	2300      	movs	r3, #0
 8003138:	4d05      	ldr	r5, [pc, #20]	@ (8003150 <_read_r+0x24>)
 800313a:	602b      	str	r3, [r5, #0]
 800313c:	f7fd fc41 	bl	80009c2 <_read>
 8003140:	1c43      	adds	r3, r0, #1
 8003142:	d103      	bne.n	800314c <_read_r+0x20>
 8003144:	682b      	ldr	r3, [r5, #0]
 8003146:	2b00      	cmp	r3, #0
 8003148:	d000      	beq.n	800314c <_read_r+0x20>
 800314a:	6023      	str	r3, [r4, #0]
 800314c:	bd70      	pop	{r4, r5, r6, pc}
 800314e:	46c0      	nop			@ (mov r8, r8)
 8003150:	2000025c 	.word	0x2000025c

08003154 <_write_r>:
 8003154:	b570      	push	{r4, r5, r6, lr}
 8003156:	0004      	movs	r4, r0
 8003158:	0008      	movs	r0, r1
 800315a:	0011      	movs	r1, r2
 800315c:	001a      	movs	r2, r3
 800315e:	2300      	movs	r3, #0
 8003160:	4d05      	ldr	r5, [pc, #20]	@ (8003178 <_write_r+0x24>)
 8003162:	602b      	str	r3, [r5, #0]
 8003164:	f7fd fb7e 	bl	8000864 <_write>
 8003168:	1c43      	adds	r3, r0, #1
 800316a:	d103      	bne.n	8003174 <_write_r+0x20>
 800316c:	682b      	ldr	r3, [r5, #0]
 800316e:	2b00      	cmp	r3, #0
 8003170:	d000      	beq.n	8003174 <_write_r+0x20>
 8003172:	6023      	str	r3, [r4, #0]
 8003174:	bd70      	pop	{r4, r5, r6, pc}
 8003176:	46c0      	nop			@ (mov r8, r8)
 8003178:	2000025c 	.word	0x2000025c

0800317c <__errno>:
 800317c:	4b01      	ldr	r3, [pc, #4]	@ (8003184 <__errno+0x8>)
 800317e:	6818      	ldr	r0, [r3, #0]
 8003180:	4770      	bx	lr
 8003182:	46c0      	nop			@ (mov r8, r8)
 8003184:	20000018 	.word	0x20000018

08003188 <__libc_init_array>:
 8003188:	b570      	push	{r4, r5, r6, lr}
 800318a:	2600      	movs	r6, #0
 800318c:	4c0c      	ldr	r4, [pc, #48]	@ (80031c0 <__libc_init_array+0x38>)
 800318e:	4d0d      	ldr	r5, [pc, #52]	@ (80031c4 <__libc_init_array+0x3c>)
 8003190:	1b64      	subs	r4, r4, r5
 8003192:	10a4      	asrs	r4, r4, #2
 8003194:	42a6      	cmp	r6, r4
 8003196:	d109      	bne.n	80031ac <__libc_init_array+0x24>
 8003198:	2600      	movs	r6, #0
 800319a:	f000 fa6d 	bl	8003678 <_init>
 800319e:	4c0a      	ldr	r4, [pc, #40]	@ (80031c8 <__libc_init_array+0x40>)
 80031a0:	4d0a      	ldr	r5, [pc, #40]	@ (80031cc <__libc_init_array+0x44>)
 80031a2:	1b64      	subs	r4, r4, r5
 80031a4:	10a4      	asrs	r4, r4, #2
 80031a6:	42a6      	cmp	r6, r4
 80031a8:	d105      	bne.n	80031b6 <__libc_init_array+0x2e>
 80031aa:	bd70      	pop	{r4, r5, r6, pc}
 80031ac:	00b3      	lsls	r3, r6, #2
 80031ae:	58eb      	ldr	r3, [r5, r3]
 80031b0:	4798      	blx	r3
 80031b2:	3601      	adds	r6, #1
 80031b4:	e7ee      	b.n	8003194 <__libc_init_array+0xc>
 80031b6:	00b3      	lsls	r3, r6, #2
 80031b8:	58eb      	ldr	r3, [r5, r3]
 80031ba:	4798      	blx	r3
 80031bc:	3601      	adds	r6, #1
 80031be:	e7f2      	b.n	80031a6 <__libc_init_array+0x1e>
 80031c0:	08003770 	.word	0x08003770
 80031c4:	08003770 	.word	0x08003770
 80031c8:	08003774 	.word	0x08003774
 80031cc:	08003770 	.word	0x08003770

080031d0 <__retarget_lock_init_recursive>:
 80031d0:	4770      	bx	lr

080031d2 <__retarget_lock_acquire_recursive>:
 80031d2:	4770      	bx	lr

080031d4 <__retarget_lock_release_recursive>:
 80031d4:	4770      	bx	lr
	...

080031d8 <_free_r>:
 80031d8:	b570      	push	{r4, r5, r6, lr}
 80031da:	0005      	movs	r5, r0
 80031dc:	1e0c      	subs	r4, r1, #0
 80031de:	d010      	beq.n	8003202 <_free_r+0x2a>
 80031e0:	3c04      	subs	r4, #4
 80031e2:	6823      	ldr	r3, [r4, #0]
 80031e4:	2b00      	cmp	r3, #0
 80031e6:	da00      	bge.n	80031ea <_free_r+0x12>
 80031e8:	18e4      	adds	r4, r4, r3
 80031ea:	0028      	movs	r0, r5
 80031ec:	f000 f8e0 	bl	80033b0 <__malloc_lock>
 80031f0:	4a1d      	ldr	r2, [pc, #116]	@ (8003268 <_free_r+0x90>)
 80031f2:	6813      	ldr	r3, [r2, #0]
 80031f4:	2b00      	cmp	r3, #0
 80031f6:	d105      	bne.n	8003204 <_free_r+0x2c>
 80031f8:	6063      	str	r3, [r4, #4]
 80031fa:	6014      	str	r4, [r2, #0]
 80031fc:	0028      	movs	r0, r5
 80031fe:	f000 f8df 	bl	80033c0 <__malloc_unlock>
 8003202:	bd70      	pop	{r4, r5, r6, pc}
 8003204:	42a3      	cmp	r3, r4
 8003206:	d908      	bls.n	800321a <_free_r+0x42>
 8003208:	6820      	ldr	r0, [r4, #0]
 800320a:	1821      	adds	r1, r4, r0
 800320c:	428b      	cmp	r3, r1
 800320e:	d1f3      	bne.n	80031f8 <_free_r+0x20>
 8003210:	6819      	ldr	r1, [r3, #0]
 8003212:	685b      	ldr	r3, [r3, #4]
 8003214:	1809      	adds	r1, r1, r0
 8003216:	6021      	str	r1, [r4, #0]
 8003218:	e7ee      	b.n	80031f8 <_free_r+0x20>
 800321a:	001a      	movs	r2, r3
 800321c:	685b      	ldr	r3, [r3, #4]
 800321e:	2b00      	cmp	r3, #0
 8003220:	d001      	beq.n	8003226 <_free_r+0x4e>
 8003222:	42a3      	cmp	r3, r4
 8003224:	d9f9      	bls.n	800321a <_free_r+0x42>
 8003226:	6811      	ldr	r1, [r2, #0]
 8003228:	1850      	adds	r0, r2, r1
 800322a:	42a0      	cmp	r0, r4
 800322c:	d10b      	bne.n	8003246 <_free_r+0x6e>
 800322e:	6820      	ldr	r0, [r4, #0]
 8003230:	1809      	adds	r1, r1, r0
 8003232:	1850      	adds	r0, r2, r1
 8003234:	6011      	str	r1, [r2, #0]
 8003236:	4283      	cmp	r3, r0
 8003238:	d1e0      	bne.n	80031fc <_free_r+0x24>
 800323a:	6818      	ldr	r0, [r3, #0]
 800323c:	685b      	ldr	r3, [r3, #4]
 800323e:	1841      	adds	r1, r0, r1
 8003240:	6011      	str	r1, [r2, #0]
 8003242:	6053      	str	r3, [r2, #4]
 8003244:	e7da      	b.n	80031fc <_free_r+0x24>
 8003246:	42a0      	cmp	r0, r4
 8003248:	d902      	bls.n	8003250 <_free_r+0x78>
 800324a:	230c      	movs	r3, #12
 800324c:	602b      	str	r3, [r5, #0]
 800324e:	e7d5      	b.n	80031fc <_free_r+0x24>
 8003250:	6820      	ldr	r0, [r4, #0]
 8003252:	1821      	adds	r1, r4, r0
 8003254:	428b      	cmp	r3, r1
 8003256:	d103      	bne.n	8003260 <_free_r+0x88>
 8003258:	6819      	ldr	r1, [r3, #0]
 800325a:	685b      	ldr	r3, [r3, #4]
 800325c:	1809      	adds	r1, r1, r0
 800325e:	6021      	str	r1, [r4, #0]
 8003260:	6063      	str	r3, [r4, #4]
 8003262:	6054      	str	r4, [r2, #4]
 8003264:	e7ca      	b.n	80031fc <_free_r+0x24>
 8003266:	46c0      	nop			@ (mov r8, r8)
 8003268:	20000268 	.word	0x20000268

0800326c <sbrk_aligned>:
 800326c:	b570      	push	{r4, r5, r6, lr}
 800326e:	4e0f      	ldr	r6, [pc, #60]	@ (80032ac <sbrk_aligned+0x40>)
 8003270:	000d      	movs	r5, r1
 8003272:	6831      	ldr	r1, [r6, #0]
 8003274:	0004      	movs	r4, r0
 8003276:	2900      	cmp	r1, #0
 8003278:	d102      	bne.n	8003280 <sbrk_aligned+0x14>
 800327a:	f000 f9eb 	bl	8003654 <_sbrk_r>
 800327e:	6030      	str	r0, [r6, #0]
 8003280:	0029      	movs	r1, r5
 8003282:	0020      	movs	r0, r4
 8003284:	f000 f9e6 	bl	8003654 <_sbrk_r>
 8003288:	1c43      	adds	r3, r0, #1
 800328a:	d103      	bne.n	8003294 <sbrk_aligned+0x28>
 800328c:	2501      	movs	r5, #1
 800328e:	426d      	negs	r5, r5
 8003290:	0028      	movs	r0, r5
 8003292:	bd70      	pop	{r4, r5, r6, pc}
 8003294:	2303      	movs	r3, #3
 8003296:	1cc5      	adds	r5, r0, #3
 8003298:	439d      	bics	r5, r3
 800329a:	42a8      	cmp	r0, r5
 800329c:	d0f8      	beq.n	8003290 <sbrk_aligned+0x24>
 800329e:	1a29      	subs	r1, r5, r0
 80032a0:	0020      	movs	r0, r4
 80032a2:	f000 f9d7 	bl	8003654 <_sbrk_r>
 80032a6:	3001      	adds	r0, #1
 80032a8:	d1f2      	bne.n	8003290 <sbrk_aligned+0x24>
 80032aa:	e7ef      	b.n	800328c <sbrk_aligned+0x20>
 80032ac:	20000264 	.word	0x20000264

080032b0 <_malloc_r>:
 80032b0:	b5f7      	push	{r0, r1, r2, r4, r5, r6, r7, lr}
 80032b2:	2203      	movs	r2, #3
 80032b4:	1ccb      	adds	r3, r1, #3
 80032b6:	4393      	bics	r3, r2
 80032b8:	3308      	adds	r3, #8
 80032ba:	0005      	movs	r5, r0
 80032bc:	001f      	movs	r7, r3
 80032be:	2b0c      	cmp	r3, #12
 80032c0:	d234      	bcs.n	800332c <_malloc_r+0x7c>
 80032c2:	270c      	movs	r7, #12
 80032c4:	42b9      	cmp	r1, r7
 80032c6:	d833      	bhi.n	8003330 <_malloc_r+0x80>
 80032c8:	0028      	movs	r0, r5
 80032ca:	f000 f871 	bl	80033b0 <__malloc_lock>
 80032ce:	4e37      	ldr	r6, [pc, #220]	@ (80033ac <_malloc_r+0xfc>)
 80032d0:	6833      	ldr	r3, [r6, #0]
 80032d2:	001c      	movs	r4, r3
 80032d4:	2c00      	cmp	r4, #0
 80032d6:	d12f      	bne.n	8003338 <_malloc_r+0x88>
 80032d8:	0039      	movs	r1, r7
 80032da:	0028      	movs	r0, r5
 80032dc:	f7ff ffc6 	bl	800326c <sbrk_aligned>
 80032e0:	0004      	movs	r4, r0
 80032e2:	1c43      	adds	r3, r0, #1
 80032e4:	d15f      	bne.n	80033a6 <_malloc_r+0xf6>
 80032e6:	6834      	ldr	r4, [r6, #0]
 80032e8:	9400      	str	r4, [sp, #0]
 80032ea:	9b00      	ldr	r3, [sp, #0]
 80032ec:	2b00      	cmp	r3, #0
 80032ee:	d14a      	bne.n	8003386 <_malloc_r+0xd6>
 80032f0:	2c00      	cmp	r4, #0
 80032f2:	d052      	beq.n	800339a <_malloc_r+0xea>
 80032f4:	6823      	ldr	r3, [r4, #0]
 80032f6:	0028      	movs	r0, r5
 80032f8:	18e3      	adds	r3, r4, r3
 80032fa:	9900      	ldr	r1, [sp, #0]
 80032fc:	9301      	str	r3, [sp, #4]
 80032fe:	f000 f9a9 	bl	8003654 <_sbrk_r>
 8003302:	9b01      	ldr	r3, [sp, #4]
 8003304:	4283      	cmp	r3, r0
 8003306:	d148      	bne.n	800339a <_malloc_r+0xea>
 8003308:	6823      	ldr	r3, [r4, #0]
 800330a:	0028      	movs	r0, r5
 800330c:	1aff      	subs	r7, r7, r3
 800330e:	0039      	movs	r1, r7
 8003310:	f7ff ffac 	bl	800326c <sbrk_aligned>
 8003314:	3001      	adds	r0, #1
 8003316:	d040      	beq.n	800339a <_malloc_r+0xea>
 8003318:	6823      	ldr	r3, [r4, #0]
 800331a:	19db      	adds	r3, r3, r7
 800331c:	6023      	str	r3, [r4, #0]
 800331e:	6833      	ldr	r3, [r6, #0]
 8003320:	685a      	ldr	r2, [r3, #4]
 8003322:	2a00      	cmp	r2, #0
 8003324:	d133      	bne.n	800338e <_malloc_r+0xde>
 8003326:	9b00      	ldr	r3, [sp, #0]
 8003328:	6033      	str	r3, [r6, #0]
 800332a:	e019      	b.n	8003360 <_malloc_r+0xb0>
 800332c:	2b00      	cmp	r3, #0
 800332e:	dac9      	bge.n	80032c4 <_malloc_r+0x14>
 8003330:	230c      	movs	r3, #12
 8003332:	602b      	str	r3, [r5, #0]
 8003334:	2000      	movs	r0, #0
 8003336:	bdfe      	pop	{r1, r2, r3, r4, r5, r6, r7, pc}
 8003338:	6821      	ldr	r1, [r4, #0]
 800333a:	1bc9      	subs	r1, r1, r7
 800333c:	d420      	bmi.n	8003380 <_malloc_r+0xd0>
 800333e:	290b      	cmp	r1, #11
 8003340:	d90a      	bls.n	8003358 <_malloc_r+0xa8>
 8003342:	19e2      	adds	r2, r4, r7
 8003344:	6027      	str	r7, [r4, #0]
 8003346:	42a3      	cmp	r3, r4
 8003348:	d104      	bne.n	8003354 <_malloc_r+0xa4>
 800334a:	6032      	str	r2, [r6, #0]
 800334c:	6863      	ldr	r3, [r4, #4]
 800334e:	6011      	str	r1, [r2, #0]
 8003350:	6053      	str	r3, [r2, #4]
 8003352:	e005      	b.n	8003360 <_malloc_r+0xb0>
 8003354:	605a      	str	r2, [r3, #4]
 8003356:	e7f9      	b.n	800334c <_malloc_r+0x9c>
 8003358:	6862      	ldr	r2, [r4, #4]
 800335a:	42a3      	cmp	r3, r4
 800335c:	d10e      	bne.n	800337c <_malloc_r+0xcc>
 800335e:	6032      	str	r2, [r6, #0]
 8003360:	0028      	movs	r0, r5
 8003362:	f000 f82d 	bl	80033c0 <__malloc_unlock>
 8003366:	0020      	movs	r0, r4
 8003368:	2207      	movs	r2, #7
 800336a:	300b      	adds	r0, #11
 800336c:	1d23      	adds	r3, r4, #4
 800336e:	4390      	bics	r0, r2
 8003370:	1ac2      	subs	r2, r0, r3
 8003372:	4298      	cmp	r0, r3
 8003374:	d0df      	beq.n	8003336 <_malloc_r+0x86>
 8003376:	1a1b      	subs	r3, r3, r0
 8003378:	50a3      	str	r3, [r4, r2]
 800337a:	e7dc      	b.n	8003336 <_malloc_r+0x86>
 800337c:	605a      	str	r2, [r3, #4]
 800337e:	e7ef      	b.n	8003360 <_malloc_r+0xb0>
 8003380:	0023      	movs	r3, r4
 8003382:	6864      	ldr	r4, [r4, #4]
 8003384:	e7a6      	b.n	80032d4 <_malloc_r+0x24>
 8003386:	9c00      	ldr	r4, [sp, #0]
 8003388:	6863      	ldr	r3, [r4, #4]
 800338a:	9300      	str	r3, [sp, #0]
 800338c:	e7ad      	b.n	80032ea <_malloc_r+0x3a>
 800338e:	001a      	movs	r2, r3
 8003390:	685b      	ldr	r3, [r3, #4]
 8003392:	42a3      	cmp	r3, r4
 8003394:	d1fb      	bne.n	800338e <_malloc_r+0xde>
 8003396:	2300      	movs	r3, #0
 8003398:	e7da      	b.n	8003350 <_malloc_r+0xa0>
 800339a:	230c      	movs	r3, #12
 800339c:	0028      	movs	r0, r5
 800339e:	602b      	str	r3, [r5, #0]
 80033a0:	f000 f80e 	bl	80033c0 <__malloc_unlock>
 80033a4:	e7c6      	b.n	8003334 <_malloc_r+0x84>
 80033a6:	6007      	str	r7, [r0, #0]
 80033a8:	e7da      	b.n	8003360 <_malloc_r+0xb0>
 80033aa:	46c0      	nop			@ (mov r8, r8)
 80033ac:	20000268 	.word	0x20000268

080033b0 <__malloc_lock>:
 80033b0:	b510      	push	{r4, lr}
 80033b2:	4802      	ldr	r0, [pc, #8]	@ (80033bc <__malloc_lock+0xc>)
 80033b4:	f7ff ff0d 	bl	80031d2 <__retarget_lock_acquire_recursive>
 80033b8:	bd10      	pop	{r4, pc}
 80033ba:	46c0      	nop			@ (mov r8, r8)
 80033bc:	20000260 	.word	0x20000260

080033c0 <__malloc_unlock>:
 80033c0:	b510      	push	{r4, lr}
 80033c2:	4802      	ldr	r0, [pc, #8]	@ (80033cc <__malloc_unlock+0xc>)
 80033c4:	f7ff ff06 	bl	80031d4 <__retarget_lock_release_recursive>
 80033c8:	bd10      	pop	{r4, pc}
 80033ca:	46c0      	nop			@ (mov r8, r8)
 80033cc:	20000260 	.word	0x20000260

080033d0 <__sflush_r>:
 80033d0:	b5f7      	push	{r0, r1, r2, r4, r5, r6, r7, lr}
 80033d2:	220c      	movs	r2, #12
 80033d4:	5e8b      	ldrsh	r3, [r1, r2]
 80033d6:	0005      	movs	r5, r0
 80033d8:	000c      	movs	r4, r1
 80033da:	071a      	lsls	r2, r3, #28
 80033dc:	d456      	bmi.n	800348c <__sflush_r+0xbc>
 80033de:	684a      	ldr	r2, [r1, #4]
 80033e0:	2a00      	cmp	r2, #0
 80033e2:	dc02      	bgt.n	80033ea <__sflush_r+0x1a>
 80033e4:	6c0a      	ldr	r2, [r1, #64]	@ 0x40
 80033e6:	2a00      	cmp	r2, #0
 80033e8:	dd4e      	ble.n	8003488 <__sflush_r+0xb8>
 80033ea:	6ae7      	ldr	r7, [r4, #44]	@ 0x2c
 80033ec:	2f00      	cmp	r7, #0
 80033ee:	d04b      	beq.n	8003488 <__sflush_r+0xb8>
 80033f0:	2200      	movs	r2, #0
 80033f2:	2080      	movs	r0, #128	@ 0x80
 80033f4:	682e      	ldr	r6, [r5, #0]
 80033f6:	602a      	str	r2, [r5, #0]
 80033f8:	001a      	movs	r2, r3
 80033fa:	0140      	lsls	r0, r0, #5
 80033fc:	6a21      	ldr	r1, [r4, #32]
 80033fe:	4002      	ands	r2, r0
 8003400:	4203      	tst	r3, r0
 8003402:	d033      	beq.n	800346c <__sflush_r+0x9c>
 8003404:	6d62      	ldr	r2, [r4, #84]	@ 0x54
 8003406:	89a3      	ldrh	r3, [r4, #12]
 8003408:	075b      	lsls	r3, r3, #29
 800340a:	d506      	bpl.n	800341a <__sflush_r+0x4a>
 800340c:	6863      	ldr	r3, [r4, #4]
 800340e:	1ad2      	subs	r2, r2, r3
 8003410:	6b63      	ldr	r3, [r4, #52]	@ 0x34
 8003412:	2b00      	cmp	r3, #0
 8003414:	d001      	beq.n	800341a <__sflush_r+0x4a>
 8003416:	6c23      	ldr	r3, [r4, #64]	@ 0x40
 8003418:	1ad2      	subs	r2, r2, r3
 800341a:	2300      	movs	r3, #0
 800341c:	0028      	movs	r0, r5
 800341e:	6ae7      	ldr	r7, [r4, #44]	@ 0x2c
 8003420:	6a21      	ldr	r1, [r4, #32]
 8003422:	47b8      	blx	r7
 8003424:	89a2      	ldrh	r2, [r4, #12]
 8003426:	1c43      	adds	r3, r0, #1
 8003428:	d106      	bne.n	8003438 <__sflush_r+0x68>
 800342a:	6829      	ldr	r1, [r5, #0]
 800342c:	291d      	cmp	r1, #29
 800342e:	d846      	bhi.n	80034be <__sflush_r+0xee>
 8003430:	4b29      	ldr	r3, [pc, #164]	@ (80034d8 <__sflush_r+0x108>)
 8003432:	40cb      	lsrs	r3, r1
 8003434:	07db      	lsls	r3, r3, #31
 8003436:	d542      	bpl.n	80034be <__sflush_r+0xee>
 8003438:	2300      	movs	r3, #0
 800343a:	6063      	str	r3, [r4, #4]
 800343c:	6923      	ldr	r3, [r4, #16]
 800343e:	6023      	str	r3, [r4, #0]
 8003440:	04d2      	lsls	r2, r2, #19
 8003442:	d505      	bpl.n	8003450 <__sflush_r+0x80>
 8003444:	1c43      	adds	r3, r0, #1
 8003446:	d102      	bne.n	800344e <__sflush_r+0x7e>
 8003448:	682b      	ldr	r3, [r5, #0]
 800344a:	2b00      	cmp	r3, #0
 800344c:	d100      	bne.n	8003450 <__sflush_r+0x80>
 800344e:	6560      	str	r0, [r4, #84]	@ 0x54
 8003450:	6b61      	ldr	r1, [r4, #52]	@ 0x34
 8003452:	602e      	str	r6, [r5, #0]
 8003454:	2900      	cmp	r1, #0
 8003456:	d017      	beq.n	8003488 <__sflush_r+0xb8>
 8003458:	0023      	movs	r3, r4
 800345a:	3344      	adds	r3, #68	@ 0x44
 800345c:	4299      	cmp	r1, r3
 800345e:	d002      	beq.n	8003466 <__sflush_r+0x96>
 8003460:	0028      	movs	r0, r5
 8003462:	f7ff feb9 	bl	80031d8 <_free_r>
 8003466:	2300      	movs	r3, #0
 8003468:	6363      	str	r3, [r4, #52]	@ 0x34
 800346a:	e00d      	b.n	8003488 <__sflush_r+0xb8>
 800346c:	2301      	movs	r3, #1
 800346e:	0028      	movs	r0, r5
 8003470:	47b8      	blx	r7
 8003472:	0002      	movs	r2, r0
 8003474:	1c43      	adds	r3, r0, #1
 8003476:	d1c6      	bne.n	8003406 <__sflush_r+0x36>
 8003478:	682b      	ldr	r3, [r5, #0]
 800347a:	2b00      	cmp	r3, #0
 800347c:	d0c3      	beq.n	8003406 <__sflush_r+0x36>
 800347e:	2b1d      	cmp	r3, #29
 8003480:	d001      	beq.n	8003486 <__sflush_r+0xb6>
 8003482:	2b16      	cmp	r3, #22
 8003484:	d11a      	bne.n	80034bc <__sflush_r+0xec>
 8003486:	602e      	str	r6, [r5, #0]
 8003488:	2000      	movs	r0, #0
 800348a:	e01e      	b.n	80034ca <__sflush_r+0xfa>
 800348c:	690e      	ldr	r6, [r1, #16]
 800348e:	2e00      	cmp	r6, #0
 8003490:	d0fa      	beq.n	8003488 <__sflush_r+0xb8>
 8003492:	680f      	ldr	r7, [r1, #0]
 8003494:	600e      	str	r6, [r1, #0]
 8003496:	1bba      	subs	r2, r7, r6
 8003498:	9201      	str	r2, [sp, #4]
 800349a:	2200      	movs	r2, #0
 800349c:	079b      	lsls	r3, r3, #30
 800349e:	d100      	bne.n	80034a2 <__sflush_r+0xd2>
 80034a0:	694a      	ldr	r2, [r1, #20]
 80034a2:	60a2      	str	r2, [r4, #8]
 80034a4:	9b01      	ldr	r3, [sp, #4]
 80034a6:	2b00      	cmp	r3, #0
 80034a8:	ddee      	ble.n	8003488 <__sflush_r+0xb8>
 80034aa:	6aa3      	ldr	r3, [r4, #40]	@ 0x28
 80034ac:	0032      	movs	r2, r6
 80034ae:	001f      	movs	r7, r3
 80034b0:	0028      	movs	r0, r5
 80034b2:	9b01      	ldr	r3, [sp, #4]
 80034b4:	6a21      	ldr	r1, [r4, #32]
 80034b6:	47b8      	blx	r7
 80034b8:	2800      	cmp	r0, #0
 80034ba:	dc07      	bgt.n	80034cc <__sflush_r+0xfc>
 80034bc:	89a2      	ldrh	r2, [r4, #12]
 80034be:	2340      	movs	r3, #64	@ 0x40
 80034c0:	2001      	movs	r0, #1
 80034c2:	4313      	orrs	r3, r2
 80034c4:	b21b      	sxth	r3, r3
 80034c6:	81a3      	strh	r3, [r4, #12]
 80034c8:	4240      	negs	r0, r0
 80034ca:	bdfe      	pop	{r1, r2, r3, r4, r5, r6, r7, pc}
 80034cc:	9b01      	ldr	r3, [sp, #4]
 80034ce:	1836      	adds	r6, r6, r0
 80034d0:	1a1b      	subs	r3, r3, r0
 80034d2:	9301      	str	r3, [sp, #4]
 80034d4:	e7e6      	b.n	80034a4 <__sflush_r+0xd4>
 80034d6:	46c0      	nop			@ (mov r8, r8)
 80034d8:	20400001 	.word	0x20400001

080034dc <_fflush_r>:
 80034dc:	690b      	ldr	r3, [r1, #16]
 80034de:	b570      	push	{r4, r5, r6, lr}
 80034e0:	0005      	movs	r5, r0
 80034e2:	000c      	movs	r4, r1
 80034e4:	2b00      	cmp	r3, #0
 80034e6:	d102      	bne.n	80034ee <_fflush_r+0x12>
 80034e8:	2500      	movs	r5, #0
 80034ea:	0028      	movs	r0, r5
 80034ec:	bd70      	pop	{r4, r5, r6, pc}
 80034ee:	2800      	cmp	r0, #0
 80034f0:	d004      	beq.n	80034fc <_fflush_r+0x20>
 80034f2:	6a03      	ldr	r3, [r0, #32]
 80034f4:	2b00      	cmp	r3, #0
 80034f6:	d101      	bne.n	80034fc <_fflush_r+0x20>
 80034f8:	f7ff fc6a 	bl	8002dd0 <__sinit>
 80034fc:	220c      	movs	r2, #12
 80034fe:	5ea3      	ldrsh	r3, [r4, r2]
 8003500:	2b00      	cmp	r3, #0
 8003502:	d0f1      	beq.n	80034e8 <_fflush_r+0xc>
 8003504:	6e62      	ldr	r2, [r4, #100]	@ 0x64
 8003506:	07d2      	lsls	r2, r2, #31
 8003508:	d404      	bmi.n	8003514 <_fflush_r+0x38>
 800350a:	059b      	lsls	r3, r3, #22
 800350c:	d402      	bmi.n	8003514 <_fflush_r+0x38>
 800350e:	6da0      	ldr	r0, [r4, #88]	@ 0x58
 8003510:	f7ff fe5f 	bl	80031d2 <__retarget_lock_acquire_recursive>
 8003514:	0028      	movs	r0, r5
 8003516:	0021      	movs	r1, r4
 8003518:	f7ff ff5a 	bl	80033d0 <__sflush_r>
 800351c:	6e63      	ldr	r3, [r4, #100]	@ 0x64
 800351e:	0005      	movs	r5, r0
 8003520:	07db      	lsls	r3, r3, #31
 8003522:	d4e2      	bmi.n	80034ea <_fflush_r+0xe>
 8003524:	89a3      	ldrh	r3, [r4, #12]
 8003526:	059b      	lsls	r3, r3, #22
 8003528:	d4df      	bmi.n	80034ea <_fflush_r+0xe>
 800352a:	6da0      	ldr	r0, [r4, #88]	@ 0x58
 800352c:	f7ff fe52 	bl	80031d4 <__retarget_lock_release_recursive>
 8003530:	e7db      	b.n	80034ea <_fflush_r+0xe>
	...

08003534 <__swhatbuf_r>:
 8003534:	b570      	push	{r4, r5, r6, lr}
 8003536:	000e      	movs	r6, r1
 8003538:	001d      	movs	r5, r3
 800353a:	230e      	movs	r3, #14
 800353c:	5ec9      	ldrsh	r1, [r1, r3]
 800353e:	0014      	movs	r4, r2
 8003540:	b096      	sub	sp, #88	@ 0x58
 8003542:	2900      	cmp	r1, #0
 8003544:	da0c      	bge.n	8003560 <__swhatbuf_r+0x2c>
 8003546:	89b2      	ldrh	r2, [r6, #12]
 8003548:	2380      	movs	r3, #128	@ 0x80
 800354a:	0011      	movs	r1, r2
 800354c:	4019      	ands	r1, r3
 800354e:	421a      	tst	r2, r3
 8003550:	d114      	bne.n	800357c <__swhatbuf_r+0x48>
 8003552:	2380      	movs	r3, #128	@ 0x80
 8003554:	00db      	lsls	r3, r3, #3
 8003556:	2000      	movs	r0, #0
 8003558:	6029      	str	r1, [r5, #0]
 800355a:	6023      	str	r3, [r4, #0]
 800355c:	b016      	add	sp, #88	@ 0x58
 800355e:	bd70      	pop	{r4, r5, r6, pc}
 8003560:	466a      	mov	r2, sp
 8003562:	f000 f853 	bl	800360c <_fstat_r>
 8003566:	2800      	cmp	r0, #0
 8003568:	dbed      	blt.n	8003546 <__swhatbuf_r+0x12>
 800356a:	23f0      	movs	r3, #240	@ 0xf0
 800356c:	9901      	ldr	r1, [sp, #4]
 800356e:	021b      	lsls	r3, r3, #8
 8003570:	4019      	ands	r1, r3
 8003572:	4b04      	ldr	r3, [pc, #16]	@ (8003584 <__swhatbuf_r+0x50>)
 8003574:	18c9      	adds	r1, r1, r3
 8003576:	424b      	negs	r3, r1
 8003578:	4159      	adcs	r1, r3
 800357a:	e7ea      	b.n	8003552 <__swhatbuf_r+0x1e>
 800357c:	2100      	movs	r1, #0
 800357e:	2340      	movs	r3, #64	@ 0x40
 8003580:	e7e9      	b.n	8003556 <__swhatbuf_r+0x22>
 8003582:	46c0      	nop			@ (mov r8, r8)
 8003584:	ffffe000 	.word	0xffffe000

08003588 <__smakebuf_r>:
 8003588:	b5f0      	push	{r4, r5, r6, r7, lr}
 800358a:	2602      	movs	r6, #2
 800358c:	898b      	ldrh	r3, [r1, #12]
 800358e:	0005      	movs	r5, r0
 8003590:	000c      	movs	r4, r1
 8003592:	b085      	sub	sp, #20
 8003594:	4233      	tst	r3, r6
 8003596:	d007      	beq.n	80035a8 <__smakebuf_r+0x20>
 8003598:	0023      	movs	r3, r4
 800359a:	3347      	adds	r3, #71	@ 0x47
 800359c:	6023      	str	r3, [r4, #0]
 800359e:	6123      	str	r3, [r4, #16]
 80035a0:	2301      	movs	r3, #1
 80035a2:	6163      	str	r3, [r4, #20]
 80035a4:	b005      	add	sp, #20
 80035a6:	bdf0      	pop	{r4, r5, r6, r7, pc}
 80035a8:	ab03      	add	r3, sp, #12
 80035aa:	aa02      	add	r2, sp, #8
 80035ac:	f7ff ffc2 	bl	8003534 <__swhatbuf_r>
 80035b0:	9f02      	ldr	r7, [sp, #8]
 80035b2:	9001      	str	r0, [sp, #4]
 80035b4:	0039      	movs	r1, r7
 80035b6:	0028      	movs	r0, r5
 80035b8:	f7ff fe7a 	bl	80032b0 <_malloc_r>
 80035bc:	2800      	cmp	r0, #0
 80035be:	d108      	bne.n	80035d2 <__smakebuf_r+0x4a>
 80035c0:	220c      	movs	r2, #12
 80035c2:	5ea3      	ldrsh	r3, [r4, r2]
 80035c4:	059a      	lsls	r2, r3, #22
 80035c6:	d4ed      	bmi.n	80035a4 <__smakebuf_r+0x1c>
 80035c8:	2203      	movs	r2, #3
 80035ca:	4393      	bics	r3, r2
 80035cc:	431e      	orrs	r6, r3
 80035ce:	81a6      	strh	r6, [r4, #12]
 80035d0:	e7e2      	b.n	8003598 <__smakebuf_r+0x10>
 80035d2:	2380      	movs	r3, #128	@ 0x80
 80035d4:	89a2      	ldrh	r2, [r4, #12]
 80035d6:	6020      	str	r0, [r4, #0]
 80035d8:	4313      	orrs	r3, r2
 80035da:	81a3      	strh	r3, [r4, #12]
 80035dc:	9b03      	ldr	r3, [sp, #12]
 80035de:	6120      	str	r0, [r4, #16]
 80035e0:	6167      	str	r7, [r4, #20]
 80035e2:	2b00      	cmp	r3, #0
 80035e4:	d00c      	beq.n	8003600 <__smakebuf_r+0x78>
 80035e6:	0028      	movs	r0, r5
 80035e8:	230e      	movs	r3, #14
 80035ea:	5ee1      	ldrsh	r1, [r4, r3]
 80035ec:	f000 f820 	bl	8003630 <_isatty_r>
 80035f0:	2800      	cmp	r0, #0
 80035f2:	d005      	beq.n	8003600 <__smakebuf_r+0x78>
 80035f4:	2303      	movs	r3, #3
 80035f6:	89a2      	ldrh	r2, [r4, #12]
 80035f8:	439a      	bics	r2, r3
 80035fa:	3b02      	subs	r3, #2
 80035fc:	4313      	orrs	r3, r2
 80035fe:	81a3      	strh	r3, [r4, #12]
 8003600:	89a3      	ldrh	r3, [r4, #12]
 8003602:	9a01      	ldr	r2, [sp, #4]
 8003604:	4313      	orrs	r3, r2
 8003606:	81a3      	strh	r3, [r4, #12]
 8003608:	e7cc      	b.n	80035a4 <__smakebuf_r+0x1c>
	...

0800360c <_fstat_r>:
 800360c:	2300      	movs	r3, #0
 800360e:	b570      	push	{r4, r5, r6, lr}
 8003610:	4d06      	ldr	r5, [pc, #24]	@ (800362c <_fstat_r+0x20>)
 8003612:	0004      	movs	r4, r0
 8003614:	0008      	movs	r0, r1
 8003616:	0011      	movs	r1, r2
 8003618:	602b      	str	r3, [r5, #0]
 800361a:	f7fd f9f9 	bl	8000a10 <_fstat>
 800361e:	1c43      	adds	r3, r0, #1
 8003620:	d103      	bne.n	800362a <_fstat_r+0x1e>
 8003622:	682b      	ldr	r3, [r5, #0]
 8003624:	2b00      	cmp	r3, #0
 8003626:	d000      	beq.n	800362a <_fstat_r+0x1e>
 8003628:	6023      	str	r3, [r4, #0]
 800362a:	bd70      	pop	{r4, r5, r6, pc}
 800362c:	2000025c 	.word	0x2000025c

08003630 <_isatty_r>:
 8003630:	2300      	movs	r3, #0
 8003632:	b570      	push	{r4, r5, r6, lr}
 8003634:	4d06      	ldr	r5, [pc, #24]	@ (8003650 <_isatty_r+0x20>)
 8003636:	0004      	movs	r4, r0
 8003638:	0008      	movs	r0, r1
 800363a:	602b      	str	r3, [r5, #0]
 800363c:	f7fd f9f6 	bl	8000a2c <_isatty>
 8003640:	1c43      	adds	r3, r0, #1
 8003642:	d103      	bne.n	800364c <_isatty_r+0x1c>
 8003644:	682b      	ldr	r3, [r5, #0]
 8003646:	2b00      	cmp	r3, #0
 8003648:	d000      	beq.n	800364c <_isatty_r+0x1c>
 800364a:	6023      	str	r3, [r4, #0]
 800364c:	bd70      	pop	{r4, r5, r6, pc}
 800364e:	46c0      	nop			@ (mov r8, r8)
 8003650:	2000025c 	.word	0x2000025c

08003654 <_sbrk_r>:
 8003654:	2300      	movs	r3, #0
 8003656:	b570      	push	{r4, r5, r6, lr}
 8003658:	4d06      	ldr	r5, [pc, #24]	@ (8003674 <_sbrk_r+0x20>)
 800365a:	0004      	movs	r4, r0
 800365c:	0008      	movs	r0, r1
 800365e:	602b      	str	r3, [r5, #0]
 8003660:	f7fd f9f8 	bl	8000a54 <_sbrk>
 8003664:	1c43      	adds	r3, r0, #1
 8003666:	d103      	bne.n	8003670 <_sbrk_r+0x1c>
 8003668:	682b      	ldr	r3, [r5, #0]
 800366a:	2b00      	cmp	r3, #0
 800366c:	d000      	beq.n	8003670 <_sbrk_r+0x1c>
 800366e:	6023      	str	r3, [r4, #0]
 8003670:	bd70      	pop	{r4, r5, r6, pc}
 8003672:	46c0      	nop			@ (mov r8, r8)
 8003674:	2000025c 	.word	0x2000025c

08003678 <_init>:
 8003678:	b5f8      	push	{r3, r4, r5, r6, r7, lr}
 800367a:	46c0      	nop			@ (mov r8, r8)
 800367c:	bcf8      	pop	{r3, r4, r5, r6, r7}
 800367e:	bc08      	pop	{r3}
 8003680:	469e      	mov	lr, r3
 8003682:	4770      	bx	lr

08003684 <_fini>:
 8003684:	b5f8      	push	{r3, r4, r5, r6, r7, lr}
 8003686:	46c0      	nop			@ (mov r8, r8)
 8003688:	bcf8      	pop	{r3, r4, r5, r6, r7}
 800368a:	bc08      	pop	{r3}
 800368c:	469e      	mov	lr, r3
 800368e:	4770      	bx	lr
